; ModuleID = 'MAXIMUM_REMOVAL_FROM_ARRAY_WHEN_REMOVAL_TIME_WAITING_TIME_emit.e85f42c9f7981058-cgu.0'
source_filename = "MAXIMUM_REMOVAL_FROM_ARRAY_WHEN_REMOVAL_TIME_WAITING_TIME_emit.e85f42c9f7981058-cgu.0"
target datalayout = "e-m:e-p270:32:32-p271:32:32-p272:64:64-i64:64-i128:128-f80:128-n8:16:32:64-S128"
target triple = "x86_64-unknown-linux-gnu"

%"core::mem::maybe_uninit::MaybeUninit<[u8; 8]>" = type { [8 x i8] }

@alloc_d1084648e479974e70c9329824bf76f9 = private unnamed_addr constant [9 x i8] c"mid > len", align 1
@alloc_e8e5fd9f509afcb950667480b3e3e42a = private unnamed_addr constant [126 x i8] c"/root/.rustup/toolchains/stable-x86_64-unknown-linux-gnu/lib/rustlib/src/rust/library/core/src/slice/sort/stable/quicksort.rs\00", align 1
@alloc_58d434a1e795f965ef82c8e9c5db822a = private unnamed_addr constant <{ ptr, [16 x i8] }> <{ ptr @alloc_e8e5fd9f509afcb950667480b3e3e42a, [16 x i8] c"}\00\00\00\00\00\00\00J\00\00\00\1F\00\00\00" }>, align 8
@alloc_0766b232215672ee1bd2195fdb153938 = private unnamed_addr constant <{ ptr, [16 x i8] }> <{ ptr @alloc_e8e5fd9f509afcb950667480b3e3e42a, [16 x i8] c"}\00\00\00\00\00\00\00D\00\00\00\17\00\00\00" }>, align 8
@alloc_93106c384452a47eae73ae95fbba5454 = private unnamed_addr constant [169 x i8] c"/root/es/vert/vert/rust_funcs/cpp_transcoder/MAXIMUM_REMOVAL_FROM_ARRAY_WHEN_REMOVAL_TIME_WAITING_TIME/MAXIMUM_REMOVAL_FROM_ARRAY_WHEN_REMOVAL_TIME_WAITING_TIME_emit.rs\00", align 1
@alloc_42c1e7ccc7513d2fb76bea5b8a3258db = private unnamed_addr constant <{ ptr, [16 x i8] }> <{ ptr @alloc_93106c384452a47eae73ae95fbba5454, [16 x i8] c"\A8\00\00\00\00\00\00\00\1A\00\00\00%\00\00\00" }>, align 8
@alloc_d1f3eb12d81bce7c64289104bf5c2fc3 = private unnamed_addr constant <{ ptr, [16 x i8] }> <{ ptr @alloc_93106c384452a47eae73ae95fbba5454, [16 x i8] c"\A8\00\00\00\00\00\00\00\1C\00\00\00\08\00\00\00" }>, align 8

; core::ptr::swap_nonoverlapping_bytes::swap_nonoverlapping_chunks
; Function Attrs: nofree norecurse nosync nounwind nonlazybind memory(argmem: readwrite, inaccessiblemem: readwrite) uwtable
define void @_ZN4core3ptr25swap_nonoverlapping_bytes26swap_nonoverlapping_chunks17heef134788e74e067E(ptr noundef captures(none) %x, ptr noundef captures(none) %y, i64 noundef range(i64 1, 0) %chunks) unnamed_addr #0 {
start:
  %xtraiter = and i64 %chunks, 1
  %0 = icmp eq i64 %chunks, 1
  br i1 %0, label %bb4.unr-lcssa, label %start.new

start.new:                                        ; preds = %start
  %unroll_iter = and i64 %chunks, -2
  br label %bb3

bb4.unr-lcssa:                                    ; preds = %bb3, %start
  %iter.sroa.0.02.unr = phi i64 [ 0, %start ], [ %_18.1, %bb3 ]
  %lcmp.mod.not = icmp eq i64 %xtraiter, 0
  br i1 %lcmp.mod.not, label %bb4, label %bb3.epil

bb3.epil:                                         ; preds = %bb4.unr-lcssa
  %_11.epil = getelementptr inbounds nuw %"core::mem::maybe_uninit::MaybeUninit<[u8; 8]>", ptr %x, i64 %iter.sroa.0.02.unr
  %_13.epil = getelementptr inbounds nuw %"core::mem::maybe_uninit::MaybeUninit<[u8; 8]>", ptr %y, i64 %iter.sroa.0.02.unr
  tail call void @llvm.experimental.noalias.scope.decl(metadata !3)
  tail call void @llvm.experimental.noalias.scope.decl(metadata !6)
  %_3.sroa.0.0.copyload.i.epil = load i64, ptr %_11.epil, align 1, !alias.scope !3, !noalias !6
  %_4.sroa.0.0.copyload.i.epil = load i64, ptr %_13.epil, align 1, !alias.scope !6, !noalias !3
  store i64 %_4.sroa.0.0.copyload.i.epil, ptr %_11.epil, align 1, !alias.scope !3, !noalias !6
  store i64 %_3.sroa.0.0.copyload.i.epil, ptr %_13.epil, align 1, !alias.scope !6, !noalias !3
  br label %bb4

bb4:                                              ; preds = %bb4.unr-lcssa, %bb3.epil
  ret void

bb3:                                              ; preds = %bb3, %start.new
  %iter.sroa.0.02 = phi i64 [ 0, %start.new ], [ %_18.1, %bb3 ]
  %niter = phi i64 [ 0, %start.new ], [ %niter.next.1, %bb3 ]
  %_18 = or disjoint i64 %iter.sroa.0.02, 1
  %_11 = getelementptr inbounds nuw %"core::mem::maybe_uninit::MaybeUninit<[u8; 8]>", ptr %x, i64 %iter.sroa.0.02
  %_13 = getelementptr inbounds nuw %"core::mem::maybe_uninit::MaybeUninit<[u8; 8]>", ptr %y, i64 %iter.sroa.0.02
  tail call void @llvm.experimental.noalias.scope.decl(metadata !3)
  tail call void @llvm.experimental.noalias.scope.decl(metadata !6)
  %_3.sroa.0.0.copyload.i = load i64, ptr %_11, align 1, !alias.scope !3, !noalias !6
  %_4.sroa.0.0.copyload.i = load i64, ptr %_13, align 1, !alias.scope !6, !noalias !3
  store i64 %_4.sroa.0.0.copyload.i, ptr %_11, align 1, !alias.scope !3, !noalias !6
  store i64 %_3.sroa.0.0.copyload.i, ptr %_13, align 1, !alias.scope !6, !noalias !3
  %_18.1 = add nuw i64 %iter.sroa.0.02, 2
  %_11.1 = getelementptr inbounds nuw %"core::mem::maybe_uninit::MaybeUninit<[u8; 8]>", ptr %x, i64 %_18
  %_13.1 = getelementptr inbounds nuw %"core::mem::maybe_uninit::MaybeUninit<[u8; 8]>", ptr %y, i64 %_18
  tail call void @llvm.experimental.noalias.scope.decl(metadata !8)
  tail call void @llvm.experimental.noalias.scope.decl(metadata !10)
  %_3.sroa.0.0.copyload.i.1 = load i64, ptr %_11.1, align 1, !alias.scope !8, !noalias !10
  %_4.sroa.0.0.copyload.i.1 = load i64, ptr %_13.1, align 1, !alias.scope !10, !noalias !8
  store i64 %_4.sroa.0.0.copyload.i.1, ptr %_11.1, align 1, !alias.scope !8, !noalias !10
  store i64 %_3.sroa.0.0.copyload.i.1, ptr %_13.1, align 1, !alias.scope !10, !noalias !8
  %niter.next.1 = add i64 %niter, 2
  %niter.ncmp.1 = icmp eq i64 %niter.next.1, %unroll_iter
  br i1 %niter.ncmp.1, label %bb4.unr-lcssa, label %bb3
}

; core::slice::sort::shared::pivot::median3_rec
; Function Attrs: nonlazybind uwtable
define noundef nonnull ptr @_ZN4core5slice4sort6shared5pivot11median3_rec17h61ea054f16077fb2E(ptr noundef %0, ptr noundef %1, ptr noundef %2, i64 noundef %n, ptr noalias noundef align 8 dereferenceable(8) %is_less) unnamed_addr #1 {
start:
  %3 = and i64 %n, 2305843009213693944
  %_6.not = icmp eq i64 %3, 0
  br i1 %_6.not, label %bb6, label %bb1

bb1:                                              ; preds = %start
  %n84 = lshr i64 %n, 3
  %count = shl nuw nsw i64 %n84, 2
  %_10 = getelementptr inbounds nuw float, ptr %0, i64 %count
  %count1 = mul nuw i64 %n84, 7
  %_13 = getelementptr inbounds nuw float, ptr %0, i64 %count1
; call core::slice::sort::shared::pivot::median3_rec
  %4 = tail call noundef ptr @_ZN4core5slice4sort6shared5pivot11median3_rec17h61ea054f16077fb2E(ptr noundef %0, ptr noundef %_10, ptr noundef %_13, i64 noundef %n84, ptr noalias noundef align 8 dereferenceable(8) %is_less)
  %_16 = getelementptr inbounds nuw float, ptr %1, i64 %count
  %_18 = getelementptr inbounds nuw float, ptr %1, i64 %count1
; call core::slice::sort::shared::pivot::median3_rec
  %5 = tail call noundef ptr @_ZN4core5slice4sort6shared5pivot11median3_rec17h61ea054f16077fb2E(ptr noundef %1, ptr noundef %_16, ptr noundef %_18, i64 noundef %n84, ptr noalias noundef align 8 dereferenceable(8) %is_less)
  %_20 = getelementptr inbounds nuw float, ptr %2, i64 %count
  %_22 = getelementptr inbounds nuw float, ptr %2, i64 %count1
; call core::slice::sort::shared::pivot::median3_rec
  %6 = tail call noundef ptr @_ZN4core5slice4sort6shared5pivot11median3_rec17h61ea054f16077fb2E(ptr noundef %2, ptr noundef %_20, ptr noundef %_22, i64 noundef %n84, ptr noalias noundef align 8 dereferenceable(8) %is_less)
  br label %bb6

bb6:                                              ; preds = %start, %bb1
  %c.sroa.0.0 = phi ptr [ %6, %bb1 ], [ %2, %start ]
  %b.sroa.0.0 = phi ptr [ %5, %bb1 ], [ %1, %start ]
  %a.sroa.0.0 = phi ptr [ %4, %bb1 ], [ %0, %start ]
  tail call void @llvm.experimental.noalias.scope.decl(metadata !12)
  tail call void @llvm.experimental.noalias.scope.decl(metadata !15)
  tail call void @llvm.experimental.noalias.scope.decl(metadata !17), !noalias !20
  tail call void @llvm.experimental.noalias.scope.decl(metadata !23), !noalias !20
  tail call void @llvm.experimental.noalias.scope.decl(metadata !25), !noalias !20
  tail call void @llvm.experimental.noalias.scope.decl(metadata !28), !noalias !20
  %_4.i.i.i = load float, ptr %a.sroa.0.0, align 4, !alias.scope !30, !noalias !31, !noundef !32
  %_5.i.i.i = load float, ptr %b.sroa.0.0, align 4, !alias.scope !33, !noalias !34, !noundef !32
  %.not.i.i.i = fcmp uno float %_4.i.i.i, %_5.i.i.i
  br i1 %.not.i.i.i, label %bb2.i.i.i, label %"_ZN5alloc5slice29_$LT$impl$u20$$u5b$T$u5d$$GT$7sort_by28_$u7b$$u7b$closure$u7d$$u7d$17h8d9a43e174231f37E.exit", !prof !35

bb2.i.i.i:                                        ; preds = %bb6
; call core::option::unwrap_failed
  tail call void @_ZN4core6option13unwrap_failed17hef2534b77b89c04fE(ptr noalias noundef readonly align 8 captures(address, read_provenance) dereferenceable(24) @alloc_42c1e7ccc7513d2fb76bea5b8a3258db) #24, !noalias !36
  unreachable

"_ZN5alloc5slice29_$LT$impl$u20$$u5b$T$u5d$$GT$7sort_by28_$u7b$$u7b$closure$u7d$$u7d$17h8d9a43e174231f37E.exit": ; preds = %bb6
  %_0.i = fcmp olt float %_4.i.i.i, %_5.i.i.i
  tail call void @llvm.experimental.noalias.scope.decl(metadata !37)
  tail call void @llvm.experimental.noalias.scope.decl(metadata !40)
  %_5.i.i.i6 = load float, ptr %c.sroa.0.0, align 4, !alias.scope !43, !noalias !46, !noundef !32
  %.not.i.i.i7 = fcmp uno float %_4.i.i.i, %_5.i.i.i6
  br i1 %.not.i.i.i7, label %bb2.i.i.i9, label %"_ZN5alloc5slice29_$LT$impl$u20$$u5b$T$u5d$$GT$7sort_by28_$u7b$$u7b$closure$u7d$$u7d$17h8d9a43e174231f37E.exit10", !prof !35

bb2.i.i.i9:                                       ; preds = %"_ZN5alloc5slice29_$LT$impl$u20$$u5b$T$u5d$$GT$7sort_by28_$u7b$$u7b$closure$u7d$$u7d$17h8d9a43e174231f37E.exit"
; call core::option::unwrap_failed
  tail call void @_ZN4core6option13unwrap_failed17hef2534b77b89c04fE(ptr noalias noundef readonly align 8 captures(address, read_provenance) dereferenceable(24) @alloc_42c1e7ccc7513d2fb76bea5b8a3258db) #24, !noalias !50
  unreachable

"_ZN5alloc5slice29_$LT$impl$u20$$u5b$T$u5d$$GT$7sort_by28_$u7b$$u7b$closure$u7d$$u7d$17h8d9a43e174231f37E.exit10": ; preds = %"_ZN5alloc5slice29_$LT$impl$u20$$u5b$T$u5d$$GT$7sort_by28_$u7b$$u7b$closure$u7d$$u7d$17h8d9a43e174231f37E.exit"
  %_0.i8 = fcmp olt float %_4.i.i.i, %_5.i.i.i6
  %7 = xor i1 %_0.i, %_0.i8
  br i1 %7, label %_ZN4core5slice4sort6shared5pivot7median317hf23c5e1b0747088cE.exit, label %bb3.i

bb3.i:                                            ; preds = %"_ZN5alloc5slice29_$LT$impl$u20$$u5b$T$u5d$$GT$7sort_by28_$u7b$$u7b$closure$u7d$$u7d$17h8d9a43e174231f37E.exit10"
  %.not.i.i.i13 = fcmp uno float %_5.i.i.i, %_5.i.i.i6
  br i1 %.not.i.i.i13, label %bb2.i.i.i15, label %"_ZN5alloc5slice29_$LT$impl$u20$$u5b$T$u5d$$GT$7sort_by28_$u7b$$u7b$closure$u7d$$u7d$17h8d9a43e174231f37E.exit16", !prof !35

bb2.i.i.i15:                                      ; preds = %bb3.i
; call core::option::unwrap_failed
  tail call void @_ZN4core6option13unwrap_failed17hef2534b77b89c04fE(ptr noalias noundef readonly align 8 captures(address, read_provenance) dereferenceable(24) @alloc_42c1e7ccc7513d2fb76bea5b8a3258db) #24, !noalias !51
  unreachable

"_ZN5alloc5slice29_$LT$impl$u20$$u5b$T$u5d$$GT$7sort_by28_$u7b$$u7b$closure$u7d$$u7d$17h8d9a43e174231f37E.exit16": ; preds = %bb3.i
  %_0.i14 = fcmp olt float %_5.i.i.i, %_5.i.i.i6
  %_12.i = xor i1 %_0.i, %_0.i14
  %c.b.i = select i1 %_12.i, ptr %c.sroa.0.0, ptr %b.sroa.0.0
  br label %_ZN4core5slice4sort6shared5pivot7median317hf23c5e1b0747088cE.exit

_ZN4core5slice4sort6shared5pivot7median317hf23c5e1b0747088cE.exit: ; preds = %"_ZN5alloc5slice29_$LT$impl$u20$$u5b$T$u5d$$GT$7sort_by28_$u7b$$u7b$closure$u7d$$u7d$17h8d9a43e174231f37E.exit10", %"_ZN5alloc5slice29_$LT$impl$u20$$u5b$T$u5d$$GT$7sort_by28_$u7b$$u7b$closure$u7d$$u7d$17h8d9a43e174231f37E.exit16"
  %_0.sroa.0.0.i = phi ptr [ %a.sroa.0.0, %"_ZN5alloc5slice29_$LT$impl$u20$$u5b$T$u5d$$GT$7sort_by28_$u7b$$u7b$closure$u7d$$u7d$17h8d9a43e174231f37E.exit10" ], [ %c.b.i, %"_ZN5alloc5slice29_$LT$impl$u20$$u5b$T$u5d$$GT$7sort_by28_$u7b$$u7b$closure$u7d$$u7d$17h8d9a43e174231f37E.exit16" ]
  ret ptr %_0.sroa.0.0.i
}

; core::slice::sort::shared::pivot::median3_rec
; Function Attrs: nofree nosync nounwind nonlazybind memory(read, inaccessiblemem: readwrite) uwtable
define noundef nonnull ptr @_ZN4core5slice4sort6shared5pivot11median3_rec17he60fb8672bea246dE(ptr noundef %0, ptr noundef %1, ptr noundef %2, i64 noundef %n, ptr noalias noundef align 8 dereferenceable(8) %is_less) unnamed_addr #2 {
start:
  %3 = and i64 %n, 2305843009213693944
  %_6.not = icmp eq i64 %3, 0
  br i1 %_6.not, label %bb6, label %bb1

bb1:                                              ; preds = %start
  %n84 = lshr i64 %n, 3
  %count = shl nuw nsw i64 %n84, 2
  %_10 = getelementptr inbounds nuw i32, ptr %0, i64 %count
  %count1 = mul nuw i64 %n84, 7
  %_13 = getelementptr inbounds nuw i32, ptr %0, i64 %count1
; call core::slice::sort::shared::pivot::median3_rec
  %4 = tail call noundef ptr @_ZN4core5slice4sort6shared5pivot11median3_rec17he60fb8672bea246dE(ptr noundef %0, ptr noundef %_10, ptr noundef %_13, i64 noundef %n84, ptr noalias noundef align 8 dereferenceable(8) %is_less)
  %_16 = getelementptr inbounds nuw i32, ptr %1, i64 %count
  %_18 = getelementptr inbounds nuw i32, ptr %1, i64 %count1
; call core::slice::sort::shared::pivot::median3_rec
  %5 = tail call noundef ptr @_ZN4core5slice4sort6shared5pivot11median3_rec17he60fb8672bea246dE(ptr noundef %1, ptr noundef %_16, ptr noundef %_18, i64 noundef %n84, ptr noalias noundef align 8 dereferenceable(8) %is_less)
  %_20 = getelementptr inbounds nuw i32, ptr %2, i64 %count
  %_22 = getelementptr inbounds nuw i32, ptr %2, i64 %count1
; call core::slice::sort::shared::pivot::median3_rec
  %6 = tail call noundef ptr @_ZN4core5slice4sort6shared5pivot11median3_rec17he60fb8672bea246dE(ptr noundef %2, ptr noundef %_20, ptr noundef %_22, i64 noundef %n84, ptr noalias noundef align 8 dereferenceable(8) %is_less)
  br label %bb6

bb6:                                              ; preds = %start, %bb1
  %c.sroa.0.0 = phi ptr [ %6, %bb1 ], [ %2, %start ]
  %b.sroa.0.0 = phi ptr [ %5, %bb1 ], [ %1, %start ]
  %a.sroa.0.0 = phi ptr [ %4, %bb1 ], [ %0, %start ]
  tail call void @llvm.experimental.noalias.scope.decl(metadata !58)
  tail call void @llvm.experimental.noalias.scope.decl(metadata !61)
  tail call void @llvm.experimental.noalias.scope.decl(metadata !63), !noalias !66
  tail call void @llvm.experimental.noalias.scope.decl(metadata !69), !noalias !66
  tail call void @llvm.experimental.noalias.scope.decl(metadata !71), !noalias !66
  tail call void @llvm.experimental.noalias.scope.decl(metadata !74), !noalias !66
  tail call void @llvm.experimental.noalias.scope.decl(metadata !76), !noalias !66
  tail call void @llvm.experimental.noalias.scope.decl(metadata !79), !noalias !66
  %_3.i.i.i.i = load i32, ptr %a.sroa.0.0, align 4, !alias.scope !81, !noalias !82, !noundef !32
  %_4.i.i.i.i = load i32, ptr %b.sroa.0.0, align 4, !alias.scope !83, !noalias !84, !noundef !32
  %_0.i = icmp slt i32 %_3.i.i.i.i, %_4.i.i.i.i
  %_4.i.i.i.i6 = load i32, ptr %c.sroa.0.0, align 4, !alias.scope !85, !noalias !94, !noundef !32
  %_0.i7 = icmp slt i32 %_3.i.i.i.i, %_4.i.i.i.i6
  %7 = xor i1 %_0.i, %_0.i7
  %_0.i10 = icmp slt i32 %_4.i.i.i.i, %_4.i.i.i.i6
  %_12.i = xor i1 %_0.i, %_0.i10
  %c.b.i = select i1 %_12.i, ptr %c.sroa.0.0, ptr %b.sroa.0.0
  %_0.sroa.0.0.i = select i1 %7, ptr %a.sroa.0.0, ptr %c.b.i
  ret ptr %_0.sroa.0.0.i
}

; core::slice::sort::shared::smallsort::insert_tail
; Function Attrs: nonlazybind uwtable
define void @_ZN4core5slice4sort6shared9smallsort11insert_tail17h1908b4afc7b83047E(ptr noundef readnone captures(address) %begin, ptr noundef captures(address) %tail, ptr noalias noundef readnone align 8 captures(none) dereferenceable(8) %is_less) unnamed_addr #1 personality ptr @rust_eh_personality {
start:
  %0 = getelementptr inbounds i8, ptr %tail, i64 -4
  tail call void @llvm.experimental.noalias.scope.decl(metadata !99)
  tail call void @llvm.experimental.noalias.scope.decl(metadata !102)
  tail call void @llvm.experimental.noalias.scope.decl(metadata !104)
  tail call void @llvm.experimental.noalias.scope.decl(metadata !107)
  tail call void @llvm.experimental.noalias.scope.decl(metadata !109)
  tail call void @llvm.experimental.noalias.scope.decl(metadata !112)
  %_4.i.i.i = load float, ptr %tail, align 4, !alias.scope !114, !noalias !115, !noundef !32
  %_5.i.i.i = load float, ptr %0, align 4, !alias.scope !115, !noalias !114, !noundef !32
  %.not.i.i.i = fcmp uno float %_4.i.i.i, %_5.i.i.i
  br i1 %.not.i.i.i, label %bb2.i.i.i, label %"_ZN5alloc5slice29_$LT$impl$u20$$u5b$T$u5d$$GT$7sort_by28_$u7b$$u7b$closure$u7d$$u7d$17h8d9a43e174231f37E.exit", !prof !35

bb2.i.i.i:                                        ; preds = %start
; call core::option::unwrap_failed
  tail call void @_ZN4core6option13unwrap_failed17hef2534b77b89c04fE(ptr noalias noundef readonly align 8 captures(address, read_provenance) dereferenceable(24) @alloc_42c1e7ccc7513d2fb76bea5b8a3258db) #24, !noalias !116
  unreachable

"_ZN5alloc5slice29_$LT$impl$u20$$u5b$T$u5d$$GT$7sort_by28_$u7b$$u7b$closure$u7d$$u7d$17h8d9a43e174231f37E.exit": ; preds = %start
  %_0.i = fcmp olt float %_4.i.i.i, %_5.i.i.i
  br i1 %_0.i, label %bb4, label %bb12

bb12:                                             ; preds = %"_ZN5alloc5slice29_$LT$impl$u20$$u5b$T$u5d$$GT$7sort_by28_$u7b$$u7b$closure$u7d$$u7d$17h8d9a43e174231f37E.exit", %bb10
  ret void

bb4:                                              ; preds = %"_ZN5alloc5slice29_$LT$impl$u20$$u5b$T$u5d$$GT$7sort_by28_$u7b$$u7b$closure$u7d$$u7d$17h8d9a43e174231f37E.exit", %"_ZN5alloc5slice29_$LT$impl$u20$$u5b$T$u5d$$GT$7sort_by28_$u7b$$u7b$closure$u7d$$u7d$17h8d9a43e174231f37E.exit6"
  %gap_guard.sroa.5.0 = phi ptr [ %sift.sroa.0.0, %"_ZN5alloc5slice29_$LT$impl$u20$$u5b$T$u5d$$GT$7sort_by28_$u7b$$u7b$closure$u7d$$u7d$17h8d9a43e174231f37E.exit6" ], [ %tail, %"_ZN5alloc5slice29_$LT$impl$u20$$u5b$T$u5d$$GT$7sort_by28_$u7b$$u7b$closure$u7d$$u7d$17h8d9a43e174231f37E.exit" ]
  %sift.sroa.0.0 = phi ptr [ %2, %"_ZN5alloc5slice29_$LT$impl$u20$$u5b$T$u5d$$GT$7sort_by28_$u7b$$u7b$closure$u7d$$u7d$17h8d9a43e174231f37E.exit6" ], [ %0, %"_ZN5alloc5slice29_$LT$impl$u20$$u5b$T$u5d$$GT$7sort_by28_$u7b$$u7b$closure$u7d$$u7d$17h8d9a43e174231f37E.exit" ]
  %1 = load i32, ptr %sift.sroa.0.0, align 4
  store i32 %1, ptr %gap_guard.sroa.5.0, align 4
  %_18 = icmp eq ptr %sift.sroa.0.0, %begin
  br i1 %_18, label %bb10, label %bb6

bb6:                                              ; preds = %bb4
  %2 = getelementptr inbounds i8, ptr %sift.sroa.0.0, i64 -4
  %_5.i.i.i2 = load float, ptr %2, align 4, !alias.scope !117, !noalias !124, !noundef !32
  %.not.i.i.i3 = fcmp uno float %_4.i.i.i, %_5.i.i.i2
  br i1 %.not.i.i.i3, label %bb2.i.i.i5, label %"_ZN5alloc5slice29_$LT$impl$u20$$u5b$T$u5d$$GT$7sort_by28_$u7b$$u7b$closure$u7d$$u7d$17h8d9a43e174231f37E.exit6", !prof !35

bb2.i.i.i5:                                       ; preds = %bb6
; invoke core::option::unwrap_failed
  invoke void @_ZN4core6option13unwrap_failed17hef2534b77b89c04fE(ptr noalias noundef readonly align 8 captures(address, read_provenance) dereferenceable(24) @alloc_42c1e7ccc7513d2fb76bea5b8a3258db) #24
          to label %.noexc unwind label %cleanup

.noexc:                                           ; preds = %bb2.i.i.i5
  unreachable

"_ZN5alloc5slice29_$LT$impl$u20$$u5b$T$u5d$$GT$7sort_by28_$u7b$$u7b$closure$u7d$$u7d$17h8d9a43e174231f37E.exit6": ; preds = %bb6
  %_0.i4 = fcmp olt float %_4.i.i.i, %_5.i.i.i2
  br i1 %_0.i4, label %bb4, label %bb10

cleanup:                                          ; preds = %bb2.i.i.i5
  %3 = landingpad { ptr, i32 }
          cleanup
  store float %_4.i.i.i, ptr %sift.sroa.0.0, align 4, !noalias !128
  resume { ptr, i32 } %3

bb10:                                             ; preds = %"_ZN5alloc5slice29_$LT$impl$u20$$u5b$T$u5d$$GT$7sort_by28_$u7b$$u7b$closure$u7d$$u7d$17h8d9a43e174231f37E.exit6", %bb4
  store float %_4.i.i.i, ptr %sift.sroa.0.0, align 4, !noalias !133
  br label %bb12
}

; core::slice::sort::shared::smallsort::insert_tail
; Function Attrs: nofree norecurse nosync nounwind nonlazybind memory(argmem: readwrite, inaccessiblemem: readwrite) uwtable
define void @_ZN4core5slice4sort6shared9smallsort11insert_tail17h38f8757d381cba91E(ptr noundef readnone captures(address) %begin, ptr noundef captures(address) %tail, ptr noalias noundef readnone align 8 captures(none) dereferenceable(8) %is_less) unnamed_addr #0 personality ptr @rust_eh_personality {
start:
  %0 = getelementptr inbounds i8, ptr %tail, i64 -4
  tail call void @llvm.experimental.noalias.scope.decl(metadata !138)
  tail call void @llvm.experimental.noalias.scope.decl(metadata !141)
  tail call void @llvm.experimental.noalias.scope.decl(metadata !143)
  tail call void @llvm.experimental.noalias.scope.decl(metadata !146)
  tail call void @llvm.experimental.noalias.scope.decl(metadata !148)
  tail call void @llvm.experimental.noalias.scope.decl(metadata !151)
  tail call void @llvm.experimental.noalias.scope.decl(metadata !153)
  tail call void @llvm.experimental.noalias.scope.decl(metadata !156)
  %_3.i.i.i.i = load i32, ptr %tail, align 4, !alias.scope !158, !noalias !159, !noundef !32
  %_4.i.i.i.i = load i32, ptr %0, align 4, !alias.scope !159, !noalias !158, !noundef !32
  %_0.i = icmp slt i32 %_3.i.i.i.i, %_4.i.i.i.i
  br i1 %_0.i, label %bb4, label %bb12

bb12:                                             ; preds = %start, %bb10
  ret void

bb4:                                              ; preds = %start, %bb6
  %gap_guard.sroa.5.0 = phi ptr [ %sift.sroa.0.0, %bb6 ], [ %tail, %start ]
  %sift.sroa.0.0 = phi ptr [ %2, %bb6 ], [ %0, %start ]
  %1 = load i32, ptr %sift.sroa.0.0, align 4
  store i32 %1, ptr %gap_guard.sroa.5.0, align 4
  %_18 = icmp eq ptr %sift.sroa.0.0, %begin
  br i1 %_18, label %bb10, label %bb6

bb6:                                              ; preds = %bb4
  %2 = getelementptr inbounds i8, ptr %sift.sroa.0.0, i64 -4
  %_4.i.i.i.i2 = load i32, ptr %2, align 4, !alias.scope !160, !noalias !169, !noundef !32
  %_0.i3 = icmp slt i32 %_3.i.i.i.i, %_4.i.i.i.i2
  br i1 %_0.i3, label %bb4, label %bb10

bb10:                                             ; preds = %bb6, %bb4
  store i32 %_3.i.i.i.i, ptr %sift.sroa.0.0, align 4, !noalias !174
  br label %bb12
}

; core::slice::sort::shared::smallsort::sort4_stable
; Function Attrs: mustprogress nofree norecurse nosync nounwind nonlazybind willreturn memory(argmem: readwrite, inaccessiblemem: readwrite) uwtable
define void @_ZN4core5slice4sort6shared9smallsort12sort4_stable17h79f208b35981e228E(ptr noundef readonly captures(none) %v_base, ptr noundef writeonly captures(none) initializes((0, 16)) %dst, ptr noalias noundef readnone align 8 captures(none) dereferenceable(8) %is_less) unnamed_addr #3 personality ptr @rust_eh_personality {
start:
  %_7 = getelementptr inbounds nuw i8, ptr %v_base, i64 4
  tail call void @llvm.experimental.noalias.scope.decl(metadata !179)
  tail call void @llvm.experimental.noalias.scope.decl(metadata !182)
  tail call void @llvm.experimental.noalias.scope.decl(metadata !184)
  tail call void @llvm.experimental.noalias.scope.decl(metadata !187)
  tail call void @llvm.experimental.noalias.scope.decl(metadata !189)
  tail call void @llvm.experimental.noalias.scope.decl(metadata !192)
  tail call void @llvm.experimental.noalias.scope.decl(metadata !194)
  tail call void @llvm.experimental.noalias.scope.decl(metadata !197)
  %_3.i.i.i.i = load i32, ptr %_7, align 4, !alias.scope !199, !noalias !200, !noundef !32
  %_4.i.i.i.i = load i32, ptr %v_base, align 4, !alias.scope !200, !noalias !199, !noundef !32
  %_0.i = icmp slt i32 %_3.i.i.i.i, %_4.i.i.i.i
  %_12 = getelementptr inbounds nuw i8, ptr %v_base, i64 12
  %_14 = getelementptr inbounds nuw i8, ptr %v_base, i64 8
  tail call void @llvm.experimental.noalias.scope.decl(metadata !201)
  tail call void @llvm.experimental.noalias.scope.decl(metadata !204)
  tail call void @llvm.experimental.noalias.scope.decl(metadata !206)
  tail call void @llvm.experimental.noalias.scope.decl(metadata !209)
  tail call void @llvm.experimental.noalias.scope.decl(metadata !211)
  tail call void @llvm.experimental.noalias.scope.decl(metadata !214)
  tail call void @llvm.experimental.noalias.scope.decl(metadata !216)
  tail call void @llvm.experimental.noalias.scope.decl(metadata !219)
  %_3.i.i.i.i7 = load i32, ptr %_12, align 4, !alias.scope !221, !noalias !222, !noundef !32
  %_4.i.i.i.i8 = load i32, ptr %_14, align 4, !alias.scope !222, !noalias !221, !noundef !32
  %_0.i9 = icmp slt i32 %_3.i.i.i.i7, %_4.i.i.i.i8
  %count = zext i1 %_0.i to i64
  %a = getelementptr inbounds nuw i32, ptr %v_base, i64 %count
  %_19 = xor i1 %_0.i, true
  %count2 = zext i1 %_19 to i64
  %b = getelementptr inbounds nuw i32, ptr %v_base, i64 %count2
  %count3 = select i1 %_0.i9, i64 3, i64 2
  %c = getelementptr inbounds nuw i32, ptr %v_base, i64 %count3
  %count4 = select i1 %_0.i9, i64 2, i64 3
  %d = getelementptr inbounds nuw i32, ptr %v_base, i64 %count4
  tail call void @llvm.experimental.noalias.scope.decl(metadata !223)
  tail call void @llvm.experimental.noalias.scope.decl(metadata !226)
  tail call void @llvm.experimental.noalias.scope.decl(metadata !228)
  tail call void @llvm.experimental.noalias.scope.decl(metadata !231)
  tail call void @llvm.experimental.noalias.scope.decl(metadata !233)
  tail call void @llvm.experimental.noalias.scope.decl(metadata !236)
  tail call void @llvm.experimental.noalias.scope.decl(metadata !238)
  tail call void @llvm.experimental.noalias.scope.decl(metadata !241)
  %_3.i.i.i.i10 = load i32, ptr %c, align 4, !alias.scope !243, !noalias !244, !noundef !32
  %_4.i.i.i.i11 = load i32, ptr %a, align 4, !alias.scope !244, !noalias !243, !noundef !32
  %_0.i12 = icmp slt i32 %_3.i.i.i.i10, %_4.i.i.i.i11
  tail call void @llvm.experimental.noalias.scope.decl(metadata !245)
  tail call void @llvm.experimental.noalias.scope.decl(metadata !248)
  tail call void @llvm.experimental.noalias.scope.decl(metadata !250)
  tail call void @llvm.experimental.noalias.scope.decl(metadata !253)
  tail call void @llvm.experimental.noalias.scope.decl(metadata !255)
  tail call void @llvm.experimental.noalias.scope.decl(metadata !258)
  tail call void @llvm.experimental.noalias.scope.decl(metadata !260)
  tail call void @llvm.experimental.noalias.scope.decl(metadata !263)
  %_3.i.i.i.i13 = load i32, ptr %d, align 4, !alias.scope !265, !noalias !266, !noundef !32
  %_4.i.i.i.i14 = load i32, ptr %b, align 4, !alias.scope !266, !noalias !265, !noundef !32
  %_0.i15 = icmp slt i32 %_3.i.i.i.i13, %_4.i.i.i.i14
  %0 = select i1 %_0.i12, ptr %c, ptr %a, !unpredictable !32
  %1 = select i1 %_0.i15, ptr %c, ptr %b, !unpredictable !32
  %2 = select i1 %_0.i12, ptr %a, ptr %1, !unpredictable !32
  %3 = select i1 %_0.i12, ptr %b, ptr %c, !unpredictable !32
  %4 = select i1 %_0.i15, ptr %d, ptr %3, !unpredictable !32
  tail call void @llvm.experimental.noalias.scope.decl(metadata !267)
  tail call void @llvm.experimental.noalias.scope.decl(metadata !270)
  tail call void @llvm.experimental.noalias.scope.decl(metadata !272)
  tail call void @llvm.experimental.noalias.scope.decl(metadata !275)
  tail call void @llvm.experimental.noalias.scope.decl(metadata !277)
  tail call void @llvm.experimental.noalias.scope.decl(metadata !280)
  tail call void @llvm.experimental.noalias.scope.decl(metadata !282)
  tail call void @llvm.experimental.noalias.scope.decl(metadata !285)
  %_3.i.i.i.i16 = load i32, ptr %4, align 4, !alias.scope !287, !noalias !288, !noundef !32
  %_4.i.i.i.i17 = load i32, ptr %2, align 4, !alias.scope !288, !noalias !287, !noundef !32
  %_0.i18 = icmp slt i32 %_3.i.i.i.i16, %_4.i.i.i.i17
  %5 = load i32, ptr %0, align 4
  store i32 %5, ptr %dst, align 4
  %dst5 = getelementptr inbounds nuw i8, ptr %dst, i64 4
  %.val = load i32, ptr %4, align 4
  %.val19 = load i32, ptr %2, align 4
  %6 = select i1 %_0.i18, i32 %.val, i32 %.val19
  store i32 %6, ptr %dst5, align 4
  %dst6 = getelementptr inbounds nuw i8, ptr %dst, i64 8
  %.val20 = load i32, ptr %2, align 4
  %.val21 = load i32, ptr %4, align 4
  %7 = select i1 %_0.i18, i32 %.val20, i32 %.val21
  store i32 %7, ptr %dst6, align 4
  %8 = getelementptr inbounds nuw i8, ptr %dst, i64 12
  %b.val = load i32, ptr %b, align 4
  %d.val = load i32, ptr %d, align 4
  %9 = select i1 %_0.i15, i32 %b.val, i32 %d.val
  store i32 %9, ptr %8, align 4
  ret void
}

; core::slice::sort::shared::smallsort::sort4_stable
; Function Attrs: nonlazybind uwtable
define void @_ZN4core5slice4sort6shared9smallsort12sort4_stable17hd377801de70c381dE(ptr noundef readonly captures(none) %v_base, ptr noundef writeonly captures(none) %dst, ptr noalias readnone align 8 captures(none) %is_less) unnamed_addr #1 personality ptr @rust_eh_personality {
start:
  %_7 = getelementptr inbounds nuw i8, ptr %v_base, i64 4
  tail call void @llvm.experimental.noalias.scope.decl(metadata !289)
  tail call void @llvm.experimental.noalias.scope.decl(metadata !292)
  tail call void @llvm.experimental.noalias.scope.decl(metadata !294)
  tail call void @llvm.experimental.noalias.scope.decl(metadata !297)
  tail call void @llvm.experimental.noalias.scope.decl(metadata !299)
  tail call void @llvm.experimental.noalias.scope.decl(metadata !302)
  %_4.i.i.i = load float, ptr %_7, align 4, !alias.scope !304, !noalias !305, !noundef !32
  %_5.i.i.i = load float, ptr %v_base, align 4, !alias.scope !305, !noalias !304, !noundef !32
  %.not.i.i.i = fcmp uno float %_4.i.i.i, %_5.i.i.i
  br i1 %.not.i.i.i, label %bb2.i.i.i, label %"_ZN5alloc5slice29_$LT$impl$u20$$u5b$T$u5d$$GT$7sort_by28_$u7b$$u7b$closure$u7d$$u7d$17h8d9a43e174231f37E.exit", !prof !35

bb2.i.i.i:                                        ; preds = %start
; call core::option::unwrap_failed
  tail call void @_ZN4core6option13unwrap_failed17hef2534b77b89c04fE(ptr noalias noundef readonly align 8 captures(address, read_provenance) dereferenceable(24) @alloc_42c1e7ccc7513d2fb76bea5b8a3258db) #24, !noalias !306
  unreachable

"_ZN5alloc5slice29_$LT$impl$u20$$u5b$T$u5d$$GT$7sort_by28_$u7b$$u7b$closure$u7d$$u7d$17h8d9a43e174231f37E.exit": ; preds = %start
  %_12 = getelementptr inbounds nuw i8, ptr %v_base, i64 12
  %_14 = getelementptr inbounds nuw i8, ptr %v_base, i64 8
  tail call void @llvm.experimental.noalias.scope.decl(metadata !307)
  tail call void @llvm.experimental.noalias.scope.decl(metadata !310)
  tail call void @llvm.experimental.noalias.scope.decl(metadata !312)
  tail call void @llvm.experimental.noalias.scope.decl(metadata !315)
  tail call void @llvm.experimental.noalias.scope.decl(metadata !317)
  tail call void @llvm.experimental.noalias.scope.decl(metadata !320)
  %_4.i.i.i7 = load float, ptr %_12, align 4, !alias.scope !322, !noalias !323, !noundef !32
  %_5.i.i.i8 = load float, ptr %_14, align 4, !alias.scope !323, !noalias !322, !noundef !32
  %.not.i.i.i9 = fcmp uno float %_4.i.i.i7, %_5.i.i.i8
  br i1 %.not.i.i.i9, label %bb2.i.i.i11, label %"_ZN5alloc5slice29_$LT$impl$u20$$u5b$T$u5d$$GT$7sort_by28_$u7b$$u7b$closure$u7d$$u7d$17h8d9a43e174231f37E.exit12", !prof !35

bb2.i.i.i11:                                      ; preds = %"_ZN5alloc5slice29_$LT$impl$u20$$u5b$T$u5d$$GT$7sort_by28_$u7b$$u7b$closure$u7d$$u7d$17h8d9a43e174231f37E.exit"
; call core::option::unwrap_failed
  tail call void @_ZN4core6option13unwrap_failed17hef2534b77b89c04fE(ptr noalias noundef readonly align 8 captures(address, read_provenance) dereferenceable(24) @alloc_42c1e7ccc7513d2fb76bea5b8a3258db) #24, !noalias !324
  unreachable

"_ZN5alloc5slice29_$LT$impl$u20$$u5b$T$u5d$$GT$7sort_by28_$u7b$$u7b$closure$u7d$$u7d$17h8d9a43e174231f37E.exit12": ; preds = %"_ZN5alloc5slice29_$LT$impl$u20$$u5b$T$u5d$$GT$7sort_by28_$u7b$$u7b$closure$u7d$$u7d$17h8d9a43e174231f37E.exit"
  %_0.i = fcmp olt float %_4.i.i.i, %_5.i.i.i
  %_0.i10 = fcmp olt float %_4.i.i.i7, %_5.i.i.i8
  %count = zext i1 %_0.i to i64
  %a = getelementptr inbounds nuw float, ptr %v_base, i64 %count
  %_19 = xor i1 %_0.i, true
  %count2 = zext i1 %_19 to i64
  %b = getelementptr inbounds nuw float, ptr %v_base, i64 %count2
  %count3 = select i1 %_0.i10, i64 3, i64 2
  %c = getelementptr inbounds nuw float, ptr %v_base, i64 %count3
  %count4 = select i1 %_0.i10, i64 2, i64 3
  %d = getelementptr inbounds nuw float, ptr %v_base, i64 %count4
  tail call void @llvm.experimental.noalias.scope.decl(metadata !325)
  tail call void @llvm.experimental.noalias.scope.decl(metadata !328)
  tail call void @llvm.experimental.noalias.scope.decl(metadata !330)
  tail call void @llvm.experimental.noalias.scope.decl(metadata !333)
  tail call void @llvm.experimental.noalias.scope.decl(metadata !335)
  tail call void @llvm.experimental.noalias.scope.decl(metadata !338)
  %_4.i.i.i13 = load float, ptr %c, align 4, !alias.scope !340, !noalias !341, !noundef !32
  %_5.i.i.i14 = load float, ptr %a, align 4, !alias.scope !341, !noalias !340, !noundef !32
  %.not.i.i.i15 = fcmp uno float %_4.i.i.i13, %_5.i.i.i14
  br i1 %.not.i.i.i15, label %bb2.i.i.i17, label %"_ZN5alloc5slice29_$LT$impl$u20$$u5b$T$u5d$$GT$7sort_by28_$u7b$$u7b$closure$u7d$$u7d$17h8d9a43e174231f37E.exit18", !prof !35

bb2.i.i.i17:                                      ; preds = %"_ZN5alloc5slice29_$LT$impl$u20$$u5b$T$u5d$$GT$7sort_by28_$u7b$$u7b$closure$u7d$$u7d$17h8d9a43e174231f37E.exit12"
; call core::option::unwrap_failed
  tail call void @_ZN4core6option13unwrap_failed17hef2534b77b89c04fE(ptr noalias noundef readonly align 8 captures(address, read_provenance) dereferenceable(24) @alloc_42c1e7ccc7513d2fb76bea5b8a3258db) #24, !noalias !342
  unreachable

"_ZN5alloc5slice29_$LT$impl$u20$$u5b$T$u5d$$GT$7sort_by28_$u7b$$u7b$closure$u7d$$u7d$17h8d9a43e174231f37E.exit18": ; preds = %"_ZN5alloc5slice29_$LT$impl$u20$$u5b$T$u5d$$GT$7sort_by28_$u7b$$u7b$closure$u7d$$u7d$17h8d9a43e174231f37E.exit12"
  tail call void @llvm.experimental.noalias.scope.decl(metadata !343)
  tail call void @llvm.experimental.noalias.scope.decl(metadata !346)
  tail call void @llvm.experimental.noalias.scope.decl(metadata !348)
  tail call void @llvm.experimental.noalias.scope.decl(metadata !351)
  tail call void @llvm.experimental.noalias.scope.decl(metadata !353)
  tail call void @llvm.experimental.noalias.scope.decl(metadata !356)
  %_4.i.i.i19 = load float, ptr %d, align 4, !alias.scope !358, !noalias !359, !noundef !32
  %_5.i.i.i20 = load float, ptr %b, align 4, !alias.scope !359, !noalias !358, !noundef !32
  %.not.i.i.i21 = fcmp uno float %_4.i.i.i19, %_5.i.i.i20
  br i1 %.not.i.i.i21, label %bb2.i.i.i23, label %"_ZN5alloc5slice29_$LT$impl$u20$$u5b$T$u5d$$GT$7sort_by28_$u7b$$u7b$closure$u7d$$u7d$17h8d9a43e174231f37E.exit24", !prof !35

bb2.i.i.i23:                                      ; preds = %"_ZN5alloc5slice29_$LT$impl$u20$$u5b$T$u5d$$GT$7sort_by28_$u7b$$u7b$closure$u7d$$u7d$17h8d9a43e174231f37E.exit18"
; call core::option::unwrap_failed
  tail call void @_ZN4core6option13unwrap_failed17hef2534b77b89c04fE(ptr noalias noundef readonly align 8 captures(address, read_provenance) dereferenceable(24) @alloc_42c1e7ccc7513d2fb76bea5b8a3258db) #24, !noalias !360
  unreachable

"_ZN5alloc5slice29_$LT$impl$u20$$u5b$T$u5d$$GT$7sort_by28_$u7b$$u7b$closure$u7d$$u7d$17h8d9a43e174231f37E.exit24": ; preds = %"_ZN5alloc5slice29_$LT$impl$u20$$u5b$T$u5d$$GT$7sort_by28_$u7b$$u7b$closure$u7d$$u7d$17h8d9a43e174231f37E.exit18"
  %_0.i16 = fcmp olt float %_4.i.i.i13, %_5.i.i.i14
  %_0.i22 = fcmp olt float %_4.i.i.i19, %_5.i.i.i20
  %0 = select i1 %_0.i22, ptr %c, ptr %b, !unpredictable !32
  %1 = select i1 %_0.i16, ptr %a, ptr %0, !unpredictable !32
  %2 = select i1 %_0.i16, ptr %b, ptr %c, !unpredictable !32
  %3 = select i1 %_0.i22, ptr %d, ptr %2, !unpredictable !32
  tail call void @llvm.experimental.noalias.scope.decl(metadata !361)
  tail call void @llvm.experimental.noalias.scope.decl(metadata !364)
  tail call void @llvm.experimental.noalias.scope.decl(metadata !366)
  tail call void @llvm.experimental.noalias.scope.decl(metadata !369)
  tail call void @llvm.experimental.noalias.scope.decl(metadata !371)
  tail call void @llvm.experimental.noalias.scope.decl(metadata !374)
  %_4.i.i.i25 = load float, ptr %3, align 4, !alias.scope !376, !noalias !377, !noundef !32
  %_5.i.i.i26 = load float, ptr %1, align 4, !alias.scope !377, !noalias !376, !noundef !32
  %.not.i.i.i27 = fcmp uno float %_4.i.i.i25, %_5.i.i.i26
  br i1 %.not.i.i.i27, label %bb2.i.i.i29, label %"_ZN5alloc5slice29_$LT$impl$u20$$u5b$T$u5d$$GT$7sort_by28_$u7b$$u7b$closure$u7d$$u7d$17h8d9a43e174231f37E.exit30", !prof !35

bb2.i.i.i29:                                      ; preds = %"_ZN5alloc5slice29_$LT$impl$u20$$u5b$T$u5d$$GT$7sort_by28_$u7b$$u7b$closure$u7d$$u7d$17h8d9a43e174231f37E.exit24"
; call core::option::unwrap_failed
  tail call void @_ZN4core6option13unwrap_failed17hef2534b77b89c04fE(ptr noalias noundef readonly align 8 captures(address, read_provenance) dereferenceable(24) @alloc_42c1e7ccc7513d2fb76bea5b8a3258db) #24, !noalias !378
  unreachable

"_ZN5alloc5slice29_$LT$impl$u20$$u5b$T$u5d$$GT$7sort_by28_$u7b$$u7b$closure$u7d$$u7d$17h8d9a43e174231f37E.exit30": ; preds = %"_ZN5alloc5slice29_$LT$impl$u20$$u5b$T$u5d$$GT$7sort_by28_$u7b$$u7b$closure$u7d$$u7d$17h8d9a43e174231f37E.exit24"
  %4 = select i1 %_0.i22, ptr %b, ptr %d, !unpredictable !32
  %5 = select i1 %_0.i16, ptr %c, ptr %a, !unpredictable !32
  %_0.i28 = fcmp olt float %_4.i.i.i25, %_5.i.i.i26
  %6 = select i1 %_0.i28, ptr %3, ptr %1, !unpredictable !32
  %7 = select i1 %_0.i28, ptr %1, ptr %3, !unpredictable !32
  %8 = load i32, ptr %5, align 4
  store i32 %8, ptr %dst, align 4
  %dst5 = getelementptr inbounds nuw i8, ptr %dst, i64 4
  %9 = load i32, ptr %6, align 4
  store i32 %9, ptr %dst5, align 4
  %dst6 = getelementptr inbounds nuw i8, ptr %dst, i64 8
  %10 = load i32, ptr %7, align 4
  store i32 %10, ptr %dst6, align 4
  %11 = getelementptr inbounds nuw i8, ptr %dst, i64 12
  %12 = load i32, ptr %4, align 4
  store i32 %12, ptr %11, align 4
  ret void
}

; core::slice::sort::shared::smallsort::sort8_stable
; Function Attrs: nonlazybind uwtable
define void @_ZN4core5slice4sort6shared9smallsort12sort8_stable17h455fd2e6ec2def5bE(ptr noundef readonly captures(none) %v_base, ptr noundef writeonly captures(none) %dst, ptr noundef captures(address) %scratch_base, ptr noalias readnone align 8 captures(none) %is_less) unnamed_addr #1 {
start:
; call core::slice::sort::shared::smallsort::sort4_stable
  tail call void @_ZN4core5slice4sort6shared9smallsort12sort4_stable17hd377801de70c381dE(ptr noundef %v_base, ptr noundef %scratch_base, ptr noalias align 8 poison)
  %_9 = getelementptr inbounds nuw i8, ptr %v_base, i64 16
  %_10 = getelementptr inbounds nuw i8, ptr %scratch_base, i64 16
; call core::slice::sort::shared::smallsort::sort4_stable
  tail call void @_ZN4core5slice4sort6shared9smallsort12sort4_stable17hd377801de70c381dE(ptr noundef nonnull %_9, ptr noundef nonnull %_10, ptr noalias align 8 poison)
  tail call void @llvm.experimental.noalias.scope.decl(metadata !379)
  %0 = getelementptr inbounds nuw i8, ptr %dst, i64 28
  %1 = getelementptr inbounds nuw i8, ptr %scratch_base, i64 28
  %2 = getelementptr i8, ptr %scratch_base, i64 12
  tail call void @llvm.experimental.noalias.scope.decl(metadata !382)
  tail call void @llvm.experimental.noalias.scope.decl(metadata !385)
  tail call void @llvm.experimental.noalias.scope.decl(metadata !387), !noalias !390
  tail call void @llvm.experimental.noalias.scope.decl(metadata !393), !noalias !390
  tail call void @llvm.experimental.noalias.scope.decl(metadata !395), !noalias !390
  tail call void @llvm.experimental.noalias.scope.decl(metadata !398), !noalias !390
  %_4.i.i.i.i = load float, ptr %_10, align 4, !alias.scope !400, !noalias !401, !noundef !32
  %_5.i.i.i.i = load float, ptr %scratch_base, align 4, !alias.scope !402, !noalias !403, !noundef !32
  %.not.i.i.i.i = fcmp uno float %_4.i.i.i.i, %_5.i.i.i.i
  br i1 %.not.i.i.i.i, label %bb2.i.i.i.i, label %"_ZN5alloc5slice29_$LT$impl$u20$$u5b$T$u5d$$GT$7sort_by28_$u7b$$u7b$closure$u7d$$u7d$17h8d9a43e174231f37E.exit.i", !prof !35

bb2.i.i.i.i:                                      ; preds = %"_ZN5alloc5slice29_$LT$impl$u20$$u5b$T$u5d$$GT$7sort_by28_$u7b$$u7b$closure$u7d$$u7d$17h8d9a43e174231f37E.exit24.i.2", %"_ZN5alloc5slice29_$LT$impl$u20$$u5b$T$u5d$$GT$7sort_by28_$u7b$$u7b$closure$u7d$$u7d$17h8d9a43e174231f37E.exit24.i.1", %"_ZN5alloc5slice29_$LT$impl$u20$$u5b$T$u5d$$GT$7sort_by28_$u7b$$u7b$closure$u7d$$u7d$17h8d9a43e174231f37E.exit24.i", %start
; call core::option::unwrap_failed
  tail call void @_ZN4core6option13unwrap_failed17hef2534b77b89c04fE(ptr noalias noundef readonly align 8 captures(address, read_provenance) dereferenceable(24) @alloc_42c1e7ccc7513d2fb76bea5b8a3258db) #24, !noalias !404
  unreachable

"_ZN5alloc5slice29_$LT$impl$u20$$u5b$T$u5d$$GT$7sort_by28_$u7b$$u7b$closure$u7d$$u7d$17h8d9a43e174231f37E.exit.i": ; preds = %start
  %_0.i.i = fcmp olt float %_4.i.i.i.i, %_5.i.i.i.i
  %..i17.i = select i1 %_0.i.i, ptr %_10, ptr %scratch_base
  %3 = load i32, ptr %..i17.i, align 4, !alias.scope !379, !noalias !405
  store i32 %3, ptr %dst, align 4, !noalias !407
  tail call void @llvm.experimental.noalias.scope.decl(metadata !408)
  tail call void @llvm.experimental.noalias.scope.decl(metadata !411)
  tail call void @llvm.experimental.noalias.scope.decl(metadata !413), !noalias !416
  tail call void @llvm.experimental.noalias.scope.decl(metadata !419), !noalias !416
  tail call void @llvm.experimental.noalias.scope.decl(metadata !421), !noalias !416
  tail call void @llvm.experimental.noalias.scope.decl(metadata !424), !noalias !416
  %_4.i.i.i19.i = load float, ptr %1, align 4, !alias.scope !426, !noalias !427, !noundef !32
  %_5.i.i.i20.i = load float, ptr %2, align 4, !alias.scope !428, !noalias !429, !noundef !32
  %.not.i.i.i21.i = fcmp uno float %_4.i.i.i19.i, %_5.i.i.i20.i
  br i1 %.not.i.i.i21.i, label %bb2.i.i.i23.i, label %"_ZN5alloc5slice29_$LT$impl$u20$$u5b$T$u5d$$GT$7sort_by28_$u7b$$u7b$closure$u7d$$u7d$17h8d9a43e174231f37E.exit24.i", !prof !35

bb2.i.i.i23.i:                                    ; preds = %"_ZN5alloc5slice29_$LT$impl$u20$$u5b$T$u5d$$GT$7sort_by28_$u7b$$u7b$closure$u7d$$u7d$17h8d9a43e174231f37E.exit.i.3", %"_ZN5alloc5slice29_$LT$impl$u20$$u5b$T$u5d$$GT$7sort_by28_$u7b$$u7b$closure$u7d$$u7d$17h8d9a43e174231f37E.exit.i.2", %"_ZN5alloc5slice29_$LT$impl$u20$$u5b$T$u5d$$GT$7sort_by28_$u7b$$u7b$closure$u7d$$u7d$17h8d9a43e174231f37E.exit.i.1", %"_ZN5alloc5slice29_$LT$impl$u20$$u5b$T$u5d$$GT$7sort_by28_$u7b$$u7b$closure$u7d$$u7d$17h8d9a43e174231f37E.exit.i"
; call core::option::unwrap_failed
  tail call void @_ZN4core6option13unwrap_failed17hef2534b77b89c04fE(ptr noalias noundef readonly align 8 captures(address, read_provenance) dereferenceable(24) @alloc_42c1e7ccc7513d2fb76bea5b8a3258db) #24, !noalias !430
  unreachable

"_ZN5alloc5slice29_$LT$impl$u20$$u5b$T$u5d$$GT$7sort_by28_$u7b$$u7b$closure$u7d$$u7d$17h8d9a43e174231f37E.exit24.i": ; preds = %"_ZN5alloc5slice29_$LT$impl$u20$$u5b$T$u5d$$GT$7sort_by28_$u7b$$u7b$closure$u7d$$u7d$17h8d9a43e174231f37E.exit.i"
  %is_l.i18.i = xor i1 %_0.i.i, true
  %count2.i.i = zext i1 %is_l.i18.i to i64
  %_14.i.i = getelementptr inbounds nuw float, ptr %scratch_base, i64 %count2.i.i
  %count.i.i = zext i1 %_0.i.i to i64
  %_12.i.i = getelementptr inbounds nuw float, ptr %_10, i64 %count.i.i
  %_0.i22.i = fcmp olt float %_4.i.i.i19.i, %_5.i.i.i20.i
  %..i.i = select i1 %_0.i22.i, ptr %2, ptr %1
  %is_l.i.i = xor i1 %_0.i22.i, true
  %4 = load i32, ptr %..i.i, align 4, !alias.scope !379, !noalias !431
  store i32 %4, ptr %0, align 4, !noalias !433
  %count.neg.i.i = sext i1 %is_l.i.i to i64
  %5 = getelementptr float, ptr %1, i64 %count.neg.i.i
  %count3.neg.i.i = sext i1 %_0.i22.i to i64
  %6 = getelementptr float, ptr %2, i64 %count3.neg.i.i
  %7 = getelementptr inbounds nuw i8, ptr %dst, i64 24
  tail call void @llvm.experimental.noalias.scope.decl(metadata !434)
  tail call void @llvm.experimental.noalias.scope.decl(metadata !436)
  tail call void @llvm.experimental.noalias.scope.decl(metadata !438), !noalias !390
  tail call void @llvm.experimental.noalias.scope.decl(metadata !440), !noalias !390
  tail call void @llvm.experimental.noalias.scope.decl(metadata !442), !noalias !390
  tail call void @llvm.experimental.noalias.scope.decl(metadata !444), !noalias !390
  %_4.i.i.i.i.1 = load float, ptr %_12.i.i, align 4, !alias.scope !446, !noalias !447, !noundef !32
  %_5.i.i.i.i.1 = load float, ptr %_14.i.i, align 4, !alias.scope !448, !noalias !449, !noundef !32
  %.not.i.i.i.i.1 = fcmp uno float %_4.i.i.i.i.1, %_5.i.i.i.i.1
  br i1 %.not.i.i.i.i.1, label %bb2.i.i.i.i, label %"_ZN5alloc5slice29_$LT$impl$u20$$u5b$T$u5d$$GT$7sort_by28_$u7b$$u7b$closure$u7d$$u7d$17h8d9a43e174231f37E.exit.i.1", !prof !35

"_ZN5alloc5slice29_$LT$impl$u20$$u5b$T$u5d$$GT$7sort_by28_$u7b$$u7b$closure$u7d$$u7d$17h8d9a43e174231f37E.exit.i.1": ; preds = %"_ZN5alloc5slice29_$LT$impl$u20$$u5b$T$u5d$$GT$7sort_by28_$u7b$$u7b$closure$u7d$$u7d$17h8d9a43e174231f37E.exit24.i"
  %_16.i.i = getelementptr inbounds nuw i8, ptr %dst, i64 4
  %_0.i.i.1 = fcmp olt float %_4.i.i.i.i.1, %_5.i.i.i.i.1
  %..i17.i.1 = select i1 %_0.i.i.1, ptr %_12.i.i, ptr %_14.i.i
  %8 = load i32, ptr %..i17.i.1, align 4, !alias.scope !379, !noalias !405
  store i32 %8, ptr %_16.i.i, align 4, !noalias !407
  tail call void @llvm.experimental.noalias.scope.decl(metadata !450)
  tail call void @llvm.experimental.noalias.scope.decl(metadata !452)
  tail call void @llvm.experimental.noalias.scope.decl(metadata !454), !noalias !416
  tail call void @llvm.experimental.noalias.scope.decl(metadata !456), !noalias !416
  tail call void @llvm.experimental.noalias.scope.decl(metadata !458), !noalias !416
  tail call void @llvm.experimental.noalias.scope.decl(metadata !460), !noalias !416
  %_4.i.i.i19.i.1 = load float, ptr %5, align 4, !alias.scope !462, !noalias !463, !noundef !32
  %_5.i.i.i20.i.1 = load float, ptr %6, align 4, !alias.scope !464, !noalias !465, !noundef !32
  %.not.i.i.i21.i.1 = fcmp uno float %_4.i.i.i19.i.1, %_5.i.i.i20.i.1
  br i1 %.not.i.i.i21.i.1, label %bb2.i.i.i23.i, label %"_ZN5alloc5slice29_$LT$impl$u20$$u5b$T$u5d$$GT$7sort_by28_$u7b$$u7b$closure$u7d$$u7d$17h8d9a43e174231f37E.exit24.i.1", !prof !35

"_ZN5alloc5slice29_$LT$impl$u20$$u5b$T$u5d$$GT$7sort_by28_$u7b$$u7b$closure$u7d$$u7d$17h8d9a43e174231f37E.exit24.i.1": ; preds = %"_ZN5alloc5slice29_$LT$impl$u20$$u5b$T$u5d$$GT$7sort_by28_$u7b$$u7b$closure$u7d$$u7d$17h8d9a43e174231f37E.exit.i.1"
  %is_l.i18.i.1 = xor i1 %_0.i.i.1, true
  %count2.i.i.1 = zext i1 %is_l.i18.i.1 to i64
  %_14.i.i.1 = getelementptr inbounds nuw float, ptr %_14.i.i, i64 %count2.i.i.1
  %count.i.i.1 = zext i1 %_0.i.i.1 to i64
  %_12.i.i.1 = getelementptr inbounds nuw float, ptr %_12.i.i, i64 %count.i.i.1
  %_0.i22.i.1 = fcmp olt float %_4.i.i.i19.i.1, %_5.i.i.i20.i.1
  %..i.i.1 = select i1 %_0.i22.i.1, ptr %6, ptr %5
  %is_l.i.i.1 = xor i1 %_0.i22.i.1, true
  %9 = load i32, ptr %..i.i.1, align 4, !alias.scope !379, !noalias !431
  store i32 %9, ptr %7, align 4, !noalias !433
  %count.neg.i.i.1 = sext i1 %is_l.i.i.1 to i64
  %10 = getelementptr float, ptr %5, i64 %count.neg.i.i.1
  %count3.neg.i.i.1 = sext i1 %_0.i22.i.1 to i64
  %11 = getelementptr float, ptr %6, i64 %count3.neg.i.i.1
  %12 = getelementptr inbounds nuw i8, ptr %dst, i64 20
  tail call void @llvm.experimental.noalias.scope.decl(metadata !466)
  tail call void @llvm.experimental.noalias.scope.decl(metadata !468)
  tail call void @llvm.experimental.noalias.scope.decl(metadata !470), !noalias !390
  tail call void @llvm.experimental.noalias.scope.decl(metadata !472), !noalias !390
  tail call void @llvm.experimental.noalias.scope.decl(metadata !474), !noalias !390
  tail call void @llvm.experimental.noalias.scope.decl(metadata !476), !noalias !390
  %_4.i.i.i.i.2 = load float, ptr %_12.i.i.1, align 4, !alias.scope !478, !noalias !479, !noundef !32
  %_5.i.i.i.i.2 = load float, ptr %_14.i.i.1, align 4, !alias.scope !480, !noalias !481, !noundef !32
  %.not.i.i.i.i.2 = fcmp uno float %_4.i.i.i.i.2, %_5.i.i.i.i.2
  br i1 %.not.i.i.i.i.2, label %bb2.i.i.i.i, label %"_ZN5alloc5slice29_$LT$impl$u20$$u5b$T$u5d$$GT$7sort_by28_$u7b$$u7b$closure$u7d$$u7d$17h8d9a43e174231f37E.exit.i.2", !prof !35

"_ZN5alloc5slice29_$LT$impl$u20$$u5b$T$u5d$$GT$7sort_by28_$u7b$$u7b$closure$u7d$$u7d$17h8d9a43e174231f37E.exit.i.2": ; preds = %"_ZN5alloc5slice29_$LT$impl$u20$$u5b$T$u5d$$GT$7sort_by28_$u7b$$u7b$closure$u7d$$u7d$17h8d9a43e174231f37E.exit24.i.1"
  %_16.i.i.1 = getelementptr inbounds nuw i8, ptr %dst, i64 8
  %_0.i.i.2 = fcmp olt float %_4.i.i.i.i.2, %_5.i.i.i.i.2
  %..i17.i.2 = select i1 %_0.i.i.2, ptr %_12.i.i.1, ptr %_14.i.i.1
  %13 = load i32, ptr %..i17.i.2, align 4, !alias.scope !379, !noalias !405
  store i32 %13, ptr %_16.i.i.1, align 4, !noalias !407
  tail call void @llvm.experimental.noalias.scope.decl(metadata !482)
  tail call void @llvm.experimental.noalias.scope.decl(metadata !484)
  tail call void @llvm.experimental.noalias.scope.decl(metadata !486), !noalias !416
  tail call void @llvm.experimental.noalias.scope.decl(metadata !488), !noalias !416
  tail call void @llvm.experimental.noalias.scope.decl(metadata !490), !noalias !416
  tail call void @llvm.experimental.noalias.scope.decl(metadata !492), !noalias !416
  %_4.i.i.i19.i.2 = load float, ptr %10, align 4, !alias.scope !494, !noalias !495, !noundef !32
  %_5.i.i.i20.i.2 = load float, ptr %11, align 4, !alias.scope !496, !noalias !497, !noundef !32
  %.not.i.i.i21.i.2 = fcmp uno float %_4.i.i.i19.i.2, %_5.i.i.i20.i.2
  br i1 %.not.i.i.i21.i.2, label %bb2.i.i.i23.i, label %"_ZN5alloc5slice29_$LT$impl$u20$$u5b$T$u5d$$GT$7sort_by28_$u7b$$u7b$closure$u7d$$u7d$17h8d9a43e174231f37E.exit24.i.2", !prof !35

"_ZN5alloc5slice29_$LT$impl$u20$$u5b$T$u5d$$GT$7sort_by28_$u7b$$u7b$closure$u7d$$u7d$17h8d9a43e174231f37E.exit24.i.2": ; preds = %"_ZN5alloc5slice29_$LT$impl$u20$$u5b$T$u5d$$GT$7sort_by28_$u7b$$u7b$closure$u7d$$u7d$17h8d9a43e174231f37E.exit.i.2"
  %is_l.i18.i.2 = xor i1 %_0.i.i.2, true
  %count2.i.i.2 = zext i1 %is_l.i18.i.2 to i64
  %_14.i.i.2 = getelementptr inbounds nuw float, ptr %_14.i.i.1, i64 %count2.i.i.2
  %count.i.i.2 = zext i1 %_0.i.i.2 to i64
  %_12.i.i.2 = getelementptr inbounds nuw float, ptr %_12.i.i.1, i64 %count.i.i.2
  %_0.i22.i.2 = fcmp olt float %_4.i.i.i19.i.2, %_5.i.i.i20.i.2
  %..i.i.2 = select i1 %_0.i22.i.2, ptr %11, ptr %10
  %is_l.i.i.2 = xor i1 %_0.i22.i.2, true
  %14 = load i32, ptr %..i.i.2, align 4, !alias.scope !379, !noalias !431
  store i32 %14, ptr %12, align 4, !noalias !433
  %count.neg.i.i.2 = sext i1 %is_l.i.i.2 to i64
  %15 = getelementptr float, ptr %10, i64 %count.neg.i.i.2
  %count3.neg.i.i.2 = sext i1 %_0.i22.i.2 to i64
  %16 = getelementptr float, ptr %11, i64 %count3.neg.i.i.2
  %17 = getelementptr inbounds nuw i8, ptr %dst, i64 16
  tail call void @llvm.experimental.noalias.scope.decl(metadata !498)
  tail call void @llvm.experimental.noalias.scope.decl(metadata !500)
  tail call void @llvm.experimental.noalias.scope.decl(metadata !502), !noalias !390
  tail call void @llvm.experimental.noalias.scope.decl(metadata !504), !noalias !390
  tail call void @llvm.experimental.noalias.scope.decl(metadata !506), !noalias !390
  tail call void @llvm.experimental.noalias.scope.decl(metadata !508), !noalias !390
  %_4.i.i.i.i.3 = load float, ptr %_12.i.i.2, align 4, !alias.scope !510, !noalias !511, !noundef !32
  %_5.i.i.i.i.3 = load float, ptr %_14.i.i.2, align 4, !alias.scope !512, !noalias !513, !noundef !32
  %.not.i.i.i.i.3 = fcmp uno float %_4.i.i.i.i.3, %_5.i.i.i.i.3
  br i1 %.not.i.i.i.i.3, label %bb2.i.i.i.i, label %"_ZN5alloc5slice29_$LT$impl$u20$$u5b$T$u5d$$GT$7sort_by28_$u7b$$u7b$closure$u7d$$u7d$17h8d9a43e174231f37E.exit.i.3", !prof !35

"_ZN5alloc5slice29_$LT$impl$u20$$u5b$T$u5d$$GT$7sort_by28_$u7b$$u7b$closure$u7d$$u7d$17h8d9a43e174231f37E.exit.i.3": ; preds = %"_ZN5alloc5slice29_$LT$impl$u20$$u5b$T$u5d$$GT$7sort_by28_$u7b$$u7b$closure$u7d$$u7d$17h8d9a43e174231f37E.exit24.i.2"
  %_16.i.i.2 = getelementptr inbounds nuw i8, ptr %dst, i64 12
  %_0.i.i.3 = fcmp olt float %_4.i.i.i.i.3, %_5.i.i.i.i.3
  %..i17.i.3 = select i1 %_0.i.i.3, ptr %_12.i.i.2, ptr %_14.i.i.2
  %18 = load i32, ptr %..i17.i.3, align 4, !alias.scope !379, !noalias !405
  store i32 %18, ptr %_16.i.i.2, align 4, !noalias !407
  tail call void @llvm.experimental.noalias.scope.decl(metadata !514)
  tail call void @llvm.experimental.noalias.scope.decl(metadata !516)
  tail call void @llvm.experimental.noalias.scope.decl(metadata !518), !noalias !416
  tail call void @llvm.experimental.noalias.scope.decl(metadata !520), !noalias !416
  tail call void @llvm.experimental.noalias.scope.decl(metadata !522), !noalias !416
  tail call void @llvm.experimental.noalias.scope.decl(metadata !524), !noalias !416
  %_4.i.i.i19.i.3 = load float, ptr %15, align 4, !alias.scope !526, !noalias !527, !noundef !32
  %_5.i.i.i20.i.3 = load float, ptr %16, align 4, !alias.scope !528, !noalias !529, !noundef !32
  %.not.i.i.i21.i.3 = fcmp uno float %_4.i.i.i19.i.3, %_5.i.i.i20.i.3
  br i1 %.not.i.i.i21.i.3, label %bb2.i.i.i23.i, label %"_ZN5alloc5slice29_$LT$impl$u20$$u5b$T$u5d$$GT$7sort_by28_$u7b$$u7b$closure$u7d$$u7d$17h8d9a43e174231f37E.exit24.i.3", !prof !35

"_ZN5alloc5slice29_$LT$impl$u20$$u5b$T$u5d$$GT$7sort_by28_$u7b$$u7b$closure$u7d$$u7d$17h8d9a43e174231f37E.exit24.i.3": ; preds = %"_ZN5alloc5slice29_$LT$impl$u20$$u5b$T$u5d$$GT$7sort_by28_$u7b$$u7b$closure$u7d$$u7d$17h8d9a43e174231f37E.exit.i.3"
  %is_l.i18.i.3 = xor i1 %_0.i.i.3, true
  %count2.i.i.3 = zext i1 %is_l.i18.i.3 to i64
  %_14.i.i.3 = getelementptr inbounds nuw float, ptr %_14.i.i.2, i64 %count2.i.i.3
  %count.i.i.3 = zext i1 %_0.i.i.3 to i64
  %_12.i.i.3 = getelementptr inbounds nuw float, ptr %_12.i.i.2, i64 %count.i.i.3
  %_0.i22.i.3 = fcmp olt float %_4.i.i.i19.i.3, %_5.i.i.i20.i.3
  %..i.i.3 = select i1 %_0.i22.i.3, ptr %16, ptr %15
  %is_l.i.i.3 = xor i1 %_0.i22.i.3, true
  %19 = load i32, ptr %..i.i.3, align 4, !alias.scope !379, !noalias !431
  store i32 %19, ptr %17, align 4, !noalias !433
  %count.neg.i.i.3 = sext i1 %is_l.i.i.3 to i64
  %20 = getelementptr float, ptr %15, i64 %count.neg.i.i.3
  %count3.neg.i.i.3 = sext i1 %_0.i22.i.3 to i64
  %21 = getelementptr float, ptr %16, i64 %count3.neg.i.i.3
  %22 = getelementptr i8, ptr %21, i64 4
  %23 = getelementptr i8, ptr %20, i64 4
  %_31.i = icmp ne ptr %_14.i.i.3, %22
  %_32.i = icmp ne ptr %_12.i.i.3, %23
  %or.cond.i = select i1 %_31.i, i1 true, i1 %_32.i
  br i1 %or.cond.i, label %bb13.i, label %_ZN4core5slice4sort6shared9smallsort19bidirectional_merge17hf90f7bbee5e53a0aE.exit, !prof !530

bb13.i:                                           ; preds = %"_ZN5alloc5slice29_$LT$impl$u20$$u5b$T$u5d$$GT$7sort_by28_$u7b$$u7b$closure$u7d$$u7d$17h8d9a43e174231f37E.exit24.i.3"
; call core::slice::sort::shared::smallsort::panic_on_ord_violation
  tail call void @_ZN4core5slice4sort6shared9smallsort22panic_on_ord_violation17hc77a22a2d50782cdE() #24, !noalias !379
  unreachable

_ZN4core5slice4sort6shared9smallsort19bidirectional_merge17hf90f7bbee5e53a0aE.exit: ; preds = %"_ZN5alloc5slice29_$LT$impl$u20$$u5b$T$u5d$$GT$7sort_by28_$u7b$$u7b$closure$u7d$$u7d$17h8d9a43e174231f37E.exit24.i.3"
  ret void
}

; core::slice::sort::shared::smallsort::sort8_stable
; Function Attrs: nonlazybind uwtable
define void @_ZN4core5slice4sort6shared9smallsort12sort8_stable17hcb4209c83cb5f7f4E(ptr noundef readonly captures(none) %v_base, ptr noundef writeonly captures(none) initializes((0, 32)) %dst, ptr noundef captures(address) initializes((0, 32)) %scratch_base, ptr noalias readnone align 8 captures(none) %is_less) unnamed_addr #1 personality ptr @rust_eh_personality {
start:
  %_7.i = getelementptr inbounds nuw i8, ptr %v_base, i64 4
  tail call void @llvm.experimental.noalias.scope.decl(metadata !531)
  tail call void @llvm.experimental.noalias.scope.decl(metadata !534)
  tail call void @llvm.experimental.noalias.scope.decl(metadata !536)
  tail call void @llvm.experimental.noalias.scope.decl(metadata !539)
  tail call void @llvm.experimental.noalias.scope.decl(metadata !541)
  tail call void @llvm.experimental.noalias.scope.decl(metadata !544)
  tail call void @llvm.experimental.noalias.scope.decl(metadata !546)
  tail call void @llvm.experimental.noalias.scope.decl(metadata !549)
  %_3.i.i.i.i.i = load i32, ptr %_7.i, align 4, !alias.scope !551, !noalias !552, !noundef !32
  %_4.i.i.i.i.i = load i32, ptr %v_base, align 4, !alias.scope !552, !noalias !551, !noundef !32
  %_0.i.i = icmp slt i32 %_3.i.i.i.i.i, %_4.i.i.i.i.i
  %_12.i = getelementptr inbounds nuw i8, ptr %v_base, i64 12
  %_14.i = getelementptr inbounds nuw i8, ptr %v_base, i64 8
  tail call void @llvm.experimental.noalias.scope.decl(metadata !553)
  tail call void @llvm.experimental.noalias.scope.decl(metadata !556)
  tail call void @llvm.experimental.noalias.scope.decl(metadata !558)
  tail call void @llvm.experimental.noalias.scope.decl(metadata !561)
  tail call void @llvm.experimental.noalias.scope.decl(metadata !563)
  tail call void @llvm.experimental.noalias.scope.decl(metadata !566)
  tail call void @llvm.experimental.noalias.scope.decl(metadata !568)
  tail call void @llvm.experimental.noalias.scope.decl(metadata !571)
  %_3.i.i.i.i7.i = load i32, ptr %_12.i, align 4, !alias.scope !573, !noalias !574, !noundef !32
  %_4.i.i.i.i8.i = load i32, ptr %_14.i, align 4, !alias.scope !574, !noalias !573, !noundef !32
  %_0.i9.i = icmp slt i32 %_3.i.i.i.i7.i, %_4.i.i.i.i8.i
  %count.i = zext i1 %_0.i.i to i64
  %a.i = getelementptr inbounds nuw i32, ptr %v_base, i64 %count.i
  %_19.i = xor i1 %_0.i.i, true
  %count2.i = zext i1 %_19.i to i64
  %b.i = getelementptr inbounds nuw i32, ptr %v_base, i64 %count2.i
  %count3.i = select i1 %_0.i9.i, i64 3, i64 2
  %c.i = getelementptr inbounds nuw i32, ptr %v_base, i64 %count3.i
  %count4.i = select i1 %_0.i9.i, i64 2, i64 3
  %d.i = getelementptr inbounds nuw i32, ptr %v_base, i64 %count4.i
  tail call void @llvm.experimental.noalias.scope.decl(metadata !575)
  tail call void @llvm.experimental.noalias.scope.decl(metadata !578)
  tail call void @llvm.experimental.noalias.scope.decl(metadata !580)
  tail call void @llvm.experimental.noalias.scope.decl(metadata !583)
  tail call void @llvm.experimental.noalias.scope.decl(metadata !585)
  tail call void @llvm.experimental.noalias.scope.decl(metadata !588)
  tail call void @llvm.experimental.noalias.scope.decl(metadata !590)
  tail call void @llvm.experimental.noalias.scope.decl(metadata !593)
  %_3.i.i.i.i10.i = load i32, ptr %c.i, align 4, !alias.scope !595, !noalias !596, !noundef !32
  %_4.i.i.i.i11.i = load i32, ptr %a.i, align 4, !alias.scope !596, !noalias !595, !noundef !32
  %_0.i12.i = icmp slt i32 %_3.i.i.i.i10.i, %_4.i.i.i.i11.i
  tail call void @llvm.experimental.noalias.scope.decl(metadata !597)
  tail call void @llvm.experimental.noalias.scope.decl(metadata !600)
  tail call void @llvm.experimental.noalias.scope.decl(metadata !602)
  tail call void @llvm.experimental.noalias.scope.decl(metadata !605)
  tail call void @llvm.experimental.noalias.scope.decl(metadata !607)
  tail call void @llvm.experimental.noalias.scope.decl(metadata !610)
  tail call void @llvm.experimental.noalias.scope.decl(metadata !612)
  tail call void @llvm.experimental.noalias.scope.decl(metadata !615)
  %_3.i.i.i.i13.i = load i32, ptr %d.i, align 4, !alias.scope !617, !noalias !618, !noundef !32
  %_4.i.i.i.i14.i = load i32, ptr %b.i, align 4, !alias.scope !618, !noalias !617, !noundef !32
  %_0.i15.i = icmp slt i32 %_3.i.i.i.i13.i, %_4.i.i.i.i14.i
  %0 = select i1 %_0.i12.i, ptr %c.i, ptr %a.i, !unpredictable !32
  %1 = select i1 %_0.i15.i, ptr %c.i, ptr %b.i, !unpredictable !32
  %2 = select i1 %_0.i12.i, ptr %a.i, ptr %1, !unpredictable !32
  %3 = select i1 %_0.i12.i, ptr %b.i, ptr %c.i, !unpredictable !32
  %4 = select i1 %_0.i15.i, ptr %d.i, ptr %3, !unpredictable !32
  tail call void @llvm.experimental.noalias.scope.decl(metadata !619)
  tail call void @llvm.experimental.noalias.scope.decl(metadata !622)
  tail call void @llvm.experimental.noalias.scope.decl(metadata !624)
  tail call void @llvm.experimental.noalias.scope.decl(metadata !627)
  tail call void @llvm.experimental.noalias.scope.decl(metadata !629)
  tail call void @llvm.experimental.noalias.scope.decl(metadata !632)
  tail call void @llvm.experimental.noalias.scope.decl(metadata !634)
  tail call void @llvm.experimental.noalias.scope.decl(metadata !637)
  %_3.i.i.i.i16.i = load i32, ptr %4, align 4, !alias.scope !639, !noalias !640, !noundef !32
  %_4.i.i.i.i17.i = load i32, ptr %2, align 4, !alias.scope !640, !noalias !639, !noundef !32
  %_0.i18.i = icmp slt i32 %_3.i.i.i.i16.i, %_4.i.i.i.i17.i
  %5 = load i32, ptr %0, align 4
  store i32 %5, ptr %scratch_base, align 4
  %dst5.i = getelementptr inbounds nuw i8, ptr %scratch_base, i64 4
  %.val.i = load i32, ptr %4, align 4
  %.val19.i = load i32, ptr %2, align 4
  %6 = select i1 %_0.i18.i, i32 %.val.i, i32 %.val19.i
  store i32 %6, ptr %dst5.i, align 4
  %dst6.i = getelementptr inbounds nuw i8, ptr %scratch_base, i64 8
  %.val20.i = load i32, ptr %2, align 4
  %.val21.i = load i32, ptr %4, align 4
  %7 = select i1 %_0.i18.i, i32 %.val20.i, i32 %.val21.i
  store i32 %7, ptr %dst6.i, align 4
  %8 = getelementptr inbounds nuw i8, ptr %scratch_base, i64 12
  %b.val.i = load i32, ptr %b.i, align 4
  %d.val.i = load i32, ptr %d.i, align 4
  %9 = select i1 %_0.i15.i, i32 %b.val.i, i32 %d.val.i
  store i32 %9, ptr %8, align 4
  %_9 = getelementptr inbounds nuw i8, ptr %v_base, i64 16
  %_10 = getelementptr i8, ptr %scratch_base, i64 16
  %_7.i1 = getelementptr inbounds nuw i8, ptr %v_base, i64 20
  tail call void @llvm.experimental.noalias.scope.decl(metadata !641)
  tail call void @llvm.experimental.noalias.scope.decl(metadata !644)
  tail call void @llvm.experimental.noalias.scope.decl(metadata !646)
  tail call void @llvm.experimental.noalias.scope.decl(metadata !649)
  tail call void @llvm.experimental.noalias.scope.decl(metadata !651)
  tail call void @llvm.experimental.noalias.scope.decl(metadata !654)
  tail call void @llvm.experimental.noalias.scope.decl(metadata !656)
  tail call void @llvm.experimental.noalias.scope.decl(metadata !659)
  %_3.i.i.i.i.i2 = load i32, ptr %_7.i1, align 4, !alias.scope !661, !noalias !662, !noundef !32
  %_4.i.i.i.i.i3 = load i32, ptr %_9, align 4, !alias.scope !662, !noalias !661, !noundef !32
  %_0.i.i4 = icmp slt i32 %_3.i.i.i.i.i2, %_4.i.i.i.i.i3
  %_12.i5 = getelementptr inbounds nuw i8, ptr %v_base, i64 28
  %_14.i6 = getelementptr inbounds nuw i8, ptr %v_base, i64 24
  tail call void @llvm.experimental.noalias.scope.decl(metadata !663)
  tail call void @llvm.experimental.noalias.scope.decl(metadata !666)
  tail call void @llvm.experimental.noalias.scope.decl(metadata !668)
  tail call void @llvm.experimental.noalias.scope.decl(metadata !671)
  tail call void @llvm.experimental.noalias.scope.decl(metadata !673)
  tail call void @llvm.experimental.noalias.scope.decl(metadata !676)
  tail call void @llvm.experimental.noalias.scope.decl(metadata !678)
  tail call void @llvm.experimental.noalias.scope.decl(metadata !681)
  %_3.i.i.i.i7.i7 = load i32, ptr %_12.i5, align 4, !alias.scope !683, !noalias !684, !noundef !32
  %_4.i.i.i.i8.i8 = load i32, ptr %_14.i6, align 4, !alias.scope !684, !noalias !683, !noundef !32
  %_0.i9.i9 = icmp slt i32 %_3.i.i.i.i7.i7, %_4.i.i.i.i8.i8
  %count.i10 = zext i1 %_0.i.i4 to i64
  %a.i11 = getelementptr inbounds nuw i32, ptr %_9, i64 %count.i10
  %_19.i12 = xor i1 %_0.i.i4, true
  %count2.i13 = zext i1 %_19.i12 to i64
  %b.i14 = getelementptr inbounds nuw i32, ptr %_9, i64 %count2.i13
  %count3.i15 = select i1 %_0.i9.i9, i64 3, i64 2
  %c.i16 = getelementptr inbounds nuw i32, ptr %_9, i64 %count3.i15
  %count4.i17 = select i1 %_0.i9.i9, i64 2, i64 3
  %d.i18 = getelementptr inbounds nuw i32, ptr %_9, i64 %count4.i17
  tail call void @llvm.experimental.noalias.scope.decl(metadata !685)
  tail call void @llvm.experimental.noalias.scope.decl(metadata !688)
  tail call void @llvm.experimental.noalias.scope.decl(metadata !690)
  tail call void @llvm.experimental.noalias.scope.decl(metadata !693)
  tail call void @llvm.experimental.noalias.scope.decl(metadata !695)
  tail call void @llvm.experimental.noalias.scope.decl(metadata !698)
  tail call void @llvm.experimental.noalias.scope.decl(metadata !700)
  tail call void @llvm.experimental.noalias.scope.decl(metadata !703)
  %_3.i.i.i.i10.i19 = load i32, ptr %c.i16, align 4, !alias.scope !705, !noalias !706, !noundef !32
  %_4.i.i.i.i11.i20 = load i32, ptr %a.i11, align 4, !alias.scope !706, !noalias !705, !noundef !32
  %_0.i12.i21 = icmp slt i32 %_3.i.i.i.i10.i19, %_4.i.i.i.i11.i20
  tail call void @llvm.experimental.noalias.scope.decl(metadata !707)
  tail call void @llvm.experimental.noalias.scope.decl(metadata !710)
  tail call void @llvm.experimental.noalias.scope.decl(metadata !712)
  tail call void @llvm.experimental.noalias.scope.decl(metadata !715)
  tail call void @llvm.experimental.noalias.scope.decl(metadata !717)
  tail call void @llvm.experimental.noalias.scope.decl(metadata !720)
  tail call void @llvm.experimental.noalias.scope.decl(metadata !722)
  tail call void @llvm.experimental.noalias.scope.decl(metadata !725)
  %_3.i.i.i.i13.i22 = load i32, ptr %d.i18, align 4, !alias.scope !727, !noalias !728, !noundef !32
  %_4.i.i.i.i14.i23 = load i32, ptr %b.i14, align 4, !alias.scope !728, !noalias !727, !noundef !32
  %_0.i15.i24 = icmp slt i32 %_3.i.i.i.i13.i22, %_4.i.i.i.i14.i23
  %10 = select i1 %_0.i12.i21, ptr %c.i16, ptr %a.i11, !unpredictable !32
  %11 = select i1 %_0.i15.i24, ptr %c.i16, ptr %b.i14, !unpredictable !32
  %12 = select i1 %_0.i12.i21, ptr %a.i11, ptr %11, !unpredictable !32
  %13 = select i1 %_0.i12.i21, ptr %b.i14, ptr %c.i16, !unpredictable !32
  %14 = select i1 %_0.i15.i24, ptr %d.i18, ptr %13, !unpredictable !32
  tail call void @llvm.experimental.noalias.scope.decl(metadata !729)
  tail call void @llvm.experimental.noalias.scope.decl(metadata !732)
  tail call void @llvm.experimental.noalias.scope.decl(metadata !734)
  tail call void @llvm.experimental.noalias.scope.decl(metadata !737)
  tail call void @llvm.experimental.noalias.scope.decl(metadata !739)
  tail call void @llvm.experimental.noalias.scope.decl(metadata !742)
  tail call void @llvm.experimental.noalias.scope.decl(metadata !744)
  tail call void @llvm.experimental.noalias.scope.decl(metadata !747)
  %_3.i.i.i.i16.i25 = load i32, ptr %14, align 4, !alias.scope !749, !noalias !750, !noundef !32
  %_4.i.i.i.i17.i26 = load i32, ptr %12, align 4, !alias.scope !750, !noalias !749, !noundef !32
  %_0.i18.i27 = icmp slt i32 %_3.i.i.i.i16.i25, %_4.i.i.i.i17.i26
  %15 = load i32, ptr %10, align 4
  store i32 %15, ptr %_10, align 4
  %dst5.i28 = getelementptr i8, ptr %scratch_base, i64 20
  %.val.i29 = load i32, ptr %14, align 4
  %.val19.i30 = load i32, ptr %12, align 4
  %16 = select i1 %_0.i18.i27, i32 %.val.i29, i32 %.val19.i30
  store i32 %16, ptr %dst5.i28, align 4
  %dst6.i31 = getelementptr i8, ptr %scratch_base, i64 24
  %.val20.i32 = load i32, ptr %12, align 4
  %.val21.i33 = load i32, ptr %14, align 4
  %17 = select i1 %_0.i18.i27, i32 %.val20.i32, i32 %.val21.i33
  store i32 %17, ptr %dst6.i31, align 4
  %18 = getelementptr i8, ptr %scratch_base, i64 28
  %b.val.i34 = load i32, ptr %b.i14, align 4
  %d.val.i35 = load i32, ptr %d.i18, align 4
  %19 = select i1 %_0.i15.i24, i32 %b.val.i34, i32 %d.val.i35
  store i32 %19, ptr %18, align 4
  tail call void @llvm.experimental.noalias.scope.decl(metadata !751)
  %20 = getelementptr i8, ptr %scratch_base, i64 12
  %21 = getelementptr inbounds nuw i8, ptr %scratch_base, i64 28
  %22 = getelementptr inbounds nuw i8, ptr %dst, i64 28
  tail call void @llvm.experimental.noalias.scope.decl(metadata !754)
  tail call void @llvm.experimental.noalias.scope.decl(metadata !757)
  tail call void @llvm.experimental.noalias.scope.decl(metadata !759), !noalias !762
  tail call void @llvm.experimental.noalias.scope.decl(metadata !765), !noalias !762
  tail call void @llvm.experimental.noalias.scope.decl(metadata !767), !noalias !762
  tail call void @llvm.experimental.noalias.scope.decl(metadata !770), !noalias !762
  tail call void @llvm.experimental.noalias.scope.decl(metadata !772), !noalias !762
  tail call void @llvm.experimental.noalias.scope.decl(metadata !775), !noalias !762
  %_3.i.i.i.i.i36 = load i32, ptr %_10, align 4, !alias.scope !777, !noalias !778, !noundef !32
  %_4.i.i.i.i.i37 = load i32, ptr %scratch_base, align 4, !alias.scope !779, !noalias !780, !noundef !32
  %_0.i.i38 = icmp slt i32 %_3.i.i.i.i.i36, %_4.i.i.i.i.i37
  %is_l.i18.i = xor i1 %_0.i.i38, true
  %23 = tail call i32 @llvm.smin.i32(i32 %_3.i.i.i.i.i36, i32 %_4.i.i.i.i.i37)
  store i32 %23, ptr %dst, align 4, !noalias !781
  %count.i.i = zext i1 %_0.i.i38 to i64
  %_12.i.i = getelementptr inbounds nuw i32, ptr %_10, i64 %count.i.i
  %count2.i.i = zext i1 %is_l.i18.i to i64
  %_14.i.i = getelementptr inbounds nuw i32, ptr %scratch_base, i64 %count2.i.i
  %_16.i.i = getelementptr inbounds nuw i8, ptr %dst, i64 4
  tail call void @llvm.experimental.noalias.scope.decl(metadata !783)
  tail call void @llvm.experimental.noalias.scope.decl(metadata !786)
  tail call void @llvm.experimental.noalias.scope.decl(metadata !788), !noalias !791
  tail call void @llvm.experimental.noalias.scope.decl(metadata !794), !noalias !791
  tail call void @llvm.experimental.noalias.scope.decl(metadata !796), !noalias !791
  tail call void @llvm.experimental.noalias.scope.decl(metadata !799), !noalias !791
  tail call void @llvm.experimental.noalias.scope.decl(metadata !801), !noalias !791
  tail call void @llvm.experimental.noalias.scope.decl(metadata !804), !noalias !791
  %_3.i.i.i.i19.i = load i32, ptr %21, align 4, !alias.scope !806, !noalias !807, !noundef !32
  %_4.i.i.i.i20.i = load i32, ptr %20, align 4, !alias.scope !808, !noalias !809, !noundef !32
  %_0.i21.i = icmp slt i32 %_3.i.i.i.i19.i, %_4.i.i.i.i20.i
  %is_l.i.i = xor i1 %_0.i21.i, true
  %24 = tail call i32 @llvm.smax.i32(i32 %_3.i.i.i.i19.i, i32 %_4.i.i.i.i20.i)
  store i32 %24, ptr %22, align 4, !noalias !810
  %count.neg.i.i = sext i1 %is_l.i.i to i64
  %25 = getelementptr i32, ptr %21, i64 %count.neg.i.i
  %count3.neg.i.i = sext i1 %_0.i21.i to i64
  %26 = getelementptr i32, ptr %20, i64 %count3.neg.i.i
  %27 = getelementptr inbounds nuw i8, ptr %dst, i64 24
  tail call void @llvm.experimental.noalias.scope.decl(metadata !812)
  tail call void @llvm.experimental.noalias.scope.decl(metadata !814)
  tail call void @llvm.experimental.noalias.scope.decl(metadata !816), !noalias !762
  tail call void @llvm.experimental.noalias.scope.decl(metadata !818), !noalias !762
  tail call void @llvm.experimental.noalias.scope.decl(metadata !820), !noalias !762
  tail call void @llvm.experimental.noalias.scope.decl(metadata !822), !noalias !762
  tail call void @llvm.experimental.noalias.scope.decl(metadata !824), !noalias !762
  tail call void @llvm.experimental.noalias.scope.decl(metadata !826), !noalias !762
  %_3.i.i.i.i.i36.1 = load i32, ptr %_12.i.i, align 4, !alias.scope !828, !noalias !829, !noundef !32
  %_4.i.i.i.i.i37.1 = load i32, ptr %_14.i.i, align 4, !alias.scope !830, !noalias !831, !noundef !32
  %_0.i.i38.1 = icmp slt i32 %_3.i.i.i.i.i36.1, %_4.i.i.i.i.i37.1
  %is_l.i18.i.1 = xor i1 %_0.i.i38.1, true
  %28 = tail call i32 @llvm.smin.i32(i32 %_3.i.i.i.i.i36.1, i32 %_4.i.i.i.i.i37.1)
  store i32 %28, ptr %_16.i.i, align 4, !noalias !781
  %count.i.i.1 = zext i1 %_0.i.i38.1 to i64
  %_12.i.i.1 = getelementptr inbounds nuw i32, ptr %_12.i.i, i64 %count.i.i.1
  %count2.i.i.1 = zext i1 %is_l.i18.i.1 to i64
  %_14.i.i.1 = getelementptr inbounds nuw i32, ptr %_14.i.i, i64 %count2.i.i.1
  %_16.i.i.1 = getelementptr inbounds nuw i8, ptr %dst, i64 8
  tail call void @llvm.experimental.noalias.scope.decl(metadata !832)
  tail call void @llvm.experimental.noalias.scope.decl(metadata !834)
  tail call void @llvm.experimental.noalias.scope.decl(metadata !836), !noalias !791
  tail call void @llvm.experimental.noalias.scope.decl(metadata !838), !noalias !791
  tail call void @llvm.experimental.noalias.scope.decl(metadata !840), !noalias !791
  tail call void @llvm.experimental.noalias.scope.decl(metadata !842), !noalias !791
  tail call void @llvm.experimental.noalias.scope.decl(metadata !844), !noalias !791
  tail call void @llvm.experimental.noalias.scope.decl(metadata !846), !noalias !791
  %_3.i.i.i.i19.i.1 = load i32, ptr %25, align 4, !alias.scope !848, !noalias !849, !noundef !32
  %_4.i.i.i.i20.i.1 = load i32, ptr %26, align 4, !alias.scope !850, !noalias !851, !noundef !32
  %_0.i21.i.1 = icmp slt i32 %_3.i.i.i.i19.i.1, %_4.i.i.i.i20.i.1
  %is_l.i.i.1 = xor i1 %_0.i21.i.1, true
  %29 = tail call i32 @llvm.smax.i32(i32 %_3.i.i.i.i19.i.1, i32 %_4.i.i.i.i20.i.1)
  store i32 %29, ptr %27, align 4, !noalias !810
  %count.neg.i.i.1 = sext i1 %is_l.i.i.1 to i64
  %30 = getelementptr i32, ptr %25, i64 %count.neg.i.i.1
  %count3.neg.i.i.1 = sext i1 %_0.i21.i.1 to i64
  %31 = getelementptr i32, ptr %26, i64 %count3.neg.i.i.1
  %32 = getelementptr inbounds nuw i8, ptr %dst, i64 20
  tail call void @llvm.experimental.noalias.scope.decl(metadata !852)
  tail call void @llvm.experimental.noalias.scope.decl(metadata !854)
  tail call void @llvm.experimental.noalias.scope.decl(metadata !856), !noalias !762
  tail call void @llvm.experimental.noalias.scope.decl(metadata !858), !noalias !762
  tail call void @llvm.experimental.noalias.scope.decl(metadata !860), !noalias !762
  tail call void @llvm.experimental.noalias.scope.decl(metadata !862), !noalias !762
  tail call void @llvm.experimental.noalias.scope.decl(metadata !864), !noalias !762
  tail call void @llvm.experimental.noalias.scope.decl(metadata !866), !noalias !762
  %_3.i.i.i.i.i36.2 = load i32, ptr %_12.i.i.1, align 4, !alias.scope !868, !noalias !869, !noundef !32
  %_4.i.i.i.i.i37.2 = load i32, ptr %_14.i.i.1, align 4, !alias.scope !870, !noalias !871, !noundef !32
  %_0.i.i38.2 = icmp slt i32 %_3.i.i.i.i.i36.2, %_4.i.i.i.i.i37.2
  %is_l.i18.i.2 = xor i1 %_0.i.i38.2, true
  %33 = tail call i32 @llvm.smin.i32(i32 %_3.i.i.i.i.i36.2, i32 %_4.i.i.i.i.i37.2)
  store i32 %33, ptr %_16.i.i.1, align 4, !noalias !781
  %count.i.i.2 = zext i1 %_0.i.i38.2 to i64
  %_12.i.i.2 = getelementptr inbounds nuw i32, ptr %_12.i.i.1, i64 %count.i.i.2
  %count2.i.i.2 = zext i1 %is_l.i18.i.2 to i64
  %_14.i.i.2 = getelementptr inbounds nuw i32, ptr %_14.i.i.1, i64 %count2.i.i.2
  %_16.i.i.2 = getelementptr inbounds nuw i8, ptr %dst, i64 12
  tail call void @llvm.experimental.noalias.scope.decl(metadata !872)
  tail call void @llvm.experimental.noalias.scope.decl(metadata !874)
  tail call void @llvm.experimental.noalias.scope.decl(metadata !876), !noalias !791
  tail call void @llvm.experimental.noalias.scope.decl(metadata !878), !noalias !791
  tail call void @llvm.experimental.noalias.scope.decl(metadata !880), !noalias !791
  tail call void @llvm.experimental.noalias.scope.decl(metadata !882), !noalias !791
  tail call void @llvm.experimental.noalias.scope.decl(metadata !884), !noalias !791
  tail call void @llvm.experimental.noalias.scope.decl(metadata !886), !noalias !791
  %_3.i.i.i.i19.i.2 = load i32, ptr %30, align 4, !alias.scope !888, !noalias !889, !noundef !32
  %_4.i.i.i.i20.i.2 = load i32, ptr %31, align 4, !alias.scope !890, !noalias !891, !noundef !32
  %_0.i21.i.2 = icmp slt i32 %_3.i.i.i.i19.i.2, %_4.i.i.i.i20.i.2
  %is_l.i.i.2 = xor i1 %_0.i21.i.2, true
  %34 = tail call i32 @llvm.smax.i32(i32 %_3.i.i.i.i19.i.2, i32 %_4.i.i.i.i20.i.2)
  store i32 %34, ptr %32, align 4, !noalias !810
  %count.neg.i.i.2 = sext i1 %is_l.i.i.2 to i64
  %35 = getelementptr i32, ptr %30, i64 %count.neg.i.i.2
  %count3.neg.i.i.2 = sext i1 %_0.i21.i.2 to i64
  %36 = getelementptr i32, ptr %31, i64 %count3.neg.i.i.2
  %37 = getelementptr inbounds nuw i8, ptr %dst, i64 16
  tail call void @llvm.experimental.noalias.scope.decl(metadata !892)
  tail call void @llvm.experimental.noalias.scope.decl(metadata !894)
  tail call void @llvm.experimental.noalias.scope.decl(metadata !896), !noalias !762
  tail call void @llvm.experimental.noalias.scope.decl(metadata !898), !noalias !762
  tail call void @llvm.experimental.noalias.scope.decl(metadata !900), !noalias !762
  tail call void @llvm.experimental.noalias.scope.decl(metadata !902), !noalias !762
  tail call void @llvm.experimental.noalias.scope.decl(metadata !904), !noalias !762
  tail call void @llvm.experimental.noalias.scope.decl(metadata !906), !noalias !762
  %_3.i.i.i.i.i36.3 = load i32, ptr %_12.i.i.2, align 4, !alias.scope !908, !noalias !909, !noundef !32
  %_4.i.i.i.i.i37.3 = load i32, ptr %_14.i.i.2, align 4, !alias.scope !910, !noalias !911, !noundef !32
  %_0.i.i38.3 = icmp slt i32 %_3.i.i.i.i.i36.3, %_4.i.i.i.i.i37.3
  %is_l.i18.i.3 = xor i1 %_0.i.i38.3, true
  %38 = tail call i32 @llvm.smin.i32(i32 %_3.i.i.i.i.i36.3, i32 %_4.i.i.i.i.i37.3)
  store i32 %38, ptr %_16.i.i.2, align 4, !noalias !781
  %count.i.i.3 = zext i1 %_0.i.i38.3 to i64
  %_12.i.i.3 = getelementptr inbounds nuw i32, ptr %_12.i.i.2, i64 %count.i.i.3
  %count2.i.i.3 = zext i1 %is_l.i18.i.3 to i64
  %_14.i.i.3 = getelementptr inbounds nuw i32, ptr %_14.i.i.2, i64 %count2.i.i.3
  tail call void @llvm.experimental.noalias.scope.decl(metadata !912)
  tail call void @llvm.experimental.noalias.scope.decl(metadata !914)
  tail call void @llvm.experimental.noalias.scope.decl(metadata !916), !noalias !791
  tail call void @llvm.experimental.noalias.scope.decl(metadata !918), !noalias !791
  tail call void @llvm.experimental.noalias.scope.decl(metadata !920), !noalias !791
  tail call void @llvm.experimental.noalias.scope.decl(metadata !922), !noalias !791
  tail call void @llvm.experimental.noalias.scope.decl(metadata !924), !noalias !791
  tail call void @llvm.experimental.noalias.scope.decl(metadata !926), !noalias !791
  %_3.i.i.i.i19.i.3 = load i32, ptr %35, align 4, !alias.scope !928, !noalias !929, !noundef !32
  %_4.i.i.i.i20.i.3 = load i32, ptr %36, align 4, !alias.scope !930, !noalias !931, !noundef !32
  %_0.i21.i.3 = icmp slt i32 %_3.i.i.i.i19.i.3, %_4.i.i.i.i20.i.3
  %is_l.i.i.3 = xor i1 %_0.i21.i.3, true
  %39 = tail call i32 @llvm.smax.i32(i32 %_3.i.i.i.i19.i.3, i32 %_4.i.i.i.i20.i.3)
  store i32 %39, ptr %37, align 4, !noalias !810
  %count.neg.i.i.3 = sext i1 %is_l.i.i.3 to i64
  %40 = getelementptr i32, ptr %35, i64 %count.neg.i.i.3
  %count3.neg.i.i.3 = sext i1 %_0.i21.i.3 to i64
  %41 = getelementptr i32, ptr %36, i64 %count3.neg.i.i.3
  %42 = getelementptr i8, ptr %41, i64 4
  %43 = getelementptr i8, ptr %40, i64 4
  %_31.i = icmp ne ptr %_14.i.i.3, %42
  %_32.i = icmp ne ptr %_12.i.i.3, %43
  %or.cond.i = select i1 %_31.i, i1 true, i1 %_32.i
  br i1 %or.cond.i, label %bb13.i, label %_ZN4core5slice4sort6shared9smallsort19bidirectional_merge17h55276e5bd5f0f789E.exit, !prof !530

bb13.i:                                           ; preds = %start
; call core::slice::sort::shared::smallsort::panic_on_ord_violation
  tail call void @_ZN4core5slice4sort6shared9smallsort22panic_on_ord_violation17hc77a22a2d50782cdE() #24, !noalias !751
  unreachable

_ZN4core5slice4sort6shared9smallsort19bidirectional_merge17h55276e5bd5f0f789E.exit: ; preds = %start
  ret void
}

; core::slice::sort::shared::smallsort::bidirectional_merge
; Function Attrs: nonlazybind uwtable
define void @_ZN4core5slice4sort6shared9smallsort19bidirectional_merge17h55276e5bd5f0f789E(ptr noalias noundef nonnull readonly align 4 captures(address) %v.0, i64 noundef range(i64 0, 2305843009213693952) %v.1, ptr noundef writeonly captures(none) %0, ptr noalias noundef readnone align 8 captures(none) dereferenceable(8) %is_less) unnamed_addr #1 {
start:
  %len_div_215 = lshr i64 %v.1, 1
  %_7 = icmp samesign ugt i64 %v.1, 1
  tail call void @llvm.assume(i1 %_7)
  %count1 = add nsw i64 %v.1, -1
  %1 = getelementptr inbounds nuw i32, ptr %0, i64 %count1
  %2 = getelementptr inbounds nuw i32, ptr %v.0, i64 %count1
  %3 = getelementptr i32, ptr %v.0, i64 %len_div_215
  %4 = getelementptr i8, ptr %3, i64 -4
  br label %bb15

bb16:                                             ; preds = %bb15
  %5 = getelementptr i8, ptr %10, i64 4
  %6 = getelementptr i8, ptr %9, i64 4
  %_44 = and i64 %v.1, 1
  %_22 = icmp eq i64 %_44, 0
  br i1 %_22, label %bb9, label %bb5

bb15:                                             ; preds = %start, %bb15
  %dst.sroa.0.029 = phi ptr [ %_16.i, %bb15 ], [ %0, %start ]
  %iter.sroa.0.028 = phi i64 [ %_39, %bb15 ], [ 0, %start ]
  %left.sroa.0.027 = phi ptr [ %_14.i, %bb15 ], [ %v.0, %start ]
  %right.sroa.0.026 = phi ptr [ %_12.i, %bb15 ], [ %3, %start ]
  %left_rev.sroa.0.025 = phi ptr [ %10, %bb15 ], [ %4, %start ]
  %right_rev.sroa.0.024 = phi ptr [ %9, %bb15 ], [ %2, %start ]
  %dst_rev.sroa.0.023 = phi ptr [ %11, %bb15 ], [ %1, %start ]
  %_39 = add nuw nsw i64 %iter.sroa.0.028, 1
  tail call void @llvm.experimental.noalias.scope.decl(metadata !932)
  tail call void @llvm.experimental.noalias.scope.decl(metadata !935)
  tail call void @llvm.experimental.noalias.scope.decl(metadata !937), !noalias !940
  tail call void @llvm.experimental.noalias.scope.decl(metadata !943), !noalias !940
  tail call void @llvm.experimental.noalias.scope.decl(metadata !945), !noalias !940
  tail call void @llvm.experimental.noalias.scope.decl(metadata !948), !noalias !940
  tail call void @llvm.experimental.noalias.scope.decl(metadata !950), !noalias !940
  tail call void @llvm.experimental.noalias.scope.decl(metadata !953), !noalias !940
  %_3.i.i.i.i = load i32, ptr %right.sroa.0.026, align 4, !alias.scope !955, !noalias !956, !noundef !32
  %_4.i.i.i.i = load i32, ptr %left.sroa.0.027, align 4, !alias.scope !957, !noalias !958, !noundef !32
  %_0.i = icmp slt i32 %_3.i.i.i.i, %_4.i.i.i.i
  %is_l.i18 = xor i1 %_0.i, true
  %7 = tail call i32 @llvm.smin.i32(i32 %_3.i.i.i.i, i32 %_4.i.i.i.i)
  store i32 %7, ptr %dst.sroa.0.029, align 4, !noalias !959
  %count.i = zext i1 %_0.i to i64
  %_12.i = getelementptr inbounds nuw i32, ptr %right.sroa.0.026, i64 %count.i
  %count2.i = zext i1 %is_l.i18 to i64
  %_14.i = getelementptr inbounds nuw i32, ptr %left.sroa.0.027, i64 %count2.i
  %_16.i = getelementptr inbounds nuw i8, ptr %dst.sroa.0.029, i64 4
  tail call void @llvm.experimental.noalias.scope.decl(metadata !961)
  tail call void @llvm.experimental.noalias.scope.decl(metadata !964)
  tail call void @llvm.experimental.noalias.scope.decl(metadata !966), !noalias !969
  tail call void @llvm.experimental.noalias.scope.decl(metadata !972), !noalias !969
  tail call void @llvm.experimental.noalias.scope.decl(metadata !974), !noalias !969
  tail call void @llvm.experimental.noalias.scope.decl(metadata !977), !noalias !969
  tail call void @llvm.experimental.noalias.scope.decl(metadata !979), !noalias !969
  tail call void @llvm.experimental.noalias.scope.decl(metadata !982), !noalias !969
  %_3.i.i.i.i19 = load i32, ptr %right_rev.sroa.0.024, align 4, !alias.scope !984, !noalias !985, !noundef !32
  %_4.i.i.i.i20 = load i32, ptr %left_rev.sroa.0.025, align 4, !alias.scope !986, !noalias !987, !noundef !32
  %_0.i21 = icmp slt i32 %_3.i.i.i.i19, %_4.i.i.i.i20
  %is_l.i = xor i1 %_0.i21, true
  %8 = tail call i32 @llvm.smax.i32(i32 %_3.i.i.i.i19, i32 %_4.i.i.i.i20)
  store i32 %8, ptr %dst_rev.sroa.0.023, align 4, !noalias !988
  %count.neg.i = sext i1 %is_l.i to i64
  %9 = getelementptr i32, ptr %right_rev.sroa.0.024, i64 %count.neg.i
  %count3.neg.i = sext i1 %_0.i21 to i64
  %10 = getelementptr i32, ptr %left_rev.sroa.0.025, i64 %count3.neg.i
  %11 = getelementptr inbounds i8, ptr %dst_rev.sroa.0.023, i64 -4
  %exitcond.not = icmp eq i64 %_39, %len_div_215
  br i1 %exitcond.not, label %bb16, label %bb15

bb5:                                              ; preds = %bb16
  %left_nonempty = icmp ult ptr %_14.i, %5
  %left.sroa.0.0.right.sroa.0.0 = select i1 %left_nonempty, ptr %_14.i, ptr %_12.i
  %12 = load i32, ptr %left.sroa.0.0.right.sroa.0.0, align 4
  store i32 %12, ptr %_16.i, align 4
  %count2 = zext i1 %left_nonempty to i64
  %_26 = getelementptr inbounds nuw i32, ptr %_14.i, i64 %count2
  %_30 = xor i1 %left_nonempty, true
  %count3 = zext i1 %_30 to i64
  %_28 = getelementptr inbounds nuw i32, ptr %_12.i, i64 %count3
  br label %bb9

bb9:                                              ; preds = %bb16, %bb5
  %right.sroa.0.1 = phi ptr [ %_12.i, %bb16 ], [ %_28, %bb5 ]
  %left.sroa.0.1 = phi ptr [ %_14.i, %bb16 ], [ %_26, %bb5 ]
  %_31 = icmp ne ptr %left.sroa.0.1, %5
  %_32 = icmp ne ptr %right.sroa.0.1, %6
  %or.cond = select i1 %_31, i1 true, i1 %_32
  br i1 %or.cond, label %bb13, label %bb14, !prof !530

bb14:                                             ; preds = %bb9
  ret void

bb13:                                             ; preds = %bb9
; call core::slice::sort::shared::smallsort::panic_on_ord_violation
  tail call void @_ZN4core5slice4sort6shared9smallsort22panic_on_ord_violation17hc77a22a2d50782cdE() #24
  unreachable
}

; core::slice::sort::shared::smallsort::bidirectional_merge
; Function Attrs: nonlazybind uwtable
define void @_ZN4core5slice4sort6shared9smallsort19bidirectional_merge17hf90f7bbee5e53a0aE(ptr noalias noundef nonnull readonly align 4 captures(address) %v.0, i64 noundef range(i64 0, 2305843009213693952) %v.1, ptr noundef writeonly captures(none) %0, ptr noalias readnone align 8 captures(none) %is_less) unnamed_addr #1 {
start:
  %len_div_215 = lshr i64 %v.1, 1
  %_7 = icmp samesign ugt i64 %v.1, 1
  tail call void @llvm.assume(i1 %_7)
  %count1 = add nsw i64 %v.1, -1
  %1 = getelementptr inbounds nuw float, ptr %0, i64 %count1
  %2 = getelementptr inbounds nuw float, ptr %v.0, i64 %count1
  %3 = getelementptr float, ptr %v.0, i64 %len_div_215
  %4 = getelementptr i8, ptr %3, i64 -4
  br label %bb15

bb16:                                             ; preds = %"_ZN5alloc5slice29_$LT$impl$u20$$u5b$T$u5d$$GT$7sort_by28_$u7b$$u7b$closure$u7d$$u7d$17h8d9a43e174231f37E.exit24"
  %5 = getelementptr i8, ptr %10, i64 4
  %6 = getelementptr i8, ptr %9, i64 4
  %_44 = and i64 %v.1, 1
  %_22 = icmp eq i64 %_44, 0
  br i1 %_22, label %bb9, label %bb5

bb15:                                             ; preds = %start, %"_ZN5alloc5slice29_$LT$impl$u20$$u5b$T$u5d$$GT$7sort_by28_$u7b$$u7b$closure$u7d$$u7d$17h8d9a43e174231f37E.exit24"
  %dst.sroa.0.042 = phi ptr [ %_16.i, %"_ZN5alloc5slice29_$LT$impl$u20$$u5b$T$u5d$$GT$7sort_by28_$u7b$$u7b$closure$u7d$$u7d$17h8d9a43e174231f37E.exit24" ], [ %0, %start ]
  %iter.sroa.0.041 = phi i64 [ %_39, %"_ZN5alloc5slice29_$LT$impl$u20$$u5b$T$u5d$$GT$7sort_by28_$u7b$$u7b$closure$u7d$$u7d$17h8d9a43e174231f37E.exit24" ], [ 0, %start ]
  %left.sroa.0.040 = phi ptr [ %_14.i, %"_ZN5alloc5slice29_$LT$impl$u20$$u5b$T$u5d$$GT$7sort_by28_$u7b$$u7b$closure$u7d$$u7d$17h8d9a43e174231f37E.exit24" ], [ %v.0, %start ]
  %right.sroa.0.039 = phi ptr [ %_12.i, %"_ZN5alloc5slice29_$LT$impl$u20$$u5b$T$u5d$$GT$7sort_by28_$u7b$$u7b$closure$u7d$$u7d$17h8d9a43e174231f37E.exit24" ], [ %3, %start ]
  %left_rev.sroa.0.038 = phi ptr [ %10, %"_ZN5alloc5slice29_$LT$impl$u20$$u5b$T$u5d$$GT$7sort_by28_$u7b$$u7b$closure$u7d$$u7d$17h8d9a43e174231f37E.exit24" ], [ %4, %start ]
  %right_rev.sroa.0.037 = phi ptr [ %9, %"_ZN5alloc5slice29_$LT$impl$u20$$u5b$T$u5d$$GT$7sort_by28_$u7b$$u7b$closure$u7d$$u7d$17h8d9a43e174231f37E.exit24" ], [ %2, %start ]
  %dst_rev.sroa.0.036 = phi ptr [ %11, %"_ZN5alloc5slice29_$LT$impl$u20$$u5b$T$u5d$$GT$7sort_by28_$u7b$$u7b$closure$u7d$$u7d$17h8d9a43e174231f37E.exit24" ], [ %1, %start ]
  %_39 = add nuw nsw i64 %iter.sroa.0.041, 1
  tail call void @llvm.experimental.noalias.scope.decl(metadata !990)
  tail call void @llvm.experimental.noalias.scope.decl(metadata !993)
  tail call void @llvm.experimental.noalias.scope.decl(metadata !995), !noalias !998
  tail call void @llvm.experimental.noalias.scope.decl(metadata !1001), !noalias !998
  tail call void @llvm.experimental.noalias.scope.decl(metadata !1003), !noalias !998
  tail call void @llvm.experimental.noalias.scope.decl(metadata !1006), !noalias !998
  %_4.i.i.i = load float, ptr %right.sroa.0.039, align 4, !alias.scope !1008, !noalias !1009, !noundef !32
  %_5.i.i.i = load float, ptr %left.sroa.0.040, align 4, !alias.scope !1010, !noalias !1011, !noundef !32
  %.not.i.i.i = fcmp uno float %_4.i.i.i, %_5.i.i.i
  br i1 %.not.i.i.i, label %bb2.i.i.i, label %"_ZN5alloc5slice29_$LT$impl$u20$$u5b$T$u5d$$GT$7sort_by28_$u7b$$u7b$closure$u7d$$u7d$17h8d9a43e174231f37E.exit", !prof !35

bb2.i.i.i:                                        ; preds = %bb15
; call core::option::unwrap_failed
  tail call void @_ZN4core6option13unwrap_failed17hef2534b77b89c04fE(ptr noalias noundef readonly align 8 captures(address, read_provenance) dereferenceable(24) @alloc_42c1e7ccc7513d2fb76bea5b8a3258db) #24, !noalias !1012
  unreachable

"_ZN5alloc5slice29_$LT$impl$u20$$u5b$T$u5d$$GT$7sort_by28_$u7b$$u7b$closure$u7d$$u7d$17h8d9a43e174231f37E.exit": ; preds = %bb15
  %_0.i = fcmp olt float %_4.i.i.i, %_5.i.i.i
  %..i17 = select i1 %_0.i, ptr %right.sroa.0.039, ptr %left.sroa.0.040
  %7 = load i32, ptr %..i17, align 4, !noalias !1013
  store i32 %7, ptr %dst.sroa.0.042, align 4, !noalias !1013
  tail call void @llvm.experimental.noalias.scope.decl(metadata !1015)
  tail call void @llvm.experimental.noalias.scope.decl(metadata !1018)
  tail call void @llvm.experimental.noalias.scope.decl(metadata !1020), !noalias !1023
  tail call void @llvm.experimental.noalias.scope.decl(metadata !1026), !noalias !1023
  tail call void @llvm.experimental.noalias.scope.decl(metadata !1028), !noalias !1023
  tail call void @llvm.experimental.noalias.scope.decl(metadata !1031), !noalias !1023
  %_4.i.i.i19 = load float, ptr %right_rev.sroa.0.037, align 4, !alias.scope !1033, !noalias !1034, !noundef !32
  %_5.i.i.i20 = load float, ptr %left_rev.sroa.0.038, align 4, !alias.scope !1035, !noalias !1036, !noundef !32
  %.not.i.i.i21 = fcmp uno float %_4.i.i.i19, %_5.i.i.i20
  br i1 %.not.i.i.i21, label %bb2.i.i.i23, label %"_ZN5alloc5slice29_$LT$impl$u20$$u5b$T$u5d$$GT$7sort_by28_$u7b$$u7b$closure$u7d$$u7d$17h8d9a43e174231f37E.exit24", !prof !35

bb2.i.i.i23:                                      ; preds = %"_ZN5alloc5slice29_$LT$impl$u20$$u5b$T$u5d$$GT$7sort_by28_$u7b$$u7b$closure$u7d$$u7d$17h8d9a43e174231f37E.exit"
; call core::option::unwrap_failed
  tail call void @_ZN4core6option13unwrap_failed17hef2534b77b89c04fE(ptr noalias noundef readonly align 8 captures(address, read_provenance) dereferenceable(24) @alloc_42c1e7ccc7513d2fb76bea5b8a3258db) #24, !noalias !1037
  unreachable

"_ZN5alloc5slice29_$LT$impl$u20$$u5b$T$u5d$$GT$7sort_by28_$u7b$$u7b$closure$u7d$$u7d$17h8d9a43e174231f37E.exit24": ; preds = %"_ZN5alloc5slice29_$LT$impl$u20$$u5b$T$u5d$$GT$7sort_by28_$u7b$$u7b$closure$u7d$$u7d$17h8d9a43e174231f37E.exit"
  %_16.i = getelementptr inbounds nuw i8, ptr %dst.sroa.0.042, i64 4
  %is_l.i18 = xor i1 %_0.i, true
  %count2.i = zext i1 %is_l.i18 to i64
  %_14.i = getelementptr inbounds nuw float, ptr %left.sroa.0.040, i64 %count2.i
  %count.i = zext i1 %_0.i to i64
  %_12.i = getelementptr inbounds nuw float, ptr %right.sroa.0.039, i64 %count.i
  %_0.i22 = fcmp olt float %_4.i.i.i19, %_5.i.i.i20
  %..i = select i1 %_0.i22, ptr %left_rev.sroa.0.038, ptr %right_rev.sroa.0.037
  %is_l.i = xor i1 %_0.i22, true
  %8 = load i32, ptr %..i, align 4, !noalias !1038
  store i32 %8, ptr %dst_rev.sroa.0.036, align 4, !noalias !1038
  %count.neg.i = sext i1 %is_l.i to i64
  %9 = getelementptr float, ptr %right_rev.sroa.0.037, i64 %count.neg.i
  %count3.neg.i = sext i1 %_0.i22 to i64
  %10 = getelementptr float, ptr %left_rev.sroa.0.038, i64 %count3.neg.i
  %11 = getelementptr inbounds i8, ptr %dst_rev.sroa.0.036, i64 -4
  %exitcond.not = icmp eq i64 %_39, %len_div_215
  br i1 %exitcond.not, label %bb16, label %bb15

bb5:                                              ; preds = %bb16
  %left_nonempty = icmp ult ptr %_14.i, %5
  %left.sroa.0.0.right.sroa.0.0 = select i1 %left_nonempty, ptr %_14.i, ptr %_12.i
  %12 = load i32, ptr %left.sroa.0.0.right.sroa.0.0, align 4
  store i32 %12, ptr %_16.i, align 4
  %count2 = zext i1 %left_nonempty to i64
  %_26 = getelementptr inbounds nuw float, ptr %_14.i, i64 %count2
  %_30 = xor i1 %left_nonempty, true
  %count3 = zext i1 %_30 to i64
  %_28 = getelementptr inbounds nuw float, ptr %_12.i, i64 %count3
  br label %bb9

bb9:                                              ; preds = %bb16, %bb5
  %right.sroa.0.1 = phi ptr [ %_12.i, %bb16 ], [ %_28, %bb5 ]
  %left.sroa.0.1 = phi ptr [ %_14.i, %bb16 ], [ %_26, %bb5 ]
  %_31 = icmp ne ptr %left.sroa.0.1, %5
  %_32 = icmp ne ptr %right.sroa.0.1, %6
  %or.cond = select i1 %_31, i1 true, i1 %_32
  br i1 %or.cond, label %bb13, label %bb14, !prof !530

bb14:                                             ; preds = %bb9
  ret void

bb13:                                             ; preds = %bb9
; call core::slice::sort::shared::smallsort::panic_on_ord_violation
  tail call void @_ZN4core5slice4sort6shared9smallsort22panic_on_ord_violation17hc77a22a2d50782cdE() #24
  unreachable
}

; core::slice::sort::shared::smallsort::insertion_sort_shift_left
; Function Attrs: nonlazybind uwtable
define void @_ZN4core5slice4sort6shared9smallsort25insertion_sort_shift_left17h6d6eb1537a3cb15eE(ptr noalias noundef nonnull align 4 captures(address) %v.0, i64 noundef range(i64 0, 2305843009213693952) %v.1, i64 noundef %offset, ptr noalias readnone align 8 captures(none) %is_less) unnamed_addr #1 personality ptr @rust_eh_personality {
start:
  %0 = add i64 %offset, -1
  %or.cond.not = icmp ult i64 %0, %v.1
  br i1 %or.cond.not, label %bb3, label %bb2

bb2:                                              ; preds = %start
  tail call void @llvm.trap()
  unreachable

bb3:                                              ; preds = %start
  %v_end = getelementptr inbounds nuw float, ptr %v.0, i64 %v.1
  %_11.not3 = icmp samesign eq i64 %offset, %v.1
  br i1 %_11.not3, label %bb7, label %bb5.preheader

bb5.preheader:                                    ; preds = %bb3
  %1 = getelementptr inbounds nuw float, ptr %v.0, i64 %offset
  br label %bb5

bb7:                                              ; preds = %_ZN4core5slice4sort6shared9smallsort11insert_tail17h1908b4afc7b83047E.exit, %bb3
  ret void

bb5:                                              ; preds = %bb5.preheader, %_ZN4core5slice4sort6shared9smallsort11insert_tail17h1908b4afc7b83047E.exit
  %tail.sroa.0.04 = phi ptr [ %_15, %_ZN4core5slice4sort6shared9smallsort11insert_tail17h1908b4afc7b83047E.exit ], [ %1, %bb5.preheader ]
  %2 = getelementptr inbounds i8, ptr %tail.sroa.0.04, i64 -4
  tail call void @llvm.experimental.noalias.scope.decl(metadata !1040)
  tail call void @llvm.experimental.noalias.scope.decl(metadata !1043)
  tail call void @llvm.experimental.noalias.scope.decl(metadata !1045)
  tail call void @llvm.experimental.noalias.scope.decl(metadata !1048)
  tail call void @llvm.experimental.noalias.scope.decl(metadata !1050)
  tail call void @llvm.experimental.noalias.scope.decl(metadata !1053)
  %_4.i.i.i.i = load float, ptr %tail.sroa.0.04, align 4, !alias.scope !1055, !noalias !1056, !noundef !32
  %_5.i.i.i.i = load float, ptr %2, align 4, !alias.scope !1056, !noalias !1055, !noundef !32
  %.not.i.i.i.i = fcmp uno float %_4.i.i.i.i, %_5.i.i.i.i
  br i1 %.not.i.i.i.i, label %bb2.i.i.i.i, label %"_ZN5alloc5slice29_$LT$impl$u20$$u5b$T$u5d$$GT$7sort_by28_$u7b$$u7b$closure$u7d$$u7d$17h8d9a43e174231f37E.exit.i", !prof !35

bb2.i.i.i.i:                                      ; preds = %bb5
; call core::option::unwrap_failed
  tail call void @_ZN4core6option13unwrap_failed17hef2534b77b89c04fE(ptr noalias noundef readonly align 8 captures(address, read_provenance) dereferenceable(24) @alloc_42c1e7ccc7513d2fb76bea5b8a3258db) #24, !noalias !1057
  unreachable

"_ZN5alloc5slice29_$LT$impl$u20$$u5b$T$u5d$$GT$7sort_by28_$u7b$$u7b$closure$u7d$$u7d$17h8d9a43e174231f37E.exit.i": ; preds = %bb5
  %_0.i.i = fcmp olt float %_4.i.i.i.i, %_5.i.i.i.i
  br i1 %_0.i.i, label %bb4.i, label %_ZN4core5slice4sort6shared9smallsort11insert_tail17h1908b4afc7b83047E.exit

bb4.i:                                            ; preds = %"_ZN5alloc5slice29_$LT$impl$u20$$u5b$T$u5d$$GT$7sort_by28_$u7b$$u7b$closure$u7d$$u7d$17h8d9a43e174231f37E.exit.i", %"_ZN5alloc5slice29_$LT$impl$u20$$u5b$T$u5d$$GT$7sort_by28_$u7b$$u7b$closure$u7d$$u7d$17h8d9a43e174231f37E.exit6.i"
  %gap_guard.sroa.5.0.i = phi ptr [ %sift.sroa.0.0.i, %"_ZN5alloc5slice29_$LT$impl$u20$$u5b$T$u5d$$GT$7sort_by28_$u7b$$u7b$closure$u7d$$u7d$17h8d9a43e174231f37E.exit6.i" ], [ %tail.sroa.0.04, %"_ZN5alloc5slice29_$LT$impl$u20$$u5b$T$u5d$$GT$7sort_by28_$u7b$$u7b$closure$u7d$$u7d$17h8d9a43e174231f37E.exit.i" ]
  %sift.sroa.0.0.i = phi ptr [ %4, %"_ZN5alloc5slice29_$LT$impl$u20$$u5b$T$u5d$$GT$7sort_by28_$u7b$$u7b$closure$u7d$$u7d$17h8d9a43e174231f37E.exit6.i" ], [ %2, %"_ZN5alloc5slice29_$LT$impl$u20$$u5b$T$u5d$$GT$7sort_by28_$u7b$$u7b$closure$u7d$$u7d$17h8d9a43e174231f37E.exit.i" ]
  %3 = load i32, ptr %sift.sroa.0.0.i, align 4
  store i32 %3, ptr %gap_guard.sroa.5.0.i, align 4
  %_18.i = icmp eq ptr %sift.sroa.0.0.i, %v.0
  br i1 %_18.i, label %bb10.i, label %bb6.i

bb6.i:                                            ; preds = %bb4.i
  %4 = getelementptr inbounds i8, ptr %sift.sroa.0.0.i, i64 -4
  %_5.i.i.i2.i = load float, ptr %4, align 4, !alias.scope !1058, !noalias !1065, !noundef !32
  %.not.i.i.i3.i = fcmp uno float %_4.i.i.i.i, %_5.i.i.i2.i
  br i1 %.not.i.i.i3.i, label %bb2.i.i.i5.i, label %"_ZN5alloc5slice29_$LT$impl$u20$$u5b$T$u5d$$GT$7sort_by28_$u7b$$u7b$closure$u7d$$u7d$17h8d9a43e174231f37E.exit6.i", !prof !35

bb2.i.i.i5.i:                                     ; preds = %bb6.i
; invoke core::option::unwrap_failed
  invoke void @_ZN4core6option13unwrap_failed17hef2534b77b89c04fE(ptr noalias noundef readonly align 8 captures(address, read_provenance) dereferenceable(24) @alloc_42c1e7ccc7513d2fb76bea5b8a3258db) #24
          to label %.noexc.i unwind label %cleanup.i

.noexc.i:                                         ; preds = %bb2.i.i.i5.i
  unreachable

"_ZN5alloc5slice29_$LT$impl$u20$$u5b$T$u5d$$GT$7sort_by28_$u7b$$u7b$closure$u7d$$u7d$17h8d9a43e174231f37E.exit6.i": ; preds = %bb6.i
  %_0.i4.i = fcmp olt float %_4.i.i.i.i, %_5.i.i.i2.i
  br i1 %_0.i4.i, label %bb4.i, label %bb10.i

cleanup.i:                                        ; preds = %bb2.i.i.i5.i
  %5 = landingpad { ptr, i32 }
          cleanup
  store float %_4.i.i.i.i, ptr %sift.sroa.0.0.i, align 4, !noalias !1069
  resume { ptr, i32 } %5

bb10.i:                                           ; preds = %"_ZN5alloc5slice29_$LT$impl$u20$$u5b$T$u5d$$GT$7sort_by28_$u7b$$u7b$closure$u7d$$u7d$17h8d9a43e174231f37E.exit6.i", %bb4.i
  store float %_4.i.i.i.i, ptr %sift.sroa.0.0.i, align 4, !noalias !1074
  br label %_ZN4core5slice4sort6shared9smallsort11insert_tail17h1908b4afc7b83047E.exit

_ZN4core5slice4sort6shared9smallsort11insert_tail17h1908b4afc7b83047E.exit: ; preds = %"_ZN5alloc5slice29_$LT$impl$u20$$u5b$T$u5d$$GT$7sort_by28_$u7b$$u7b$closure$u7d$$u7d$17h8d9a43e174231f37E.exit.i", %bb10.i
  %_15 = getelementptr inbounds nuw i8, ptr %tail.sroa.0.04, i64 4
  %_11.not = icmp eq ptr %_15, %v_end
  br i1 %_11.not, label %bb7, label %bb5
}

; core::slice::sort::shared::smallsort::insertion_sort_shift_left
; Function Attrs: nounwind nonlazybind memory(argmem: readwrite, inaccessiblemem: readwrite) uwtable
define void @_ZN4core5slice4sort6shared9smallsort25insertion_sort_shift_left17ha3f81a025b72336aE(ptr noalias noundef nonnull align 4 captures(address) %v.0, i64 noundef range(i64 0, 2305843009213693952) %v.1, i64 noundef %offset, ptr noalias readnone align 8 captures(none) %is_less) unnamed_addr #4 personality ptr @rust_eh_personality {
start:
  %0 = add i64 %offset, -1
  %or.cond.not = icmp ult i64 %0, %v.1
  br i1 %or.cond.not, label %bb3, label %bb2

bb2:                                              ; preds = %start
  tail call void @llvm.trap()
  unreachable

bb3:                                              ; preds = %start
  %v_end = getelementptr inbounds nuw i32, ptr %v.0, i64 %v.1
  %_11.not1 = icmp samesign eq i64 %offset, %v.1
  br i1 %_11.not1, label %bb7, label %bb5.preheader

bb5.preheader:                                    ; preds = %bb3
  %1 = getelementptr inbounds nuw i32, ptr %v.0, i64 %offset
  br label %bb5

bb7:                                              ; preds = %_ZN4core5slice4sort6shared9smallsort11insert_tail17h38f8757d381cba91E.exit, %bb3
  ret void

bb5:                                              ; preds = %bb5.preheader, %_ZN4core5slice4sort6shared9smallsort11insert_tail17h38f8757d381cba91E.exit
  %tail.sroa.0.02 = phi ptr [ %_15, %_ZN4core5slice4sort6shared9smallsort11insert_tail17h38f8757d381cba91E.exit ], [ %1, %bb5.preheader ]
  %2 = getelementptr inbounds i8, ptr %tail.sroa.0.02, i64 -4
  tail call void @llvm.experimental.noalias.scope.decl(metadata !1079)
  tail call void @llvm.experimental.noalias.scope.decl(metadata !1082)
  tail call void @llvm.experimental.noalias.scope.decl(metadata !1084)
  tail call void @llvm.experimental.noalias.scope.decl(metadata !1087)
  tail call void @llvm.experimental.noalias.scope.decl(metadata !1089)
  tail call void @llvm.experimental.noalias.scope.decl(metadata !1092)
  tail call void @llvm.experimental.noalias.scope.decl(metadata !1094)
  tail call void @llvm.experimental.noalias.scope.decl(metadata !1097)
  %_3.i.i.i.i.i = load i32, ptr %tail.sroa.0.02, align 4, !alias.scope !1099, !noalias !1100, !noundef !32
  %_4.i.i.i.i.i = load i32, ptr %2, align 4, !alias.scope !1100, !noalias !1099, !noundef !32
  %_0.i.i = icmp slt i32 %_3.i.i.i.i.i, %_4.i.i.i.i.i
  br i1 %_0.i.i, label %bb4.i, label %_ZN4core5slice4sort6shared9smallsort11insert_tail17h38f8757d381cba91E.exit

bb4.i:                                            ; preds = %bb5, %bb6.i
  %gap_guard.sroa.5.0.i = phi ptr [ %sift.sroa.0.0.i, %bb6.i ], [ %tail.sroa.0.02, %bb5 ]
  %sift.sroa.0.0.i = phi ptr [ %4, %bb6.i ], [ %2, %bb5 ]
  %3 = load i32, ptr %sift.sroa.0.0.i, align 4
  store i32 %3, ptr %gap_guard.sroa.5.0.i, align 4
  %_18.i = icmp eq ptr %sift.sroa.0.0.i, %v.0
  br i1 %_18.i, label %bb10.i, label %bb6.i

bb6.i:                                            ; preds = %bb4.i
  %4 = getelementptr inbounds i8, ptr %sift.sroa.0.0.i, i64 -4
  %_4.i.i.i.i2.i = load i32, ptr %4, align 4, !alias.scope !1101, !noalias !1110, !noundef !32
  %_0.i3.i = icmp slt i32 %_3.i.i.i.i.i, %_4.i.i.i.i2.i
  br i1 %_0.i3.i, label %bb4.i, label %bb10.i

bb10.i:                                           ; preds = %bb6.i, %bb4.i
  store i32 %_3.i.i.i.i.i, ptr %sift.sroa.0.0.i, align 4, !noalias !1115
  br label %_ZN4core5slice4sort6shared9smallsort11insert_tail17h38f8757d381cba91E.exit

_ZN4core5slice4sort6shared9smallsort11insert_tail17h38f8757d381cba91E.exit: ; preds = %bb5, %bb10.i
  %_15 = getelementptr inbounds nuw i8, ptr %tail.sroa.0.02, i64 4
  %_11.not = icmp eq ptr %_15, %v_end
  br i1 %_11.not, label %bb7, label %bb5
}

; core::slice::sort::shared::smallsort::small_sort_general_with_scratch
; Function Attrs: nonlazybind uwtable
define void @_ZN4core5slice4sort6shared9smallsort31small_sort_general_with_scratch17hcad4c593c953e962E(ptr noalias noundef nonnull align 4 captures(none) %v.0, i64 noundef range(i64 0, 2305843009213693952) %v.1, ptr noalias noundef nonnull align 4 captures(address) %scratch.0, i64 noundef range(i64 0, 2305843009213693952) %scratch.1, ptr noalias readnone align 8 captures(none) %is_less) unnamed_addr #1 personality ptr @rust_eh_personality {
start:
  %iter = alloca [32 x i8], align 8
  %_5 = icmp samesign ult i64 %v.1, 2
  br i1 %_5, label %bb29, label %bb2

bb2:                                              ; preds = %start
  %_8 = add nuw nsw i64 %v.1, 16
  %_6 = icmp samesign ult i64 %scratch.1, %_8
  br i1 %_6, label %bb3, label %bb4

bb4:                                              ; preds = %bb2
  %len_div_211 = lshr i64 %v.1, 1
  %_14 = icmp samesign ugt i64 %v.1, 15
  br i1 %_14, label %bb6, label %bb9

bb3:                                              ; preds = %bb2
  tail call void @llvm.trap()
  unreachable

bb9:                                              ; preds = %bb4
  %_22 = icmp samesign ugt i64 %v.1, 7
  br i1 %_22, label %bb10, label %bb46

bb6:                                              ; preds = %bb4
  %_16 = getelementptr inbounds nuw float, ptr %scratch.0, i64 %v.1
; call core::slice::sort::shared::smallsort::sort8_stable
  tail call void @_ZN4core5slice4sort6shared9smallsort12sort8_stable17h455fd2e6ec2def5bE(ptr noundef nonnull %v.0, ptr noundef nonnull %scratch.0, ptr noundef nonnull %_16, ptr noalias align 8 poison)
  %_18 = getelementptr inbounds nuw float, ptr %v.0, i64 %len_div_211
  %_19 = getelementptr inbounds nuw float, ptr %scratch.0, i64 %len_div_211
  %_20 = getelementptr inbounds nuw i8, ptr %_16, i64 32
; call core::slice::sort::shared::smallsort::sort8_stable
  tail call void @_ZN4core5slice4sort6shared9smallsort12sort8_stable17h455fd2e6ec2def5bE(ptr noundef nonnull %_18, ptr noundef nonnull %_19, ptr noundef nonnull %_20, ptr noalias align 8 poison)
  br label %bb15

bb10:                                             ; preds = %bb9
; call core::slice::sort::shared::smallsort::sort4_stable
  tail call void @_ZN4core5slice4sort6shared9smallsort12sort4_stable17hd377801de70c381dE(ptr noundef nonnull %v.0, ptr noundef nonnull %scratch.0, ptr noalias align 8 poison)
  %_27 = getelementptr inbounds nuw float, ptr %v.0, i64 %len_div_211
  %_28 = getelementptr inbounds nuw float, ptr %scratch.0, i64 %len_div_211
; call core::slice::sort::shared::smallsort::sort4_stable
  tail call void @_ZN4core5slice4sort6shared9smallsort12sort4_stable17hd377801de70c381dE(ptr noundef nonnull %_27, ptr noundef nonnull %_28, ptr noalias align 8 poison)
  br label %bb15

bb46:                                             ; preds = %bb9
  %0 = load i32, ptr %v.0, align 4
  store i32 %0, ptr %scratch.0, align 4
  %_31 = getelementptr inbounds nuw float, ptr %v.0, i64 %len_div_211
  %1 = getelementptr inbounds nuw float, ptr %scratch.0, i64 %len_div_211
  %2 = load i32, ptr %_31, align 4
  store i32 %2, ptr %1, align 4
  br label %bb15

bb15:                                             ; preds = %bb46, %bb10, %bb6
  %presorted_len.sroa.0.0 = phi i64 [ 8, %bb6 ], [ 4, %bb10 ], [ 1, %bb46 ]
  call void @llvm.lifetime.start.p0(i64 32, ptr nonnull %iter)
  store i64 0, ptr %iter, align 8
  %_37.sroa.4.0.iter.sroa_idx = getelementptr inbounds nuw i8, ptr %iter, i64 8
  store i64 2, ptr %_37.sroa.4.0.iter.sroa_idx, align 8
  %_37.sroa.5.0.iter.sroa_idx = getelementptr inbounds nuw i8, ptr %iter, i64 16
  store i64 0, ptr %_37.sroa.5.0.iter.sroa_idx, align 8
  %_37.sroa.6.0.iter.sroa_idx = getelementptr inbounds nuw i8, ptr %iter, i64 24
  store i64 %len_div_211, ptr %_37.sroa.6.0.iter.sroa_idx, align 8
  %3 = sub nsw i64 %v.1, %len_div_211
  %iter1.sroa.0.117 = add nuw nsw i64 %presorted_len.sroa.0.0, 1
  br label %bb16

bb16:                                             ; preds = %bb16.backedge, %bb15
  %4 = phi i64 [ 0, %bb15 ], [ %5, %bb16.backedge ]
  %_5.not.i.not = icmp eq i64 %4, 2
  br i1 %_5.not.i.not, label %"_ZN4core5array4iter10iter_inner78PolymorphicIter$LT$$u5b$core..mem..maybe_uninit..MaybeUninit$LT$T$GT$$u5d$$GT$4next17h3490a55303cfd2beE.exit", label %bb1.i

bb1.i:                                            ; preds = %bb16
  %_11.i = add nuw nsw i64 %4, 1
  store i64 %_11.i, ptr %iter, align 8, !alias.scope !1120
  %_20.i = icmp ult i64 %4, 2
  tail call void @llvm.assume(i1 %_20.i)
  %self3.i = getelementptr inbounds nuw i64, ptr %_37.sroa.5.0.iter.sroa_idx, i64 %4
  %_15.i = load i64, ptr %self3.i, align 8, !alias.scope !1120, !noundef !32
  br label %"_ZN4core5array4iter10iter_inner78PolymorphicIter$LT$$u5b$core..mem..maybe_uninit..MaybeUninit$LT$T$GT$$u5d$$GT$4next17h3490a55303cfd2beE.exit"

"_ZN4core5array4iter10iter_inner78PolymorphicIter$LT$$u5b$core..mem..maybe_uninit..MaybeUninit$LT$T$GT$$u5d$$GT$4next17h3490a55303cfd2beE.exit": ; preds = %bb16, %bb1.i
  %5 = phi i64 [ %_11.i, %bb1.i ], [ %4, %bb16 ]
  %_0.sroa.3.0.i = phi i64 [ %_15.i, %bb1.i ], [ undef, %bb16 ]
  br i1 %_5.not.i.not, label %bb19, label %bb18

bb18:                                             ; preds = %"_ZN4core5array4iter10iter_inner78PolymorphicIter$LT$$u5b$core..mem..maybe_uninit..MaybeUninit$LT$T$GT$$u5d$$GT$4next17h3490a55303cfd2beE.exit"
  %src5 = getelementptr inbounds nuw float, ptr %v.0, i64 %_0.sroa.3.0.i
  %dst6 = getelementptr inbounds nuw float, ptr %scratch.0, i64 %_0.sroa.3.0.i
  %_47 = icmp eq i64 %_0.sroa.3.0.i, 0
  %desired_len.sroa.0.0 = select i1 %_47, i64 %len_div_211, i64 %3
  %_8015 = icmp ult i64 %presorted_len.sroa.0.0, %desired_len.sroa.0.0
  br i1 %_8015, label %bb24, label %bb16.backedge

bb16.backedge:                                    ; preds = %_ZN4core5slice4sort6shared9smallsort11insert_tail17h1908b4afc7b83047E.exit, %bb18
  br label %bb16

bb19:                                             ; preds = %"_ZN4core5array4iter10iter_inner78PolymorphicIter$LT$$u5b$core..mem..maybe_uninit..MaybeUninit$LT$T$GT$$u5d$$GT$4next17h3490a55303cfd2beE.exit"
  call void @llvm.lifetime.end.p0(i64 32, ptr nonnull %iter)
; invoke core::slice::sort::shared::smallsort::bidirectional_merge
  invoke void @_ZN4core5slice4sort6shared9smallsort19bidirectional_merge17hf90f7bbee5e53a0aE(ptr noalias noundef nonnull readonly align 4 captures(address, read_provenance) %scratch.0, i64 noundef %v.1, ptr noundef nonnull %v.0, ptr noalias align 8 poison)
          to label %bb29 unwind label %cleanup2

cleanup2:                                         ; preds = %bb19
  %6 = landingpad { ptr, i32 }
          cleanup
  %7 = shl nuw nsw i64 %v.1, 2
  tail call void @llvm.memcpy.p0.p0.i64(ptr nonnull align 4 %v.0, ptr nonnull align 4 %scratch.0, i64 %7, i1 false), !noalias !1123
  br label %bb31

bb29:                                             ; preds = %bb19, %start
  ret void

bb31:                                             ; preds = %cleanup.i, %cleanup2
  %.pn = phi { ptr, i32 } [ %6, %cleanup2 ], [ %12, %cleanup.i ]
  resume { ptr, i32 } %.pn

bb24:                                             ; preds = %bb18, %_ZN4core5slice4sort6shared9smallsort11insert_tail17h1908b4afc7b83047E.exit
  %iter1.sroa.0.119 = phi i64 [ %iter1.sroa.0.1, %_ZN4core5slice4sort6shared9smallsort11insert_tail17h1908b4afc7b83047E.exit ], [ %iter1.sroa.0.117, %bb18 ]
  %iter1.sroa.0.018 = phi i64 [ %iter1.sroa.0.119, %_ZN4core5slice4sort6shared9smallsort11insert_tail17h1908b4afc7b83047E.exit ], [ %presorted_len.sroa.0.0, %bb18 ]
  %_55 = getelementptr inbounds nuw float, ptr %src5, i64 %iter1.sroa.0.018
  %dst7 = getelementptr inbounds nuw float, ptr %dst6, i64 %iter1.sroa.0.018
  %8 = load i32, ptr %_55, align 4
  store i32 %8, ptr %dst7, align 4
  %9 = getelementptr inbounds i8, ptr %dst7, i64 -4
  tail call void @llvm.experimental.noalias.scope.decl(metadata !1128)
  tail call void @llvm.experimental.noalias.scope.decl(metadata !1131)
  tail call void @llvm.experimental.noalias.scope.decl(metadata !1133)
  tail call void @llvm.experimental.noalias.scope.decl(metadata !1136)
  tail call void @llvm.experimental.noalias.scope.decl(metadata !1138)
  tail call void @llvm.experimental.noalias.scope.decl(metadata !1141)
  %_4.i.i.i.i = load float, ptr %dst7, align 4, !alias.scope !1143, !noalias !1144, !noundef !32
  %_5.i.i.i.i = load float, ptr %9, align 4, !alias.scope !1144, !noalias !1143, !noundef !32
  %.not.i.i.i.i = fcmp uno float %_4.i.i.i.i, %_5.i.i.i.i
  br i1 %.not.i.i.i.i, label %bb2.i.i.i.i, label %"_ZN5alloc5slice29_$LT$impl$u20$$u5b$T$u5d$$GT$7sort_by28_$u7b$$u7b$closure$u7d$$u7d$17h8d9a43e174231f37E.exit.i", !prof !35

bb2.i.i.i.i:                                      ; preds = %bb24
; call core::option::unwrap_failed
  tail call void @_ZN4core6option13unwrap_failed17hef2534b77b89c04fE(ptr noalias noundef readonly align 8 captures(address, read_provenance) dereferenceable(24) @alloc_42c1e7ccc7513d2fb76bea5b8a3258db) #24
  unreachable

"_ZN5alloc5slice29_$LT$impl$u20$$u5b$T$u5d$$GT$7sort_by28_$u7b$$u7b$closure$u7d$$u7d$17h8d9a43e174231f37E.exit.i": ; preds = %bb24
  %_0.i.i = fcmp olt float %_4.i.i.i.i, %_5.i.i.i.i
  br i1 %_0.i.i, label %bb4.i, label %_ZN4core5slice4sort6shared9smallsort11insert_tail17h1908b4afc7b83047E.exit

bb4.i:                                            ; preds = %"_ZN5alloc5slice29_$LT$impl$u20$$u5b$T$u5d$$GT$7sort_by28_$u7b$$u7b$closure$u7d$$u7d$17h8d9a43e174231f37E.exit.i", %"_ZN5alloc5slice29_$LT$impl$u20$$u5b$T$u5d$$GT$7sort_by28_$u7b$$u7b$closure$u7d$$u7d$17h8d9a43e174231f37E.exit6.i"
  %gap_guard.sroa.5.0.i = phi ptr [ %sift.sroa.0.0.i, %"_ZN5alloc5slice29_$LT$impl$u20$$u5b$T$u5d$$GT$7sort_by28_$u7b$$u7b$closure$u7d$$u7d$17h8d9a43e174231f37E.exit6.i" ], [ %dst7, %"_ZN5alloc5slice29_$LT$impl$u20$$u5b$T$u5d$$GT$7sort_by28_$u7b$$u7b$closure$u7d$$u7d$17h8d9a43e174231f37E.exit.i" ]
  %sift.sroa.0.0.i = phi ptr [ %11, %"_ZN5alloc5slice29_$LT$impl$u20$$u5b$T$u5d$$GT$7sort_by28_$u7b$$u7b$closure$u7d$$u7d$17h8d9a43e174231f37E.exit6.i" ], [ %9, %"_ZN5alloc5slice29_$LT$impl$u20$$u5b$T$u5d$$GT$7sort_by28_$u7b$$u7b$closure$u7d$$u7d$17h8d9a43e174231f37E.exit.i" ]
  %10 = load i32, ptr %sift.sroa.0.0.i, align 4
  store i32 %10, ptr %gap_guard.sroa.5.0.i, align 4
  %_18.i = icmp eq ptr %sift.sroa.0.0.i, %dst6
  br i1 %_18.i, label %bb10.i, label %bb6.i

bb6.i:                                            ; preds = %bb4.i
  %11 = getelementptr inbounds i8, ptr %sift.sroa.0.0.i, i64 -4
  %_5.i.i.i2.i = load float, ptr %11, align 4, !alias.scope !1145, !noalias !1152, !noundef !32
  %.not.i.i.i3.i = fcmp uno float %_4.i.i.i.i, %_5.i.i.i2.i
  br i1 %.not.i.i.i3.i, label %bb2.i.i.i5.i, label %"_ZN5alloc5slice29_$LT$impl$u20$$u5b$T$u5d$$GT$7sort_by28_$u7b$$u7b$closure$u7d$$u7d$17h8d9a43e174231f37E.exit6.i", !prof !35

bb2.i.i.i5.i:                                     ; preds = %bb6.i
; invoke core::option::unwrap_failed
  invoke void @_ZN4core6option13unwrap_failed17hef2534b77b89c04fE(ptr noalias noundef readonly align 8 captures(address, read_provenance) dereferenceable(24) @alloc_42c1e7ccc7513d2fb76bea5b8a3258db) #24
          to label %.noexc.i unwind label %cleanup.i

.noexc.i:                                         ; preds = %bb2.i.i.i5.i
  unreachable

"_ZN5alloc5slice29_$LT$impl$u20$$u5b$T$u5d$$GT$7sort_by28_$u7b$$u7b$closure$u7d$$u7d$17h8d9a43e174231f37E.exit6.i": ; preds = %bb6.i
  %_0.i4.i = fcmp olt float %_4.i.i.i.i, %_5.i.i.i2.i
  br i1 %_0.i4.i, label %bb4.i, label %bb10.i

cleanup.i:                                        ; preds = %bb2.i.i.i5.i
  %12 = landingpad { ptr, i32 }
          cleanup
  store float %_4.i.i.i.i, ptr %sift.sroa.0.0.i, align 4, !noalias !1156
  br label %bb31

bb10.i:                                           ; preds = %"_ZN5alloc5slice29_$LT$impl$u20$$u5b$T$u5d$$GT$7sort_by28_$u7b$$u7b$closure$u7d$$u7d$17h8d9a43e174231f37E.exit6.i", %bb4.i
  store float %_4.i.i.i.i, ptr %sift.sroa.0.0.i, align 4, !noalias !1161
  br label %_ZN4core5slice4sort6shared9smallsort11insert_tail17h1908b4afc7b83047E.exit

_ZN4core5slice4sort6shared9smallsort11insert_tail17h1908b4afc7b83047E.exit: ; preds = %"_ZN5alloc5slice29_$LT$impl$u20$$u5b$T$u5d$$GT$7sort_by28_$u7b$$u7b$closure$u7d$$u7d$17h8d9a43e174231f37E.exit.i", %bb10.i
  %_80 = icmp ult i64 %iter1.sroa.0.119, %desired_len.sroa.0.0
  %_84 = zext i1 %_80 to i64
  %iter1.sroa.0.1 = add nuw i64 %iter1.sroa.0.119, %_84
  br i1 %_80, label %bb24, label %bb16.backedge
}

; core::slice::sort::shared::smallsort::small_sort_general_with_scratch
; Function Attrs: nonlazybind uwtable
define void @_ZN4core5slice4sort6shared9smallsort31small_sort_general_with_scratch17he284111fd58b36d8E(ptr noalias noundef nonnull align 4 captures(none) %v.0, i64 noundef range(i64 0, 2305843009213693952) %v.1, ptr noalias noundef nonnull align 4 captures(address) %scratch.0, i64 noundef range(i64 0, 2305843009213693952) %scratch.1, ptr noalias readnone align 8 captures(none) %is_less) unnamed_addr #1 personality ptr @rust_eh_personality {
start:
  %iter = alloca [32 x i8], align 8
  %_5 = icmp samesign ult i64 %v.1, 2
  br i1 %_5, label %bb29, label %bb2

bb2:                                              ; preds = %start
  %_8 = add nuw nsw i64 %v.1, 16
  %_6 = icmp samesign ult i64 %scratch.1, %_8
  br i1 %_6, label %bb3, label %bb4

bb4:                                              ; preds = %bb2
  %len_div_211 = lshr i64 %v.1, 1
  %_14 = icmp samesign ugt i64 %v.1, 15
  br i1 %_14, label %bb6, label %bb9

bb3:                                              ; preds = %bb2
  tail call void @llvm.trap()
  unreachable

bb9:                                              ; preds = %bb4
  %_22 = icmp samesign ugt i64 %v.1, 7
  br i1 %_22, label %bb10, label %bb46

bb6:                                              ; preds = %bb4
  %_16 = getelementptr inbounds nuw i32, ptr %scratch.0, i64 %v.1
; call core::slice::sort::shared::smallsort::sort8_stable
  tail call void @_ZN4core5slice4sort6shared9smallsort12sort8_stable17hcb4209c83cb5f7f4E(ptr noundef nonnull %v.0, ptr noundef nonnull %scratch.0, ptr noundef nonnull %_16, ptr noalias align 8 poison)
  %_18 = getelementptr inbounds nuw i32, ptr %v.0, i64 %len_div_211
  %_19 = getelementptr inbounds nuw i32, ptr %scratch.0, i64 %len_div_211
  %_20 = getelementptr inbounds nuw i8, ptr %_16, i64 32
; call core::slice::sort::shared::smallsort::sort8_stable
  tail call void @_ZN4core5slice4sort6shared9smallsort12sort8_stable17hcb4209c83cb5f7f4E(ptr noundef nonnull %_18, ptr noundef nonnull %_19, ptr noundef nonnull %_20, ptr noalias align 8 poison)
  br label %bb15

bb10:                                             ; preds = %bb9
  %_7.i = getelementptr inbounds nuw i8, ptr %v.0, i64 4
  tail call void @llvm.experimental.noalias.scope.decl(metadata !1166)
  tail call void @llvm.experimental.noalias.scope.decl(metadata !1169)
  tail call void @llvm.experimental.noalias.scope.decl(metadata !1171)
  tail call void @llvm.experimental.noalias.scope.decl(metadata !1174)
  tail call void @llvm.experimental.noalias.scope.decl(metadata !1176)
  tail call void @llvm.experimental.noalias.scope.decl(metadata !1179)
  tail call void @llvm.experimental.noalias.scope.decl(metadata !1181)
  tail call void @llvm.experimental.noalias.scope.decl(metadata !1184)
  %_3.i.i.i.i.i = load i32, ptr %_7.i, align 4, !alias.scope !1186, !noalias !1187, !noundef !32
  %_4.i.i.i.i.i = load i32, ptr %v.0, align 4, !alias.scope !1187, !noalias !1186, !noundef !32
  %_0.i.i = icmp slt i32 %_3.i.i.i.i.i, %_4.i.i.i.i.i
  %_12.i = getelementptr inbounds nuw i8, ptr %v.0, i64 12
  %_14.i = getelementptr inbounds nuw i8, ptr %v.0, i64 8
  tail call void @llvm.experimental.noalias.scope.decl(metadata !1188)
  tail call void @llvm.experimental.noalias.scope.decl(metadata !1191)
  tail call void @llvm.experimental.noalias.scope.decl(metadata !1193)
  tail call void @llvm.experimental.noalias.scope.decl(metadata !1196)
  tail call void @llvm.experimental.noalias.scope.decl(metadata !1198)
  tail call void @llvm.experimental.noalias.scope.decl(metadata !1201)
  tail call void @llvm.experimental.noalias.scope.decl(metadata !1203)
  tail call void @llvm.experimental.noalias.scope.decl(metadata !1206)
  %_3.i.i.i.i7.i = load i32, ptr %_12.i, align 4, !alias.scope !1208, !noalias !1209, !noundef !32
  %_4.i.i.i.i8.i = load i32, ptr %_14.i, align 4, !alias.scope !1209, !noalias !1208, !noundef !32
  %_0.i9.i = icmp slt i32 %_3.i.i.i.i7.i, %_4.i.i.i.i8.i
  %count.i = zext i1 %_0.i.i to i64
  %a.i = getelementptr inbounds nuw i32, ptr %v.0, i64 %count.i
  %_19.i = xor i1 %_0.i.i, true
  %count2.i = zext i1 %_19.i to i64
  %b.i = getelementptr inbounds nuw i32, ptr %v.0, i64 %count2.i
  %count3.i = select i1 %_0.i9.i, i64 3, i64 2
  %c.i = getelementptr inbounds nuw i32, ptr %v.0, i64 %count3.i
  %count4.i = select i1 %_0.i9.i, i64 2, i64 3
  %d.i = getelementptr inbounds nuw i32, ptr %v.0, i64 %count4.i
  tail call void @llvm.experimental.noalias.scope.decl(metadata !1210)
  tail call void @llvm.experimental.noalias.scope.decl(metadata !1213)
  tail call void @llvm.experimental.noalias.scope.decl(metadata !1215)
  tail call void @llvm.experimental.noalias.scope.decl(metadata !1218)
  tail call void @llvm.experimental.noalias.scope.decl(metadata !1220)
  tail call void @llvm.experimental.noalias.scope.decl(metadata !1223)
  tail call void @llvm.experimental.noalias.scope.decl(metadata !1225)
  tail call void @llvm.experimental.noalias.scope.decl(metadata !1228)
  %_3.i.i.i.i10.i = load i32, ptr %c.i, align 4, !alias.scope !1230, !noalias !1231, !noundef !32
  %_4.i.i.i.i11.i = load i32, ptr %a.i, align 4, !alias.scope !1231, !noalias !1230, !noundef !32
  %_0.i12.i = icmp slt i32 %_3.i.i.i.i10.i, %_4.i.i.i.i11.i
  tail call void @llvm.experimental.noalias.scope.decl(metadata !1232)
  tail call void @llvm.experimental.noalias.scope.decl(metadata !1235)
  tail call void @llvm.experimental.noalias.scope.decl(metadata !1237)
  tail call void @llvm.experimental.noalias.scope.decl(metadata !1240)
  tail call void @llvm.experimental.noalias.scope.decl(metadata !1242)
  tail call void @llvm.experimental.noalias.scope.decl(metadata !1245)
  tail call void @llvm.experimental.noalias.scope.decl(metadata !1247)
  tail call void @llvm.experimental.noalias.scope.decl(metadata !1250)
  %_3.i.i.i.i13.i = load i32, ptr %d.i, align 4, !alias.scope !1252, !noalias !1253, !noundef !32
  %_4.i.i.i.i14.i = load i32, ptr %b.i, align 4, !alias.scope !1253, !noalias !1252, !noundef !32
  %_0.i15.i = icmp slt i32 %_3.i.i.i.i13.i, %_4.i.i.i.i14.i
  %0 = select i1 %_0.i12.i, ptr %c.i, ptr %a.i, !unpredictable !32
  %1 = select i1 %_0.i15.i, ptr %c.i, ptr %b.i, !unpredictable !32
  %2 = select i1 %_0.i12.i, ptr %a.i, ptr %1, !unpredictable !32
  %3 = select i1 %_0.i12.i, ptr %b.i, ptr %c.i, !unpredictable !32
  %4 = select i1 %_0.i15.i, ptr %d.i, ptr %3, !unpredictable !32
  tail call void @llvm.experimental.noalias.scope.decl(metadata !1254)
  tail call void @llvm.experimental.noalias.scope.decl(metadata !1257)
  tail call void @llvm.experimental.noalias.scope.decl(metadata !1259)
  tail call void @llvm.experimental.noalias.scope.decl(metadata !1262)
  tail call void @llvm.experimental.noalias.scope.decl(metadata !1264)
  tail call void @llvm.experimental.noalias.scope.decl(metadata !1267)
  tail call void @llvm.experimental.noalias.scope.decl(metadata !1269)
  tail call void @llvm.experimental.noalias.scope.decl(metadata !1272)
  %_3.i.i.i.i16.i = load i32, ptr %4, align 4, !alias.scope !1274, !noalias !1275, !noundef !32
  %_4.i.i.i.i17.i = load i32, ptr %2, align 4, !alias.scope !1275, !noalias !1274, !noundef !32
  %5 = load i32, ptr %0, align 4
  store i32 %5, ptr %scratch.0, align 4
  %dst5.i = getelementptr inbounds nuw i8, ptr %scratch.0, i64 4
  %6 = tail call i32 @llvm.smin.i32(i32 %_3.i.i.i.i16.i, i32 %_4.i.i.i.i17.i)
  store i32 %6, ptr %dst5.i, align 4
  %dst6.i = getelementptr inbounds nuw i8, ptr %scratch.0, i64 8
  %7 = tail call i32 @llvm.smax.i32(i32 %_3.i.i.i.i16.i, i32 %_4.i.i.i.i17.i)
  store i32 %7, ptr %dst6.i, align 4
  %8 = getelementptr inbounds nuw i8, ptr %scratch.0, i64 12
  %9 = tail call i32 @llvm.smax.i32(i32 %_3.i.i.i.i13.i, i32 %_4.i.i.i.i14.i)
  store i32 %9, ptr %8, align 4
  %_27 = getelementptr inbounds nuw i32, ptr %v.0, i64 %len_div_211
  %_28 = getelementptr inbounds nuw i32, ptr %scratch.0, i64 %len_div_211
  %_7.i13 = getelementptr inbounds nuw i8, ptr %_27, i64 4
  tail call void @llvm.experimental.noalias.scope.decl(metadata !1276)
  tail call void @llvm.experimental.noalias.scope.decl(metadata !1279)
  tail call void @llvm.experimental.noalias.scope.decl(metadata !1281)
  tail call void @llvm.experimental.noalias.scope.decl(metadata !1284)
  tail call void @llvm.experimental.noalias.scope.decl(metadata !1286)
  tail call void @llvm.experimental.noalias.scope.decl(metadata !1289)
  tail call void @llvm.experimental.noalias.scope.decl(metadata !1291)
  tail call void @llvm.experimental.noalias.scope.decl(metadata !1294)
  %_3.i.i.i.i.i14 = load i32, ptr %_7.i13, align 4, !alias.scope !1296, !noalias !1297, !noundef !32
  %_4.i.i.i.i.i15 = load i32, ptr %_27, align 4, !alias.scope !1297, !noalias !1296, !noundef !32
  %_0.i.i16 = icmp slt i32 %_3.i.i.i.i.i14, %_4.i.i.i.i.i15
  %_12.i17 = getelementptr inbounds nuw i8, ptr %_27, i64 12
  %_14.i18 = getelementptr inbounds nuw i8, ptr %_27, i64 8
  tail call void @llvm.experimental.noalias.scope.decl(metadata !1298)
  tail call void @llvm.experimental.noalias.scope.decl(metadata !1301)
  tail call void @llvm.experimental.noalias.scope.decl(metadata !1303)
  tail call void @llvm.experimental.noalias.scope.decl(metadata !1306)
  tail call void @llvm.experimental.noalias.scope.decl(metadata !1308)
  tail call void @llvm.experimental.noalias.scope.decl(metadata !1311)
  tail call void @llvm.experimental.noalias.scope.decl(metadata !1313)
  tail call void @llvm.experimental.noalias.scope.decl(metadata !1316)
  %_3.i.i.i.i7.i19 = load i32, ptr %_12.i17, align 4, !alias.scope !1318, !noalias !1319, !noundef !32
  %_4.i.i.i.i8.i20 = load i32, ptr %_14.i18, align 4, !alias.scope !1319, !noalias !1318, !noundef !32
  %_0.i9.i21 = icmp slt i32 %_3.i.i.i.i7.i19, %_4.i.i.i.i8.i20
  %count.i22 = zext i1 %_0.i.i16 to i64
  %a.i23 = getelementptr inbounds nuw i32, ptr %_27, i64 %count.i22
  %_19.i24 = xor i1 %_0.i.i16, true
  %count2.i25 = zext i1 %_19.i24 to i64
  %b.i26 = getelementptr inbounds nuw i32, ptr %_27, i64 %count2.i25
  %count3.i27 = select i1 %_0.i9.i21, i64 3, i64 2
  %c.i28 = getelementptr inbounds nuw i32, ptr %_27, i64 %count3.i27
  %count4.i29 = select i1 %_0.i9.i21, i64 2, i64 3
  %d.i30 = getelementptr inbounds nuw i32, ptr %_27, i64 %count4.i29
  tail call void @llvm.experimental.noalias.scope.decl(metadata !1320)
  tail call void @llvm.experimental.noalias.scope.decl(metadata !1323)
  tail call void @llvm.experimental.noalias.scope.decl(metadata !1325)
  tail call void @llvm.experimental.noalias.scope.decl(metadata !1328)
  tail call void @llvm.experimental.noalias.scope.decl(metadata !1330)
  tail call void @llvm.experimental.noalias.scope.decl(metadata !1333)
  tail call void @llvm.experimental.noalias.scope.decl(metadata !1335)
  tail call void @llvm.experimental.noalias.scope.decl(metadata !1338)
  %_3.i.i.i.i10.i31 = load i32, ptr %c.i28, align 4, !alias.scope !1340, !noalias !1341, !noundef !32
  %_4.i.i.i.i11.i32 = load i32, ptr %a.i23, align 4, !alias.scope !1341, !noalias !1340, !noundef !32
  %_0.i12.i33 = icmp slt i32 %_3.i.i.i.i10.i31, %_4.i.i.i.i11.i32
  tail call void @llvm.experimental.noalias.scope.decl(metadata !1342)
  tail call void @llvm.experimental.noalias.scope.decl(metadata !1345)
  tail call void @llvm.experimental.noalias.scope.decl(metadata !1347)
  tail call void @llvm.experimental.noalias.scope.decl(metadata !1350)
  tail call void @llvm.experimental.noalias.scope.decl(metadata !1352)
  tail call void @llvm.experimental.noalias.scope.decl(metadata !1355)
  tail call void @llvm.experimental.noalias.scope.decl(metadata !1357)
  tail call void @llvm.experimental.noalias.scope.decl(metadata !1360)
  %_3.i.i.i.i13.i34 = load i32, ptr %d.i30, align 4, !alias.scope !1362, !noalias !1363, !noundef !32
  %_4.i.i.i.i14.i35 = load i32, ptr %b.i26, align 4, !alias.scope !1363, !noalias !1362, !noundef !32
  %_0.i15.i36 = icmp slt i32 %_3.i.i.i.i13.i34, %_4.i.i.i.i14.i35
  %10 = select i1 %_0.i12.i33, ptr %c.i28, ptr %a.i23, !unpredictable !32
  %11 = select i1 %_0.i15.i36, ptr %c.i28, ptr %b.i26, !unpredictable !32
  %12 = select i1 %_0.i12.i33, ptr %a.i23, ptr %11, !unpredictable !32
  %13 = select i1 %_0.i12.i33, ptr %b.i26, ptr %c.i28, !unpredictable !32
  %14 = select i1 %_0.i15.i36, ptr %d.i30, ptr %13, !unpredictable !32
  tail call void @llvm.experimental.noalias.scope.decl(metadata !1364)
  tail call void @llvm.experimental.noalias.scope.decl(metadata !1367)
  tail call void @llvm.experimental.noalias.scope.decl(metadata !1369)
  tail call void @llvm.experimental.noalias.scope.decl(metadata !1372)
  tail call void @llvm.experimental.noalias.scope.decl(metadata !1374)
  tail call void @llvm.experimental.noalias.scope.decl(metadata !1377)
  tail call void @llvm.experimental.noalias.scope.decl(metadata !1379)
  tail call void @llvm.experimental.noalias.scope.decl(metadata !1382)
  %_3.i.i.i.i16.i37 = load i32, ptr %14, align 4, !alias.scope !1384, !noalias !1385, !noundef !32
  %_4.i.i.i.i17.i38 = load i32, ptr %12, align 4, !alias.scope !1385, !noalias !1384, !noundef !32
  %15 = load i32, ptr %10, align 4
  store i32 %15, ptr %_28, align 4
  %dst5.i40 = getelementptr inbounds nuw i8, ptr %_28, i64 4
  %16 = tail call i32 @llvm.smin.i32(i32 %_3.i.i.i.i16.i37, i32 %_4.i.i.i.i17.i38)
  store i32 %16, ptr %dst5.i40, align 4
  %dst6.i43 = getelementptr inbounds nuw i8, ptr %_28, i64 8
  %17 = tail call i32 @llvm.smax.i32(i32 %_3.i.i.i.i16.i37, i32 %_4.i.i.i.i17.i38)
  store i32 %17, ptr %dst6.i43, align 4
  %18 = getelementptr inbounds nuw i8, ptr %_28, i64 12
  %19 = tail call i32 @llvm.smax.i32(i32 %_3.i.i.i.i13.i34, i32 %_4.i.i.i.i14.i35)
  store i32 %19, ptr %18, align 4
  br label %bb15

bb46:                                             ; preds = %bb9
  %20 = load i32, ptr %v.0, align 4
  store i32 %20, ptr %scratch.0, align 4
  %_31 = getelementptr inbounds nuw i32, ptr %v.0, i64 %len_div_211
  %21 = getelementptr inbounds nuw i32, ptr %scratch.0, i64 %len_div_211
  %22 = load i32, ptr %_31, align 4
  store i32 %22, ptr %21, align 4
  br label %bb15

bb15:                                             ; preds = %bb46, %bb10, %bb6
  %presorted_len.sroa.0.0 = phi i64 [ 8, %bb6 ], [ 4, %bb10 ], [ 1, %bb46 ]
  call void @llvm.lifetime.start.p0(i64 32, ptr nonnull %iter)
  store i64 0, ptr %iter, align 8
  %_37.sroa.4.0.iter.sroa_idx = getelementptr inbounds nuw i8, ptr %iter, i64 8
  store i64 2, ptr %_37.sroa.4.0.iter.sroa_idx, align 8
  %_37.sroa.5.0.iter.sroa_idx = getelementptr inbounds nuw i8, ptr %iter, i64 16
  store i64 0, ptr %_37.sroa.5.0.iter.sroa_idx, align 8
  %_37.sroa.6.0.iter.sroa_idx = getelementptr inbounds nuw i8, ptr %iter, i64 24
  store i64 %len_div_211, ptr %_37.sroa.6.0.iter.sroa_idx, align 8
  %23 = sub nsw i64 %v.1, %len_div_211
  %iter1.sroa.0.161 = add nuw nsw i64 %presorted_len.sroa.0.0, 1
  br label %bb16

bb16:                                             ; preds = %bb16.backedge, %bb15
  %24 = phi i64 [ 0, %bb15 ], [ %25, %bb16.backedge ]
  %_5.not.i.not = icmp eq i64 %24, 2
  br i1 %_5.not.i.not, label %"_ZN4core5array4iter10iter_inner78PolymorphicIter$LT$$u5b$core..mem..maybe_uninit..MaybeUninit$LT$T$GT$$u5d$$GT$4next17h3490a55303cfd2beE.exit", label %bb1.i

bb1.i:                                            ; preds = %bb16
  %_11.i = add nuw nsw i64 %24, 1
  store i64 %_11.i, ptr %iter, align 8, !alias.scope !1386
  %_20.i = icmp ult i64 %24, 2
  tail call void @llvm.assume(i1 %_20.i)
  %self3.i = getelementptr inbounds nuw i64, ptr %_37.sroa.5.0.iter.sroa_idx, i64 %24
  %_15.i = load i64, ptr %self3.i, align 8, !alias.scope !1386, !noundef !32
  br label %"_ZN4core5array4iter10iter_inner78PolymorphicIter$LT$$u5b$core..mem..maybe_uninit..MaybeUninit$LT$T$GT$$u5d$$GT$4next17h3490a55303cfd2beE.exit"

"_ZN4core5array4iter10iter_inner78PolymorphicIter$LT$$u5b$core..mem..maybe_uninit..MaybeUninit$LT$T$GT$$u5d$$GT$4next17h3490a55303cfd2beE.exit": ; preds = %bb16, %bb1.i
  %25 = phi i64 [ %_11.i, %bb1.i ], [ %24, %bb16 ]
  %_0.sroa.3.0.i = phi i64 [ %_15.i, %bb1.i ], [ undef, %bb16 ]
  br i1 %_5.not.i.not, label %bb19, label %bb18

bb18:                                             ; preds = %"_ZN4core5array4iter10iter_inner78PolymorphicIter$LT$$u5b$core..mem..maybe_uninit..MaybeUninit$LT$T$GT$$u5d$$GT$4next17h3490a55303cfd2beE.exit"
  %src5 = getelementptr inbounds nuw i32, ptr %v.0, i64 %_0.sroa.3.0.i
  %dst6 = getelementptr inbounds nuw i32, ptr %scratch.0, i64 %_0.sroa.3.0.i
  %_47 = icmp eq i64 %_0.sroa.3.0.i, 0
  %desired_len.sroa.0.0 = select i1 %_47, i64 %len_div_211, i64 %23
  %_8059 = icmp ult i64 %presorted_len.sroa.0.0, %desired_len.sroa.0.0
  br i1 %_8059, label %bb24, label %bb16.backedge

bb16.backedge:                                    ; preds = %_ZN4core5slice4sort6shared9smallsort11insert_tail17h38f8757d381cba91E.exit, %bb18
  br label %bb16

bb19:                                             ; preds = %"_ZN4core5array4iter10iter_inner78PolymorphicIter$LT$$u5b$core..mem..maybe_uninit..MaybeUninit$LT$T$GT$$u5d$$GT$4next17h3490a55303cfd2beE.exit"
  call void @llvm.lifetime.end.p0(i64 32, ptr nonnull %iter)
  tail call void @llvm.experimental.noalias.scope.decl(metadata !1389)
  %count1.i = add nsw i64 %v.1, -1
  %26 = getelementptr inbounds nuw i32, ptr %v.0, i64 %count1.i
  %27 = getelementptr inbounds nuw i32, ptr %scratch.0, i64 %count1.i
  %28 = getelementptr i32, ptr %scratch.0, i64 %len_div_211
  %29 = getelementptr i8, ptr %28, i64 -4
  br label %bb15.i

bb16.i:                                           ; preds = %bb15.i
  %30 = getelementptr i8, ptr %35, i64 4
  %31 = getelementptr i8, ptr %34, i64 4
  %_44.i = and i64 %v.1, 1
  %_22.i = icmp eq i64 %_44.i, 0
  br i1 %_22.i, label %bb9.i, label %bb5.i

bb15.i:                                           ; preds = %bb15.i, %bb19
  %dst.sroa.0.029.i = phi ptr [ %_16.i.i, %bb15.i ], [ %v.0, %bb19 ]
  %iter.sroa.0.028.i = phi i64 [ %_39.i, %bb15.i ], [ 0, %bb19 ]
  %left.sroa.0.027.i = phi ptr [ %_14.i.i, %bb15.i ], [ %scratch.0, %bb19 ]
  %right.sroa.0.026.i = phi ptr [ %_12.i.i, %bb15.i ], [ %28, %bb19 ]
  %left_rev.sroa.0.025.i = phi ptr [ %35, %bb15.i ], [ %29, %bb19 ]
  %right_rev.sroa.0.024.i = phi ptr [ %34, %bb15.i ], [ %27, %bb19 ]
  %dst_rev.sroa.0.023.i = phi ptr [ %36, %bb15.i ], [ %26, %bb19 ]
  %_39.i = add nuw nsw i64 %iter.sroa.0.028.i, 1
  tail call void @llvm.experimental.noalias.scope.decl(metadata !1392)
  tail call void @llvm.experimental.noalias.scope.decl(metadata !1395)
  tail call void @llvm.experimental.noalias.scope.decl(metadata !1397), !noalias !1400
  tail call void @llvm.experimental.noalias.scope.decl(metadata !1403), !noalias !1400
  tail call void @llvm.experimental.noalias.scope.decl(metadata !1405), !noalias !1400
  tail call void @llvm.experimental.noalias.scope.decl(metadata !1408), !noalias !1400
  tail call void @llvm.experimental.noalias.scope.decl(metadata !1410), !noalias !1400
  tail call void @llvm.experimental.noalias.scope.decl(metadata !1413), !noalias !1400
  %_3.i.i.i.i.i49 = load i32, ptr %right.sroa.0.026.i, align 4, !alias.scope !1415, !noalias !1416, !noundef !32
  %_4.i.i.i.i.i50 = load i32, ptr %left.sroa.0.027.i, align 4, !alias.scope !1417, !noalias !1418, !noundef !32
  %_0.i.i51 = icmp slt i32 %_3.i.i.i.i.i49, %_4.i.i.i.i.i50
  %is_l.i18.i = xor i1 %_0.i.i51, true
  %32 = tail call i32 @llvm.smin.i32(i32 %_3.i.i.i.i.i49, i32 %_4.i.i.i.i.i50)
  store i32 %32, ptr %dst.sroa.0.029.i, align 4, !noalias !1419
  %count.i.i = zext i1 %_0.i.i51 to i64
  %_12.i.i = getelementptr inbounds nuw i32, ptr %right.sroa.0.026.i, i64 %count.i.i
  %count2.i.i = zext i1 %is_l.i18.i to i64
  %_14.i.i = getelementptr inbounds nuw i32, ptr %left.sroa.0.027.i, i64 %count2.i.i
  %_16.i.i = getelementptr inbounds nuw i8, ptr %dst.sroa.0.029.i, i64 4
  tail call void @llvm.experimental.noalias.scope.decl(metadata !1421)
  tail call void @llvm.experimental.noalias.scope.decl(metadata !1424)
  tail call void @llvm.experimental.noalias.scope.decl(metadata !1426), !noalias !1429
  tail call void @llvm.experimental.noalias.scope.decl(metadata !1432), !noalias !1429
  tail call void @llvm.experimental.noalias.scope.decl(metadata !1434), !noalias !1429
  tail call void @llvm.experimental.noalias.scope.decl(metadata !1437), !noalias !1429
  tail call void @llvm.experimental.noalias.scope.decl(metadata !1439), !noalias !1429
  tail call void @llvm.experimental.noalias.scope.decl(metadata !1442), !noalias !1429
  %_3.i.i.i.i19.i = load i32, ptr %right_rev.sroa.0.024.i, align 4, !alias.scope !1444, !noalias !1445, !noundef !32
  %_4.i.i.i.i20.i = load i32, ptr %left_rev.sroa.0.025.i, align 4, !alias.scope !1446, !noalias !1447, !noundef !32
  %_0.i21.i = icmp slt i32 %_3.i.i.i.i19.i, %_4.i.i.i.i20.i
  %is_l.i.i = xor i1 %_0.i21.i, true
  %33 = tail call i32 @llvm.smax.i32(i32 %_3.i.i.i.i19.i, i32 %_4.i.i.i.i20.i)
  store i32 %33, ptr %dst_rev.sroa.0.023.i, align 4, !noalias !1448
  %count.neg.i.i = sext i1 %is_l.i.i to i64
  %34 = getelementptr i32, ptr %right_rev.sroa.0.024.i, i64 %count.neg.i.i
  %count3.neg.i.i = sext i1 %_0.i21.i to i64
  %35 = getelementptr i32, ptr %left_rev.sroa.0.025.i, i64 %count3.neg.i.i
  %36 = getelementptr inbounds i8, ptr %dst_rev.sroa.0.023.i, i64 -4
  %exitcond.not.i = icmp eq i64 %_39.i, %len_div_211
  br i1 %exitcond.not.i, label %bb16.i, label %bb15.i

bb5.i:                                            ; preds = %bb16.i
  %left_nonempty.i = icmp ult ptr %_14.i.i, %30
  %left.sroa.0.0.right.sroa.0.0.i = select i1 %left_nonempty.i, ptr %_14.i.i, ptr %_12.i.i
  %37 = load i32, ptr %left.sroa.0.0.right.sroa.0.0.i, align 4, !alias.scope !1389
  store i32 %37, ptr %_16.i.i, align 4, !noalias !1389
  %count2.i52 = zext i1 %left_nonempty.i to i64
  %_26.i = getelementptr inbounds nuw i32, ptr %_14.i.i, i64 %count2.i52
  %_30.i = xor i1 %left_nonempty.i, true
  %count3.i53 = zext i1 %_30.i to i64
  %_28.i = getelementptr inbounds nuw i32, ptr %_12.i.i, i64 %count3.i53
  br label %bb9.i

bb9.i:                                            ; preds = %bb5.i, %bb16.i
  %right.sroa.0.1.i = phi ptr [ %_12.i.i, %bb16.i ], [ %_28.i, %bb5.i ]
  %left.sroa.0.1.i = phi ptr [ %_14.i.i, %bb16.i ], [ %_26.i, %bb5.i ]
  %_31.i = icmp ne ptr %left.sroa.0.1.i, %30
  %_32.i = icmp ne ptr %right.sroa.0.1.i, %31
  %or.cond.i = select i1 %_31.i, i1 true, i1 %_32.i
  br i1 %or.cond.i, label %bb13.i, label %bb29, !prof !530

bb13.i:                                           ; preds = %bb9.i
; invoke core::slice::sort::shared::smallsort::panic_on_ord_violation
  invoke void @_ZN4core5slice4sort6shared9smallsort22panic_on_ord_violation17hc77a22a2d50782cdE() #24
          to label %.noexc unwind label %cleanup2

.noexc:                                           ; preds = %bb13.i
  unreachable

cleanup2:                                         ; preds = %bb13.i
  %38 = landingpad { ptr, i32 }
          cleanup
  %39 = shl nuw nsw i64 %v.1, 2
  tail call void @llvm.memcpy.p0.p0.i64(ptr nonnull align 4 %v.0, ptr nonnull align 4 %scratch.0, i64 %39, i1 false), !noalias !1450
  resume { ptr, i32 } %38

bb29:                                             ; preds = %bb9.i, %start
  ret void

bb24:                                             ; preds = %bb18, %_ZN4core5slice4sort6shared9smallsort11insert_tail17h38f8757d381cba91E.exit
  %iter1.sroa.0.163 = phi i64 [ %iter1.sroa.0.1, %_ZN4core5slice4sort6shared9smallsort11insert_tail17h38f8757d381cba91E.exit ], [ %iter1.sroa.0.161, %bb18 ]
  %iter1.sroa.0.062 = phi i64 [ %iter1.sroa.0.163, %_ZN4core5slice4sort6shared9smallsort11insert_tail17h38f8757d381cba91E.exit ], [ %presorted_len.sroa.0.0, %bb18 ]
  %_55 = getelementptr inbounds nuw i32, ptr %src5, i64 %iter1.sroa.0.062
  %dst7 = getelementptr inbounds nuw i32, ptr %dst6, i64 %iter1.sroa.0.062
  %40 = load i32, ptr %_55, align 4
  store i32 %40, ptr %dst7, align 4
  %41 = getelementptr inbounds i8, ptr %dst7, i64 -4
  %_4.i.i.i.i.i56 = load i32, ptr %41, align 4, !alias.scope !1455, !noalias !1464, !noundef !32
  %_0.i.i57 = icmp slt i32 %40, %_4.i.i.i.i.i56
  br i1 %_0.i.i57, label %bb4.i, label %_ZN4core5slice4sort6shared9smallsort11insert_tail17h38f8757d381cba91E.exit

bb4.i:                                            ; preds = %bb24, %bb6.i
  %gap_guard.sroa.5.0.i = phi ptr [ %sift.sroa.0.0.i, %bb6.i ], [ %dst7, %bb24 ]
  %sift.sroa.0.0.i = phi ptr [ %43, %bb6.i ], [ %41, %bb24 ]
  %42 = load i32, ptr %sift.sroa.0.0.i, align 4
  store i32 %42, ptr %gap_guard.sroa.5.0.i, align 4
  %_18.i = icmp eq ptr %sift.sroa.0.0.i, %dst6
  br i1 %_18.i, label %bb10.i, label %bb6.i

bb6.i:                                            ; preds = %bb4.i
  %43 = getelementptr inbounds i8, ptr %sift.sroa.0.0.i, i64 -4
  %_4.i.i.i.i2.i = load i32, ptr %43, align 4, !alias.scope !1469, !noalias !1478, !noundef !32
  %_0.i3.i = icmp slt i32 %40, %_4.i.i.i.i2.i
  br i1 %_0.i3.i, label %bb4.i, label %bb10.i

bb10.i:                                           ; preds = %bb6.i, %bb4.i
  store i32 %40, ptr %sift.sroa.0.0.i, align 4, !noalias !1483
  br label %_ZN4core5slice4sort6shared9smallsort11insert_tail17h38f8757d381cba91E.exit

_ZN4core5slice4sort6shared9smallsort11insert_tail17h38f8757d381cba91E.exit: ; preds = %bb24, %bb10.i
  %_80 = icmp ult i64 %iter1.sroa.0.163, %desired_len.sroa.0.0
  %_84 = zext i1 %_80 to i64
  %iter1.sroa.0.1 = add nuw i64 %iter1.sroa.0.163, %_84
  br i1 %_80, label %bb24, label %bb16.backedge
}

; core::slice::sort::stable::driftsort_main
; Function Attrs: noinline nonlazybind uwtable
define void @_ZN4core5slice4sort6stable14driftsort_main17h7e6e7c8f8f59358eE(ptr noalias noundef nonnull align 4 %v.0, i64 noundef range(i64 0, 2305843009213693952) %v.1, ptr noalias noundef align 8 dereferenceable(8) %is_less) unnamed_addr #5 personality ptr @rust_eh_personality {
start:
  %_4.i.i = alloca [24 x i8], align 8
  %heap_buf = alloca [24 x i8], align 8
  %stack_buf = alloca [4096 x i8], align 4
  %_105 = lshr i64 %v.1, 1
  %v1 = sub nsw i64 %v.1, %_105
  %_0.sroa.0.0.i = tail call noundef i64 @llvm.umin.i64(i64 %v.1, i64 2000000)
  %_0.sroa.0.0.i6 = tail call noundef i64 @llvm.umax.i64(i64 %_0.sroa.0.0.i, i64 %v1)
  %_0.sroa.0.0.i7 = tail call noundef i64 @llvm.umax.i64(i64 %_0.sroa.0.0.i6, i64 48)
  call void @llvm.lifetime.start.p0(i64 4096, ptr nonnull %stack_buf)
  call void @llvm.lifetime.start.p0(i64 24, ptr nonnull %heap_buf)
  %_15 = icmp ult i64 %_0.sroa.0.0.i6, 1025
  br i1 %_15, label %bb8, label %bb4

bb4:                                              ; preds = %start
  call void @llvm.lifetime.start.p0(i64 24, ptr nonnull %_4.i.i), !noalias !1488
; invoke alloc::raw_vec::RawVecInner<A>::try_allocate_in
  invoke void @"_ZN5alloc7raw_vec20RawVecInner$LT$A$GT$15try_allocate_in17had089b3ffc2704ecE"(ptr noalias noundef sret([24 x i8]) align 8 captures(none) dereferenceable(24) %_4.i.i, i64 noundef %_0.sroa.0.0.i7, i1 noundef zeroext false, i64 noundef 4, i64 noundef 4)
          to label %.noexc unwind label %cleanup

.noexc:                                           ; preds = %bb4
  %_5.i.i = load i64, ptr %_4.i.i, align 8, !range !1491, !noalias !1488, !noundef !32
  %0 = trunc nuw i64 %_5.i.i to i1
  %1 = getelementptr inbounds nuw i8, ptr %_4.i.i, i64 8
  %err.0.i.i = load i64, ptr %1, align 8, !range !1492, !noalias !1488, !noundef !32
  %2 = getelementptr inbounds nuw i8, ptr %_4.i.i, i64 16
  br i1 %0, label %bb3.i.i, label %"_ZN5alloc5slice99_$LT$impl$u20$core..slice..sort..stable..BufGuard$LT$T$GT$$u20$for$u20$alloc..vec..Vec$LT$T$GT$$GT$13with_capacity17ha2aef7bf933c595bE.exit", !prof !35

bb3.i.i:                                          ; preds = %.noexc
  %err.1.i.i = load i64, ptr %2, align 8, !noalias !1488
; invoke alloc::raw_vec::handle_error
  invoke void @_ZN5alloc7raw_vec12handle_error17h3a8c375904e593b2E(i64 noundef %err.0.i.i, i64 %err.1.i.i) #25
          to label %.noexc8 unwind label %cleanup

.noexc8:                                          ; preds = %bb3.i.i
  unreachable

"_ZN5alloc5slice99_$LT$impl$u20$core..slice..sort..stable..BufGuard$LT$T$GT$$u20$for$u20$alloc..vec..Vec$LT$T$GT$$GT$13with_capacity17ha2aef7bf933c595bE.exit": ; preds = %.noexc
  %this.1.i.i = load ptr, ptr %2, align 8, !noalias !1488, !nonnull !32, !noundef !32
  %_7.i.i = icmp ule i64 %_0.sroa.0.0.i7, %err.0.i.i
  tail call void @llvm.assume(i1 %_7.i.i)
  call void @llvm.lifetime.end.p0(i64 24, ptr nonnull %_4.i.i), !noalias !1488
  store i64 %err.0.i.i, ptr %heap_buf, align 8
  %_18.sroa.4.0.heap_buf.sroa_idx = getelementptr inbounds nuw i8, ptr %heap_buf, i64 8
  store ptr %this.1.i.i, ptr %_18.sroa.4.0.heap_buf.sroa_idx, align 8
  %_18.sroa.5.0.heap_buf.sroa_idx = getelementptr inbounds nuw i8, ptr %heap_buf, i64 16
  store i64 0, ptr %_18.sroa.5.0.heap_buf.sroa_idx, align 8
  br label %bb8

cleanup:                                          ; preds = %bb3.i.i, %bb4, %bb8
  %_24.sroa.0.0 = phi i8 [ %_24.sroa.0.1, %bb8 ], [ 0, %bb4 ], [ 0, %bb3.i.i ]
  %3 = landingpad { ptr, i32 }
          cleanup
  %4 = trunc nuw i8 %_24.sroa.0.0 to i1
  br i1 %4, label %bb13, label %bb11

bb8:                                              ; preds = %"_ZN5alloc5slice99_$LT$impl$u20$core..slice..sort..stable..BufGuard$LT$T$GT$$u20$for$u20$alloc..vec..Vec$LT$T$GT$$GT$13with_capacity17ha2aef7bf933c595bE.exit", %start
  %_24.sroa.0.1 = phi i8 [ 0, %start ], [ 1, %"_ZN5alloc5slice99_$LT$impl$u20$core..slice..sort..stable..BufGuard$LT$T$GT$$u20$for$u20$alloc..vec..Vec$LT$T$GT$$GT$13with_capacity17ha2aef7bf933c595bE.exit" ]
  %stack_scratch.sroa.4.0 = phi i64 [ 1024, %start ], [ %err.0.i.i, %"_ZN5alloc5slice99_$LT$impl$u20$core..slice..sort..stable..BufGuard$LT$T$GT$$u20$for$u20$alloc..vec..Vec$LT$T$GT$$GT$13with_capacity17ha2aef7bf933c595bE.exit" ]
  %stack_buf.pn = phi ptr [ %stack_buf, %start ], [ %this.1.i.i, %"_ZN5alloc5slice99_$LT$impl$u20$core..slice..sort..stable..BufGuard$LT$T$GT$$u20$for$u20$alloc..vec..Vec$LT$T$GT$$GT$13with_capacity17ha2aef7bf933c595bE.exit" ]
  %eager_sort = icmp samesign ult i64 %v.1, 65
; invoke core::slice::sort::stable::drift::sort
  invoke void @_ZN4core5slice4sort6stable5drift4sort17h08141ec4d79a6535E(ptr noalias noundef nonnull align 4 %v.0, i64 noundef %v.1, ptr noalias noundef nonnull align 4 %stack_buf.pn, i64 noundef %stack_scratch.sroa.4.0, i1 noundef zeroext %eager_sort, ptr noalias noundef align 8 dereferenceable(8) %is_less)
          to label %bb9 unwind label %cleanup

bb9:                                              ; preds = %bb8
  %5 = trunc nuw i8 %_24.sroa.0.1 to i1
  br i1 %5, label %bb12, label %bb10

bb10:                                             ; preds = %bb12, %bb9
  call void @llvm.lifetime.end.p0(i64 24, ptr nonnull %heap_buf)
  call void @llvm.lifetime.end.p0(i64 4096, ptr nonnull %stack_buf)
  ret void

bb12:                                             ; preds = %bb9
; call alloc::raw_vec::RawVecInner<A>::deallocate
  call void @"_ZN5alloc7raw_vec20RawVecInner$LT$A$GT$10deallocate17h6ddf8733b0451bb9E"(ptr noalias noundef nonnull align 8 dereferenceable(24) %heap_buf, i64 noundef 4, i64 noundef 4)
  br label %bb10

bb11:                                             ; preds = %bb13, %cleanup
  resume { ptr, i32 } %3

bb13:                                             ; preds = %cleanup
; invoke alloc::raw_vec::RawVecInner<A>::deallocate
  invoke void @"_ZN5alloc7raw_vec20RawVecInner$LT$A$GT$10deallocate17h6ddf8733b0451bb9E"(ptr noalias noundef nonnull align 8 dereferenceable(24) %heap_buf, i64 noundef 4, i64 noundef 4)
          to label %bb11 unwind label %terminate

terminate:                                        ; preds = %bb13
  %6 = landingpad { ptr, i32 }
          filter [0 x ptr] zeroinitializer
; call core::panicking::panic_in_cleanup
  call void @_ZN4core9panicking16panic_in_cleanup17h5f6bde45d17ae243E() #26
  unreachable
}

; core::slice::sort::stable::driftsort_main
; Function Attrs: noinline nonlazybind uwtable
define void @_ZN4core5slice4sort6stable14driftsort_main17hc2eda9400bcc33edE(ptr noalias noundef nonnull align 4 %v.0, i64 noundef range(i64 0, 2305843009213693952) %v.1, ptr noalias noundef align 8 dereferenceable(8) %is_less) unnamed_addr #5 personality ptr @rust_eh_personality {
start:
  %_4.i.i = alloca [24 x i8], align 8
  %heap_buf = alloca [24 x i8], align 8
  %stack_buf = alloca [4096 x i8], align 4
  %_105 = lshr i64 %v.1, 1
  %v1 = sub nsw i64 %v.1, %_105
  %_0.sroa.0.0.i = tail call noundef i64 @llvm.umin.i64(i64 %v.1, i64 2000000)
  %_0.sroa.0.0.i6 = tail call noundef i64 @llvm.umax.i64(i64 %_0.sroa.0.0.i, i64 %v1)
  %_0.sroa.0.0.i7 = tail call noundef i64 @llvm.umax.i64(i64 %_0.sroa.0.0.i6, i64 48)
  call void @llvm.lifetime.start.p0(i64 4096, ptr nonnull %stack_buf)
  call void @llvm.lifetime.start.p0(i64 24, ptr nonnull %heap_buf)
  %_15 = icmp ult i64 %_0.sroa.0.0.i6, 1025
  br i1 %_15, label %bb8, label %bb4

bb4:                                              ; preds = %start
  call void @llvm.lifetime.start.p0(i64 24, ptr nonnull %_4.i.i), !noalias !1493
; invoke alloc::raw_vec::RawVecInner<A>::try_allocate_in
  invoke void @"_ZN5alloc7raw_vec20RawVecInner$LT$A$GT$15try_allocate_in17had089b3ffc2704ecE"(ptr noalias noundef sret([24 x i8]) align 8 captures(none) dereferenceable(24) %_4.i.i, i64 noundef %_0.sroa.0.0.i7, i1 noundef zeroext false, i64 noundef 4, i64 noundef 4)
          to label %.noexc unwind label %cleanup

.noexc:                                           ; preds = %bb4
  %_5.i.i = load i64, ptr %_4.i.i, align 8, !range !1491, !noalias !1493, !noundef !32
  %0 = trunc nuw i64 %_5.i.i to i1
  %1 = getelementptr inbounds nuw i8, ptr %_4.i.i, i64 8
  %err.0.i.i = load i64, ptr %1, align 8, !range !1492, !noalias !1493, !noundef !32
  %2 = getelementptr inbounds nuw i8, ptr %_4.i.i, i64 16
  br i1 %0, label %bb3.i.i, label %"_ZN5alloc5slice99_$LT$impl$u20$core..slice..sort..stable..BufGuard$LT$T$GT$$u20$for$u20$alloc..vec..Vec$LT$T$GT$$GT$13with_capacity17h69271a85fca43929E.exit", !prof !35

bb3.i.i:                                          ; preds = %.noexc
  %err.1.i.i = load i64, ptr %2, align 8, !noalias !1493
; invoke alloc::raw_vec::handle_error
  invoke void @_ZN5alloc7raw_vec12handle_error17h3a8c375904e593b2E(i64 noundef %err.0.i.i, i64 %err.1.i.i) #25
          to label %.noexc8 unwind label %cleanup

.noexc8:                                          ; preds = %bb3.i.i
  unreachable

"_ZN5alloc5slice99_$LT$impl$u20$core..slice..sort..stable..BufGuard$LT$T$GT$$u20$for$u20$alloc..vec..Vec$LT$T$GT$$GT$13with_capacity17h69271a85fca43929E.exit": ; preds = %.noexc
  %this.1.i.i = load ptr, ptr %2, align 8, !noalias !1493, !nonnull !32, !noundef !32
  %_7.i.i = icmp ule i64 %_0.sroa.0.0.i7, %err.0.i.i
  tail call void @llvm.assume(i1 %_7.i.i)
  call void @llvm.lifetime.end.p0(i64 24, ptr nonnull %_4.i.i), !noalias !1493
  store i64 %err.0.i.i, ptr %heap_buf, align 8
  %_18.sroa.4.0.heap_buf.sroa_idx = getelementptr inbounds nuw i8, ptr %heap_buf, i64 8
  store ptr %this.1.i.i, ptr %_18.sroa.4.0.heap_buf.sroa_idx, align 8
  %_18.sroa.5.0.heap_buf.sroa_idx = getelementptr inbounds nuw i8, ptr %heap_buf, i64 16
  store i64 0, ptr %_18.sroa.5.0.heap_buf.sroa_idx, align 8
  br label %bb8

cleanup:                                          ; preds = %bb3.i.i, %bb4, %bb8
  %_24.sroa.0.0 = phi i8 [ %_24.sroa.0.1, %bb8 ], [ 0, %bb4 ], [ 0, %bb3.i.i ]
  %3 = landingpad { ptr, i32 }
          cleanup
  %4 = trunc nuw i8 %_24.sroa.0.0 to i1
  br i1 %4, label %bb13, label %bb11

bb8:                                              ; preds = %"_ZN5alloc5slice99_$LT$impl$u20$core..slice..sort..stable..BufGuard$LT$T$GT$$u20$for$u20$alloc..vec..Vec$LT$T$GT$$GT$13with_capacity17h69271a85fca43929E.exit", %start
  %_24.sroa.0.1 = phi i8 [ 0, %start ], [ 1, %"_ZN5alloc5slice99_$LT$impl$u20$core..slice..sort..stable..BufGuard$LT$T$GT$$u20$for$u20$alloc..vec..Vec$LT$T$GT$$GT$13with_capacity17h69271a85fca43929E.exit" ]
  %stack_scratch.sroa.4.0 = phi i64 [ 1024, %start ], [ %err.0.i.i, %"_ZN5alloc5slice99_$LT$impl$u20$core..slice..sort..stable..BufGuard$LT$T$GT$$u20$for$u20$alloc..vec..Vec$LT$T$GT$$GT$13with_capacity17h69271a85fca43929E.exit" ]
  %stack_buf.pn = phi ptr [ %stack_buf, %start ], [ %this.1.i.i, %"_ZN5alloc5slice99_$LT$impl$u20$core..slice..sort..stable..BufGuard$LT$T$GT$$u20$for$u20$alloc..vec..Vec$LT$T$GT$$GT$13with_capacity17h69271a85fca43929E.exit" ]
  %eager_sort = icmp samesign ult i64 %v.1, 65
; invoke core::slice::sort::stable::drift::sort
  invoke void @_ZN4core5slice4sort6stable5drift4sort17hf5ef043f56509f80E(ptr noalias noundef nonnull align 4 %v.0, i64 noundef %v.1, ptr noalias noundef nonnull align 4 %stack_buf.pn, i64 noundef %stack_scratch.sroa.4.0, i1 noundef zeroext %eager_sort, ptr noalias noundef align 8 dereferenceable(8) %is_less)
          to label %bb9 unwind label %cleanup

bb9:                                              ; preds = %bb8
  %5 = trunc nuw i8 %_24.sroa.0.1 to i1
  br i1 %5, label %bb12, label %bb10

bb10:                                             ; preds = %bb12, %bb9
  call void @llvm.lifetime.end.p0(i64 24, ptr nonnull %heap_buf)
  call void @llvm.lifetime.end.p0(i64 4096, ptr nonnull %stack_buf)
  ret void

bb12:                                             ; preds = %bb9
; call alloc::raw_vec::RawVecInner<A>::deallocate
  call void @"_ZN5alloc7raw_vec20RawVecInner$LT$A$GT$10deallocate17h6ddf8733b0451bb9E"(ptr noalias noundef nonnull align 8 dereferenceable(24) %heap_buf, i64 noundef 4, i64 noundef 4)
  br label %bb10

bb11:                                             ; preds = %bb13, %cleanup
  resume { ptr, i32 } %3

bb13:                                             ; preds = %cleanup
; invoke alloc::raw_vec::RawVecInner<A>::deallocate
  invoke void @"_ZN5alloc7raw_vec20RawVecInner$LT$A$GT$10deallocate17h6ddf8733b0451bb9E"(ptr noalias noundef nonnull align 8 dereferenceable(24) %heap_buf, i64 noundef 4, i64 noundef 4)
          to label %bb11 unwind label %terminate

terminate:                                        ; preds = %bb13
  %6 = landingpad { ptr, i32 }
          filter [0 x ptr] zeroinitializer
; call core::panicking::panic_in_cleanup
  call void @_ZN4core9panicking16panic_in_cleanup17h5f6bde45d17ae243E() #26
  unreachable
}

; core::slice::sort::stable::AlignedStorage<T,_>::as_uninit_slice_mut
; Function Attrs: mustprogress nofree norecurse nosync nounwind nonlazybind willreturn memory(none) uwtable
define { ptr, i64 } @"_ZN4core5slice4sort6stable27AlignedStorage$LT$T$C$_$GT$19as_uninit_slice_mut17hddb3af07d8df153cE"(ptr noalias noundef align 4 dereferenceable(4096) %self) unnamed_addr #6 {
start:
  %0 = insertvalue { ptr, i64 } poison, ptr %self, 0
  %1 = insertvalue { ptr, i64 } %0, i64 1024, 1
  ret { ptr, i64 } %1
}

; core::slice::sort::stable::AlignedStorage<T,_>::as_uninit_slice_mut
; Function Attrs: mustprogress nofree norecurse nosync nounwind nonlazybind willreturn memory(none) uwtable
define { ptr, i64 } @"_ZN4core5slice4sort6stable27AlignedStorage$LT$T$C$_$GT$19as_uninit_slice_mut17he40c43d26459cca5E"(ptr noalias noundef align 4 dereferenceable(4096) %self) unnamed_addr #6 {
start:
  %0 = insertvalue { ptr, i64 } poison, ptr %self, 0
  %1 = insertvalue { ptr, i64 } %0, i64 1024, 1
  ret { ptr, i64 } %1
}

; core::slice::sort::stable::drift::create_run
; Function Attrs: nonlazybind uwtable
define noundef range(i64 0, -1) i64 @_ZN4core5slice4sort6stable5drift10create_run17h8272b928f265b12eE(ptr noalias noundef nonnull align 4 %v.0, i64 noundef range(i64 0, 2305843009213693952) %v.1, ptr noalias noundef nonnull align 4 %scratch.0, i64 noundef range(i64 0, 2305843009213693952) %scratch.1, i64 noundef %min_good_run_len, i1 noundef zeroext %eager_sort, ptr noalias noundef align 8 dereferenceable(8) %is_less) unnamed_addr #1 personality ptr @rust_eh_personality {
start:
  %_7.not = icmp ult i64 %v.1, %min_good_run_len
  br i1 %_7.not, label %bb7, label %bb1

bb7:                                              ; preds = %_ZN4core5slice4sort6shared17find_existing_run17h7b24aa4d0e55d5f5E.exit, %start
  br i1 %eager_sort, label %bb8, label %bb11

bb1:                                              ; preds = %start
  %_4.i = icmp samesign ult i64 %v.1, 2
  br i1 %_4.i, label %_ZN4core5slice4sort6shared17find_existing_run17h7b24aa4d0e55d5f5E.exit, label %bb2.i

bb2.i:                                            ; preds = %bb1
  %_28.i = getelementptr inbounds nuw i8, ptr %v.0, i64 4
  tail call void @llvm.experimental.noalias.scope.decl(metadata !1496)
  tail call void @llvm.experimental.noalias.scope.decl(metadata !1499)
  tail call void @llvm.experimental.noalias.scope.decl(metadata !1501)
  tail call void @llvm.experimental.noalias.scope.decl(metadata !1504)
  tail call void @llvm.experimental.noalias.scope.decl(metadata !1506)
  tail call void @llvm.experimental.noalias.scope.decl(metadata !1509)
  tail call void @llvm.experimental.noalias.scope.decl(metadata !1511)
  tail call void @llvm.experimental.noalias.scope.decl(metadata !1514)
  %_3.i.i.i.i = load i32, ptr %_28.i, align 4, !alias.scope !1516, !noalias !1517, !noundef !32
  %_4.i.i.i.i = load i32, ptr %v.0, align 4, !alias.scope !1517, !noalias !1516, !noundef !32
  %_0.i = icmp slt i32 %_3.i.i.i.i, %_4.i.i.i.i
  %_10.i13.not = icmp eq i64 %v.1, 2
  br i1 %_0.i, label %bb4.i.preheader, label %bb11.i.preheader

bb11.i.preheader:                                 ; preds = %bb2.i
  br i1 %_10.i13.not, label %_ZN4core5slice4sort6shared17find_existing_run17h7b24aa4d0e55d5f5E.exit, label %bb12.i.preheader

bb12.i.preheader:                                 ; preds = %bb11.i.preheader
  %invariant.gep = getelementptr i8, ptr %v.0, i64 -4
  br label %bb12.i

bb4.i.preheader:                                  ; preds = %bb2.i
  br i1 %_10.i13.not, label %_ZN4core5slice4sort6shared17find_existing_run17h7b24aa4d0e55d5f5E.exit, label %bb5.i.preheader

bb5.i.preheader:                                  ; preds = %bb4.i.preheader
  %invariant.gep24 = getelementptr i8, ptr %v.0, i64 -4
  br label %bb5.i

bb12.i:                                           ; preds = %bb12.i.preheader, %bb15.i
  %run_len.sroa.0.0.i11 = phi i64 [ %1, %bb15.i ], [ 2, %bb12.i.preheader ]
  %0 = getelementptr inbounds nuw i32, ptr %v.0, i64 %run_len.sroa.0.0.i11
  %gep = getelementptr i32, ptr %invariant.gep, i64 %run_len.sroa.0.0.i11
  tail call void @llvm.experimental.noalias.scope.decl(metadata !1518)
  tail call void @llvm.experimental.noalias.scope.decl(metadata !1521)
  tail call void @llvm.experimental.noalias.scope.decl(metadata !1523)
  tail call void @llvm.experimental.noalias.scope.decl(metadata !1526)
  tail call void @llvm.experimental.noalias.scope.decl(metadata !1528)
  tail call void @llvm.experimental.noalias.scope.decl(metadata !1531)
  tail call void @llvm.experimental.noalias.scope.decl(metadata !1533)
  tail call void @llvm.experimental.noalias.scope.decl(metadata !1536)
  %_3.i.i.i.i1 = load i32, ptr %0, align 4, !alias.scope !1538, !noalias !1539, !noundef !32
  %_4.i.i.i.i2 = load i32, ptr %gep, align 4, !alias.scope !1539, !noalias !1538, !noundef !32
  %_0.i3 = icmp slt i32 %_3.i.i.i.i1, %_4.i.i.i.i2
  br i1 %_0.i3, label %_ZN4core5slice4sort6shared17find_existing_run17h7b24aa4d0e55d5f5E.exit, label %bb15.i

bb15.i:                                           ; preds = %bb12.i
  %1 = add nuw nsw i64 %run_len.sroa.0.0.i11, 1
  %exitcond.not = icmp eq i64 %1, %v.1
  br i1 %exitcond.not, label %_ZN4core5slice4sort6shared17find_existing_run17h7b24aa4d0e55d5f5E.exit, label %bb12.i

bb5.i:                                            ; preds = %bb5.i.preheader, %bb7.i
  %run_len.sroa.0.1.i14 = phi i64 [ %3, %bb7.i ], [ 2, %bb5.i.preheader ]
  %2 = getelementptr inbounds nuw i32, ptr %v.0, i64 %run_len.sroa.0.1.i14
  %gep25 = getelementptr i32, ptr %invariant.gep24, i64 %run_len.sroa.0.1.i14
  tail call void @llvm.experimental.noalias.scope.decl(metadata !1540)
  tail call void @llvm.experimental.noalias.scope.decl(metadata !1543)
  tail call void @llvm.experimental.noalias.scope.decl(metadata !1545)
  tail call void @llvm.experimental.noalias.scope.decl(metadata !1548)
  tail call void @llvm.experimental.noalias.scope.decl(metadata !1550)
  tail call void @llvm.experimental.noalias.scope.decl(metadata !1553)
  tail call void @llvm.experimental.noalias.scope.decl(metadata !1555)
  tail call void @llvm.experimental.noalias.scope.decl(metadata !1558)
  %_3.i.i.i.i4 = load i32, ptr %2, align 4, !alias.scope !1560, !noalias !1561, !noundef !32
  %_4.i.i.i.i5 = load i32, ptr %gep25, align 4, !alias.scope !1561, !noalias !1560, !noundef !32
  %_0.i6 = icmp slt i32 %_3.i.i.i.i4, %_4.i.i.i.i5
  br i1 %_0.i6, label %bb7.i, label %_ZN4core5slice4sort6shared17find_existing_run17h7b24aa4d0e55d5f5E.exit

bb7.i:                                            ; preds = %bb5.i
  %3 = add nuw nsw i64 %run_len.sroa.0.1.i14, 1
  %exitcond19.not = icmp eq i64 %3, %v.1
  br i1 %exitcond19.not, label %_ZN4core5slice4sort6shared17find_existing_run17h7b24aa4d0e55d5f5E.exit, label %bb5.i

_ZN4core5slice4sort6shared17find_existing_run17h7b24aa4d0e55d5f5E.exit: ; preds = %bb12.i, %bb15.i, %bb5.i, %bb7.i, %bb11.i.preheader, %bb4.i.preheader, %bb1
  %_0.sroa.3.0.i = phi i1 [ false, %bb1 ], [ true, %bb4.i.preheader ], [ false, %bb11.i.preheader ], [ true, %bb7.i ], [ true, %bb5.i ], [ false, %bb15.i ], [ false, %bb12.i ]
  %_0.sroa.0.0.i = phi i64 [ %v.1, %bb1 ], [ 2, %bb4.i.preheader ], [ 2, %bb11.i.preheader ], [ %run_len.sroa.0.1.i14, %bb5.i ], [ %v.1, %bb7.i ], [ %run_len.sroa.0.0.i11, %bb12.i ], [ %v.1, %bb15.i ]
  %_12 = icmp samesign ule i64 %_0.sroa.0.0.i, %v.1
  tail call void @llvm.assume(i1 %_12)
  %_13.not = icmp ult i64 %_0.sroa.0.0.i, %min_good_run_len
  br i1 %_13.not, label %bb7, label %bb3

bb3:                                              ; preds = %_ZN4core5slice4sort6shared17find_existing_run17h7b24aa4d0e55d5f5E.exit
  br i1 %_0.sroa.3.0.i, label %bb14, label %bb5

bb11:                                             ; preds = %bb7
  %_0.sroa.0.0.i7 = tail call noundef i64 @llvm.umin.i64(i64 range(i64 -2305843009213693950, 2305843009213693952) %v.1, i64 %min_good_run_len)
  %_36 = shl nuw nsw i64 %_0.sroa.0.0.i7, 1
  br label %bb12

bb8:                                              ; preds = %bb7
  %_0.sroa.0.0.i8 = tail call noundef i64 @llvm.umin.i64(i64 range(i64 -2305843009213693950, 2305843009213693952) %v.1, i64 32)
; call core::slice::sort::stable::quicksort::quicksort
  tail call void @_ZN4core5slice4sort6stable9quicksort9quicksort17hdffc63021784b2f9E(ptr noalias noundef nonnull align 4 %v.0, i64 noundef %_0.sroa.0.0.i8, ptr noalias noundef nonnull align 4 %scratch.0, i64 noundef %scratch.1, i32 noundef 0, ptr noalias noundef readonly align 4 captures(address, read_provenance) dereferenceable_or_null(4) null, ptr noalias noundef align 8 dereferenceable(8) %is_less) #27
  %_35 = shl nuw nsw i64 %_0.sroa.0.0.i8, 1
  %_34 = or disjoint i64 %_35, 1
  br label %bb12

bb12:                                             ; preds = %bb5, %bb8, %bb11
  %_0.sroa.0.0 = phi i64 [ %_26, %bb5 ], [ %_34, %bb8 ], [ %_36, %bb11 ]
  ret i64 %_0.sroa.0.0

bb5.loopexit.unr-lcssa:                           ; preds = %bb5.i.i, %bb5.i.i.preheader
  %i.sroa.0.016.i.i.unr = phi i64 [ 0, %bb5.i.i.preheader ], [ %15, %bb5.i.i ]
  %4 = and i64 %_0.sroa.0.0.i, 2
  %lcmp.mod.not = icmp eq i64 %4, 0
  br i1 %lcmp.mod.not, label %bb5, label %bb5.i.i.epil

bb5.i.i.epil:                                     ; preds = %bb5.loopexit.unr-lcssa
  %5 = xor i64 %i.sroa.0.016.i.i.unr, -1
  %x.i.i.epil = getelementptr inbounds nuw i32, ptr %v.0, i64 %i.sroa.0.016.i.i.unr
  %y.i.i.epil = getelementptr i32, ptr %end.i, i64 %5
  %6 = load i32, ptr %x.i.i.epil, align 4, !alias.scope !1562, !noalias !1567, !noundef !32
  %7 = load i32, ptr %y.i.i.epil, align 4, !alias.scope !1569, !noalias !1570
  store i32 %7, ptr %x.i.i.epil, align 4, !alias.scope !1562, !noalias !1567
  store i32 %6, ptr %y.i.i.epil, align 4, !alias.scope !1569, !noalias !1570
  br label %bb5

bb5:                                              ; preds = %bb5.i.i.epil, %bb5.loopexit.unr-lcssa, %bb14, %bb3
  %_27 = shl nuw nsw i64 %_0.sroa.0.0.i, 1
  %_26 = or disjoint i64 %_27, 1
  br label %bb12

bb14:                                             ; preds = %bb3
  %half_len2.i = lshr i64 %_0.sroa.0.0.i, 1
  %end.i = getelementptr inbounds nuw i32, ptr %v.0, i64 %_0.sroa.0.0.i
  tail call void @llvm.experimental.noalias.scope.decl(metadata !1570)
  tail call void @llvm.experimental.noalias.scope.decl(metadata !1567)
  %_915.not.i.i = icmp samesign ult i64 %_0.sroa.0.0.i, 2
  br i1 %_915.not.i.i, label %bb5, label %bb5.i.i.preheader

bb5.i.i.preheader:                                ; preds = %bb14
  %8 = icmp eq i64 %half_len2.i, 1
  br i1 %8, label %bb5.loopexit.unr-lcssa, label %bb5.i.i.preheader.new

bb5.i.i.preheader.new:                            ; preds = %bb5.i.i.preheader
  %unroll_iter = and i64 %half_len2.i, 9223372036854775806
  %invariant.gep26 = getelementptr inbounds i8, ptr %v.0, i64 4
  br label %bb5.i.i

bb5.i.i:                                          ; preds = %bb5.i.i, %bb5.i.i.preheader.new
  %i.sroa.0.016.i.i = phi i64 [ 0, %bb5.i.i.preheader.new ], [ %15, %bb5.i.i ]
  %niter = phi i64 [ 0, %bb5.i.i.preheader.new ], [ %niter.next.1, %bb5.i.i ]
  %9 = xor i64 %i.sroa.0.016.i.i, -1
  %x.i.i = getelementptr inbounds nuw i32, ptr %v.0, i64 %i.sroa.0.016.i.i
  %y.i.i = getelementptr i32, ptr %end.i, i64 %9
  %10 = load i32, ptr %x.i.i, align 4, !alias.scope !1562, !noalias !1567, !noundef !32
  %11 = load i32, ptr %y.i.i, align 4, !alias.scope !1569, !noalias !1570
  store i32 %11, ptr %x.i.i, align 4, !alias.scope !1562, !noalias !1567
  store i32 %10, ptr %y.i.i, align 4, !alias.scope !1569, !noalias !1570
  %12 = xor i64 %i.sroa.0.016.i.i, -2
  %gep27 = getelementptr inbounds i32, ptr %invariant.gep26, i64 %i.sroa.0.016.i.i
  %y.i.i.1 = getelementptr i32, ptr %end.i, i64 %12
  %13 = load i32, ptr %gep27, align 4, !alias.scope !1562, !noalias !1567, !noundef !32
  %14 = load i32, ptr %y.i.i.1, align 4, !alias.scope !1569, !noalias !1570
  store i32 %14, ptr %gep27, align 4, !alias.scope !1562, !noalias !1567
  store i32 %13, ptr %y.i.i.1, align 4, !alias.scope !1569, !noalias !1570
  %15 = add nuw nsw i64 %i.sroa.0.016.i.i, 2
  %niter.next.1 = add i64 %niter, 2
  %niter.ncmp.1 = icmp eq i64 %niter.next.1, %unroll_iter
  br i1 %niter.ncmp.1, label %bb5.loopexit.unr-lcssa, label %bb5.i.i
}

; core::slice::sort::stable::drift::create_run
; Function Attrs: nonlazybind uwtable
define noundef range(i64 0, -1) i64 @_ZN4core5slice4sort6stable5drift10create_run17h975d313beafb8e9eE(ptr noalias noundef nonnull align 4 %v.0, i64 noundef range(i64 0, 2305843009213693952) %v.1, ptr noalias noundef nonnull align 4 %scratch.0, i64 noundef range(i64 0, 2305843009213693952) %scratch.1, i64 noundef %min_good_run_len, i1 noundef zeroext %eager_sort, ptr noalias noundef align 8 dereferenceable(8) %is_less) unnamed_addr #1 personality ptr @rust_eh_personality {
start:
  %_7.not = icmp ult i64 %v.1, %min_good_run_len
  br i1 %_7.not, label %bb7, label %bb1

bb7:                                              ; preds = %_ZN4core5slice4sort6shared17find_existing_run17h63a2a40f86e161fbE.exit, %start
  br i1 %eager_sort, label %bb8, label %bb11

bb1:                                              ; preds = %start
  %_4.i = icmp samesign ult i64 %v.1, 2
  br i1 %_4.i, label %_ZN4core5slice4sort6shared17find_existing_run17h63a2a40f86e161fbE.exit, label %bb2.i

bb2.i:                                            ; preds = %bb1
  %_28.i = getelementptr inbounds nuw i8, ptr %v.0, i64 4
  tail call void @llvm.experimental.noalias.scope.decl(metadata !1571)
  tail call void @llvm.experimental.noalias.scope.decl(metadata !1574)
  tail call void @llvm.experimental.noalias.scope.decl(metadata !1576)
  tail call void @llvm.experimental.noalias.scope.decl(metadata !1579)
  tail call void @llvm.experimental.noalias.scope.decl(metadata !1581)
  tail call void @llvm.experimental.noalias.scope.decl(metadata !1584)
  %_4.i.i.i = load float, ptr %_28.i, align 4, !alias.scope !1586, !noalias !1587, !noundef !32
  %_5.i.i.i = load float, ptr %v.0, align 4, !alias.scope !1587, !noalias !1586, !noundef !32
  %.not.i.i.i = fcmp uno float %_4.i.i.i, %_5.i.i.i
  br i1 %.not.i.i.i, label %bb2.i.i.i, label %"_ZN5alloc5slice29_$LT$impl$u20$$u5b$T$u5d$$GT$7sort_by28_$u7b$$u7b$closure$u7d$$u7d$17h8d9a43e174231f37E.exit", !prof !35

bb2.i.i.i:                                        ; preds = %bb2.i
; call core::option::unwrap_failed
  tail call void @_ZN4core6option13unwrap_failed17hef2534b77b89c04fE(ptr noalias noundef readonly align 8 captures(address, read_provenance) dereferenceable(24) @alloc_42c1e7ccc7513d2fb76bea5b8a3258db) #24, !noalias !1588
  unreachable

"_ZN5alloc5slice29_$LT$impl$u20$$u5b$T$u5d$$GT$7sort_by28_$u7b$$u7b$closure$u7d$$u7d$17h8d9a43e174231f37E.exit": ; preds = %bb2.i
  %_0.i = fcmp olt float %_4.i.i.i, %_5.i.i.i
  %_10.i21.not = icmp eq i64 %v.1, 2
  br i1 %_0.i, label %bb4.i.preheader, label %bb11.i.preheader

bb11.i.preheader:                                 ; preds = %"_ZN5alloc5slice29_$LT$impl$u20$$u5b$T$u5d$$GT$7sort_by28_$u7b$$u7b$closure$u7d$$u7d$17h8d9a43e174231f37E.exit"
  br i1 %_10.i21.not, label %_ZN4core5slice4sort6shared17find_existing_run17h63a2a40f86e161fbE.exit, label %bb12.i.preheader

bb12.i.preheader:                                 ; preds = %bb11.i.preheader
  %invariant.gep = getelementptr i8, ptr %v.0, i64 -4
  br label %bb12.i

bb4.i.preheader:                                  ; preds = %"_ZN5alloc5slice29_$LT$impl$u20$$u5b$T$u5d$$GT$7sort_by28_$u7b$$u7b$closure$u7d$$u7d$17h8d9a43e174231f37E.exit"
  br i1 %_10.i21.not, label %_ZN4core5slice4sort6shared17find_existing_run17h63a2a40f86e161fbE.exit, label %bb5.i.preheader

bb5.i.preheader:                                  ; preds = %bb4.i.preheader
  %invariant.gep32 = getelementptr i8, ptr %v.0, i64 -4
  br label %bb5.i

bb12.i:                                           ; preds = %bb12.i.preheader, %bb15.i
  %run_len.sroa.0.0.i19 = phi i64 [ %1, %bb15.i ], [ 2, %bb12.i.preheader ]
  %0 = getelementptr inbounds nuw float, ptr %v.0, i64 %run_len.sroa.0.0.i19
  %gep = getelementptr float, ptr %invariant.gep, i64 %run_len.sroa.0.0.i19
  tail call void @llvm.experimental.noalias.scope.decl(metadata !1589)
  tail call void @llvm.experimental.noalias.scope.decl(metadata !1592)
  tail call void @llvm.experimental.noalias.scope.decl(metadata !1594)
  tail call void @llvm.experimental.noalias.scope.decl(metadata !1597)
  tail call void @llvm.experimental.noalias.scope.decl(metadata !1599)
  tail call void @llvm.experimental.noalias.scope.decl(metadata !1602)
  %_4.i.i.i1 = load float, ptr %0, align 4, !alias.scope !1604, !noalias !1605, !noundef !32
  %_5.i.i.i2 = load float, ptr %gep, align 4, !alias.scope !1605, !noalias !1604, !noundef !32
  %.not.i.i.i3 = fcmp uno float %_4.i.i.i1, %_5.i.i.i2
  br i1 %.not.i.i.i3, label %bb2.i.i.i5, label %"_ZN5alloc5slice29_$LT$impl$u20$$u5b$T$u5d$$GT$7sort_by28_$u7b$$u7b$closure$u7d$$u7d$17h8d9a43e174231f37E.exit6", !prof !35

bb2.i.i.i5:                                       ; preds = %bb12.i
; call core::option::unwrap_failed
  tail call void @_ZN4core6option13unwrap_failed17hef2534b77b89c04fE(ptr noalias noundef readonly align 8 captures(address, read_provenance) dereferenceable(24) @alloc_42c1e7ccc7513d2fb76bea5b8a3258db) #24, !noalias !1606
  unreachable

"_ZN5alloc5slice29_$LT$impl$u20$$u5b$T$u5d$$GT$7sort_by28_$u7b$$u7b$closure$u7d$$u7d$17h8d9a43e174231f37E.exit6": ; preds = %bb12.i
  %_0.i4 = fcmp olt float %_4.i.i.i1, %_5.i.i.i2
  br i1 %_0.i4, label %_ZN4core5slice4sort6shared17find_existing_run17h63a2a40f86e161fbE.exit, label %bb15.i

bb15.i:                                           ; preds = %"_ZN5alloc5slice29_$LT$impl$u20$$u5b$T$u5d$$GT$7sort_by28_$u7b$$u7b$closure$u7d$$u7d$17h8d9a43e174231f37E.exit6"
  %1 = add nuw nsw i64 %run_len.sroa.0.0.i19, 1
  %exitcond.not = icmp eq i64 %1, %v.1
  br i1 %exitcond.not, label %_ZN4core5slice4sort6shared17find_existing_run17h63a2a40f86e161fbE.exit, label %bb12.i

bb5.i:                                            ; preds = %bb5.i.preheader, %bb7.i
  %run_len.sroa.0.1.i22 = phi i64 [ %3, %bb7.i ], [ 2, %bb5.i.preheader ]
  %2 = getelementptr inbounds nuw float, ptr %v.0, i64 %run_len.sroa.0.1.i22
  %gep33 = getelementptr float, ptr %invariant.gep32, i64 %run_len.sroa.0.1.i22
  tail call void @llvm.experimental.noalias.scope.decl(metadata !1607)
  tail call void @llvm.experimental.noalias.scope.decl(metadata !1610)
  tail call void @llvm.experimental.noalias.scope.decl(metadata !1612)
  tail call void @llvm.experimental.noalias.scope.decl(metadata !1615)
  tail call void @llvm.experimental.noalias.scope.decl(metadata !1617)
  tail call void @llvm.experimental.noalias.scope.decl(metadata !1620)
  %_4.i.i.i7 = load float, ptr %2, align 4, !alias.scope !1622, !noalias !1623, !noundef !32
  %_5.i.i.i8 = load float, ptr %gep33, align 4, !alias.scope !1623, !noalias !1622, !noundef !32
  %.not.i.i.i9 = fcmp uno float %_4.i.i.i7, %_5.i.i.i8
  br i1 %.not.i.i.i9, label %bb2.i.i.i11, label %"_ZN5alloc5slice29_$LT$impl$u20$$u5b$T$u5d$$GT$7sort_by28_$u7b$$u7b$closure$u7d$$u7d$17h8d9a43e174231f37E.exit12", !prof !35

bb2.i.i.i11:                                      ; preds = %bb5.i
; call core::option::unwrap_failed
  tail call void @_ZN4core6option13unwrap_failed17hef2534b77b89c04fE(ptr noalias noundef readonly align 8 captures(address, read_provenance) dereferenceable(24) @alloc_42c1e7ccc7513d2fb76bea5b8a3258db) #24, !noalias !1624
  unreachable

"_ZN5alloc5slice29_$LT$impl$u20$$u5b$T$u5d$$GT$7sort_by28_$u7b$$u7b$closure$u7d$$u7d$17h8d9a43e174231f37E.exit12": ; preds = %bb5.i
  %_0.i10 = fcmp olt float %_4.i.i.i7, %_5.i.i.i8
  br i1 %_0.i10, label %bb7.i, label %_ZN4core5slice4sort6shared17find_existing_run17h63a2a40f86e161fbE.exit

bb7.i:                                            ; preds = %"_ZN5alloc5slice29_$LT$impl$u20$$u5b$T$u5d$$GT$7sort_by28_$u7b$$u7b$closure$u7d$$u7d$17h8d9a43e174231f37E.exit12"
  %3 = add nuw nsw i64 %run_len.sroa.0.1.i22, 1
  %exitcond27.not = icmp eq i64 %3, %v.1
  br i1 %exitcond27.not, label %_ZN4core5slice4sort6shared17find_existing_run17h63a2a40f86e161fbE.exit, label %bb5.i

_ZN4core5slice4sort6shared17find_existing_run17h63a2a40f86e161fbE.exit: ; preds = %"_ZN5alloc5slice29_$LT$impl$u20$$u5b$T$u5d$$GT$7sort_by28_$u7b$$u7b$closure$u7d$$u7d$17h8d9a43e174231f37E.exit6", %bb15.i, %"_ZN5alloc5slice29_$LT$impl$u20$$u5b$T$u5d$$GT$7sort_by28_$u7b$$u7b$closure$u7d$$u7d$17h8d9a43e174231f37E.exit12", %bb7.i, %bb11.i.preheader, %bb4.i.preheader, %bb1
  %_0.sroa.3.0.i = phi i1 [ false, %bb1 ], [ true, %bb4.i.preheader ], [ false, %bb11.i.preheader ], [ true, %bb7.i ], [ true, %"_ZN5alloc5slice29_$LT$impl$u20$$u5b$T$u5d$$GT$7sort_by28_$u7b$$u7b$closure$u7d$$u7d$17h8d9a43e174231f37E.exit12" ], [ false, %bb15.i ], [ false, %"_ZN5alloc5slice29_$LT$impl$u20$$u5b$T$u5d$$GT$7sort_by28_$u7b$$u7b$closure$u7d$$u7d$17h8d9a43e174231f37E.exit6" ]
  %_0.sroa.0.0.i = phi i64 [ %v.1, %bb1 ], [ 2, %bb4.i.preheader ], [ 2, %bb11.i.preheader ], [ %run_len.sroa.0.1.i22, %"_ZN5alloc5slice29_$LT$impl$u20$$u5b$T$u5d$$GT$7sort_by28_$u7b$$u7b$closure$u7d$$u7d$17h8d9a43e174231f37E.exit12" ], [ %v.1, %bb7.i ], [ %run_len.sroa.0.0.i19, %"_ZN5alloc5slice29_$LT$impl$u20$$u5b$T$u5d$$GT$7sort_by28_$u7b$$u7b$closure$u7d$$u7d$17h8d9a43e174231f37E.exit6" ], [ %v.1, %bb15.i ]
  %_12 = icmp samesign ule i64 %_0.sroa.0.0.i, %v.1
  tail call void @llvm.assume(i1 %_12)
  %_13.not = icmp ult i64 %_0.sroa.0.0.i, %min_good_run_len
  br i1 %_13.not, label %bb7, label %bb3

bb3:                                              ; preds = %_ZN4core5slice4sort6shared17find_existing_run17h63a2a40f86e161fbE.exit
  br i1 %_0.sroa.3.0.i, label %bb14, label %bb5

bb11:                                             ; preds = %bb7
  %_0.sroa.0.0.i13 = tail call noundef i64 @llvm.umin.i64(i64 range(i64 -2305843009213693950, 2305843009213693952) %v.1, i64 %min_good_run_len)
  %_36 = shl nuw nsw i64 %_0.sroa.0.0.i13, 1
  br label %bb12

bb8:                                              ; preds = %bb7
  %_0.sroa.0.0.i14 = tail call noundef i64 @llvm.umin.i64(i64 range(i64 -2305843009213693950, 2305843009213693952) %v.1, i64 32)
; call core::slice::sort::stable::quicksort::quicksort
  tail call void @_ZN4core5slice4sort6stable9quicksort9quicksort17h8e201aafe2999604E(ptr noalias noundef nonnull align 4 %v.0, i64 noundef %_0.sroa.0.0.i14, ptr noalias noundef nonnull align 4 %scratch.0, i64 noundef %scratch.1, i32 noundef 0, ptr noalias noundef readonly align 4 captures(address, read_provenance) dereferenceable_or_null(4) null, ptr noalias noundef align 8 dereferenceable(8) %is_less) #27
  %_35 = shl nuw nsw i64 %_0.sroa.0.0.i14, 1
  %_34 = or disjoint i64 %_35, 1
  br label %bb12

bb12:                                             ; preds = %bb5, %bb8, %bb11
  %_0.sroa.0.0 = phi i64 [ %_26, %bb5 ], [ %_34, %bb8 ], [ %_36, %bb11 ]
  ret i64 %_0.sroa.0.0

bb5.loopexit.unr-lcssa:                           ; preds = %bb5.i.i, %bb5.i.i.preheader
  %i.sroa.0.016.i.i.unr = phi i64 [ 0, %bb5.i.i.preheader ], [ %15, %bb5.i.i ]
  %4 = and i64 %_0.sroa.0.0.i, 2
  %lcmp.mod.not = icmp eq i64 %4, 0
  br i1 %lcmp.mod.not, label %bb5, label %bb5.i.i.epil

bb5.i.i.epil:                                     ; preds = %bb5.loopexit.unr-lcssa
  %5 = xor i64 %i.sroa.0.016.i.i.unr, -1
  %x.i.i.epil = getelementptr inbounds nuw float, ptr %v.0, i64 %i.sroa.0.016.i.i.unr
  %y.i.i.epil = getelementptr float, ptr %end.i, i64 %5
  %6 = load float, ptr %x.i.i.epil, align 4, !alias.scope !1625, !noalias !1630, !noundef !32
  %7 = load i32, ptr %y.i.i.epil, align 4, !alias.scope !1632, !noalias !1633
  store i32 %7, ptr %x.i.i.epil, align 4, !alias.scope !1625, !noalias !1630
  store float %6, ptr %y.i.i.epil, align 4, !alias.scope !1632, !noalias !1633
  br label %bb5

bb5:                                              ; preds = %bb5.i.i.epil, %bb5.loopexit.unr-lcssa, %bb14, %bb3
  %_27 = shl nuw nsw i64 %_0.sroa.0.0.i, 1
  %_26 = or disjoint i64 %_27, 1
  br label %bb12

bb14:                                             ; preds = %bb3
  %half_len2.i = lshr i64 %_0.sroa.0.0.i, 1
  %end.i = getelementptr inbounds nuw float, ptr %v.0, i64 %_0.sroa.0.0.i
  tail call void @llvm.experimental.noalias.scope.decl(metadata !1633)
  tail call void @llvm.experimental.noalias.scope.decl(metadata !1630)
  %_915.not.i.i = icmp samesign ult i64 %_0.sroa.0.0.i, 2
  br i1 %_915.not.i.i, label %bb5, label %bb5.i.i.preheader

bb5.i.i.preheader:                                ; preds = %bb14
  %8 = icmp eq i64 %half_len2.i, 1
  br i1 %8, label %bb5.loopexit.unr-lcssa, label %bb5.i.i.preheader.new

bb5.i.i.preheader.new:                            ; preds = %bb5.i.i.preheader
  %unroll_iter = and i64 %half_len2.i, 9223372036854775806
  %invariant.gep34 = getelementptr inbounds i8, ptr %v.0, i64 4
  br label %bb5.i.i

bb5.i.i:                                          ; preds = %bb5.i.i, %bb5.i.i.preheader.new
  %i.sroa.0.016.i.i = phi i64 [ 0, %bb5.i.i.preheader.new ], [ %15, %bb5.i.i ]
  %niter = phi i64 [ 0, %bb5.i.i.preheader.new ], [ %niter.next.1, %bb5.i.i ]
  %9 = xor i64 %i.sroa.0.016.i.i, -1
  %x.i.i = getelementptr inbounds nuw float, ptr %v.0, i64 %i.sroa.0.016.i.i
  %y.i.i = getelementptr float, ptr %end.i, i64 %9
  %10 = load float, ptr %x.i.i, align 4, !alias.scope !1625, !noalias !1630, !noundef !32
  %11 = load i32, ptr %y.i.i, align 4, !alias.scope !1632, !noalias !1633
  store i32 %11, ptr %x.i.i, align 4, !alias.scope !1625, !noalias !1630
  store float %10, ptr %y.i.i, align 4, !alias.scope !1632, !noalias !1633
  %12 = xor i64 %i.sroa.0.016.i.i, -2
  %gep35 = getelementptr inbounds float, ptr %invariant.gep34, i64 %i.sroa.0.016.i.i
  %y.i.i.1 = getelementptr float, ptr %end.i, i64 %12
  %13 = load float, ptr %gep35, align 4, !alias.scope !1625, !noalias !1630, !noundef !32
  %14 = load i32, ptr %y.i.i.1, align 4, !alias.scope !1632, !noalias !1633
  store i32 %14, ptr %gep35, align 4, !alias.scope !1625, !noalias !1630
  store float %13, ptr %y.i.i.1, align 4, !alias.scope !1632, !noalias !1633
  %15 = add nuw nsw i64 %i.sroa.0.016.i.i, 2
  %niter.next.1 = add i64 %niter, 2
  %niter.ncmp.1 = icmp eq i64 %niter.next.1, %unroll_iter
  br i1 %niter.ncmp.1, label %bb5.loopexit.unr-lcssa, label %bb5.i.i
}

; core::slice::sort::stable::drift::stable_quicksort
; Function Attrs: nonlazybind uwtable
define void @_ZN4core5slice4sort6stable5drift16stable_quicksort17h4015066697d8904fE(ptr noalias noundef nonnull align 4 %v.0, i64 noundef range(i64 0, 2305843009213693952) %v.1, ptr noalias noundef nonnull align 4 %scratch.0, i64 noundef range(i64 0, 2305843009213693952) %scratch.1, ptr noalias noundef align 8 dereferenceable(8) %is_less) unnamed_addr #1 {
start:
  %self = or i64 %v.1, 1
  %0 = tail call range(i64 3, 64) i64 @llvm.ctlz.i64(i64 %self, i1 true)
  %1 = trunc nuw nsw i64 %0 to i32
  %log = shl nuw nsw i32 %1, 1
  %limit = xor i32 %log, 126
; call core::slice::sort::stable::quicksort::quicksort
  tail call void @_ZN4core5slice4sort6stable9quicksort9quicksort17hdffc63021784b2f9E(ptr noalias noundef nonnull align 4 %v.0, i64 noundef %v.1, ptr noalias noundef nonnull align 4 %scratch.0, i64 noundef %scratch.1, i32 noundef %limit, ptr noalias noundef readonly align 4 captures(address, read_provenance) dereferenceable_or_null(4) null, ptr noalias noundef align 8 dereferenceable(8) %is_less) #27
  ret void
}

; core::slice::sort::stable::drift::stable_quicksort
; Function Attrs: nonlazybind uwtable
define void @_ZN4core5slice4sort6stable5drift16stable_quicksort17haf82536056c0a853E(ptr noalias noundef nonnull align 4 %v.0, i64 noundef range(i64 0, 2305843009213693952) %v.1, ptr noalias noundef nonnull align 4 %scratch.0, i64 noundef range(i64 0, 2305843009213693952) %scratch.1, ptr noalias noundef align 8 dereferenceable(8) %is_less) unnamed_addr #1 {
start:
  %self = or i64 %v.1, 1
  %0 = tail call range(i64 3, 64) i64 @llvm.ctlz.i64(i64 %self, i1 true)
  %1 = trunc nuw nsw i64 %0 to i32
  %log = shl nuw nsw i32 %1, 1
  %limit = xor i32 %log, 126
; call core::slice::sort::stable::quicksort::quicksort
  tail call void @_ZN4core5slice4sort6stable9quicksort9quicksort17h8e201aafe2999604E(ptr noalias noundef nonnull align 4 %v.0, i64 noundef %v.1, ptr noalias noundef nonnull align 4 %scratch.0, i64 noundef %scratch.1, i32 noundef %limit, ptr noalias noundef readonly align 4 captures(address, read_provenance) dereferenceable_or_null(4) null, ptr noalias noundef align 8 dereferenceable(8) %is_less) #27
  ret void
}

; core::slice::sort::stable::drift::sort
; Function Attrs: nonlazybind uwtable
define void @_ZN4core5slice4sort6stable5drift4sort17h08141ec4d79a6535E(ptr noalias noundef nonnull align 4 %v.0, i64 noundef range(i64 0, 2305843009213693952) %v.1, ptr noalias noundef nonnull align 4 %scratch.0, i64 noundef range(i64 0, 2305843009213693952) %scratch.1, i1 noundef zeroext %eager_sort, ptr noalias noundef align 8 dereferenceable(8) %is_less) unnamed_addr #1 personality ptr @rust_eh_personality {
start:
  %desired_depth_storage = alloca [66 x i8], align 1
  %run_storage = alloca [528 x i8], align 8
  %_6 = icmp samesign ult i64 %v.1, 2
  br i1 %_6, label %bb22, label %bb2

bb2:                                              ; preds = %start
  %d = udiv i64 4611686018427387904, %v.1
  %r = urem i64 4611686018427387904, %v.1
  %_73.not = icmp ne i64 %r, 0
  %0 = zext i1 %_73.not to i64
  %scale_factor.sroa.0.0 = add nuw nsw i64 %d, %0
  %_9 = icmp samesign ult i64 %v.1, 4097
  br i1 %_9, label %bb3, label %bb4

bb4:                                              ; preds = %bb2
; call core::slice::sort::stable::drift::sqrt_approx
  %1 = tail call noundef i64 @_ZN4core5slice4sort6stable5drift11sqrt_approx17h72a4dc1ae46294f4E(i64 noundef %v.1)
  br label %bb5

bb3:                                              ; preds = %bb2
  %_1135 = lshr i64 %v.1, 1
  %v1 = sub nsw i64 %v.1, %_1135
  %_0.sroa.0.0.i36 = tail call noundef i64 @llvm.umin.i64(i64 %v1, i64 64)
  br label %bb5

bb5:                                              ; preds = %bb3, %bb4
  %min_good_run_len.sroa.0.0 = phi i64 [ %_0.sroa.0.0.i36, %bb3 ], [ %1, %bb4 ]
  call void @llvm.lifetime.start.p0(i64 528, ptr nonnull %run_storage)
  call void @llvm.lifetime.start.p0(i64 66, ptr nonnull %desired_depth_storage)
  br label %bb6

bb6:                                              ; preds = %bb19, %bb5
  %prev_run.sroa.0.0 = phi i64 [ 1, %bb5 ], [ %next_run.sroa.0.0, %bb19 ]
  %scan_idx.sroa.0.0 = phi i64 [ 0, %bb5 ], [ %13, %bb19 ]
  %stack_len.sroa.0.0 = phi i64 [ 0, %bb5 ], [ %12, %bb19 ]
  %_22 = icmp ult i64 %scan_idx.sroa.0.0, %v.1
  br i1 %_22, label %bb30, label %bb10

bb10:                                             ; preds = %bb6, %bb30
  %desired_depth.sroa.0.0 = phi i8 [ %4, %bb30 ], [ 0, %bb6 ]
  %next_run.sroa.0.0 = phi i64 [ %2, %bb30 ], [ 1, %bb6 ]
  %_3743 = icmp ugt i64 %stack_len.sroa.0.0, 1
  br i1 %_3743, label %bb12, label %bb17

bb30:                                             ; preds = %bb6
  %new_len = sub nuw nsw i64 %v.1, %scan_idx.sroa.0.0
  %_82 = getelementptr inbounds nuw float, ptr %v.0, i64 %scan_idx.sroa.0.0
; call core::slice::sort::stable::drift::create_run
  %2 = tail call noundef i64 @_ZN4core5slice4sort6stable5drift10create_run17h975d313beafb8e9eE(ptr noalias noundef nonnull align 4 %_82, i64 noundef %new_len, ptr noalias noundef nonnull align 4 %scratch.0, i64 noundef %scratch.1, i64 noundef %min_good_run_len.sroa.0.0, i1 noundef zeroext %eager_sort, ptr noalias noundef align 8 dereferenceable(8) %is_less)
  %_31 = lshr i64 %prev_run.sroa.0.0, 1
  %_35 = lshr i64 %2, 1
  %factor = shl i64 %scan_idx.sroa.0.0, 1
  %x = sub i64 %factor, %_31
  %reass.add = shl i64 %scan_idx.sroa.0.0, 1
  %y = add i64 %_35, %reass.add
  %_90 = mul i64 %x, %scale_factor.sroa.0.0
  %_91 = mul i64 %y, %scale_factor.sroa.0.0
  %self4 = xor i64 %_91, %_90
  %3 = tail call range(i64 0, 65) i64 @llvm.ctlz.i64(i64 %self4, i1 false)
  %4 = trunc nuw nsw i64 %3 to i8
  br label %bb10

bb12:                                             ; preds = %bb10, %_ZN4core5slice4sort6stable5drift13logical_merge17h57708bcfac1f249aE.exit
  %stack_len.sroa.0.145 = phi i64 [ %count, %_ZN4core5slice4sort6stable5drift13logical_merge17h57708bcfac1f249aE.exit ], [ %stack_len.sroa.0.0, %bb10 ]
  %prev_run.sroa.0.144 = phi i64 [ %_0.sroa.0.0.i, %_ZN4core5slice4sort6stable5drift13logical_merge17h57708bcfac1f249aE.exit ], [ %prev_run.sroa.0.0, %bb10 ]
  %count = add i64 %stack_len.sroa.0.145, -1
  %_41 = getelementptr inbounds nuw i8, ptr %desired_depth_storage, i64 %count
  %_40 = load i8, ptr %_41, align 1, !noundef !32
  %_39.not = icmp ult i8 %_40, %desired_depth.sroa.0.0
  br i1 %_39.not, label %bb17, label %bb13

bb17:                                             ; preds = %_ZN4core5slice4sort6stable5drift13logical_merge17h57708bcfac1f249aE.exit, %bb12, %bb10
  %prev_run.sroa.0.1.lcssa = phi i64 [ %prev_run.sroa.0.0, %bb10 ], [ %_0.sroa.0.0.i, %_ZN4core5slice4sort6stable5drift13logical_merge17h57708bcfac1f249aE.exit ], [ %prev_run.sroa.0.144, %bb12 ]
  %stack_len.sroa.0.1.lcssa = phi i64 [ %stack_len.sroa.0.0, %bb10 ], [ 1, %_ZN4core5slice4sort6stable5drift13logical_merge17h57708bcfac1f249aE.exit ], [ %stack_len.sroa.0.145, %bb12 ]
  %_59 = getelementptr inbounds nuw i64, ptr %run_storage, i64 %stack_len.sroa.0.1.lcssa
  store i64 %prev_run.sroa.0.1.lcssa, ptr %_59, align 8
  %_61 = getelementptr inbounds nuw i8, ptr %desired_depth_storage, i64 %stack_len.sroa.0.1.lcssa
  store i8 %desired_depth.sroa.0.0, ptr %_61, align 1
  br i1 %_22, label %bb19, label %bb18

bb13:                                             ; preds = %bb12
  %_46 = getelementptr inbounds nuw i64, ptr %run_storage, i64 %count
  %left10 = load i64, ptr %_46, align 8, !noundef !32
  %_50 = lshr i64 %left10, 1
  %_51 = lshr i64 %prev_run.sroa.0.144, 1
  %merged_len = add nuw i64 %_50, %_51
  %merge_start_idx = sub i64 %scan_idx.sroa.0.0, %merged_len
  %_98 = getelementptr inbounds nuw float, ptr %v.0, i64 %merge_start_idx
  %can_fit_in_scratch.i = icmp samesign ugt i64 %merged_len, %scratch.1
  %_22.i = and i64 %prev_run.sroa.0.144, 1
  %_10.not.i = icmp eq i64 %_22.i, 0
  %5 = or i64 %left10, %prev_run.sroa.0.144
  %6 = and i64 %5, 1
  %7 = icmp ne i64 %6, 0
  %or.cond2.i = or i1 %can_fit_in_scratch.i, %7
  br i1 %or.cond2.i, label %bb3.i, label %bb9.i

bb3.i:                                            ; preds = %bb13
  %_21.i = and i64 %left10, 1
  %_9.not.i = icmp eq i64 %_21.i, 0
  br i1 %_9.not.i, label %bb11.i, label %bb5.i

bb9.i:                                            ; preds = %bb13
  %_40.i = shl nuw nsw i64 %merged_len, 1
  br label %_ZN4core5slice4sort6stable5drift13logical_merge17h57708bcfac1f249aE.exit

bb5.i:                                            ; preds = %bb11.i, %bb3.i
  br i1 %_10.not.i, label %bb16.i, label %bb7.i

bb11.i:                                           ; preds = %bb3.i
  %self.i = or i64 %_50, 1
  %8 = tail call range(i64 3, 64) i64 @llvm.ctlz.i64(i64 %self.i, i1 true)
  %9 = trunc nuw nsw i64 %8 to i32
  %log.i = shl nuw nsw i32 %9, 1
  %limit.i = xor i32 %log.i, 126
; call core::slice::sort::stable::quicksort::quicksort
  tail call void @_ZN4core5slice4sort6stable9quicksort9quicksort17h8e201aafe2999604E(ptr noalias noundef nonnull align 4 %_98, i64 noundef range(i64 0, 2305843009213693952) %_50, ptr noalias noundef nonnull align 4 %scratch.0, i64 noundef range(i64 0, 2305843009213693952) %scratch.1, i32 noundef %limit.i, ptr noalias noundef readonly align 4 captures(address, read_provenance) dereferenceable_or_null(4) null, ptr noalias noundef nonnull align 8 dereferenceable(8) %is_less) #27
  br label %bb5.i

bb7.i:                                            ; preds = %bb16.i, %bb5.i
; call core::slice::sort::stable::merge::merge
  tail call void @_ZN4core5slice4sort6stable5merge5merge17h188c1200b9af5701E(ptr noalias noundef nonnull align 4 %_98, i64 noundef range(i64 0, 2305843009213693952) %merged_len, ptr noalias noundef nonnull align 4 %scratch.0, i64 noundef range(i64 0, 2305843009213693952) %scratch.1, i64 noundef %_50, ptr noalias nonnull align 8 poison)
  %_39.i = shl nuw nsw i64 %merged_len, 1
  %_38.i = or disjoint i64 %_39.i, 1
  br label %_ZN4core5slice4sort6stable5drift13logical_merge17h57708bcfac1f249aE.exit

bb16.i:                                           ; preds = %bb5.i
  %_37.i = getelementptr inbounds nuw float, ptr %_98, i64 %_50
  %self.i37 = or i64 %_51, 1
  %10 = tail call range(i64 3, 64) i64 @llvm.ctlz.i64(i64 %self.i37, i1 true)
  %11 = trunc nuw nsw i64 %10 to i32
  %log.i38 = shl nuw nsw i32 %11, 1
  %limit.i39 = xor i32 %log.i38, 126
; call core::slice::sort::stable::quicksort::quicksort
  tail call void @_ZN4core5slice4sort6stable9quicksort9quicksort17h8e201aafe2999604E(ptr noalias noundef nonnull align 4 %_37.i, i64 noundef range(i64 0, 2305843009213693952) %_51, ptr noalias noundef nonnull align 4 %scratch.0, i64 noundef range(i64 0, 2305843009213693952) %scratch.1, i32 noundef %limit.i39, ptr noalias noundef readonly align 4 captures(address, read_provenance) dereferenceable_or_null(4) null, ptr noalias noundef nonnull align 8 dereferenceable(8) %is_less) #27
  br label %bb7.i

_ZN4core5slice4sort6stable5drift13logical_merge17h57708bcfac1f249aE.exit: ; preds = %bb9.i, %bb7.i
  %_0.sroa.0.0.i = phi i64 [ %_38.i, %bb7.i ], [ %_40.i, %bb9.i ]
  %_37 = icmp ugt i64 %count, 1
  br i1 %_37, label %bb12, label %bb17

bb19:                                             ; preds = %bb17
  %12 = add i64 %stack_len.sroa.0.1.lcssa, 1
  %_65 = lshr i64 %next_run.sroa.0.0, 1
  %13 = add nuw i64 %_65, %scan_idx.sroa.0.0
  br label %bb6

bb18:                                             ; preds = %bb17
  %_99 = and i64 %prev_run.sroa.0.1.lcssa, 1
  %_66.not = icmp eq i64 %_99, 0
  br i1 %_66.not, label %bb20, label %bb21

bb20:                                             ; preds = %bb18
  %self.i40 = or i64 %v.1, 1
  %14 = tail call range(i64 3, 64) i64 @llvm.ctlz.i64(i64 %self.i40, i1 true)
  %15 = trunc nuw nsw i64 %14 to i32
  %log.i41 = shl nuw nsw i32 %15, 1
  %limit.i42 = xor i32 %log.i41, 126
; call core::slice::sort::stable::quicksort::quicksort
  tail call void @_ZN4core5slice4sort6stable9quicksort9quicksort17h8e201aafe2999604E(ptr noalias noundef nonnull align 4 %v.0, i64 noundef range(i64 0, 2305843009213693952) %v.1, ptr noalias noundef nonnull align 4 %scratch.0, i64 noundef range(i64 0, 2305843009213693952) %scratch.1, i32 noundef %limit.i42, ptr noalias noundef readonly align 4 captures(address, read_provenance) dereferenceable_or_null(4) null, ptr noalias noundef align 8 dereferenceable(8) %is_less) #27
  br label %bb21

bb21:                                             ; preds = %bb20, %bb18
  call void @llvm.lifetime.end.p0(i64 66, ptr nonnull %desired_depth_storage)
  call void @llvm.lifetime.end.p0(i64 528, ptr nonnull %run_storage)
  br label %bb22

bb22:                                             ; preds = %start, %bb21
  ret void
}

; core::slice::sort::stable::drift::sort
; Function Attrs: nonlazybind uwtable
define void @_ZN4core5slice4sort6stable5drift4sort17hf5ef043f56509f80E(ptr noalias noundef nonnull align 4 %v.0, i64 noundef range(i64 0, 2305843009213693952) %v.1, ptr noalias noundef nonnull align 4 %scratch.0, i64 noundef range(i64 0, 2305843009213693952) %scratch.1, i1 noundef zeroext %eager_sort, ptr noalias noundef align 8 dereferenceable(8) %is_less) unnamed_addr #1 personality ptr @rust_eh_personality {
start:
  %desired_depth_storage = alloca [66 x i8], align 1
  %run_storage = alloca [528 x i8], align 8
  %_6 = icmp samesign ult i64 %v.1, 2
  br i1 %_6, label %bb22, label %bb2

bb2:                                              ; preds = %start
  %d = udiv i64 4611686018427387904, %v.1
  %r = urem i64 4611686018427387904, %v.1
  %_73.not = icmp ne i64 %r, 0
  %0 = zext i1 %_73.not to i64
  %scale_factor.sroa.0.0 = add nuw nsw i64 %d, %0
  %_9 = icmp samesign ult i64 %v.1, 4097
  br i1 %_9, label %bb3, label %bb4

bb4:                                              ; preds = %bb2
; call core::slice::sort::stable::drift::sqrt_approx
  %1 = tail call noundef i64 @_ZN4core5slice4sort6stable5drift11sqrt_approx17h72a4dc1ae46294f4E(i64 noundef %v.1)
  br label %bb5

bb3:                                              ; preds = %bb2
  %_1135 = lshr i64 %v.1, 1
  %v1 = sub nsw i64 %v.1, %_1135
  %_0.sroa.0.0.i36 = tail call noundef i64 @llvm.umin.i64(i64 %v1, i64 64)
  br label %bb5

bb5:                                              ; preds = %bb3, %bb4
  %min_good_run_len.sroa.0.0 = phi i64 [ %_0.sroa.0.0.i36, %bb3 ], [ %1, %bb4 ]
  call void @llvm.lifetime.start.p0(i64 528, ptr nonnull %run_storage)
  call void @llvm.lifetime.start.p0(i64 66, ptr nonnull %desired_depth_storage)
  br label %bb6

bb6:                                              ; preds = %bb19, %bb5
  %prev_run.sroa.0.0 = phi i64 [ 1, %bb5 ], [ %next_run.sroa.0.0, %bb19 ]
  %scan_idx.sroa.0.0 = phi i64 [ 0, %bb5 ], [ %22, %bb19 ]
  %stack_len.sroa.0.0 = phi i64 [ 0, %bb5 ], [ %21, %bb19 ]
  %_22 = icmp ult i64 %scan_idx.sroa.0.0, %v.1
  br i1 %_22, label %bb30, label %bb10

bb10:                                             ; preds = %bb6, %bb30
  %desired_depth.sroa.0.0 = phi i8 [ %4, %bb30 ], [ 0, %bb6 ]
  %next_run.sroa.0.0 = phi i64 [ %2, %bb30 ], [ 1, %bb6 ]
  %_3748 = icmp ugt i64 %stack_len.sroa.0.0, 1
  br i1 %_3748, label %bb12.lr.ph, label %bb17

bb12.lr.ph:                                       ; preds = %bb10
  %v_end.i = getelementptr inbounds nuw i32, ptr %v.0, i64 %scan_idx.sroa.0.0
  br label %bb12

bb30:                                             ; preds = %bb6
  %new_len = sub nuw nsw i64 %v.1, %scan_idx.sroa.0.0
  %_82 = getelementptr inbounds nuw i32, ptr %v.0, i64 %scan_idx.sroa.0.0
; call core::slice::sort::stable::drift::create_run
  %2 = tail call noundef i64 @_ZN4core5slice4sort6stable5drift10create_run17h8272b928f265b12eE(ptr noalias noundef nonnull align 4 %_82, i64 noundef %new_len, ptr noalias noundef nonnull align 4 %scratch.0, i64 noundef %scratch.1, i64 noundef %min_good_run_len.sroa.0.0, i1 noundef zeroext %eager_sort, ptr noalias noundef align 8 dereferenceable(8) %is_less)
  %_31 = lshr i64 %prev_run.sroa.0.0, 1
  %_35 = lshr i64 %2, 1
  %factor = shl i64 %scan_idx.sroa.0.0, 1
  %x = sub i64 %factor, %_31
  %reass.add = shl i64 %scan_idx.sroa.0.0, 1
  %y = add i64 %_35, %reass.add
  %_90 = mul i64 %x, %scale_factor.sroa.0.0
  %_91 = mul i64 %y, %scale_factor.sroa.0.0
  %self4 = xor i64 %_91, %_90
  %3 = tail call range(i64 0, 65) i64 @llvm.ctlz.i64(i64 %self4, i1 false)
  %4 = trunc nuw nsw i64 %3 to i8
  br label %bb10

bb12:                                             ; preds = %bb12.lr.ph, %_ZN4core5slice4sort6stable5drift13logical_merge17h208e27841f14d6c4E.exit
  %stack_len.sroa.0.150 = phi i64 [ %stack_len.sroa.0.0, %bb12.lr.ph ], [ %count, %_ZN4core5slice4sort6stable5drift13logical_merge17h208e27841f14d6c4E.exit ]
  %prev_run.sroa.0.149 = phi i64 [ %prev_run.sroa.0.0, %bb12.lr.ph ], [ %_0.sroa.0.0.i, %_ZN4core5slice4sort6stable5drift13logical_merge17h208e27841f14d6c4E.exit ]
  %count = add i64 %stack_len.sroa.0.150, -1
  %_41 = getelementptr inbounds nuw i8, ptr %desired_depth_storage, i64 %count
  %_40 = load i8, ptr %_41, align 1, !noundef !32
  %_39.not = icmp ult i8 %_40, %desired_depth.sroa.0.0
  br i1 %_39.not, label %bb17, label %bb13

bb17:                                             ; preds = %_ZN4core5slice4sort6stable5drift13logical_merge17h208e27841f14d6c4E.exit, %bb12, %bb10
  %prev_run.sroa.0.1.lcssa = phi i64 [ %prev_run.sroa.0.0, %bb10 ], [ %_0.sroa.0.0.i, %_ZN4core5slice4sort6stable5drift13logical_merge17h208e27841f14d6c4E.exit ], [ %prev_run.sroa.0.149, %bb12 ]
  %stack_len.sroa.0.1.lcssa = phi i64 [ %stack_len.sroa.0.0, %bb10 ], [ 1, %_ZN4core5slice4sort6stable5drift13logical_merge17h208e27841f14d6c4E.exit ], [ %stack_len.sroa.0.150, %bb12 ]
  %_59 = getelementptr inbounds nuw i64, ptr %run_storage, i64 %stack_len.sroa.0.1.lcssa
  store i64 %prev_run.sroa.0.1.lcssa, ptr %_59, align 8
  %_61 = getelementptr inbounds nuw i8, ptr %desired_depth_storage, i64 %stack_len.sroa.0.1.lcssa
  store i8 %desired_depth.sroa.0.0, ptr %_61, align 1
  br i1 %_22, label %bb19, label %bb18

bb13:                                             ; preds = %bb12
  %_46 = getelementptr inbounds nuw i64, ptr %run_storage, i64 %count
  %left10 = load i64, ptr %_46, align 8, !noundef !32
  %_50 = lshr i64 %left10, 1
  %_51 = lshr i64 %prev_run.sroa.0.149, 1
  %merged_len = add nuw i64 %_50, %_51
  %merge_start_idx = sub i64 %scan_idx.sroa.0.0, %merged_len
  %_98 = getelementptr inbounds nuw i32, ptr %v.0, i64 %merge_start_idx
  %can_fit_in_scratch.i = icmp samesign ugt i64 %merged_len, %scratch.1
  %_22.i = and i64 %prev_run.sroa.0.149, 1
  %_10.not.i = icmp eq i64 %_22.i, 0
  %5 = or i64 %left10, %prev_run.sroa.0.149
  %6 = and i64 %5, 1
  %7 = icmp ne i64 %6, 0
  %or.cond2.i = or i1 %can_fit_in_scratch.i, %7
  br i1 %or.cond2.i, label %bb3.i, label %bb9.i

bb3.i:                                            ; preds = %bb13
  %_21.i = and i64 %left10, 1
  %_9.not.i = icmp eq i64 %_21.i, 0
  br i1 %_9.not.i, label %bb11.i, label %bb5.i

bb9.i:                                            ; preds = %bb13
  %_40.i = shl nuw nsw i64 %merged_len, 1
  br label %_ZN4core5slice4sort6stable5drift13logical_merge17h208e27841f14d6c4E.exit

bb5.i:                                            ; preds = %bb11.i, %bb3.i
  br i1 %_10.not.i, label %bb16.i, label %bb7.i

bb11.i:                                           ; preds = %bb3.i
  %self.i = or i64 %_50, 1
  %8 = tail call range(i64 3, 64) i64 @llvm.ctlz.i64(i64 %self.i, i1 true)
  %9 = trunc nuw nsw i64 %8 to i32
  %log.i = shl nuw nsw i32 %9, 1
  %limit.i = xor i32 %log.i, 126
; call core::slice::sort::stable::quicksort::quicksort
  tail call void @_ZN4core5slice4sort6stable9quicksort9quicksort17hdffc63021784b2f9E(ptr noalias noundef nonnull align 4 %_98, i64 noundef range(i64 0, 2305843009213693952) %_50, ptr noalias noundef nonnull align 4 %scratch.0, i64 noundef range(i64 0, 2305843009213693952) %scratch.1, i32 noundef %limit.i, ptr noalias noundef readonly align 4 captures(address, read_provenance) dereferenceable_or_null(4) null, ptr noalias noundef nonnull align 8 dereferenceable(8) %is_less) #27
  br label %bb5.i

bb7.i:                                            ; preds = %bb16.i, %bb5.i
  tail call void @llvm.experimental.noalias.scope.decl(metadata !1634)
  tail call void @llvm.experimental.noalias.scope.decl(metadata !1637)
  %_6.i = icmp ult i64 %left10, 2
  %_7.i = icmp ult i64 %prev_run.sroa.0.149, 2
  %or.cond.i = or i1 %_7.i, %_6.i
  br i1 %or.cond.i, label %_ZN4core5slice4sort6stable5merge5merge17h2ef876e68cb2d31cE.exit, label %bb2.i

bb2.i:                                            ; preds = %bb7.i
  %_0.sroa.0.0.i.i = tail call i64 @llvm.umin.i64(i64 %_51, i64 %_50)
  %_8.i = icmp samesign ult i64 %scratch.1, %_0.sroa.0.0.i.i
  br i1 %_8.i, label %_ZN4core5slice4sort6stable5merge5merge17h2ef876e68cb2d31cE.exit, label %bb5.i37

bb5.i37:                                          ; preds = %bb2.i
  %v_mid.i = getelementptr inbounds nuw i32, ptr %_98, i64 %_50
  %left_is_shorter.not.i = icmp samesign ugt i64 %_50, %_51
  %spec.select.i = select i1 %left_is_shorter.not.i, ptr %v_mid.i, ptr %_98
  %10 = shl nuw nsw i64 %_0.sroa.0.0.i.i, 2
  tail call void @llvm.memcpy.p0.p0.i64(ptr nonnull align 4 %scratch.0, ptr nonnull align 4 %spec.select.i, i64 %10, i1 false), !alias.scope !1639
  %_22.i38 = getelementptr inbounds nuw i8, ptr %scratch.0, i64 %10
  br i1 %left_is_shorter.not.i, label %bb1.i.i, label %bb3.i.i

bb1.i.i:                                          ; preds = %bb5.i37, %bb1.i.i
  %_2110.i.i = phi ptr [ %_21.i.i, %bb1.i.i ], [ %_22.i38, %bb5.i37 ]
  %_188.i.i = phi ptr [ %_18.i.i, %bb1.i.i ], [ %spec.select.i, %bb5.i37 ]
  %out.sroa.0.0.i.i = phi ptr [ %13, %bb1.i.i ], [ %v_end.i, %bb5.i37 ]
  %11 = getelementptr inbounds i8, ptr %_188.i.i, i64 -4
  %12 = getelementptr inbounds i8, ptr %_2110.i.i, i64 -4
  %13 = getelementptr inbounds i8, ptr %out.sroa.0.0.i.i, i64 -4
  tail call void @llvm.experimental.noalias.scope.decl(metadata !1640)
  tail call void @llvm.experimental.noalias.scope.decl(metadata !1643)
  tail call void @llvm.experimental.noalias.scope.decl(metadata !1645)
  tail call void @llvm.experimental.noalias.scope.decl(metadata !1648)
  tail call void @llvm.experimental.noalias.scope.decl(metadata !1650)
  tail call void @llvm.experimental.noalias.scope.decl(metadata !1653)
  tail call void @llvm.experimental.noalias.scope.decl(metadata !1655)
  tail call void @llvm.experimental.noalias.scope.decl(metadata !1658)
  %_3.i.i.i.i.i.i = load i32, ptr %12, align 4, !alias.scope !1660, !noalias !1661, !noundef !32
  %_4.i.i.i.i.i.i = load i32, ptr %11, align 4, !alias.scope !1664, !noalias !1665, !noundef !32
  %_0.i.i.i = icmp slt i32 %_3.i.i.i.i.i.i, %_4.i.i.i.i.i.i
  %14 = tail call i32 @llvm.smax.i32(i32 %_3.i.i.i.i.i.i, i32 %_4.i.i.i.i.i.i)
  store i32 %14, ptr %13, align 4, !alias.scope !1634, !noalias !1666
  %_20.i.i = xor i1 %_0.i.i.i, true
  %count.i.i = zext i1 %_20.i.i to i64
  %_18.i.i = getelementptr inbounds nuw i32, ptr %11, i64 %count.i.i
  %count4.i.i = zext i1 %_0.i.i.i to i64
  %_21.i.i = getelementptr inbounds nuw i32, ptr %12, i64 %count4.i.i
  %_23.i.i = icmp eq ptr %_18.i.i, %_98
  %_26.i.i = icmp eq ptr %_21.i.i, %scratch.0
  %or.cond.i.i = select i1 %_23.i.i, i1 true, i1 %_26.i.i
  br i1 %or.cond.i.i, label %bb16.i40, label %bb1.i.i

bb3.i.i:                                          ; preds = %bb5.i37, %bb3.i.i
  %_2511.i.i = phi ptr [ %_25.i.i, %bb3.i.i ], [ %spec.select.i, %bb5.i37 ]
  %right.sroa.0.010.i.i = phi ptr [ %_23.i17.i, %bb3.i.i ], [ %v_mid.i, %bb5.i37 ]
  %_2059.i.i = phi ptr [ %_20.i16.i, %bb3.i.i ], [ %scratch.0, %bb5.i37 ]
  tail call void @llvm.experimental.noalias.scope.decl(metadata !1667)
  tail call void @llvm.experimental.noalias.scope.decl(metadata !1670)
  tail call void @llvm.experimental.noalias.scope.decl(metadata !1672)
  tail call void @llvm.experimental.noalias.scope.decl(metadata !1675)
  tail call void @llvm.experimental.noalias.scope.decl(metadata !1677)
  tail call void @llvm.experimental.noalias.scope.decl(metadata !1680)
  tail call void @llvm.experimental.noalias.scope.decl(metadata !1682)
  tail call void @llvm.experimental.noalias.scope.decl(metadata !1685)
  %_3.i.i.i.i.i12.i = load i32, ptr %right.sroa.0.010.i.i, align 4, !alias.scope !1687, !noalias !1688, !noundef !32
  %_4.i.i.i.i.i13.i = load i32, ptr %_2059.i.i, align 4, !alias.scope !1691, !noalias !1692, !noundef !32
  %_0.i.i14.i = icmp slt i32 %_3.i.i.i.i.i12.i, %_4.i.i.i.i.i13.i
  %consume_left.i.i = xor i1 %_0.i.i14.i, true
  %15 = tail call i32 @llvm.smin.i32(i32 %_3.i.i.i.i.i12.i, i32 %_4.i.i.i.i.i13.i)
  store i32 %15, ptr %_2511.i.i, align 4, !alias.scope !1634, !noalias !1693
  %count.i15.i = zext i1 %consume_left.i.i to i64
  %_20.i16.i = getelementptr inbounds nuw i32, ptr %_2059.i.i, i64 %count.i15.i
  %count2.i.i = zext i1 %_0.i.i14.i to i64
  %_23.i17.i = getelementptr inbounds nuw i32, ptr %right.sroa.0.010.i.i, i64 %count2.i.i
  %_25.i.i = getelementptr inbounds nuw i8, ptr %_2511.i.i, i64 4
  %_7.i.i = icmp ne ptr %_20.i16.i, %_22.i38
  %_10.i.i = icmp ne ptr %_23.i17.i, %v_end.i
  %or.cond.i18.i = select i1 %_7.i.i, i1 %_10.i.i, i1 false
  br i1 %or.cond.i18.i, label %bb3.i.i, label %bb16.i40

bb16.i40:                                         ; preds = %bb3.i.i, %bb1.i.i
  %merge_state.sroa.13.0.i = phi ptr [ %_18.i.i, %bb1.i.i ], [ %_25.i.i, %bb3.i.i ]
  %merge_state.sroa.7.0.i = phi ptr [ %_21.i.i, %bb1.i.i ], [ %_22.i38, %bb3.i.i ]
  %merge_state.sroa.0.0.i = phi ptr [ %scratch.0, %bb1.i.i ], [ %_20.i16.i, %bb3.i.i ]
  %16 = ptrtoint ptr %merge_state.sroa.7.0.i to i64
  %17 = ptrtoint ptr %merge_state.sroa.0.0.i to i64
  %18 = sub nuw i64 %16, %17
  tail call void @llvm.memcpy.p0.p0.i64(ptr align 4 %merge_state.sroa.13.0.i, ptr align 4 %merge_state.sroa.0.0.i, i64 %18, i1 false), !alias.scope !1639, !noalias !1694
  br label %_ZN4core5slice4sort6stable5merge5merge17h2ef876e68cb2d31cE.exit

_ZN4core5slice4sort6stable5merge5merge17h2ef876e68cb2d31cE.exit: ; preds = %bb7.i, %bb2.i, %bb16.i40
  %_39.i = shl nuw nsw i64 %merged_len, 1
  %_38.i = or disjoint i64 %_39.i, 1
  br label %_ZN4core5slice4sort6stable5drift13logical_merge17h208e27841f14d6c4E.exit

bb16.i:                                           ; preds = %bb5.i
  %_37.i = getelementptr inbounds nuw i32, ptr %_98, i64 %_50
  %self.i41 = or i64 %_51, 1
  %19 = tail call range(i64 3, 64) i64 @llvm.ctlz.i64(i64 %self.i41, i1 true)
  %20 = trunc nuw nsw i64 %19 to i32
  %log.i42 = shl nuw nsw i32 %20, 1
  %limit.i43 = xor i32 %log.i42, 126
; call core::slice::sort::stable::quicksort::quicksort
  tail call void @_ZN4core5slice4sort6stable9quicksort9quicksort17hdffc63021784b2f9E(ptr noalias noundef nonnull align 4 %_37.i, i64 noundef range(i64 0, 2305843009213693952) %_51, ptr noalias noundef nonnull align 4 %scratch.0, i64 noundef range(i64 0, 2305843009213693952) %scratch.1, i32 noundef %limit.i43, ptr noalias noundef readonly align 4 captures(address, read_provenance) dereferenceable_or_null(4) null, ptr noalias noundef nonnull align 8 dereferenceable(8) %is_less) #27
  br label %bb7.i

_ZN4core5slice4sort6stable5drift13logical_merge17h208e27841f14d6c4E.exit: ; preds = %bb9.i, %_ZN4core5slice4sort6stable5merge5merge17h2ef876e68cb2d31cE.exit
  %_0.sroa.0.0.i = phi i64 [ %_38.i, %_ZN4core5slice4sort6stable5merge5merge17h2ef876e68cb2d31cE.exit ], [ %_40.i, %bb9.i ]
  %_37 = icmp ugt i64 %count, 1
  br i1 %_37, label %bb12, label %bb17

bb19:                                             ; preds = %bb17
  %21 = add i64 %stack_len.sroa.0.1.lcssa, 1
  %_65 = lshr i64 %next_run.sroa.0.0, 1
  %22 = add nuw i64 %_65, %scan_idx.sroa.0.0
  br label %bb6

bb18:                                             ; preds = %bb17
  %_99 = and i64 %prev_run.sroa.0.1.lcssa, 1
  %_66.not = icmp eq i64 %_99, 0
  br i1 %_66.not, label %bb20, label %bb21

bb20:                                             ; preds = %bb18
  %self.i44 = or i64 %v.1, 1
  %23 = tail call range(i64 3, 64) i64 @llvm.ctlz.i64(i64 %self.i44, i1 true)
  %24 = trunc nuw nsw i64 %23 to i32
  %log.i45 = shl nuw nsw i32 %24, 1
  %limit.i46 = xor i32 %log.i45, 126
; call core::slice::sort::stable::quicksort::quicksort
  tail call void @_ZN4core5slice4sort6stable9quicksort9quicksort17hdffc63021784b2f9E(ptr noalias noundef nonnull align 4 %v.0, i64 noundef range(i64 0, 2305843009213693952) %v.1, ptr noalias noundef nonnull align 4 %scratch.0, i64 noundef range(i64 0, 2305843009213693952) %scratch.1, i32 noundef %limit.i46, ptr noalias noundef readonly align 4 captures(address, read_provenance) dereferenceable_or_null(4) null, ptr noalias noundef align 8 dereferenceable(8) %is_less) #27
  br label %bb21

bb21:                                             ; preds = %bb20, %bb18
  call void @llvm.lifetime.end.p0(i64 66, ptr nonnull %desired_depth_storage)
  call void @llvm.lifetime.end.p0(i64 528, ptr nonnull %run_storage)
  br label %bb22

bb22:                                             ; preds = %start, %bb21
  ret void
}

; core::slice::sort::stable::merge::MergeState<T>::merge_down
; Function Attrs: nofree norecurse nosync nounwind nonlazybind memory(read, argmem: readwrite, inaccessiblemem: readwrite) uwtable
define void @"_ZN4core5slice4sort6stable5merge19MergeState$LT$T$GT$10merge_down17hcf819ab6cec10651E"(ptr noalias noundef align 8 captures(none) dereferenceable(24) %self, ptr noundef readnone captures(address) %left_end, ptr noundef readnone captures(address) %right_end, ptr noundef writeonly captures(none) %0, ptr noalias noundef readnone align 8 captures(none) dereferenceable(8) %is_less) unnamed_addr #7 {
start:
  %1 = getelementptr inbounds nuw i8, ptr %self, i64 16
  %2 = getelementptr inbounds nuw i8, ptr %self, i64 8
  %.promoted = load ptr, ptr %1, align 8
  %.promoted9 = load ptr, ptr %2, align 8
  br label %bb1

bb1:                                              ; preds = %bb1, %start
  %_2110 = phi ptr [ %.promoted9, %start ], [ %_21, %bb1 ]
  %_188 = phi ptr [ %.promoted, %start ], [ %_18, %bb1 ]
  %out.sroa.0.0 = phi ptr [ %0, %start ], [ %5, %bb1 ]
  %3 = getelementptr inbounds i8, ptr %_188, i64 -4
  %4 = getelementptr inbounds i8, ptr %_2110, i64 -4
  %5 = getelementptr inbounds i8, ptr %out.sroa.0.0, i64 -4
  tail call void @llvm.experimental.noalias.scope.decl(metadata !1699)
  tail call void @llvm.experimental.noalias.scope.decl(metadata !1702)
  tail call void @llvm.experimental.noalias.scope.decl(metadata !1704)
  tail call void @llvm.experimental.noalias.scope.decl(metadata !1707)
  tail call void @llvm.experimental.noalias.scope.decl(metadata !1709)
  tail call void @llvm.experimental.noalias.scope.decl(metadata !1712)
  tail call void @llvm.experimental.noalias.scope.decl(metadata !1714)
  tail call void @llvm.experimental.noalias.scope.decl(metadata !1717)
  %_3.i.i.i.i = load i32, ptr %4, align 4, !alias.scope !1719, !noalias !1720, !noundef !32
  %_4.i.i.i.i = load i32, ptr %3, align 4, !alias.scope !1720, !noalias !1719, !noundef !32
  %_0.i = icmp slt i32 %_3.i.i.i.i, %_4.i.i.i.i
  %6 = tail call i32 @llvm.smax.i32(i32 %_3.i.i.i.i, i32 %_4.i.i.i.i)
  store i32 %6, ptr %5, align 4
  %_20 = xor i1 %_0.i, true
  %count = zext i1 %_20 to i64
  %_18 = getelementptr inbounds nuw i32, ptr %3, i64 %count
  %count4 = zext i1 %_0.i to i64
  %_21 = getelementptr inbounds nuw i32, ptr %4, i64 %count4
  %_23 = icmp eq ptr %_18, %left_end
  %_26 = icmp eq ptr %_21, %right_end
  %or.cond = select i1 %_23, i1 true, i1 %_26
  br i1 %or.cond, label %bb7, label %bb1

bb7:                                              ; preds = %bb1
  store ptr %_18, ptr %1, align 8
  store ptr %_21, ptr %2, align 8
  ret void
}

; core::slice::sort::stable::merge::MergeState<T>::merge_down
; Function Attrs: nonlazybind uwtable
define void @"_ZN4core5slice4sort6stable5merge19MergeState$LT$T$GT$10merge_down17he8349b86a5f76171E"(ptr noalias noundef align 8 captures(none) dereferenceable(24) %self, ptr noundef readnone captures(address) %left_end, ptr noundef readnone captures(address) %right_end, ptr noundef writeonly captures(none) %0, ptr noalias noundef readnone align 8 captures(none) dereferenceable(8) %is_less) unnamed_addr #1 {
start:
  %1 = getelementptr inbounds nuw i8, ptr %self, i64 16
  %2 = getelementptr inbounds nuw i8, ptr %self, i64 8
  %.promoted = load ptr, ptr %1, align 8
  %.promoted8 = load ptr, ptr %2, align 8
  br label %bb1

bb1:                                              ; preds = %"_ZN5alloc5slice29_$LT$impl$u20$$u5b$T$u5d$$GT$7sort_by28_$u7b$$u7b$closure$u7d$$u7d$17h8d9a43e174231f37E.exit", %start
  %_219 = phi ptr [ %.promoted8, %start ], [ %_21, %"_ZN5alloc5slice29_$LT$impl$u20$$u5b$T$u5d$$GT$7sort_by28_$u7b$$u7b$closure$u7d$$u7d$17h8d9a43e174231f37E.exit" ]
  %_187 = phi ptr [ %.promoted, %start ], [ %_18, %"_ZN5alloc5slice29_$LT$impl$u20$$u5b$T$u5d$$GT$7sort_by28_$u7b$$u7b$closure$u7d$$u7d$17h8d9a43e174231f37E.exit" ]
  %out.sroa.0.0 = phi ptr [ %0, %start ], [ %5, %"_ZN5alloc5slice29_$LT$impl$u20$$u5b$T$u5d$$GT$7sort_by28_$u7b$$u7b$closure$u7d$$u7d$17h8d9a43e174231f37E.exit" ]
  %3 = getelementptr inbounds i8, ptr %_187, i64 -4
  %4 = getelementptr inbounds i8, ptr %_219, i64 -4
  tail call void @llvm.experimental.noalias.scope.decl(metadata !1721)
  tail call void @llvm.experimental.noalias.scope.decl(metadata !1724)
  tail call void @llvm.experimental.noalias.scope.decl(metadata !1726)
  tail call void @llvm.experimental.noalias.scope.decl(metadata !1729)
  tail call void @llvm.experimental.noalias.scope.decl(metadata !1731)
  tail call void @llvm.experimental.noalias.scope.decl(metadata !1734)
  %_4.i.i.i = load float, ptr %4, align 4, !alias.scope !1736, !noalias !1737, !noundef !32
  %_5.i.i.i = load float, ptr %3, align 4, !alias.scope !1737, !noalias !1736, !noundef !32
  %.not.i.i.i = fcmp uno float %_4.i.i.i, %_5.i.i.i
  br i1 %.not.i.i.i, label %bb2.i.i.i, label %"_ZN5alloc5slice29_$LT$impl$u20$$u5b$T$u5d$$GT$7sort_by28_$u7b$$u7b$closure$u7d$$u7d$17h8d9a43e174231f37E.exit", !prof !35

bb2.i.i.i:                                        ; preds = %bb1
; call core::option::unwrap_failed
  tail call void @_ZN4core6option13unwrap_failed17hef2534b77b89c04fE(ptr noalias noundef readonly align 8 captures(address, read_provenance) dereferenceable(24) @alloc_42c1e7ccc7513d2fb76bea5b8a3258db) #24, !noalias !1738
  unreachable

"_ZN5alloc5slice29_$LT$impl$u20$$u5b$T$u5d$$GT$7sort_by28_$u7b$$u7b$closure$u7d$$u7d$17h8d9a43e174231f37E.exit": ; preds = %bb1
  %5 = getelementptr inbounds i8, ptr %out.sroa.0.0, i64 -4
  %_0.i = fcmp olt float %_4.i.i.i, %_5.i.i.i
  %. = select i1 %_0.i, ptr %3, ptr %4
  %6 = load i32, ptr %., align 4
  store i32 %6, ptr %5, align 4
  %_20 = xor i1 %_0.i, true
  %count = zext i1 %_20 to i64
  %_18 = getelementptr inbounds nuw float, ptr %3, i64 %count
  store ptr %_18, ptr %1, align 8
  %count4 = zext i1 %_0.i to i64
  %_21 = getelementptr inbounds nuw float, ptr %4, i64 %count4
  store ptr %_21, ptr %2, align 8
  %_23 = icmp eq ptr %_18, %left_end
  %_26 = icmp eq ptr %_21, %right_end
  %or.cond = select i1 %_23, i1 true, i1 %_26
  br i1 %or.cond, label %bb7, label %bb1

bb7:                                              ; preds = %"_ZN5alloc5slice29_$LT$impl$u20$$u5b$T$u5d$$GT$7sort_by28_$u7b$$u7b$closure$u7d$$u7d$17h8d9a43e174231f37E.exit"
  ret void
}

; core::slice::sort::stable::merge::MergeState<T>::merge_up
; Function Attrs: nofree norecurse nosync nounwind nonlazybind uwtable
define void @"_ZN4core5slice4sort6stable5merge19MergeState$LT$T$GT$8merge_up17h833decc9e59dafa2E"(ptr noalias noundef align 8 captures(none) dereferenceable(24) %self, ptr noundef readonly captures(address) %0, ptr noundef readnone captures(address) %right_end, ptr noalias noundef readnone align 8 captures(none) dereferenceable(8) %is_less) unnamed_addr #8 {
start:
  %1 = getelementptr inbounds nuw i8, ptr %self, i64 8
  %_9 = load ptr, ptr %1, align 8, !noundef !32
  %self.promoted = load ptr, ptr %self, align 8
  %_76 = icmp ne ptr %self.promoted, %_9
  %_107 = icmp ne ptr %0, %right_end
  %or.cond8 = and i1 %_76, %_107
  br i1 %or.cond8, label %bb3.lr.ph, label %bb9

bb3.lr.ph:                                        ; preds = %start
  %2 = getelementptr inbounds nuw i8, ptr %self, i64 16
  %.promoted = load ptr, ptr %2, align 8
  br label %bb3

bb1.bb9_crit_edge:                                ; preds = %bb3
  store ptr %_25, ptr %2, align 8
  store ptr %_20, ptr %self, align 8
  br label %bb9

bb9:                                              ; preds = %bb1.bb9_crit_edge, %start
  ret void

bb3:                                              ; preds = %bb3.lr.ph, %bb3
  %_2511 = phi ptr [ %.promoted, %bb3.lr.ph ], [ %_25, %bb3 ]
  %right.sroa.0.010 = phi ptr [ %0, %bb3.lr.ph ], [ %_23, %bb3 ]
  %_2059 = phi ptr [ %self.promoted, %bb3.lr.ph ], [ %_20, %bb3 ]
  tail call void @llvm.experimental.noalias.scope.decl(metadata !1739)
  tail call void @llvm.experimental.noalias.scope.decl(metadata !1742)
  tail call void @llvm.experimental.noalias.scope.decl(metadata !1744)
  tail call void @llvm.experimental.noalias.scope.decl(metadata !1747)
  tail call void @llvm.experimental.noalias.scope.decl(metadata !1749)
  tail call void @llvm.experimental.noalias.scope.decl(metadata !1752)
  tail call void @llvm.experimental.noalias.scope.decl(metadata !1754)
  tail call void @llvm.experimental.noalias.scope.decl(metadata !1757)
  %_3.i.i.i.i = load i32, ptr %right.sroa.0.010, align 4, !alias.scope !1759, !noalias !1760, !noundef !32
  %_4.i.i.i.i = load i32, ptr %_2059, align 4, !alias.scope !1760, !noalias !1759, !noundef !32
  %_0.i = icmp slt i32 %_3.i.i.i.i, %_4.i.i.i.i
  %consume_left = xor i1 %_0.i, true
  %3 = tail call i32 @llvm.smin.i32(i32 %_3.i.i.i.i, i32 %_4.i.i.i.i)
  store i32 %3, ptr %_2511, align 4
  %count = zext i1 %consume_left to i64
  %_20 = getelementptr inbounds nuw i32, ptr %_2059, i64 %count
  %count2 = zext i1 %_0.i to i64
  %_23 = getelementptr inbounds nuw i32, ptr %right.sroa.0.010, i64 %count2
  %_25 = getelementptr inbounds nuw i8, ptr %_2511, i64 4
  %_7 = icmp ne ptr %_20, %_9
  %_10 = icmp ne ptr %_23, %right_end
  %or.cond = select i1 %_7, i1 %_10, i1 false
  br i1 %or.cond, label %bb3, label %bb1.bb9_crit_edge
}

; core::slice::sort::stable::merge::MergeState<T>::merge_up
; Function Attrs: nonlazybind uwtable
define void @"_ZN4core5slice4sort6stable5merge19MergeState$LT$T$GT$8merge_up17h8f90fd9dbe20515bE"(ptr noalias noundef align 8 captures(none) dereferenceable(24) %self, ptr noundef readonly captures(address) %0, ptr noundef readnone captures(address) %right_end, ptr noalias noundef readnone align 8 captures(none) dereferenceable(8) %is_less) unnamed_addr #1 {
start:
  %1 = getelementptr inbounds nuw i8, ptr %self, i64 8
  %_9 = load ptr, ptr %1, align 8, !noundef !32
  %self.promoted = load ptr, ptr %self, align 8
  %_76 = icmp ne ptr %self.promoted, %_9
  %_107 = icmp ne ptr %0, %right_end
  %or.cond8 = and i1 %_76, %_107
  br i1 %or.cond8, label %bb3.lr.ph, label %bb9

bb3.lr.ph:                                        ; preds = %start
  %2 = getelementptr inbounds nuw i8, ptr %self, i64 16
  %.promoted = load ptr, ptr %2, align 8
  br label %bb3

bb9:                                              ; preds = %"_ZN5alloc5slice29_$LT$impl$u20$$u5b$T$u5d$$GT$7sort_by28_$u7b$$u7b$closure$u7d$$u7d$17h8d9a43e174231f37E.exit", %start
  ret void

bb3:                                              ; preds = %bb3.lr.ph, %"_ZN5alloc5slice29_$LT$impl$u20$$u5b$T$u5d$$GT$7sort_by28_$u7b$$u7b$closure$u7d$$u7d$17h8d9a43e174231f37E.exit"
  %_2511 = phi ptr [ %.promoted, %bb3.lr.ph ], [ %_25, %"_ZN5alloc5slice29_$LT$impl$u20$$u5b$T$u5d$$GT$7sort_by28_$u7b$$u7b$closure$u7d$$u7d$17h8d9a43e174231f37E.exit" ]
  %right.sroa.0.010 = phi ptr [ %0, %bb3.lr.ph ], [ %_23, %"_ZN5alloc5slice29_$LT$impl$u20$$u5b$T$u5d$$GT$7sort_by28_$u7b$$u7b$closure$u7d$$u7d$17h8d9a43e174231f37E.exit" ]
  %_2059 = phi ptr [ %self.promoted, %bb3.lr.ph ], [ %_20, %"_ZN5alloc5slice29_$LT$impl$u20$$u5b$T$u5d$$GT$7sort_by28_$u7b$$u7b$closure$u7d$$u7d$17h8d9a43e174231f37E.exit" ]
  tail call void @llvm.experimental.noalias.scope.decl(metadata !1761)
  tail call void @llvm.experimental.noalias.scope.decl(metadata !1764)
  tail call void @llvm.experimental.noalias.scope.decl(metadata !1766)
  tail call void @llvm.experimental.noalias.scope.decl(metadata !1769)
  tail call void @llvm.experimental.noalias.scope.decl(metadata !1771)
  tail call void @llvm.experimental.noalias.scope.decl(metadata !1774)
  %_4.i.i.i = load float, ptr %right.sroa.0.010, align 4, !alias.scope !1776, !noalias !1777, !noundef !32
  %_5.i.i.i = load float, ptr %_2059, align 4, !alias.scope !1777, !noalias !1776, !noundef !32
  %.not.i.i.i = fcmp uno float %_4.i.i.i, %_5.i.i.i
  br i1 %.not.i.i.i, label %bb2.i.i.i, label %"_ZN5alloc5slice29_$LT$impl$u20$$u5b$T$u5d$$GT$7sort_by28_$u7b$$u7b$closure$u7d$$u7d$17h8d9a43e174231f37E.exit", !prof !35

bb2.i.i.i:                                        ; preds = %bb3
; call core::option::unwrap_failed
  tail call void @_ZN4core6option13unwrap_failed17hef2534b77b89c04fE(ptr noalias noundef readonly align 8 captures(address, read_provenance) dereferenceable(24) @alloc_42c1e7ccc7513d2fb76bea5b8a3258db) #24, !noalias !1778
  unreachable

"_ZN5alloc5slice29_$LT$impl$u20$$u5b$T$u5d$$GT$7sort_by28_$u7b$$u7b$closure$u7d$$u7d$17h8d9a43e174231f37E.exit": ; preds = %bb3
  %_0.i = fcmp olt float %_4.i.i.i, %_5.i.i.i
  %consume_left = xor i1 %_0.i, true
  %src.sroa.0.0 = select i1 %_0.i, ptr %right.sroa.0.010, ptr %_2059
  %3 = load i32, ptr %src.sroa.0.0, align 4
  store i32 %3, ptr %_2511, align 4
  %count = zext i1 %consume_left to i64
  %_20 = getelementptr inbounds nuw float, ptr %_2059, i64 %count
  store ptr %_20, ptr %self, align 8
  %count2 = zext i1 %_0.i to i64
  %_23 = getelementptr inbounds nuw float, ptr %right.sroa.0.010, i64 %count2
  %_25 = getelementptr inbounds nuw i8, ptr %_2511, i64 4
  store ptr %_25, ptr %2, align 8
  %_7 = icmp ne ptr %_20, %_9
  %_10 = icmp ne ptr %_23, %right_end
  %or.cond = select i1 %_7, i1 %_10, i1 false
  br i1 %or.cond, label %bb3, label %bb9
}

; core::slice::sort::stable::merge::merge
; Function Attrs: nonlazybind uwtable
define void @_ZN4core5slice4sort6stable5merge5merge17h188c1200b9af5701E(ptr noalias noundef nonnull align 4 captures(address) %v.0, i64 noundef range(i64 0, 2305843009213693952) %v.1, ptr noalias noundef nonnull align 4 %scratch.0, i64 noundef range(i64 0, 2305843009213693952) %scratch.1, i64 noundef %0, ptr noalias readnone align 8 captures(none) %is_less) unnamed_addr #1 personality ptr @rust_eh_personality {
start:
  %_6 = icmp eq i64 %0, 0
  %_7 = icmp uge i64 %0, %v.1
  %or.cond = or i1 %_6, %_7
  br i1 %or.cond, label %bb18, label %bb2

bb2:                                              ; preds = %start
  %right_len = sub nuw nsw i64 %v.1, %0
  %_0.sroa.0.0.i = tail call noundef i64 @llvm.umin.i64(i64 range(i64 -2305843009213693950, 2305843009213693952) %right_len, i64 %0)
  %_8 = icmp samesign ult i64 %scratch.1, %_0.sroa.0.0.i
  br i1 %_8, label %bb18, label %bb5

bb5:                                              ; preds = %bb2
  %v_mid = getelementptr inbounds nuw float, ptr %v.0, i64 %0
  %v_end = getelementptr inbounds nuw float, ptr %v.0, i64 %v.1
  %left_is_shorter.not = icmp ugt i64 %0, %right_len
  %spec.select = select i1 %left_is_shorter.not, ptr %v_mid, ptr %v.0
  %spec.select10 = tail call i64 @llvm.umin.i64(i64 %0, i64 %right_len)
  %1 = shl nuw nsw i64 %spec.select10, 2
  tail call void @llvm.memcpy.p0.p0.i64(ptr nonnull align 4 %scratch.0, ptr nonnull align 4 %spec.select, i64 %1, i1 false)
  %_22.idx = shl nuw nsw i64 %spec.select10, 2
  %_22 = getelementptr inbounds nuw i8, ptr %scratch.0, i64 %_22.idx
  br i1 %left_is_shorter.not, label %bb1.i, label %bb12

bb1.i:                                            ; preds = %bb5, %"_ZN5alloc5slice29_$LT$impl$u20$$u5b$T$u5d$$GT$7sort_by28_$u7b$$u7b$closure$u7d$$u7d$17h8d9a43e174231f37E.exit.i"
  %merge_state.sroa.13.2 = phi ptr [ %_18.i, %"_ZN5alloc5slice29_$LT$impl$u20$$u5b$T$u5d$$GT$7sort_by28_$u7b$$u7b$closure$u7d$$u7d$17h8d9a43e174231f37E.exit.i" ], [ %spec.select, %bb5 ]
  %merge_state.sroa.7.2 = phi ptr [ %_21.i, %"_ZN5alloc5slice29_$LT$impl$u20$$u5b$T$u5d$$GT$7sort_by28_$u7b$$u7b$closure$u7d$$u7d$17h8d9a43e174231f37E.exit.i" ], [ %_22, %bb5 ]
  %out.sroa.0.0.i = phi ptr [ %4, %"_ZN5alloc5slice29_$LT$impl$u20$$u5b$T$u5d$$GT$7sort_by28_$u7b$$u7b$closure$u7d$$u7d$17h8d9a43e174231f37E.exit.i" ], [ %v_end, %bb5 ]
  %2 = getelementptr inbounds i8, ptr %merge_state.sroa.13.2, i64 -4
  %3 = getelementptr inbounds i8, ptr %merge_state.sroa.7.2, i64 -4
  tail call void @llvm.experimental.noalias.scope.decl(metadata !1779)
  tail call void @llvm.experimental.noalias.scope.decl(metadata !1782)
  tail call void @llvm.experimental.noalias.scope.decl(metadata !1784)
  tail call void @llvm.experimental.noalias.scope.decl(metadata !1787)
  tail call void @llvm.experimental.noalias.scope.decl(metadata !1789)
  tail call void @llvm.experimental.noalias.scope.decl(metadata !1792)
  %_4.i.i.i.i = load float, ptr %3, align 4, !alias.scope !1794, !noalias !1795, !noundef !32
  %_5.i.i.i.i = load float, ptr %2, align 4, !alias.scope !1798, !noalias !1799, !noundef !32
  %.not.i.i.i.i = fcmp uno float %_4.i.i.i.i, %_5.i.i.i.i
  br i1 %.not.i.i.i.i, label %bb2.i.i.i.i, label %"_ZN5alloc5slice29_$LT$impl$u20$$u5b$T$u5d$$GT$7sort_by28_$u7b$$u7b$closure$u7d$$u7d$17h8d9a43e174231f37E.exit.i", !prof !35

bb2.i.i.i.i:                                      ; preds = %bb1.i
; invoke core::option::unwrap_failed
  invoke void @_ZN4core6option13unwrap_failed17hef2534b77b89c04fE(ptr noalias noundef readonly align 8 captures(address, read_provenance) dereferenceable(24) @alloc_42c1e7ccc7513d2fb76bea5b8a3258db) #24
          to label %.noexc unwind label %cleanup

.noexc:                                           ; preds = %bb2.i.i.i.i
  unreachable

"_ZN5alloc5slice29_$LT$impl$u20$$u5b$T$u5d$$GT$7sort_by28_$u7b$$u7b$closure$u7d$$u7d$17h8d9a43e174231f37E.exit.i": ; preds = %bb1.i
  %4 = getelementptr inbounds i8, ptr %out.sroa.0.0.i, i64 -4
  %_0.i.i = fcmp olt float %_4.i.i.i.i, %_5.i.i.i.i
  %..i = select i1 %_0.i.i, ptr %2, ptr %3
  %5 = load i32, ptr %..i, align 4, !noalias !1800
  store i32 %5, ptr %4, align 4, !noalias !1800
  %_20.i = xor i1 %_0.i.i, true
  %count.i = zext i1 %_20.i to i64
  %_18.i = getelementptr inbounds nuw float, ptr %2, i64 %count.i
  %count4.i = zext i1 %_0.i.i to i64
  %_21.i = getelementptr inbounds nuw float, ptr %3, i64 %count4.i
  %_23.i = icmp eq ptr %_18.i, %v.0
  %_26.i = icmp eq ptr %_21.i, %scratch.0
  %or.cond.i = select i1 %_23.i, i1 true, i1 %_26.i
  br i1 %or.cond.i, label %bb16, label %bb1.i

bb12:                                             ; preds = %bb5
  %_76.i.not = icmp eq i64 %0, 0
  br i1 %_76.i.not, label %bb16, label %bb3.i

bb3.i:                                            ; preds = %bb12, %"_ZN5alloc5slice29_$LT$impl$u20$$u5b$T$u5d$$GT$7sort_by28_$u7b$$u7b$closure$u7d$$u7d$17h8d9a43e174231f37E.exit.i15"
  %merge_state.sroa.13.3 = phi ptr [ %_25.i, %"_ZN5alloc5slice29_$LT$impl$u20$$u5b$T$u5d$$GT$7sort_by28_$u7b$$u7b$closure$u7d$$u7d$17h8d9a43e174231f37E.exit.i15" ], [ %spec.select, %bb12 ]
  %merge_state.sroa.0.2 = phi ptr [ %_20.i18, %"_ZN5alloc5slice29_$LT$impl$u20$$u5b$T$u5d$$GT$7sort_by28_$u7b$$u7b$closure$u7d$$u7d$17h8d9a43e174231f37E.exit.i15" ], [ %scratch.0, %bb12 ]
  %right.sroa.0.010.i = phi ptr [ %_23.i19, %"_ZN5alloc5slice29_$LT$impl$u20$$u5b$T$u5d$$GT$7sort_by28_$u7b$$u7b$closure$u7d$$u7d$17h8d9a43e174231f37E.exit.i15" ], [ %v_mid, %bb12 ]
  tail call void @llvm.experimental.noalias.scope.decl(metadata !1801)
  tail call void @llvm.experimental.noalias.scope.decl(metadata !1804)
  tail call void @llvm.experimental.noalias.scope.decl(metadata !1806)
  tail call void @llvm.experimental.noalias.scope.decl(metadata !1809)
  tail call void @llvm.experimental.noalias.scope.decl(metadata !1811)
  tail call void @llvm.experimental.noalias.scope.decl(metadata !1814)
  %_4.i.i.i.i12 = load float, ptr %right.sroa.0.010.i, align 4, !alias.scope !1816, !noalias !1817, !noundef !32
  %_5.i.i.i.i13 = load float, ptr %merge_state.sroa.0.2, align 4, !alias.scope !1820, !noalias !1821, !noundef !32
  %.not.i.i.i.i14 = fcmp uno float %_4.i.i.i.i12, %_5.i.i.i.i13
  br i1 %.not.i.i.i.i14, label %bb2.i.i.i.i21, label %"_ZN5alloc5slice29_$LT$impl$u20$$u5b$T$u5d$$GT$7sort_by28_$u7b$$u7b$closure$u7d$$u7d$17h8d9a43e174231f37E.exit.i15", !prof !35

bb2.i.i.i.i21:                                    ; preds = %bb3.i
; invoke core::option::unwrap_failed
  invoke void @_ZN4core6option13unwrap_failed17hef2534b77b89c04fE(ptr noalias noundef readonly align 8 captures(address, read_provenance) dereferenceable(24) @alloc_42c1e7ccc7513d2fb76bea5b8a3258db) #24
          to label %.noexc22 unwind label %cleanup

.noexc22:                                         ; preds = %bb2.i.i.i.i21
  unreachable

"_ZN5alloc5slice29_$LT$impl$u20$$u5b$T$u5d$$GT$7sort_by28_$u7b$$u7b$closure$u7d$$u7d$17h8d9a43e174231f37E.exit.i15": ; preds = %bb3.i
  %_0.i.i16 = fcmp olt float %_4.i.i.i.i12, %_5.i.i.i.i13
  %consume_left.i = xor i1 %_0.i.i16, true
  %src.sroa.0.0.i = select i1 %_0.i.i16, ptr %right.sroa.0.010.i, ptr %merge_state.sroa.0.2
  %6 = load i32, ptr %src.sroa.0.0.i, align 4, !noalias !1822
  store i32 %6, ptr %merge_state.sroa.13.3, align 4, !noalias !1822
  %count.i17 = zext i1 %consume_left.i to i64
  %_20.i18 = getelementptr inbounds nuw float, ptr %merge_state.sroa.0.2, i64 %count.i17
  %count2.i = zext i1 %_0.i.i16 to i64
  %_23.i19 = getelementptr inbounds nuw float, ptr %right.sroa.0.010.i, i64 %count2.i
  %_25.i = getelementptr inbounds nuw i8, ptr %merge_state.sroa.13.3, i64 4
  %_7.i = icmp ne ptr %_20.i18, %_22
  %_10.i = icmp ne ptr %_23.i19, %v_end
  %or.cond.i20 = select i1 %_7.i, i1 %_10.i, i1 false
  br i1 %or.cond.i20, label %bb3.i, label %bb16

cleanup:                                          ; preds = %bb2.i.i.i.i21, %bb2.i.i.i.i
  %merge_state.sroa.13.0 = phi ptr [ %merge_state.sroa.13.2, %bb2.i.i.i.i ], [ %merge_state.sroa.13.3, %bb2.i.i.i.i21 ]
  %merge_state.sroa.7.0 = phi ptr [ %merge_state.sroa.7.2, %bb2.i.i.i.i ], [ %_22, %bb2.i.i.i.i21 ]
  %merge_state.sroa.0.0 = phi ptr [ %scratch.0, %bb2.i.i.i.i ], [ %merge_state.sroa.0.2, %bb2.i.i.i.i21 ]
  %7 = landingpad { ptr, i32 }
          cleanup
  %8 = ptrtoint ptr %merge_state.sroa.7.0 to i64
  %9 = ptrtoint ptr %merge_state.sroa.0.0 to i64
  %10 = sub nuw i64 %8, %9
  tail call void @llvm.memcpy.p0.p0.i64(ptr align 4 %merge_state.sroa.13.0, ptr nonnull align 4 %merge_state.sroa.0.0, i64 %10, i1 false), !noalias !1823
  resume { ptr, i32 } %7

bb16:                                             ; preds = %"_ZN5alloc5slice29_$LT$impl$u20$$u5b$T$u5d$$GT$7sort_by28_$u7b$$u7b$closure$u7d$$u7d$17h8d9a43e174231f37E.exit.i15", %"_ZN5alloc5slice29_$LT$impl$u20$$u5b$T$u5d$$GT$7sort_by28_$u7b$$u7b$closure$u7d$$u7d$17h8d9a43e174231f37E.exit.i", %bb12
  %merge_state.sroa.13.1 = phi ptr [ %spec.select, %bb12 ], [ %_18.i, %"_ZN5alloc5slice29_$LT$impl$u20$$u5b$T$u5d$$GT$7sort_by28_$u7b$$u7b$closure$u7d$$u7d$17h8d9a43e174231f37E.exit.i" ], [ %_25.i, %"_ZN5alloc5slice29_$LT$impl$u20$$u5b$T$u5d$$GT$7sort_by28_$u7b$$u7b$closure$u7d$$u7d$17h8d9a43e174231f37E.exit.i15" ]
  %merge_state.sroa.7.1 = phi ptr [ %_22, %bb12 ], [ %_21.i, %"_ZN5alloc5slice29_$LT$impl$u20$$u5b$T$u5d$$GT$7sort_by28_$u7b$$u7b$closure$u7d$$u7d$17h8d9a43e174231f37E.exit.i" ], [ %_22, %"_ZN5alloc5slice29_$LT$impl$u20$$u5b$T$u5d$$GT$7sort_by28_$u7b$$u7b$closure$u7d$$u7d$17h8d9a43e174231f37E.exit.i15" ]
  %merge_state.sroa.0.1 = phi ptr [ %scratch.0, %bb12 ], [ %scratch.0, %"_ZN5alloc5slice29_$LT$impl$u20$$u5b$T$u5d$$GT$7sort_by28_$u7b$$u7b$closure$u7d$$u7d$17h8d9a43e174231f37E.exit.i" ], [ %_20.i18, %"_ZN5alloc5slice29_$LT$impl$u20$$u5b$T$u5d$$GT$7sort_by28_$u7b$$u7b$closure$u7d$$u7d$17h8d9a43e174231f37E.exit.i15" ]
  %11 = ptrtoint ptr %merge_state.sroa.7.1 to i64
  %12 = ptrtoint ptr %merge_state.sroa.0.1 to i64
  %13 = sub nuw i64 %11, %12
  tail call void @llvm.memcpy.p0.p0.i64(ptr align 4 %merge_state.sroa.13.1, ptr align 4 %merge_state.sroa.0.1, i64 %13, i1 false), !noalias !1828
  br label %bb18

bb18:                                             ; preds = %bb2, %start, %bb16
  ret void
}

; core::slice::sort::stable::merge::merge
; Function Attrs: nofree norecurse nosync nounwind nonlazybind memory(argmem: readwrite, inaccessiblemem: readwrite) uwtable
define void @_ZN4core5slice4sort6stable5merge5merge17h2ef876e68cb2d31cE(ptr noalias noundef nonnull align 4 captures(address) %v.0, i64 noundef range(i64 0, 2305843009213693952) %v.1, ptr noalias noundef nonnull align 4 %scratch.0, i64 noundef range(i64 0, 2305843009213693952) %scratch.1, i64 noundef %0, ptr noalias noundef readnone align 8 captures(none) dereferenceable(8) %is_less) unnamed_addr #0 personality ptr @rust_eh_personality {
start:
  %_6 = icmp eq i64 %0, 0
  %_7 = icmp uge i64 %0, %v.1
  %or.cond = or i1 %_6, %_7
  br i1 %or.cond, label %bb18, label %bb2

bb2:                                              ; preds = %start
  %right_len = sub nuw nsw i64 %v.1, %0
  %_0.sroa.0.0.i = tail call noundef i64 @llvm.umin.i64(i64 range(i64 -2305843009213693950, 2305843009213693952) %right_len, i64 %0)
  %_8 = icmp samesign ult i64 %scratch.1, %_0.sroa.0.0.i
  br i1 %_8, label %bb18, label %bb5

bb5:                                              ; preds = %bb2
  %v_mid = getelementptr inbounds nuw i32, ptr %v.0, i64 %0
  %v_end = getelementptr inbounds nuw i32, ptr %v.0, i64 %v.1
  %left_is_shorter.not = icmp ugt i64 %0, %right_len
  %spec.select = select i1 %left_is_shorter.not, ptr %v_mid, ptr %v.0
  %spec.select10 = tail call i64 @llvm.umin.i64(i64 %0, i64 %right_len)
  %1 = shl nuw nsw i64 %spec.select10, 2
  tail call void @llvm.memcpy.p0.p0.i64(ptr nonnull align 4 %scratch.0, ptr nonnull align 4 %spec.select, i64 %1, i1 false)
  %_22.idx = shl nuw nsw i64 %spec.select10, 2
  %_22 = getelementptr inbounds nuw i8, ptr %scratch.0, i64 %_22.idx
  br i1 %left_is_shorter.not, label %bb1.i, label %bb12

bb1.i:                                            ; preds = %bb5, %bb1.i
  %_2110.i = phi ptr [ %_21.i, %bb1.i ], [ %_22, %bb5 ]
  %_188.i = phi ptr [ %_18.i, %bb1.i ], [ %spec.select, %bb5 ]
  %out.sroa.0.0.i = phi ptr [ %4, %bb1.i ], [ %v_end, %bb5 ]
  %2 = getelementptr inbounds i8, ptr %_188.i, i64 -4
  %3 = getelementptr inbounds i8, ptr %_2110.i, i64 -4
  %4 = getelementptr inbounds i8, ptr %out.sroa.0.0.i, i64 -4
  tail call void @llvm.experimental.noalias.scope.decl(metadata !1833)
  tail call void @llvm.experimental.noalias.scope.decl(metadata !1836)
  tail call void @llvm.experimental.noalias.scope.decl(metadata !1838)
  tail call void @llvm.experimental.noalias.scope.decl(metadata !1841)
  tail call void @llvm.experimental.noalias.scope.decl(metadata !1843)
  tail call void @llvm.experimental.noalias.scope.decl(metadata !1846)
  tail call void @llvm.experimental.noalias.scope.decl(metadata !1848)
  tail call void @llvm.experimental.noalias.scope.decl(metadata !1851)
  %_3.i.i.i.i.i = load i32, ptr %3, align 4, !alias.scope !1853, !noalias !1854, !noundef !32
  %_4.i.i.i.i.i = load i32, ptr %2, align 4, !alias.scope !1857, !noalias !1858, !noundef !32
  %_0.i.i = icmp slt i32 %_3.i.i.i.i.i, %_4.i.i.i.i.i
  %5 = tail call i32 @llvm.smax.i32(i32 %_3.i.i.i.i.i, i32 %_4.i.i.i.i.i)
  store i32 %5, ptr %4, align 4, !noalias !1859
  %_20.i = xor i1 %_0.i.i, true
  %count.i = zext i1 %_20.i to i64
  %_18.i = getelementptr inbounds nuw i32, ptr %2, i64 %count.i
  %count4.i = zext i1 %_0.i.i to i64
  %_21.i = getelementptr inbounds nuw i32, ptr %3, i64 %count4.i
  %_23.i = icmp eq ptr %_18.i, %v.0
  %_26.i = icmp eq ptr %_21.i, %scratch.0
  %or.cond.i = select i1 %_23.i, i1 true, i1 %_26.i
  br i1 %or.cond.i, label %bb16, label %bb1.i

bb12:                                             ; preds = %bb5
  %_76.i.not = icmp eq i64 %0, 0
  br i1 %_76.i.not, label %bb16, label %bb3.i

bb3.i:                                            ; preds = %bb12, %bb3.i
  %_2511.i = phi ptr [ %_25.i, %bb3.i ], [ %spec.select, %bb12 ]
  %right.sroa.0.010.i = phi ptr [ %_23.i17, %bb3.i ], [ %v_mid, %bb12 ]
  %_2059.i = phi ptr [ %_20.i16, %bb3.i ], [ %scratch.0, %bb12 ]
  tail call void @llvm.experimental.noalias.scope.decl(metadata !1860)
  tail call void @llvm.experimental.noalias.scope.decl(metadata !1863)
  tail call void @llvm.experimental.noalias.scope.decl(metadata !1865)
  tail call void @llvm.experimental.noalias.scope.decl(metadata !1868)
  tail call void @llvm.experimental.noalias.scope.decl(metadata !1870)
  tail call void @llvm.experimental.noalias.scope.decl(metadata !1873)
  tail call void @llvm.experimental.noalias.scope.decl(metadata !1875)
  tail call void @llvm.experimental.noalias.scope.decl(metadata !1878)
  %_3.i.i.i.i.i12 = load i32, ptr %right.sroa.0.010.i, align 4, !alias.scope !1880, !noalias !1881, !noundef !32
  %_4.i.i.i.i.i13 = load i32, ptr %_2059.i, align 4, !alias.scope !1884, !noalias !1885, !noundef !32
  %_0.i.i14 = icmp slt i32 %_3.i.i.i.i.i12, %_4.i.i.i.i.i13
  %consume_left.i = xor i1 %_0.i.i14, true
  %6 = tail call i32 @llvm.smin.i32(i32 %_3.i.i.i.i.i12, i32 %_4.i.i.i.i.i13)
  store i32 %6, ptr %_2511.i, align 4, !noalias !1886
  %count.i15 = zext i1 %consume_left.i to i64
  %_20.i16 = getelementptr inbounds nuw i32, ptr %_2059.i, i64 %count.i15
  %count2.i = zext i1 %_0.i.i14 to i64
  %_23.i17 = getelementptr inbounds nuw i32, ptr %right.sroa.0.010.i, i64 %count2.i
  %_25.i = getelementptr inbounds nuw i8, ptr %_2511.i, i64 4
  %_7.i = icmp ne ptr %_20.i16, %_22
  %_10.i = icmp ne ptr %_23.i17, %v_end
  %or.cond.i18 = select i1 %_7.i, i1 %_10.i, i1 false
  br i1 %or.cond.i18, label %bb3.i, label %bb16

bb16:                                             ; preds = %bb3.i, %bb1.i, %bb12
  %merge_state.sroa.13.0 = phi ptr [ %spec.select, %bb12 ], [ %_18.i, %bb1.i ], [ %_25.i, %bb3.i ]
  %merge_state.sroa.7.0 = phi ptr [ %_22, %bb12 ], [ %_21.i, %bb1.i ], [ %_22, %bb3.i ]
  %merge_state.sroa.0.0 = phi ptr [ %scratch.0, %bb12 ], [ %scratch.0, %bb1.i ], [ %_20.i16, %bb3.i ]
  %7 = ptrtoint ptr %merge_state.sroa.7.0 to i64
  %8 = ptrtoint ptr %merge_state.sroa.0.0 to i64
  %9 = sub nuw i64 %7, %8
  tail call void @llvm.memcpy.p0.p0.i64(ptr align 4 %merge_state.sroa.13.0, ptr align 4 %merge_state.sroa.0.0, i64 %9, i1 false), !noalias !1887
  br label %bb18

bb18:                                             ; preds = %bb2, %start, %bb16
  ret void
}

; core::slice::sort::stable::quicksort::stable_partition
; Function Attrs: nounwind nonlazybind memory(argmem: readwrite, inaccessiblemem: readwrite) uwtable
define noundef i64 @_ZN4core5slice4sort6stable9quicksort16stable_partition17h2790f5dae5a1029aE(ptr noalias noundef nonnull align 4 captures(address) %v.0, i64 noundef range(i64 0, 2305843009213693952) %v.1, ptr noalias noundef nonnull align 4 captures(none) %scratch.0, i64 noundef range(i64 0, 2305843009213693952) %scratch.1, i64 noundef %0, i1 noundef zeroext %pivot_goes_left, ptr noalias readnone align 8 captures(none) %is_less) unnamed_addr #4 {
start:
  %_8 = icmp samesign uge i64 %scratch.1, %v.1
  %.not = icmp ult i64 %0, %v.1
  %or.cond = and i1 %_8, %.not
  br i1 %or.cond, label %bb33, label %bb31, !prof !1892

bb33:                                             ; preds = %start
  %pivot = getelementptr inbounds nuw i32, ptr %v.0, i64 %0
  %_86 = getelementptr i32, ptr %scratch.0, i64 %v.1
  %_8.i70 = zext i1 %pivot_goes_left to i64
  br label %bb3

bb31:                                             ; preds = %start
  tail call void @llvm.trap()
  unreachable

bb3:                                              ; preds = %bb23, %bb33
  %state.sroa.27.0 = phi i64 [ 0, %bb33 ], [ %14, %bb23 ]
  %state.sroa.9.0 = phi ptr [ %v.0, %bb33 ], [ %_9.i71, %bb23 ]
  %state.sroa.43.0 = phi ptr [ %_86, %bb33 ], [ %12, %bb23 ]
  %pivot_pos.sroa.0.0 = phi i64 [ %0, %bb33 ], [ %v.1, %bb23 ]
  %1 = tail call i64 @llvm.usub.sat.i64(i64 %pivot_pos.sroa.0.0, i64 3)
  %unroll_end = getelementptr inbounds nuw i32, ptr %v.0, i64 %1
  %_1985 = icmp ult ptr %state.sroa.9.0, %unroll_end
  br i1 %_1985, label %bb6, label %bb16

bb6:                                              ; preds = %bb3, %bb6
  %state.sroa.43.188 = phi ptr [ %8, %bb6 ], [ %state.sroa.43.0, %bb3 ]
  %state.sroa.9.187 = phi ptr [ %_9.i54, %bb6 ], [ %state.sroa.9.0, %bb3 ]
  %state.sroa.27.186 = phi i64 [ %9, %bb6 ], [ %state.sroa.27.0, %bb3 ]
  tail call void @llvm.experimental.noalias.scope.decl(metadata !1893)
  tail call void @llvm.experimental.noalias.scope.decl(metadata !1896)
  tail call void @llvm.experimental.noalias.scope.decl(metadata !1898)
  tail call void @llvm.experimental.noalias.scope.decl(metadata !1901)
  tail call void @llvm.experimental.noalias.scope.decl(metadata !1903)
  tail call void @llvm.experimental.noalias.scope.decl(metadata !1906)
  tail call void @llvm.experimental.noalias.scope.decl(metadata !1908)
  tail call void @llvm.experimental.noalias.scope.decl(metadata !1911)
  %_3.i.i.i.i = load i32, ptr %state.sroa.9.187, align 4, !alias.scope !1913, !noalias !1914, !noundef !32
  %_4.i.i.i.i = load i32, ptr %pivot, align 4, !alias.scope !1914, !noalias !1913, !noundef !32
  %_0.i = icmp slt i32 %_3.i.i.i.i, %_4.i.i.i.i
  %2 = getelementptr inbounds i8, ptr %state.sroa.43.188, i64 -4
  %dst_base.sroa.0.0.i = select i1 %_0.i, ptr %scratch.0, ptr %2
  %dst.i = getelementptr inbounds nuw i32, ptr %dst_base.sroa.0.0.i, i64 %state.sroa.27.186
  store i32 %_3.i.i.i.i, ptr %dst.i, align 4, !noalias !1915
  %_8.i = zext i1 %_0.i to i64
  %3 = add i64 %state.sroa.27.186, %_8.i
  %_9.i = getelementptr inbounds nuw i8, ptr %state.sroa.9.187, i64 4
  tail call void @llvm.experimental.noalias.scope.decl(metadata !1918)
  tail call void @llvm.experimental.noalias.scope.decl(metadata !1921)
  tail call void @llvm.experimental.noalias.scope.decl(metadata !1923)
  tail call void @llvm.experimental.noalias.scope.decl(metadata !1926)
  tail call void @llvm.experimental.noalias.scope.decl(metadata !1928)
  tail call void @llvm.experimental.noalias.scope.decl(metadata !1931)
  tail call void @llvm.experimental.noalias.scope.decl(metadata !1933)
  tail call void @llvm.experimental.noalias.scope.decl(metadata !1936)
  %_3.i.i.i.i25 = load i32, ptr %_9.i, align 4, !alias.scope !1938, !noalias !1939, !noundef !32
  %_4.i.i.i.i26 = load i32, ptr %pivot, align 4, !alias.scope !1939, !noalias !1938, !noundef !32
  %_0.i27 = icmp slt i32 %_3.i.i.i.i25, %_4.i.i.i.i26
  %4 = getelementptr inbounds i8, ptr %state.sroa.43.188, i64 -8
  %dst_base.sroa.0.0.i29 = select i1 %_0.i27, ptr %scratch.0, ptr %4
  %dst.i31 = getelementptr inbounds nuw i32, ptr %dst_base.sroa.0.0.i29, i64 %3
  store i32 %_3.i.i.i.i25, ptr %dst.i31, align 4, !noalias !1940
  %_8.i33 = zext i1 %_0.i27 to i64
  %5 = add i64 %3, %_8.i33
  %_9.i34 = getelementptr inbounds nuw i8, ptr %state.sroa.9.187, i64 8
  tail call void @llvm.experimental.noalias.scope.decl(metadata !1943)
  tail call void @llvm.experimental.noalias.scope.decl(metadata !1946)
  tail call void @llvm.experimental.noalias.scope.decl(metadata !1948)
  tail call void @llvm.experimental.noalias.scope.decl(metadata !1951)
  tail call void @llvm.experimental.noalias.scope.decl(metadata !1953)
  tail call void @llvm.experimental.noalias.scope.decl(metadata !1956)
  tail call void @llvm.experimental.noalias.scope.decl(metadata !1958)
  tail call void @llvm.experimental.noalias.scope.decl(metadata !1961)
  %_3.i.i.i.i35 = load i32, ptr %_9.i34, align 4, !alias.scope !1963, !noalias !1964, !noundef !32
  %_4.i.i.i.i36 = load i32, ptr %pivot, align 4, !alias.scope !1964, !noalias !1963, !noundef !32
  %_0.i37 = icmp slt i32 %_3.i.i.i.i35, %_4.i.i.i.i36
  %6 = getelementptr inbounds i8, ptr %state.sroa.43.188, i64 -12
  %dst_base.sroa.0.0.i39 = select i1 %_0.i37, ptr %scratch.0, ptr %6
  %dst.i41 = getelementptr inbounds nuw i32, ptr %dst_base.sroa.0.0.i39, i64 %5
  store i32 %_3.i.i.i.i35, ptr %dst.i41, align 4, !noalias !1965
  %_8.i43 = zext i1 %_0.i37 to i64
  %7 = add i64 %5, %_8.i43
  %_9.i44 = getelementptr inbounds nuw i8, ptr %state.sroa.9.187, i64 12
  tail call void @llvm.experimental.noalias.scope.decl(metadata !1968)
  tail call void @llvm.experimental.noalias.scope.decl(metadata !1971)
  tail call void @llvm.experimental.noalias.scope.decl(metadata !1973)
  tail call void @llvm.experimental.noalias.scope.decl(metadata !1976)
  tail call void @llvm.experimental.noalias.scope.decl(metadata !1978)
  tail call void @llvm.experimental.noalias.scope.decl(metadata !1981)
  tail call void @llvm.experimental.noalias.scope.decl(metadata !1983)
  tail call void @llvm.experimental.noalias.scope.decl(metadata !1986)
  %_3.i.i.i.i45 = load i32, ptr %_9.i44, align 4, !alias.scope !1988, !noalias !1989, !noundef !32
  %_4.i.i.i.i46 = load i32, ptr %pivot, align 4, !alias.scope !1989, !noalias !1988, !noundef !32
  %_0.i47 = icmp slt i32 %_3.i.i.i.i45, %_4.i.i.i.i46
  %8 = getelementptr inbounds i8, ptr %state.sroa.43.188, i64 -16
  %dst_base.sroa.0.0.i49 = select i1 %_0.i47, ptr %scratch.0, ptr %8
  %dst.i51 = getelementptr inbounds nuw i32, ptr %dst_base.sroa.0.0.i49, i64 %7
  store i32 %_3.i.i.i.i45, ptr %dst.i51, align 4, !noalias !1990
  %_8.i53 = zext i1 %_0.i47 to i64
  %9 = add i64 %7, %_8.i53
  %_9.i54 = getelementptr inbounds nuw i8, ptr %state.sroa.9.187, i64 16
  %_19 = icmp ult ptr %_9.i54, %unroll_end
  br i1 %_19, label %bb6, label %bb16

bb16:                                             ; preds = %bb6, %bb3
  %state.sroa.27.1.lcssa = phi i64 [ %state.sroa.27.0, %bb3 ], [ %9, %bb6 ]
  %state.sroa.9.1.lcssa = phi ptr [ %state.sroa.9.0, %bb3 ], [ %_9.i54, %bb6 ]
  %state.sroa.43.1.lcssa = phi ptr [ %state.sroa.43.0, %bb3 ], [ %8, %bb6 ]
  %loop_end = getelementptr inbounds nuw i32, ptr %v.0, i64 %pivot_pos.sroa.0.0
  %_4791 = icmp ult ptr %state.sroa.9.1.lcssa, %loop_end
  br i1 %_4791, label %bb18, label %bb21

bb21:                                             ; preds = %bb18, %bb16
  %state.sroa.27.2.lcssa = phi i64 [ %state.sroa.27.1.lcssa, %bb16 ], [ %11, %bb18 ]
  %state.sroa.9.2.lcssa = phi ptr [ %state.sroa.9.1.lcssa, %bb16 ], [ %_9.i64, %bb18 ]
  %state.sroa.43.2.lcssa = phi ptr [ %state.sroa.43.1.lcssa, %bb16 ], [ %10, %bb18 ]
  %_55 = icmp eq i64 %pivot_pos.sroa.0.0, %v.1
  br i1 %_55, label %bb22, label %bb23

bb18:                                             ; preds = %bb16, %bb18
  %state.sroa.43.294 = phi ptr [ %10, %bb18 ], [ %state.sroa.43.1.lcssa, %bb16 ]
  %state.sroa.9.293 = phi ptr [ %_9.i64, %bb18 ], [ %state.sroa.9.1.lcssa, %bb16 ]
  %state.sroa.27.292 = phi i64 [ %11, %bb18 ], [ %state.sroa.27.1.lcssa, %bb16 ]
  tail call void @llvm.experimental.noalias.scope.decl(metadata !1993)
  tail call void @llvm.experimental.noalias.scope.decl(metadata !1996)
  tail call void @llvm.experimental.noalias.scope.decl(metadata !1998)
  tail call void @llvm.experimental.noalias.scope.decl(metadata !2001)
  tail call void @llvm.experimental.noalias.scope.decl(metadata !2003)
  tail call void @llvm.experimental.noalias.scope.decl(metadata !2006)
  tail call void @llvm.experimental.noalias.scope.decl(metadata !2008)
  tail call void @llvm.experimental.noalias.scope.decl(metadata !2011)
  %_3.i.i.i.i55 = load i32, ptr %state.sroa.9.293, align 4, !alias.scope !2013, !noalias !2014, !noundef !32
  %_4.i.i.i.i56 = load i32, ptr %pivot, align 4, !alias.scope !2014, !noalias !2013, !noundef !32
  %_0.i57 = icmp slt i32 %_3.i.i.i.i55, %_4.i.i.i.i56
  %10 = getelementptr inbounds i8, ptr %state.sroa.43.294, i64 -4
  %dst_base.sroa.0.0.i59 = select i1 %_0.i57, ptr %scratch.0, ptr %10
  %dst.i61 = getelementptr inbounds nuw i32, ptr %dst_base.sroa.0.0.i59, i64 %state.sroa.27.292
  store i32 %_3.i.i.i.i55, ptr %dst.i61, align 4, !noalias !2015
  %_8.i63 = zext i1 %_0.i57 to i64
  %11 = add i64 %state.sroa.27.292, %_8.i63
  %_9.i64 = getelementptr inbounds nuw i8, ptr %state.sroa.9.293, i64 4
  %_47 = icmp ult ptr %_9.i64, %loop_end
  br i1 %_47, label %bb18, label %bb21

bb23:                                             ; preds = %bb21
  %12 = getelementptr inbounds i8, ptr %state.sroa.43.2.lcssa, i64 -4
  %dst_base.sroa.0.0.i66 = select i1 %pivot_goes_left, ptr %scratch.0, ptr %12
  %dst.i68 = getelementptr inbounds nuw i32, ptr %dst_base.sroa.0.0.i66, i64 %state.sroa.27.2.lcssa
  %13 = load i32, ptr %state.sroa.9.2.lcssa, align 4, !noalias !2018
  store i32 %13, ptr %dst.i68, align 4, !noalias !2018
  %14 = add i64 %state.sroa.27.2.lcssa, %_8.i70
  %_9.i71 = getelementptr inbounds nuw i8, ptr %state.sroa.9.2.lcssa, i64 4
  br label %bb3

bb22:                                             ; preds = %bb21
  %15 = shl i64 %state.sroa.27.2.lcssa, 2
  tail call void @llvm.memcpy.p0.p0.i64(ptr nonnull align 4 %v.0, ptr nonnull align 4 %scratch.0, i64 %15, i1 false)
  %_63 = sub i64 %v.1, %state.sroa.27.2.lcssa
  %_9798.not = icmp eq i64 %v.1, %state.sroa.27.2.lcssa
  br i1 %_9798.not, label %bb30, label %bb42.lr.ph

bb42.lr.ph:                                       ; preds = %bb22
  %16 = getelementptr i32, ptr %v.0, i64 %state.sroa.27.2.lcssa
  %xtraiter = and i64 %_63, 3
