; ModuleID = 'MAKING_ELEMENTS_OF_TWO_ARRAYS_SAME_WITH_MINIMUM_INCREMENTDECREMENT_emit.ff5e9c73dda353e5-cgu.0'
source_filename = "MAKING_ELEMENTS_OF_TWO_ARRAYS_SAME_WITH_MINIMUM_INCREMENTDECREMENT_emit.ff5e9c73dda353e5-cgu.0"
target datalayout = "e-m:e-p270:32:32-p271:32:32-p272:64:64-i64:64-i128:128-f80:128-n8:16:32:64-S128"
target triple = "x86_64-unknown-linux-gnu"

@alloc_d1084648e479974e70c9329824bf76f9 = private unnamed_addr constant [9 x i8] c"mid > len", align 1
@alloc_e8e5fd9f509afcb950667480b3e3e42a = private unnamed_addr constant [126 x i8] c"/root/.rustup/toolchains/stable-x86_64-unknown-linux-gnu/lib/rustlib/src/rust/library/core/src/slice/sort/stable/quicksort.rs\00", align 1
@alloc_58d434a1e795f965ef82c8e9c5db822a = private unnamed_addr constant <{ ptr, [16 x i8] }> <{ ptr @alloc_e8e5fd9f509afcb950667480b3e3e42a, [16 x i8] c"}\00\00\00\00\00\00\00J\00\00\00\1F\00\00\00" }>, align 8
@alloc_0766b232215672ee1bd2195fdb153938 = private unnamed_addr constant <{ ptr, [16 x i8] }> <{ ptr @alloc_e8e5fd9f509afcb950667480b3e3e42a, [16 x i8] c"}\00\00\00\00\00\00\00D\00\00\00\17\00\00\00" }>, align 8
@alloc_ffa344d1d1f7bccc060435600714cafe = private unnamed_addr constant [187 x i8] c"/root/es/vert/vert/rust_funcs/cpp_transcoder/MAKING_ELEMENTS_OF_TWO_ARRAYS_SAME_WITH_MINIMUM_INCREMENTDECREMENT/MAKING_ELEMENTS_OF_TWO_ARRAYS_SAME_WITH_MINIMUM_INCREMENTDECREMENT_emit.rs\00", align 1
@alloc_4a4e7fec44b84c1472b04d0c86f3e1b7 = private unnamed_addr constant <{ ptr, [16 x i8] }> <{ ptr @alloc_ffa344d1d1f7bccc060435600714cafe, [16 x i8] c"\BA\00\00\00\00\00\00\00\18\00\00\00'\00\00\00" }>, align 8
@alloc_b0e33ba48ef5fa15e44a55a18226b5ac = private unnamed_addr constant <{ ptr, [16 x i8] }> <{ ptr @alloc_ffa344d1d1f7bccc060435600714cafe, [16 x i8] c"\BA\00\00\00\00\00\00\00\17\00\00\00'\00\00\00" }>, align 8
@alloc_bb80c4294bf98485d1cae0b45be62c99 = private unnamed_addr constant <{ ptr, [16 x i8] }> <{ ptr @alloc_ffa344d1d1f7bccc060435600714cafe, [16 x i8] c"\BA\00\00\00\00\00\00\00\1B\00\00\00\14\00\00\00" }>, align 8
@alloc_f4ef7df7705ab5192cda3ed35c9cf9c8 = private unnamed_addr constant <{ ptr, [16 x i8] }> <{ ptr @alloc_ffa344d1d1f7bccc060435600714cafe, [16 x i8] c"\BA\00\00\00\00\00\00\00\1B\00\00\00\1B\00\00\00" }>, align 8

; core::slice::sort::shared::pivot::median3_rec
; Function Attrs: nonlazybind uwtable
define internal fastcc noundef nonnull ptr @_ZN4core5slice4sort6shared5pivot11median3_rec17h16032f23b0df01aeE(ptr noundef nonnull %0, ptr noundef nonnull %1, ptr noundef nonnull %2, i64 noundef range(i64 0, 288230376151711744) %n) unnamed_addr #0 {
start:
  %_6 = icmp samesign ugt i64 %n, 7
  br i1 %_6, label %bb1, label %bb6

bb1:                                              ; preds = %start
  %n84 = lshr i64 %n, 3
  %count = shl nuw nsw i64 %n84, 2
  %_10 = getelementptr inbounds nuw float, ptr %0, i64 %count
  %count1 = mul nuw nsw i64 %n84, 7
  %_13 = getelementptr inbounds nuw float, ptr %0, i64 %count1
; call core::slice::sort::shared::pivot::median3_rec
  %3 = tail call fastcc noundef ptr @_ZN4core5slice4sort6shared5pivot11median3_rec17h16032f23b0df01aeE(ptr noundef %0, ptr noundef %_10, ptr noundef %_13, i64 noundef %n84)
  %_16 = getelementptr inbounds nuw float, ptr %1, i64 %count
  %_18 = getelementptr inbounds nuw float, ptr %1, i64 %count1
; call core::slice::sort::shared::pivot::median3_rec
  %4 = tail call fastcc noundef ptr @_ZN4core5slice4sort6shared5pivot11median3_rec17h16032f23b0df01aeE(ptr noundef %1, ptr noundef %_16, ptr noundef %_18, i64 noundef %n84)
  %_20 = getelementptr inbounds nuw float, ptr %2, i64 %count
  %_22 = getelementptr inbounds nuw float, ptr %2, i64 %count1
; call core::slice::sort::shared::pivot::median3_rec
  %5 = tail call fastcc noundef ptr @_ZN4core5slice4sort6shared5pivot11median3_rec17h16032f23b0df01aeE(ptr noundef %2, ptr noundef %_20, ptr noundef %_22, i64 noundef %n84)
  br label %bb6

bb6:                                              ; preds = %start, %bb1
  %c.sroa.0.0 = phi ptr [ %5, %bb1 ], [ %2, %start ]
  %b.sroa.0.0 = phi ptr [ %4, %bb1 ], [ %1, %start ]
  %a.sroa.0.0 = phi ptr [ %3, %bb1 ], [ %0, %start ]
  tail call void @llvm.experimental.noalias.scope.decl(metadata !3)
  tail call void @llvm.experimental.noalias.scope.decl(metadata !6)
  tail call void @llvm.experimental.noalias.scope.decl(metadata !8), !noalias !11
  tail call void @llvm.experimental.noalias.scope.decl(metadata !14), !noalias !11
  %_6.i.i = load float, ptr %a.sroa.0.0, align 4, !alias.scope !16, !noalias !17, !noundef !18
  %_7.i.i = load float, ptr %b.sroa.0.0, align 4, !alias.scope !19, !noalias !20, !noundef !18
  %brmerge.not.i = fcmp uno float %_6.i.i, %_7.i.i
  br i1 %brmerge.not.i, label %bb6.i.i, label %"_ZN5alloc5slice29_$LT$impl$u20$$u5b$T$u5d$$GT$7sort_by28_$u7b$$u7b$closure$u7d$$u7d$17hf5b8f37855ac0c3dE.exit", !prof !21

bb6.i.i:                                          ; preds = %bb6
; call core::option::unwrap_failed
  tail call void @_ZN4core6option13unwrap_failed17hef2534b77b89c04fE(ptr noalias noundef readonly align 8 captures(address, read_provenance) dereferenceable(24) @alloc_b0e33ba48ef5fa15e44a55a18226b5ac) #18, !noalias !22
  unreachable

"_ZN5alloc5slice29_$LT$impl$u20$$u5b$T$u5d$$GT$7sort_by28_$u7b$$u7b$closure$u7d$$u7d$17hf5b8f37855ac0c3dE.exit": ; preds = %bb6
  %_8.i.mux.i = fcmp olt float %_6.i.i, %_7.i.i
  tail call void @llvm.experimental.noalias.scope.decl(metadata !23)
  tail call void @llvm.experimental.noalias.scope.decl(metadata !26)
  %_7.i.i6 = load float, ptr %c.sroa.0.0, align 4, !alias.scope !29, !noalias !30, !noundef !18
  %brmerge.not.i7 = fcmp uno float %_6.i.i, %_7.i.i6
  br i1 %brmerge.not.i7, label %bb6.i.i9, label %"_ZN5alloc5slice29_$LT$impl$u20$$u5b$T$u5d$$GT$7sort_by28_$u7b$$u7b$closure$u7d$$u7d$17hf5b8f37855ac0c3dE.exit10", !prof !21

bb6.i.i9:                                         ; preds = %"_ZN5alloc5slice29_$LT$impl$u20$$u5b$T$u5d$$GT$7sort_by28_$u7b$$u7b$closure$u7d$$u7d$17hf5b8f37855ac0c3dE.exit"
; call core::option::unwrap_failed
  tail call void @_ZN4core6option13unwrap_failed17hef2534b77b89c04fE(ptr noalias noundef readonly align 8 captures(address, read_provenance) dereferenceable(24) @alloc_b0e33ba48ef5fa15e44a55a18226b5ac) #18, !noalias !33
  unreachable

"_ZN5alloc5slice29_$LT$impl$u20$$u5b$T$u5d$$GT$7sort_by28_$u7b$$u7b$closure$u7d$$u7d$17hf5b8f37855ac0c3dE.exit10": ; preds = %"_ZN5alloc5slice29_$LT$impl$u20$$u5b$T$u5d$$GT$7sort_by28_$u7b$$u7b$closure$u7d$$u7d$17hf5b8f37855ac0c3dE.exit"
  %_8.i.mux.i8 = fcmp olt float %_6.i.i, %_7.i.i6
  %6 = xor i1 %_8.i.mux.i, %_8.i.mux.i8
  br i1 %6, label %_ZN4core5slice4sort6shared5pivot7median317h997f2f4aad5b9139E.exit, label %bb3.i

bb3.i:                                            ; preds = %"_ZN5alloc5slice29_$LT$impl$u20$$u5b$T$u5d$$GT$7sort_by28_$u7b$$u7b$closure$u7d$$u7d$17hf5b8f37855ac0c3dE.exit10"
  %brmerge.not.i13 = fcmp uno float %_7.i.i, %_7.i.i6
  br i1 %brmerge.not.i13, label %bb6.i.i15, label %"_ZN5alloc5slice29_$LT$impl$u20$$u5b$T$u5d$$GT$7sort_by28_$u7b$$u7b$closure$u7d$$u7d$17hf5b8f37855ac0c3dE.exit16", !prof !21

bb6.i.i15:                                        ; preds = %bb3.i
; call core::option::unwrap_failed
  tail call void @_ZN4core6option13unwrap_failed17hef2534b77b89c04fE(ptr noalias noundef readonly align 8 captures(address, read_provenance) dereferenceable(24) @alloc_b0e33ba48ef5fa15e44a55a18226b5ac) #18, !noalias !34
  unreachable

"_ZN5alloc5slice29_$LT$impl$u20$$u5b$T$u5d$$GT$7sort_by28_$u7b$$u7b$closure$u7d$$u7d$17hf5b8f37855ac0c3dE.exit16": ; preds = %bb3.i
  %_8.i.mux.i14 = fcmp olt float %_7.i.i, %_7.i.i6
  %_12.i = xor i1 %_8.i.mux.i, %_8.i.mux.i14
  %c.b.i = select i1 %_12.i, ptr %c.sroa.0.0, ptr %b.sroa.0.0
  br label %_ZN4core5slice4sort6shared5pivot7median317h997f2f4aad5b9139E.exit

_ZN4core5slice4sort6shared5pivot7median317h997f2f4aad5b9139E.exit: ; preds = %"_ZN5alloc5slice29_$LT$impl$u20$$u5b$T$u5d$$GT$7sort_by28_$u7b$$u7b$closure$u7d$$u7d$17hf5b8f37855ac0c3dE.exit10", %"_ZN5alloc5slice29_$LT$impl$u20$$u5b$T$u5d$$GT$7sort_by28_$u7b$$u7b$closure$u7d$$u7d$17hf5b8f37855ac0c3dE.exit16"
  %_0.sroa.0.0.i = phi ptr [ %a.sroa.0.0, %"_ZN5alloc5slice29_$LT$impl$u20$$u5b$T$u5d$$GT$7sort_by28_$u7b$$u7b$closure$u7d$$u7d$17hf5b8f37855ac0c3dE.exit10" ], [ %c.b.i, %"_ZN5alloc5slice29_$LT$impl$u20$$u5b$T$u5d$$GT$7sort_by28_$u7b$$u7b$closure$u7d$$u7d$17hf5b8f37855ac0c3dE.exit16" ]
  ret ptr %_0.sroa.0.0.i
}

; core::slice::sort::shared::pivot::median3_rec
; Function Attrs: nofree nosync nounwind nonlazybind memory(read, inaccessiblemem: readwrite) uwtable
define internal fastcc noundef nonnull ptr @_ZN4core5slice4sort6shared5pivot11median3_rec17h48858054538ba0a9E(ptr noundef nonnull %0, ptr noundef nonnull %1, ptr noundef nonnull %2, i64 noundef range(i64 0, 288230376151711744) %n) unnamed_addr #1 {
start:
  %_6 = icmp samesign ugt i64 %n, 7
  br i1 %_6, label %bb1, label %bb6

bb1:                                              ; preds = %start
  %n84 = lshr i64 %n, 3
  %count = shl nuw nsw i64 %n84, 2
  %_10 = getelementptr inbounds nuw i32, ptr %0, i64 %count
  %count1 = mul nuw nsw i64 %n84, 7
  %_13 = getelementptr inbounds nuw i32, ptr %0, i64 %count1
; call core::slice::sort::shared::pivot::median3_rec
  %3 = tail call fastcc noundef ptr @_ZN4core5slice4sort6shared5pivot11median3_rec17h48858054538ba0a9E(ptr noundef %0, ptr noundef %_10, ptr noundef %_13, i64 noundef %n84)
  %_16 = getelementptr inbounds nuw i32, ptr %1, i64 %count
  %_18 = getelementptr inbounds nuw i32, ptr %1, i64 %count1
; call core::slice::sort::shared::pivot::median3_rec
  %4 = tail call fastcc noundef ptr @_ZN4core5slice4sort6shared5pivot11median3_rec17h48858054538ba0a9E(ptr noundef %1, ptr noundef %_16, ptr noundef %_18, i64 noundef %n84)
  %_20 = getelementptr inbounds nuw i32, ptr %2, i64 %count
  %_22 = getelementptr inbounds nuw i32, ptr %2, i64 %count1
; call core::slice::sort::shared::pivot::median3_rec
  %5 = tail call fastcc noundef ptr @_ZN4core5slice4sort6shared5pivot11median3_rec17h48858054538ba0a9E(ptr noundef %2, ptr noundef %_20, ptr noundef %_22, i64 noundef %n84)
  br label %bb6

bb6:                                              ; preds = %start, %bb1
  %c.sroa.0.0 = phi ptr [ %5, %bb1 ], [ %2, %start ]
  %b.sroa.0.0 = phi ptr [ %4, %bb1 ], [ %1, %start ]
  %a.sroa.0.0 = phi ptr [ %3, %bb1 ], [ %0, %start ]
  tail call void @llvm.experimental.noalias.scope.decl(metadata !41)
  tail call void @llvm.experimental.noalias.scope.decl(metadata !44)
  tail call void @llvm.experimental.noalias.scope.decl(metadata !46), !noalias !49
  tail call void @llvm.experimental.noalias.scope.decl(metadata !52), !noalias !49
  tail call void @llvm.experimental.noalias.scope.decl(metadata !54), !noalias !49
  tail call void @llvm.experimental.noalias.scope.decl(metadata !57), !noalias !49
  %_3.i.i.i = load i32, ptr %a.sroa.0.0, align 4, !alias.scope !59, !noalias !60, !noundef !18
  %_4.i.i.i = load i32, ptr %b.sroa.0.0, align 4, !alias.scope !61, !noalias !62, !noundef !18
  %_0.i = icmp slt i32 %_3.i.i.i, %_4.i.i.i
  %_4.i.i.i6 = load i32, ptr %c.sroa.0.0, align 4, !alias.scope !63, !noalias !70, !noundef !18
  %_0.i7 = icmp slt i32 %_3.i.i.i, %_4.i.i.i6
  %6 = xor i1 %_0.i, %_0.i7
  %_0.i10 = icmp slt i32 %_4.i.i.i, %_4.i.i.i6
  %_12.i = xor i1 %_0.i, %_0.i10
  %c.b.i = select i1 %_12.i, ptr %c.sroa.0.0, ptr %b.sroa.0.0
  %_0.sroa.0.0.i = select i1 %6, ptr %a.sroa.0.0, ptr %c.b.i
  ret ptr %_0.sroa.0.0.i
}

; core::slice::sort::shared::pivot::median3_rec
; Function Attrs: nonlazybind uwtable
define internal fastcc noundef nonnull ptr @_ZN4core5slice4sort6shared5pivot11median3_rec17hff9a90d9cd780c94E(ptr noundef nonnull %0, ptr noundef nonnull %1, ptr noundef nonnull %2, i64 noundef range(i64 0, 288230376151711744) %n) unnamed_addr #0 {
start:
  %_6 = icmp samesign ugt i64 %n, 7
  br i1 %_6, label %bb1, label %bb6

bb1:                                              ; preds = %start
  %n84 = lshr i64 %n, 3
  %count = shl nuw nsw i64 %n84, 2
  %_10 = getelementptr inbounds nuw float, ptr %0, i64 %count
  %count1 = mul nuw nsw i64 %n84, 7
  %_13 = getelementptr inbounds nuw float, ptr %0, i64 %count1
; call core::slice::sort::shared::pivot::median3_rec
  %3 = tail call fastcc noundef ptr @_ZN4core5slice4sort6shared5pivot11median3_rec17hff9a90d9cd780c94E(ptr noundef %0, ptr noundef %_10, ptr noundef %_13, i64 noundef %n84)
  %_16 = getelementptr inbounds nuw float, ptr %1, i64 %count
  %_18 = getelementptr inbounds nuw float, ptr %1, i64 %count1
; call core::slice::sort::shared::pivot::median3_rec
  %4 = tail call fastcc noundef ptr @_ZN4core5slice4sort6shared5pivot11median3_rec17hff9a90d9cd780c94E(ptr noundef %1, ptr noundef %_16, ptr noundef %_18, i64 noundef %n84)
  %_20 = getelementptr inbounds nuw float, ptr %2, i64 %count
  %_22 = getelementptr inbounds nuw float, ptr %2, i64 %count1
; call core::slice::sort::shared::pivot::median3_rec
  %5 = tail call fastcc noundef ptr @_ZN4core5slice4sort6shared5pivot11median3_rec17hff9a90d9cd780c94E(ptr noundef %2, ptr noundef %_20, ptr noundef %_22, i64 noundef %n84)
  br label %bb6

bb6:                                              ; preds = %start, %bb1
  %c.sroa.0.0 = phi ptr [ %5, %bb1 ], [ %2, %start ]
  %b.sroa.0.0 = phi ptr [ %4, %bb1 ], [ %1, %start ]
  %a.sroa.0.0 = phi ptr [ %3, %bb1 ], [ %0, %start ]
  tail call void @llvm.experimental.noalias.scope.decl(metadata !74)
  tail call void @llvm.experimental.noalias.scope.decl(metadata !77)
  tail call void @llvm.experimental.noalias.scope.decl(metadata !79), !noalias !82
  tail call void @llvm.experimental.noalias.scope.decl(metadata !85), !noalias !82
  %_6.i.i = load float, ptr %a.sroa.0.0, align 4, !alias.scope !87, !noalias !88, !noundef !18
  %_7.i.i = load float, ptr %b.sroa.0.0, align 4, !alias.scope !89, !noalias !90, !noundef !18
  %brmerge.not.i = fcmp uno float %_6.i.i, %_7.i.i
  br i1 %brmerge.not.i, label %bb6.i.i, label %"_ZN5alloc5slice29_$LT$impl$u20$$u5b$T$u5d$$GT$7sort_by28_$u7b$$u7b$closure$u7d$$u7d$17hfaa75802b1959b0aE.exit", !prof !21

bb6.i.i:                                          ; preds = %bb6
; call core::option::unwrap_failed
  tail call void @_ZN4core6option13unwrap_failed17hef2534b77b89c04fE(ptr noalias noundef readonly align 8 captures(address, read_provenance) dereferenceable(24) @alloc_4a4e7fec44b84c1472b04d0c86f3e1b7) #18, !noalias !91
  unreachable

"_ZN5alloc5slice29_$LT$impl$u20$$u5b$T$u5d$$GT$7sort_by28_$u7b$$u7b$closure$u7d$$u7d$17hfaa75802b1959b0aE.exit": ; preds = %bb6
  %_8.i.mux.i = fcmp olt float %_6.i.i, %_7.i.i
  tail call void @llvm.experimental.noalias.scope.decl(metadata !92)
  tail call void @llvm.experimental.noalias.scope.decl(metadata !95)
  %_7.i.i6 = load float, ptr %c.sroa.0.0, align 4, !alias.scope !98, !noalias !99, !noundef !18
  %brmerge.not.i7 = fcmp uno float %_6.i.i, %_7.i.i6
  br i1 %brmerge.not.i7, label %bb6.i.i9, label %"_ZN5alloc5slice29_$LT$impl$u20$$u5b$T$u5d$$GT$7sort_by28_$u7b$$u7b$closure$u7d$$u7d$17hfaa75802b1959b0aE.exit10", !prof !21

bb6.i.i9:                                         ; preds = %"_ZN5alloc5slice29_$LT$impl$u20$$u5b$T$u5d$$GT$7sort_by28_$u7b$$u7b$closure$u7d$$u7d$17hfaa75802b1959b0aE.exit"
; call core::option::unwrap_failed
  tail call void @_ZN4core6option13unwrap_failed17hef2534b77b89c04fE(ptr noalias noundef readonly align 8 captures(address, read_provenance) dereferenceable(24) @alloc_4a4e7fec44b84c1472b04d0c86f3e1b7) #18, !noalias !102
  unreachable

"_ZN5alloc5slice29_$LT$impl$u20$$u5b$T$u5d$$GT$7sort_by28_$u7b$$u7b$closure$u7d$$u7d$17hfaa75802b1959b0aE.exit10": ; preds = %"_ZN5alloc5slice29_$LT$impl$u20$$u5b$T$u5d$$GT$7sort_by28_$u7b$$u7b$closure$u7d$$u7d$17hfaa75802b1959b0aE.exit"
  %_8.i.mux.i8 = fcmp olt float %_6.i.i, %_7.i.i6
  %6 = xor i1 %_8.i.mux.i, %_8.i.mux.i8
  br i1 %6, label %_ZN4core5slice4sort6shared5pivot7median317hfc7ca460ee81ac1fE.exit, label %bb3.i

bb3.i:                                            ; preds = %"_ZN5alloc5slice29_$LT$impl$u20$$u5b$T$u5d$$GT$7sort_by28_$u7b$$u7b$closure$u7d$$u7d$17hfaa75802b1959b0aE.exit10"
  %brmerge.not.i13 = fcmp uno float %_7.i.i, %_7.i.i6
  br i1 %brmerge.not.i13, label %bb6.i.i15, label %"_ZN5alloc5slice29_$LT$impl$u20$$u5b$T$u5d$$GT$7sort_by28_$u7b$$u7b$closure$u7d$$u7d$17hfaa75802b1959b0aE.exit16", !prof !21

bb6.i.i15:                                        ; preds = %bb3.i
; call core::option::unwrap_failed
  tail call void @_ZN4core6option13unwrap_failed17hef2534b77b89c04fE(ptr noalias noundef readonly align 8 captures(address, read_provenance) dereferenceable(24) @alloc_4a4e7fec44b84c1472b04d0c86f3e1b7) #18, !noalias !103
  unreachable

"_ZN5alloc5slice29_$LT$impl$u20$$u5b$T$u5d$$GT$7sort_by28_$u7b$$u7b$closure$u7d$$u7d$17hfaa75802b1959b0aE.exit16": ; preds = %bb3.i
  %_8.i.mux.i14 = fcmp olt float %_7.i.i, %_7.i.i6
  %_12.i = xor i1 %_8.i.mux.i, %_8.i.mux.i14
  %c.b.i = select i1 %_12.i, ptr %c.sroa.0.0, ptr %b.sroa.0.0
  br label %_ZN4core5slice4sort6shared5pivot7median317hfc7ca460ee81ac1fE.exit

_ZN4core5slice4sort6shared5pivot7median317hfc7ca460ee81ac1fE.exit: ; preds = %"_ZN5alloc5slice29_$LT$impl$u20$$u5b$T$u5d$$GT$7sort_by28_$u7b$$u7b$closure$u7d$$u7d$17hfaa75802b1959b0aE.exit10", %"_ZN5alloc5slice29_$LT$impl$u20$$u5b$T$u5d$$GT$7sort_by28_$u7b$$u7b$closure$u7d$$u7d$17hfaa75802b1959b0aE.exit16"
  %_0.sroa.0.0.i = phi ptr [ %a.sroa.0.0, %"_ZN5alloc5slice29_$LT$impl$u20$$u5b$T$u5d$$GT$7sort_by28_$u7b$$u7b$closure$u7d$$u7d$17hfaa75802b1959b0aE.exit10" ], [ %c.b.i, %"_ZN5alloc5slice29_$LT$impl$u20$$u5b$T$u5d$$GT$7sort_by28_$u7b$$u7b$closure$u7d$$u7d$17hfaa75802b1959b0aE.exit16" ]
  ret ptr %_0.sroa.0.0.i
}

; core::slice::sort::shared::smallsort::sort4_stable
; Function Attrs: nonlazybind uwtable
define internal fastcc void @_ZN4core5slice4sort6shared9smallsort12sort4_stable17h1c3fb6f95c737a92E(ptr noundef nonnull readonly captures(none) %v_base, ptr noundef nonnull writeonly captures(none) %dst) unnamed_addr #0 personality ptr @rust_eh_personality {
start:
  %_7 = getelementptr inbounds nuw i8, ptr %v_base, i64 4
  tail call void @llvm.experimental.noalias.scope.decl(metadata !110)
  tail call void @llvm.experimental.noalias.scope.decl(metadata !113)
  tail call void @llvm.experimental.noalias.scope.decl(metadata !115)
  tail call void @llvm.experimental.noalias.scope.decl(metadata !118)
  %_6.i.i = load float, ptr %_7, align 4, !alias.scope !120, !noalias !121, !noundef !18
  %_7.i.i = load float, ptr %v_base, align 4, !alias.scope !121, !noalias !120, !noundef !18
  %brmerge.not.i = fcmp uno float %_6.i.i, %_7.i.i
  br i1 %brmerge.not.i, label %bb6.i.i, label %"_ZN5alloc5slice29_$LT$impl$u20$$u5b$T$u5d$$GT$7sort_by28_$u7b$$u7b$closure$u7d$$u7d$17hf5b8f37855ac0c3dE.exit", !prof !21

bb6.i.i:                                          ; preds = %start
; call core::option::unwrap_failed
  tail call void @_ZN4core6option13unwrap_failed17hef2534b77b89c04fE(ptr noalias noundef readonly align 8 captures(address, read_provenance) dereferenceable(24) @alloc_b0e33ba48ef5fa15e44a55a18226b5ac) #18, !noalias !122
  unreachable

"_ZN5alloc5slice29_$LT$impl$u20$$u5b$T$u5d$$GT$7sort_by28_$u7b$$u7b$closure$u7d$$u7d$17hf5b8f37855ac0c3dE.exit": ; preds = %start
  %_12 = getelementptr inbounds nuw i8, ptr %v_base, i64 12
  %_14 = getelementptr inbounds nuw i8, ptr %v_base, i64 8
  tail call void @llvm.experimental.noalias.scope.decl(metadata !123)
  tail call void @llvm.experimental.noalias.scope.decl(metadata !126)
  tail call void @llvm.experimental.noalias.scope.decl(metadata !128)
  tail call void @llvm.experimental.noalias.scope.decl(metadata !131)
  %_6.i.i7 = load float, ptr %_12, align 4, !alias.scope !133, !noalias !134, !noundef !18
  %_7.i.i8 = load float, ptr %_14, align 4, !alias.scope !134, !noalias !133, !noundef !18
  %brmerge.not.i9 = fcmp uno float %_6.i.i7, %_7.i.i8
  br i1 %brmerge.not.i9, label %bb6.i.i11, label %"_ZN5alloc5slice29_$LT$impl$u20$$u5b$T$u5d$$GT$7sort_by28_$u7b$$u7b$closure$u7d$$u7d$17hf5b8f37855ac0c3dE.exit12", !prof !21

bb6.i.i11:                                        ; preds = %"_ZN5alloc5slice29_$LT$impl$u20$$u5b$T$u5d$$GT$7sort_by28_$u7b$$u7b$closure$u7d$$u7d$17hf5b8f37855ac0c3dE.exit"
; call core::option::unwrap_failed
  tail call void @_ZN4core6option13unwrap_failed17hef2534b77b89c04fE(ptr noalias noundef readonly align 8 captures(address, read_provenance) dereferenceable(24) @alloc_b0e33ba48ef5fa15e44a55a18226b5ac) #18, !noalias !135
  unreachable

"_ZN5alloc5slice29_$LT$impl$u20$$u5b$T$u5d$$GT$7sort_by28_$u7b$$u7b$closure$u7d$$u7d$17hf5b8f37855ac0c3dE.exit12": ; preds = %"_ZN5alloc5slice29_$LT$impl$u20$$u5b$T$u5d$$GT$7sort_by28_$u7b$$u7b$closure$u7d$$u7d$17hf5b8f37855ac0c3dE.exit"
  %_8.i.mux.i = fcmp olt float %_6.i.i, %_7.i.i
  %_8.i.mux.i10 = fcmp olt float %_6.i.i7, %_7.i.i8
  %count = zext i1 %_8.i.mux.i to i64
  %a = getelementptr inbounds nuw float, ptr %v_base, i64 %count
  %_19 = xor i1 %_8.i.mux.i, true
  %count2 = zext i1 %_19 to i64
  %b = getelementptr inbounds nuw float, ptr %v_base, i64 %count2
  %count3 = select i1 %_8.i.mux.i10, i64 3, i64 2
  %c = getelementptr inbounds nuw float, ptr %v_base, i64 %count3
  %count4 = select i1 %_8.i.mux.i10, i64 2, i64 3
  %d = getelementptr inbounds nuw float, ptr %v_base, i64 %count4
  tail call void @llvm.experimental.noalias.scope.decl(metadata !136)
  tail call void @llvm.experimental.noalias.scope.decl(metadata !139)
  tail call void @llvm.experimental.noalias.scope.decl(metadata !141)
  tail call void @llvm.experimental.noalias.scope.decl(metadata !144)
  %_6.i.i13 = load float, ptr %c, align 4, !alias.scope !146, !noalias !147, !noundef !18
  %_7.i.i14 = load float, ptr %a, align 4, !alias.scope !147, !noalias !146, !noundef !18
  %brmerge.not.i15 = fcmp uno float %_6.i.i13, %_7.i.i14
  br i1 %brmerge.not.i15, label %bb6.i.i17, label %"_ZN5alloc5slice29_$LT$impl$u20$$u5b$T$u5d$$GT$7sort_by28_$u7b$$u7b$closure$u7d$$u7d$17hf5b8f37855ac0c3dE.exit18", !prof !21

bb6.i.i17:                                        ; preds = %"_ZN5alloc5slice29_$LT$impl$u20$$u5b$T$u5d$$GT$7sort_by28_$u7b$$u7b$closure$u7d$$u7d$17hf5b8f37855ac0c3dE.exit12"
; call core::option::unwrap_failed
  tail call void @_ZN4core6option13unwrap_failed17hef2534b77b89c04fE(ptr noalias noundef readonly align 8 captures(address, read_provenance) dereferenceable(24) @alloc_b0e33ba48ef5fa15e44a55a18226b5ac) #18, !noalias !148
  unreachable

"_ZN5alloc5slice29_$LT$impl$u20$$u5b$T$u5d$$GT$7sort_by28_$u7b$$u7b$closure$u7d$$u7d$17hf5b8f37855ac0c3dE.exit18": ; preds = %"_ZN5alloc5slice29_$LT$impl$u20$$u5b$T$u5d$$GT$7sort_by28_$u7b$$u7b$closure$u7d$$u7d$17hf5b8f37855ac0c3dE.exit12"
  tail call void @llvm.experimental.noalias.scope.decl(metadata !149)
  tail call void @llvm.experimental.noalias.scope.decl(metadata !152)
  tail call void @llvm.experimental.noalias.scope.decl(metadata !154)
  tail call void @llvm.experimental.noalias.scope.decl(metadata !157)
  %_6.i.i19 = load float, ptr %d, align 4, !alias.scope !159, !noalias !160, !noundef !18
  %_7.i.i20 = load float, ptr %b, align 4, !alias.scope !160, !noalias !159, !noundef !18
  %brmerge.not.i21 = fcmp uno float %_6.i.i19, %_7.i.i20
  br i1 %brmerge.not.i21, label %bb6.i.i23, label %"_ZN5alloc5slice29_$LT$impl$u20$$u5b$T$u5d$$GT$7sort_by28_$u7b$$u7b$closure$u7d$$u7d$17hf5b8f37855ac0c3dE.exit24", !prof !21

bb6.i.i23:                                        ; preds = %"_ZN5alloc5slice29_$LT$impl$u20$$u5b$T$u5d$$GT$7sort_by28_$u7b$$u7b$closure$u7d$$u7d$17hf5b8f37855ac0c3dE.exit18"
; call core::option::unwrap_failed
  tail call void @_ZN4core6option13unwrap_failed17hef2534b77b89c04fE(ptr noalias noundef readonly align 8 captures(address, read_provenance) dereferenceable(24) @alloc_b0e33ba48ef5fa15e44a55a18226b5ac) #18, !noalias !161
  unreachable

"_ZN5alloc5slice29_$LT$impl$u20$$u5b$T$u5d$$GT$7sort_by28_$u7b$$u7b$closure$u7d$$u7d$17hf5b8f37855ac0c3dE.exit24": ; preds = %"_ZN5alloc5slice29_$LT$impl$u20$$u5b$T$u5d$$GT$7sort_by28_$u7b$$u7b$closure$u7d$$u7d$17hf5b8f37855ac0c3dE.exit18"
  %_8.i.mux.i16 = fcmp olt float %_6.i.i13, %_7.i.i14
  %_8.i.mux.i22 = fcmp olt float %_6.i.i19, %_7.i.i20
  %0 = select i1 %_8.i.mux.i22, ptr %c, ptr %b, !unpredictable !18
  %1 = select i1 %_8.i.mux.i16, ptr %a, ptr %0, !unpredictable !18
  %2 = select i1 %_8.i.mux.i16, ptr %b, ptr %c, !unpredictable !18
  %3 = select i1 %_8.i.mux.i22, ptr %d, ptr %2, !unpredictable !18
  tail call void @llvm.experimental.noalias.scope.decl(metadata !162)
  tail call void @llvm.experimental.noalias.scope.decl(metadata !165)
  tail call void @llvm.experimental.noalias.scope.decl(metadata !167)
  tail call void @llvm.experimental.noalias.scope.decl(metadata !170)
  %_6.i.i25 = load float, ptr %3, align 4, !alias.scope !172, !noalias !173, !noundef !18
  %_7.i.i26 = load float, ptr %1, align 4, !alias.scope !173, !noalias !172, !noundef !18
  %brmerge.not.i27 = fcmp uno float %_6.i.i25, %_7.i.i26
  br i1 %brmerge.not.i27, label %bb6.i.i29, label %"_ZN5alloc5slice29_$LT$impl$u20$$u5b$T$u5d$$GT$7sort_by28_$u7b$$u7b$closure$u7d$$u7d$17hf5b8f37855ac0c3dE.exit30", !prof !21

bb6.i.i29:                                        ; preds = %"_ZN5alloc5slice29_$LT$impl$u20$$u5b$T$u5d$$GT$7sort_by28_$u7b$$u7b$closure$u7d$$u7d$17hf5b8f37855ac0c3dE.exit24"
; call core::option::unwrap_failed
  tail call void @_ZN4core6option13unwrap_failed17hef2534b77b89c04fE(ptr noalias noundef readonly align 8 captures(address, read_provenance) dereferenceable(24) @alloc_b0e33ba48ef5fa15e44a55a18226b5ac) #18, !noalias !174
  unreachable

"_ZN5alloc5slice29_$LT$impl$u20$$u5b$T$u5d$$GT$7sort_by28_$u7b$$u7b$closure$u7d$$u7d$17hf5b8f37855ac0c3dE.exit30": ; preds = %"_ZN5alloc5slice29_$LT$impl$u20$$u5b$T$u5d$$GT$7sort_by28_$u7b$$u7b$closure$u7d$$u7d$17hf5b8f37855ac0c3dE.exit24"
  %4 = select i1 %_8.i.mux.i22, ptr %b, ptr %d, !unpredictable !18
  %5 = select i1 %_8.i.mux.i16, ptr %c, ptr %a, !unpredictable !18
  %_8.i.mux.i28 = fcmp olt float %_6.i.i25, %_7.i.i26
  %6 = select i1 %_8.i.mux.i28, ptr %3, ptr %1, !unpredictable !18
  %7 = select i1 %_8.i.mux.i28, ptr %1, ptr %3, !unpredictable !18
  %8 = load i32, ptr %5, align 4
  store i32 %8, ptr %dst, align 4
  %dst5 = getelementptr inbounds nuw i8, ptr %dst, i64 4
  %9 = load i32, ptr %6, align 4
  store i32 %9, ptr %dst5, align 4
  %dst6 = getelementptr inbounds nuw i8, ptr %dst, i64 8
  %10 = load i32, ptr %7, align 4
  store i32 %10, ptr %dst6, align 4
  %11 = getelementptr inbounds nuw i8, ptr %dst, i64 12
  %12 = load i32, ptr %4, align 4
  store i32 %12, ptr %11, align 4
  ret void
}

; core::slice::sort::shared::smallsort::sort4_stable
; Function Attrs: nonlazybind uwtable
define internal fastcc void @_ZN4core5slice4sort6shared9smallsort12sort4_stable17h7be21866dd44a082E(ptr noundef nonnull readonly captures(none) %v_base, ptr noundef nonnull writeonly captures(none) %dst) unnamed_addr #0 personality ptr @rust_eh_personality {
start:
  %_7 = getelementptr inbounds nuw i8, ptr %v_base, i64 4
  tail call void @llvm.experimental.noalias.scope.decl(metadata !175)
  tail call void @llvm.experimental.noalias.scope.decl(metadata !178)
  tail call void @llvm.experimental.noalias.scope.decl(metadata !180)
  tail call void @llvm.experimental.noalias.scope.decl(metadata !183)
  %_6.i.i = load float, ptr %_7, align 4, !alias.scope !185, !noalias !186, !noundef !18
  %_7.i.i = load float, ptr %v_base, align 4, !alias.scope !186, !noalias !185, !noundef !18
  %brmerge.not.i = fcmp uno float %_6.i.i, %_7.i.i
  br i1 %brmerge.not.i, label %bb6.i.i, label %"_ZN5alloc5slice29_$LT$impl$u20$$u5b$T$u5d$$GT$7sort_by28_$u7b$$u7b$closure$u7d$$u7d$17hfaa75802b1959b0aE.exit", !prof !21

bb6.i.i:                                          ; preds = %start
; call core::option::unwrap_failed
  tail call void @_ZN4core6option13unwrap_failed17hef2534b77b89c04fE(ptr noalias noundef readonly align 8 captures(address, read_provenance) dereferenceable(24) @alloc_4a4e7fec44b84c1472b04d0c86f3e1b7) #18, !noalias !187
  unreachable

"_ZN5alloc5slice29_$LT$impl$u20$$u5b$T$u5d$$GT$7sort_by28_$u7b$$u7b$closure$u7d$$u7d$17hfaa75802b1959b0aE.exit": ; preds = %start
  %_12 = getelementptr inbounds nuw i8, ptr %v_base, i64 12
  %_14 = getelementptr inbounds nuw i8, ptr %v_base, i64 8
  tail call void @llvm.experimental.noalias.scope.decl(metadata !188)
  tail call void @llvm.experimental.noalias.scope.decl(metadata !191)
  tail call void @llvm.experimental.noalias.scope.decl(metadata !193)
  tail call void @llvm.experimental.noalias.scope.decl(metadata !196)
  %_6.i.i7 = load float, ptr %_12, align 4, !alias.scope !198, !noalias !199, !noundef !18
  %_7.i.i8 = load float, ptr %_14, align 4, !alias.scope !199, !noalias !198, !noundef !18
  %brmerge.not.i9 = fcmp uno float %_6.i.i7, %_7.i.i8
  br i1 %brmerge.not.i9, label %bb6.i.i11, label %"_ZN5alloc5slice29_$LT$impl$u20$$u5b$T$u5d$$GT$7sort_by28_$u7b$$u7b$closure$u7d$$u7d$17hfaa75802b1959b0aE.exit12", !prof !21

bb6.i.i11:                                        ; preds = %"_ZN5alloc5slice29_$LT$impl$u20$$u5b$T$u5d$$GT$7sort_by28_$u7b$$u7b$closure$u7d$$u7d$17hfaa75802b1959b0aE.exit"
; call core::option::unwrap_failed
  tail call void @_ZN4core6option13unwrap_failed17hef2534b77b89c04fE(ptr noalias noundef readonly align 8 captures(address, read_provenance) dereferenceable(24) @alloc_4a4e7fec44b84c1472b04d0c86f3e1b7) #18, !noalias !200
  unreachable

"_ZN5alloc5slice29_$LT$impl$u20$$u5b$T$u5d$$GT$7sort_by28_$u7b$$u7b$closure$u7d$$u7d$17hfaa75802b1959b0aE.exit12": ; preds = %"_ZN5alloc5slice29_$LT$impl$u20$$u5b$T$u5d$$GT$7sort_by28_$u7b$$u7b$closure$u7d$$u7d$17hfaa75802b1959b0aE.exit"
  %_8.i.mux.i = fcmp olt float %_6.i.i, %_7.i.i
  %_8.i.mux.i10 = fcmp olt float %_6.i.i7, %_7.i.i8
  %count = zext i1 %_8.i.mux.i to i64
  %a = getelementptr inbounds nuw float, ptr %v_base, i64 %count
  %_19 = xor i1 %_8.i.mux.i, true
  %count2 = zext i1 %_19 to i64
  %b = getelementptr inbounds nuw float, ptr %v_base, i64 %count2
  %count3 = select i1 %_8.i.mux.i10, i64 3, i64 2
  %c = getelementptr inbounds nuw float, ptr %v_base, i64 %count3
  %count4 = select i1 %_8.i.mux.i10, i64 2, i64 3
  %d = getelementptr inbounds nuw float, ptr %v_base, i64 %count4
  tail call void @llvm.experimental.noalias.scope.decl(metadata !201)
  tail call void @llvm.experimental.noalias.scope.decl(metadata !204)
  tail call void @llvm.experimental.noalias.scope.decl(metadata !206)
  tail call void @llvm.experimental.noalias.scope.decl(metadata !209)
  %_6.i.i13 = load float, ptr %c, align 4, !alias.scope !211, !noalias !212, !noundef !18
  %_7.i.i14 = load float, ptr %a, align 4, !alias.scope !212, !noalias !211, !noundef !18
  %brmerge.not.i15 = fcmp uno float %_6.i.i13, %_7.i.i14
  br i1 %brmerge.not.i15, label %bb6.i.i17, label %"_ZN5alloc5slice29_$LT$impl$u20$$u5b$T$u5d$$GT$7sort_by28_$u7b$$u7b$closure$u7d$$u7d$17hfaa75802b1959b0aE.exit18", !prof !21

bb6.i.i17:                                        ; preds = %"_ZN5alloc5slice29_$LT$impl$u20$$u5b$T$u5d$$GT$7sort_by28_$u7b$$u7b$closure$u7d$$u7d$17hfaa75802b1959b0aE.exit12"
; call core::option::unwrap_failed
  tail call void @_ZN4core6option13unwrap_failed17hef2534b77b89c04fE(ptr noalias noundef readonly align 8 captures(address, read_provenance) dereferenceable(24) @alloc_4a4e7fec44b84c1472b04d0c86f3e1b7) #18, !noalias !213
  unreachable

"_ZN5alloc5slice29_$LT$impl$u20$$u5b$T$u5d$$GT$7sort_by28_$u7b$$u7b$closure$u7d$$u7d$17hfaa75802b1959b0aE.exit18": ; preds = %"_ZN5alloc5slice29_$LT$impl$u20$$u5b$T$u5d$$GT$7sort_by28_$u7b$$u7b$closure$u7d$$u7d$17hfaa75802b1959b0aE.exit12"
  tail call void @llvm.experimental.noalias.scope.decl(metadata !214)
  tail call void @llvm.experimental.noalias.scope.decl(metadata !217)
  tail call void @llvm.experimental.noalias.scope.decl(metadata !219)
  tail call void @llvm.experimental.noalias.scope.decl(metadata !222)
  %_6.i.i19 = load float, ptr %d, align 4, !alias.scope !224, !noalias !225, !noundef !18
  %_7.i.i20 = load float, ptr %b, align 4, !alias.scope !225, !noalias !224, !noundef !18
  %brmerge.not.i21 = fcmp uno float %_6.i.i19, %_7.i.i20
  br i1 %brmerge.not.i21, label %bb6.i.i23, label %"_ZN5alloc5slice29_$LT$impl$u20$$u5b$T$u5d$$GT$7sort_by28_$u7b$$u7b$closure$u7d$$u7d$17hfaa75802b1959b0aE.exit24", !prof !21

bb6.i.i23:                                        ; preds = %"_ZN5alloc5slice29_$LT$impl$u20$$u5b$T$u5d$$GT$7sort_by28_$u7b$$u7b$closure$u7d$$u7d$17hfaa75802b1959b0aE.exit18"
; call core::option::unwrap_failed
  tail call void @_ZN4core6option13unwrap_failed17hef2534b77b89c04fE(ptr noalias noundef readonly align 8 captures(address, read_provenance) dereferenceable(24) @alloc_4a4e7fec44b84c1472b04d0c86f3e1b7) #18, !noalias !226
  unreachable

"_ZN5alloc5slice29_$LT$impl$u20$$u5b$T$u5d$$GT$7sort_by28_$u7b$$u7b$closure$u7d$$u7d$17hfaa75802b1959b0aE.exit24": ; preds = %"_ZN5alloc5slice29_$LT$impl$u20$$u5b$T$u5d$$GT$7sort_by28_$u7b$$u7b$closure$u7d$$u7d$17hfaa75802b1959b0aE.exit18"
  %_8.i.mux.i16 = fcmp olt float %_6.i.i13, %_7.i.i14
  %_8.i.mux.i22 = fcmp olt float %_6.i.i19, %_7.i.i20
  %0 = select i1 %_8.i.mux.i22, ptr %c, ptr %b, !unpredictable !18
  %1 = select i1 %_8.i.mux.i16, ptr %a, ptr %0, !unpredictable !18
  %2 = select i1 %_8.i.mux.i16, ptr %b, ptr %c, !unpredictable !18
  %3 = select i1 %_8.i.mux.i22, ptr %d, ptr %2, !unpredictable !18
  tail call void @llvm.experimental.noalias.scope.decl(metadata !227)
  tail call void @llvm.experimental.noalias.scope.decl(metadata !230)
  tail call void @llvm.experimental.noalias.scope.decl(metadata !232)
  tail call void @llvm.experimental.noalias.scope.decl(metadata !235)
  %_6.i.i25 = load float, ptr %3, align 4, !alias.scope !237, !noalias !238, !noundef !18
  %_7.i.i26 = load float, ptr %1, align 4, !alias.scope !238, !noalias !237, !noundef !18
  %brmerge.not.i27 = fcmp uno float %_6.i.i25, %_7.i.i26
  br i1 %brmerge.not.i27, label %bb6.i.i29, label %"_ZN5alloc5slice29_$LT$impl$u20$$u5b$T$u5d$$GT$7sort_by28_$u7b$$u7b$closure$u7d$$u7d$17hfaa75802b1959b0aE.exit30", !prof !21

bb6.i.i29:                                        ; preds = %"_ZN5alloc5slice29_$LT$impl$u20$$u5b$T$u5d$$GT$7sort_by28_$u7b$$u7b$closure$u7d$$u7d$17hfaa75802b1959b0aE.exit24"
; call core::option::unwrap_failed
  tail call void @_ZN4core6option13unwrap_failed17hef2534b77b89c04fE(ptr noalias noundef readonly align 8 captures(address, read_provenance) dereferenceable(24) @alloc_4a4e7fec44b84c1472b04d0c86f3e1b7) #18, !noalias !239
  unreachable

"_ZN5alloc5slice29_$LT$impl$u20$$u5b$T$u5d$$GT$7sort_by28_$u7b$$u7b$closure$u7d$$u7d$17hfaa75802b1959b0aE.exit30": ; preds = %"_ZN5alloc5slice29_$LT$impl$u20$$u5b$T$u5d$$GT$7sort_by28_$u7b$$u7b$closure$u7d$$u7d$17hfaa75802b1959b0aE.exit24"
  %4 = select i1 %_8.i.mux.i22, ptr %b, ptr %d, !unpredictable !18
  %5 = select i1 %_8.i.mux.i16, ptr %c, ptr %a, !unpredictable !18
  %_8.i.mux.i28 = fcmp olt float %_6.i.i25, %_7.i.i26
  %6 = select i1 %_8.i.mux.i28, ptr %3, ptr %1, !unpredictable !18
  %7 = select i1 %_8.i.mux.i28, ptr %1, ptr %3, !unpredictable !18
  %8 = load i32, ptr %5, align 4
  store i32 %8, ptr %dst, align 4
  %dst5 = getelementptr inbounds nuw i8, ptr %dst, i64 4
  %9 = load i32, ptr %6, align 4
  store i32 %9, ptr %dst5, align 4
  %dst6 = getelementptr inbounds nuw i8, ptr %dst, i64 8
  %10 = load i32, ptr %7, align 4
  store i32 %10, ptr %dst6, align 4
  %11 = getelementptr inbounds nuw i8, ptr %dst, i64 12
  %12 = load i32, ptr %4, align 4
  store i32 %12, ptr %11, align 4
  ret void
}

; core::slice::sort::shared::smallsort::sort8_stable
; Function Attrs: nonlazybind uwtable
define internal fastcc void @_ZN4core5slice4sort6shared9smallsort12sort8_stable17h0c524828a1a47f46E(ptr noundef nonnull readonly captures(none) %v_base, ptr noundef nonnull writeonly captures(none) %dst, ptr noundef nonnull captures(address) %scratch_base) unnamed_addr #0 {
start:
; call core::slice::sort::shared::smallsort::sort4_stable
  tail call fastcc void @_ZN4core5slice4sort6shared9smallsort12sort4_stable17h1c3fb6f95c737a92E(ptr noundef %v_base, ptr noundef %scratch_base)
  %_9 = getelementptr inbounds nuw i8, ptr %v_base, i64 16
  %_10 = getelementptr inbounds nuw i8, ptr %scratch_base, i64 16
; call core::slice::sort::shared::smallsort::sort4_stable
  tail call fastcc void @_ZN4core5slice4sort6shared9smallsort12sort4_stable17h1c3fb6f95c737a92E(ptr noundef %_9, ptr noundef %_10)
  tail call void @llvm.experimental.noalias.scope.decl(metadata !240)
  %0 = getelementptr inbounds nuw i8, ptr %dst, i64 28
  %1 = getelementptr inbounds nuw i8, ptr %scratch_base, i64 28
  %2 = getelementptr i8, ptr %scratch_base, i64 12
  tail call void @llvm.experimental.noalias.scope.decl(metadata !243)
  tail call void @llvm.experimental.noalias.scope.decl(metadata !246)
  tail call void @llvm.experimental.noalias.scope.decl(metadata !248), !noalias !251
  tail call void @llvm.experimental.noalias.scope.decl(metadata !254), !noalias !251
  %_6.i.i.i = load float, ptr %_10, align 4, !alias.scope !256, !noalias !257, !noundef !18
  %_7.i.i.i = load float, ptr %scratch_base, align 4, !alias.scope !258, !noalias !259, !noundef !18
  %brmerge.not.i.i = fcmp uno float %_6.i.i.i, %_7.i.i.i
  br i1 %brmerge.not.i.i, label %bb6.i.i.i, label %"_ZN5alloc5slice29_$LT$impl$u20$$u5b$T$u5d$$GT$7sort_by28_$u7b$$u7b$closure$u7d$$u7d$17hf5b8f37855ac0c3dE.exit.i", !prof !21

bb6.i.i.i:                                        ; preds = %"_ZN5alloc5slice29_$LT$impl$u20$$u5b$T$u5d$$GT$7sort_by28_$u7b$$u7b$closure$u7d$$u7d$17hf5b8f37855ac0c3dE.exit24.i.2", %"_ZN5alloc5slice29_$LT$impl$u20$$u5b$T$u5d$$GT$7sort_by28_$u7b$$u7b$closure$u7d$$u7d$17hf5b8f37855ac0c3dE.exit24.i.1", %"_ZN5alloc5slice29_$LT$impl$u20$$u5b$T$u5d$$GT$7sort_by28_$u7b$$u7b$closure$u7d$$u7d$17hf5b8f37855ac0c3dE.exit24.i", %start
; call core::option::unwrap_failed
  tail call void @_ZN4core6option13unwrap_failed17hef2534b77b89c04fE(ptr noalias noundef readonly align 8 captures(address, read_provenance) dereferenceable(24) @alloc_b0e33ba48ef5fa15e44a55a18226b5ac) #18, !noalias !260
  unreachable

"_ZN5alloc5slice29_$LT$impl$u20$$u5b$T$u5d$$GT$7sort_by28_$u7b$$u7b$closure$u7d$$u7d$17hf5b8f37855ac0c3dE.exit.i": ; preds = %start
  %_8.i.mux.i.i = fcmp olt float %_6.i.i.i, %_7.i.i.i
  %..i17.i = select i1 %_8.i.mux.i.i, ptr %_10, ptr %scratch_base
  %3 = load i32, ptr %..i17.i, align 4, !alias.scope !240, !noalias !261
  store i32 %3, ptr %dst, align 4, !noalias !263
  tail call void @llvm.experimental.noalias.scope.decl(metadata !264)
  tail call void @llvm.experimental.noalias.scope.decl(metadata !267)
  tail call void @llvm.experimental.noalias.scope.decl(metadata !269), !noalias !272
  tail call void @llvm.experimental.noalias.scope.decl(metadata !275), !noalias !272
  %_6.i.i19.i = load float, ptr %1, align 4, !alias.scope !277, !noalias !278, !noundef !18
  %_7.i.i20.i = load float, ptr %2, align 4, !alias.scope !279, !noalias !280, !noundef !18
  %brmerge.not.i21.i = fcmp uno float %_6.i.i19.i, %_7.i.i20.i
  br i1 %brmerge.not.i21.i, label %bb6.i.i23.i, label %"_ZN5alloc5slice29_$LT$impl$u20$$u5b$T$u5d$$GT$7sort_by28_$u7b$$u7b$closure$u7d$$u7d$17hf5b8f37855ac0c3dE.exit24.i", !prof !21

bb6.i.i23.i:                                      ; preds = %"_ZN5alloc5slice29_$LT$impl$u20$$u5b$T$u5d$$GT$7sort_by28_$u7b$$u7b$closure$u7d$$u7d$17hf5b8f37855ac0c3dE.exit.i.3", %"_ZN5alloc5slice29_$LT$impl$u20$$u5b$T$u5d$$GT$7sort_by28_$u7b$$u7b$closure$u7d$$u7d$17hf5b8f37855ac0c3dE.exit.i.2", %"_ZN5alloc5slice29_$LT$impl$u20$$u5b$T$u5d$$GT$7sort_by28_$u7b$$u7b$closure$u7d$$u7d$17hf5b8f37855ac0c3dE.exit.i.1", %"_ZN5alloc5slice29_$LT$impl$u20$$u5b$T$u5d$$GT$7sort_by28_$u7b$$u7b$closure$u7d$$u7d$17hf5b8f37855ac0c3dE.exit.i"
; call core::option::unwrap_failed
  tail call void @_ZN4core6option13unwrap_failed17hef2534b77b89c04fE(ptr noalias noundef readonly align 8 captures(address, read_provenance) dereferenceable(24) @alloc_b0e33ba48ef5fa15e44a55a18226b5ac) #18, !noalias !281
  unreachable

"_ZN5alloc5slice29_$LT$impl$u20$$u5b$T$u5d$$GT$7sort_by28_$u7b$$u7b$closure$u7d$$u7d$17hf5b8f37855ac0c3dE.exit24.i": ; preds = %"_ZN5alloc5slice29_$LT$impl$u20$$u5b$T$u5d$$GT$7sort_by28_$u7b$$u7b$closure$u7d$$u7d$17hf5b8f37855ac0c3dE.exit.i"
  %is_l.i18.i = xor i1 %_8.i.mux.i.i, true
  %count2.i.i = zext i1 %is_l.i18.i to i64
  %_14.i.i = getelementptr inbounds nuw float, ptr %scratch_base, i64 %count2.i.i
  %count.i.i = zext i1 %_8.i.mux.i.i to i64
  %_12.i.i = getelementptr inbounds nuw float, ptr %_10, i64 %count.i.i
  %_8.i.mux.i22.i = fcmp olt float %_6.i.i19.i, %_7.i.i20.i
  %..i.i = select i1 %_8.i.mux.i22.i, ptr %2, ptr %1
  %is_l.i.i = xor i1 %_8.i.mux.i22.i, true
  %4 = load i32, ptr %..i.i, align 4, !alias.scope !240, !noalias !282
  store i32 %4, ptr %0, align 4, !noalias !284
  %count.neg.i.i = sext i1 %is_l.i.i to i64
  %5 = getelementptr float, ptr %1, i64 %count.neg.i.i
  %count3.neg.i.i = sext i1 %_8.i.mux.i22.i to i64
  %6 = getelementptr float, ptr %2, i64 %count3.neg.i.i
  %7 = getelementptr inbounds nuw i8, ptr %dst, i64 24
  tail call void @llvm.experimental.noalias.scope.decl(metadata !285)
  tail call void @llvm.experimental.noalias.scope.decl(metadata !287)
  tail call void @llvm.experimental.noalias.scope.decl(metadata !289), !noalias !251
  tail call void @llvm.experimental.noalias.scope.decl(metadata !291), !noalias !251
  %_6.i.i.i.1 = load float, ptr %_12.i.i, align 4, !alias.scope !293, !noalias !294, !noundef !18
  %_7.i.i.i.1 = load float, ptr %_14.i.i, align 4, !alias.scope !295, !noalias !296, !noundef !18
  %brmerge.not.i.i.1 = fcmp uno float %_6.i.i.i.1, %_7.i.i.i.1
  br i1 %brmerge.not.i.i.1, label %bb6.i.i.i, label %"_ZN5alloc5slice29_$LT$impl$u20$$u5b$T$u5d$$GT$7sort_by28_$u7b$$u7b$closure$u7d$$u7d$17hf5b8f37855ac0c3dE.exit.i.1", !prof !21

"_ZN5alloc5slice29_$LT$impl$u20$$u5b$T$u5d$$GT$7sort_by28_$u7b$$u7b$closure$u7d$$u7d$17hf5b8f37855ac0c3dE.exit.i.1": ; preds = %"_ZN5alloc5slice29_$LT$impl$u20$$u5b$T$u5d$$GT$7sort_by28_$u7b$$u7b$closure$u7d$$u7d$17hf5b8f37855ac0c3dE.exit24.i"
  %_16.i.i = getelementptr inbounds nuw i8, ptr %dst, i64 4
  %_8.i.mux.i.i.1 = fcmp olt float %_6.i.i.i.1, %_7.i.i.i.1
  %..i17.i.1 = select i1 %_8.i.mux.i.i.1, ptr %_12.i.i, ptr %_14.i.i
  %8 = load i32, ptr %..i17.i.1, align 4, !alias.scope !240, !noalias !261
  store i32 %8, ptr %_16.i.i, align 4, !noalias !263
  tail call void @llvm.experimental.noalias.scope.decl(metadata !297)
  tail call void @llvm.experimental.noalias.scope.decl(metadata !299)
  tail call void @llvm.experimental.noalias.scope.decl(metadata !301), !noalias !272
  tail call void @llvm.experimental.noalias.scope.decl(metadata !303), !noalias !272
  %_6.i.i19.i.1 = load float, ptr %5, align 4, !alias.scope !305, !noalias !306, !noundef !18
  %_7.i.i20.i.1 = load float, ptr %6, align 4, !alias.scope !307, !noalias !308, !noundef !18
  %brmerge.not.i21.i.1 = fcmp uno float %_6.i.i19.i.1, %_7.i.i20.i.1
  br i1 %brmerge.not.i21.i.1, label %bb6.i.i23.i, label %"_ZN5alloc5slice29_$LT$impl$u20$$u5b$T$u5d$$GT$7sort_by28_$u7b$$u7b$closure$u7d$$u7d$17hf5b8f37855ac0c3dE.exit24.i.1", !prof !21

"_ZN5alloc5slice29_$LT$impl$u20$$u5b$T$u5d$$GT$7sort_by28_$u7b$$u7b$closure$u7d$$u7d$17hf5b8f37855ac0c3dE.exit24.i.1": ; preds = %"_ZN5alloc5slice29_$LT$impl$u20$$u5b$T$u5d$$GT$7sort_by28_$u7b$$u7b$closure$u7d$$u7d$17hf5b8f37855ac0c3dE.exit.i.1"
  %is_l.i18.i.1 = xor i1 %_8.i.mux.i.i.1, true
  %count2.i.i.1 = zext i1 %is_l.i18.i.1 to i64
  %_14.i.i.1 = getelementptr inbounds nuw float, ptr %_14.i.i, i64 %count2.i.i.1
  %count.i.i.1 = zext i1 %_8.i.mux.i.i.1 to i64
  %_12.i.i.1 = getelementptr inbounds nuw float, ptr %_12.i.i, i64 %count.i.i.1
  %_8.i.mux.i22.i.1 = fcmp olt float %_6.i.i19.i.1, %_7.i.i20.i.1
  %..i.i.1 = select i1 %_8.i.mux.i22.i.1, ptr %6, ptr %5
  %is_l.i.i.1 = xor i1 %_8.i.mux.i22.i.1, true
  %9 = load i32, ptr %..i.i.1, align 4, !alias.scope !240, !noalias !282
  store i32 %9, ptr %7, align 4, !noalias !284
  %count.neg.i.i.1 = sext i1 %is_l.i.i.1 to i64
  %10 = getelementptr float, ptr %5, i64 %count.neg.i.i.1
  %count3.neg.i.i.1 = sext i1 %_8.i.mux.i22.i.1 to i64
  %11 = getelementptr float, ptr %6, i64 %count3.neg.i.i.1
  %12 = getelementptr inbounds nuw i8, ptr %dst, i64 20
  tail call void @llvm.experimental.noalias.scope.decl(metadata !309)
  tail call void @llvm.experimental.noalias.scope.decl(metadata !311)
  tail call void @llvm.experimental.noalias.scope.decl(metadata !313), !noalias !251
  tail call void @llvm.experimental.noalias.scope.decl(metadata !315), !noalias !251
  %_6.i.i.i.2 = load float, ptr %_12.i.i.1, align 4, !alias.scope !317, !noalias !318, !noundef !18
  %_7.i.i.i.2 = load float, ptr %_14.i.i.1, align 4, !alias.scope !319, !noalias !320, !noundef !18
  %brmerge.not.i.i.2 = fcmp uno float %_6.i.i.i.2, %_7.i.i.i.2
  br i1 %brmerge.not.i.i.2, label %bb6.i.i.i, label %"_ZN5alloc5slice29_$LT$impl$u20$$u5b$T$u5d$$GT$7sort_by28_$u7b$$u7b$closure$u7d$$u7d$17hf5b8f37855ac0c3dE.exit.i.2", !prof !21

"_ZN5alloc5slice29_$LT$impl$u20$$u5b$T$u5d$$GT$7sort_by28_$u7b$$u7b$closure$u7d$$u7d$17hf5b8f37855ac0c3dE.exit.i.2": ; preds = %"_ZN5alloc5slice29_$LT$impl$u20$$u5b$T$u5d$$GT$7sort_by28_$u7b$$u7b$closure$u7d$$u7d$17hf5b8f37855ac0c3dE.exit24.i.1"
  %_16.i.i.1 = getelementptr inbounds nuw i8, ptr %dst, i64 8
  %_8.i.mux.i.i.2 = fcmp olt float %_6.i.i.i.2, %_7.i.i.i.2
  %..i17.i.2 = select i1 %_8.i.mux.i.i.2, ptr %_12.i.i.1, ptr %_14.i.i.1
  %13 = load i32, ptr %..i17.i.2, align 4, !alias.scope !240, !noalias !261
  store i32 %13, ptr %_16.i.i.1, align 4, !noalias !263
  tail call void @llvm.experimental.noalias.scope.decl(metadata !321)
  tail call void @llvm.experimental.noalias.scope.decl(metadata !323)
  tail call void @llvm.experimental.noalias.scope.decl(metadata !325), !noalias !272
  tail call void @llvm.experimental.noalias.scope.decl(metadata !327), !noalias !272
  %_6.i.i19.i.2 = load float, ptr %10, align 4, !alias.scope !329, !noalias !330, !noundef !18
  %_7.i.i20.i.2 = load float, ptr %11, align 4, !alias.scope !331, !noalias !332, !noundef !18
  %brmerge.not.i21.i.2 = fcmp uno float %_6.i.i19.i.2, %_7.i.i20.i.2
  br i1 %brmerge.not.i21.i.2, label %bb6.i.i23.i, label %"_ZN5alloc5slice29_$LT$impl$u20$$u5b$T$u5d$$GT$7sort_by28_$u7b$$u7b$closure$u7d$$u7d$17hf5b8f37855ac0c3dE.exit24.i.2", !prof !21

"_ZN5alloc5slice29_$LT$impl$u20$$u5b$T$u5d$$GT$7sort_by28_$u7b$$u7b$closure$u7d$$u7d$17hf5b8f37855ac0c3dE.exit24.i.2": ; preds = %"_ZN5alloc5slice29_$LT$impl$u20$$u5b$T$u5d$$GT$7sort_by28_$u7b$$u7b$closure$u7d$$u7d$17hf5b8f37855ac0c3dE.exit.i.2"
  %is_l.i18.i.2 = xor i1 %_8.i.mux.i.i.2, true
  %count2.i.i.2 = zext i1 %is_l.i18.i.2 to i64
  %_14.i.i.2 = getelementptr inbounds nuw float, ptr %_14.i.i.1, i64 %count2.i.i.2
  %count.i.i.2 = zext i1 %_8.i.mux.i.i.2 to i64
  %_12.i.i.2 = getelementptr inbounds nuw float, ptr %_12.i.i.1, i64 %count.i.i.2
  %_8.i.mux.i22.i.2 = fcmp olt float %_6.i.i19.i.2, %_7.i.i20.i.2
  %..i.i.2 = select i1 %_8.i.mux.i22.i.2, ptr %11, ptr %10
  %is_l.i.i.2 = xor i1 %_8.i.mux.i22.i.2, true
  %14 = load i32, ptr %..i.i.2, align 4, !alias.scope !240, !noalias !282
  store i32 %14, ptr %12, align 4, !noalias !284
  %count.neg.i.i.2 = sext i1 %is_l.i.i.2 to i64
  %15 = getelementptr float, ptr %10, i64 %count.neg.i.i.2
  %count3.neg.i.i.2 = sext i1 %_8.i.mux.i22.i.2 to i64
  %16 = getelementptr float, ptr %11, i64 %count3.neg.i.i.2
  %17 = getelementptr inbounds nuw i8, ptr %dst, i64 16
  tail call void @llvm.experimental.noalias.scope.decl(metadata !333)
  tail call void @llvm.experimental.noalias.scope.decl(metadata !335)
  tail call void @llvm.experimental.noalias.scope.decl(metadata !337), !noalias !251
  tail call void @llvm.experimental.noalias.scope.decl(metadata !339), !noalias !251
  %_6.i.i.i.3 = load float, ptr %_12.i.i.2, align 4, !alias.scope !341, !noalias !342, !noundef !18
  %_7.i.i.i.3 = load float, ptr %_14.i.i.2, align 4, !alias.scope !343, !noalias !344, !noundef !18
  %brmerge.not.i.i.3 = fcmp uno float %_6.i.i.i.3, %_7.i.i.i.3
  br i1 %brmerge.not.i.i.3, label %bb6.i.i.i, label %"_ZN5alloc5slice29_$LT$impl$u20$$u5b$T$u5d$$GT$7sort_by28_$u7b$$u7b$closure$u7d$$u7d$17hf5b8f37855ac0c3dE.exit.i.3", !prof !21

"_ZN5alloc5slice29_$LT$impl$u20$$u5b$T$u5d$$GT$7sort_by28_$u7b$$u7b$closure$u7d$$u7d$17hf5b8f37855ac0c3dE.exit.i.3": ; preds = %"_ZN5alloc5slice29_$LT$impl$u20$$u5b$T$u5d$$GT$7sort_by28_$u7b$$u7b$closure$u7d$$u7d$17hf5b8f37855ac0c3dE.exit24.i.2"
  %_16.i.i.2 = getelementptr inbounds nuw i8, ptr %dst, i64 12
  %_8.i.mux.i.i.3 = fcmp olt float %_6.i.i.i.3, %_7.i.i.i.3
  %..i17.i.3 = select i1 %_8.i.mux.i.i.3, ptr %_12.i.i.2, ptr %_14.i.i.2
  %18 = load i32, ptr %..i17.i.3, align 4, !alias.scope !240, !noalias !261
  store i32 %18, ptr %_16.i.i.2, align 4, !noalias !263
  tail call void @llvm.experimental.noalias.scope.decl(metadata !345)
  tail call void @llvm.experimental.noalias.scope.decl(metadata !347)
  tail call void @llvm.experimental.noalias.scope.decl(metadata !349), !noalias !272
  tail call void @llvm.experimental.noalias.scope.decl(metadata !351), !noalias !272
  %_6.i.i19.i.3 = load float, ptr %15, align 4, !alias.scope !353, !noalias !354, !noundef !18
  %_7.i.i20.i.3 = load float, ptr %16, align 4, !alias.scope !355, !noalias !356, !noundef !18
  %brmerge.not.i21.i.3 = fcmp uno float %_6.i.i19.i.3, %_7.i.i20.i.3
  br i1 %brmerge.not.i21.i.3, label %bb6.i.i23.i, label %"_ZN5alloc5slice29_$LT$impl$u20$$u5b$T$u5d$$GT$7sort_by28_$u7b$$u7b$closure$u7d$$u7d$17hf5b8f37855ac0c3dE.exit24.i.3", !prof !21

"_ZN5alloc5slice29_$LT$impl$u20$$u5b$T$u5d$$GT$7sort_by28_$u7b$$u7b$closure$u7d$$u7d$17hf5b8f37855ac0c3dE.exit24.i.3": ; preds = %"_ZN5alloc5slice29_$LT$impl$u20$$u5b$T$u5d$$GT$7sort_by28_$u7b$$u7b$closure$u7d$$u7d$17hf5b8f37855ac0c3dE.exit.i.3"
  %is_l.i18.i.3 = xor i1 %_8.i.mux.i.i.3, true
  %count2.i.i.3 = zext i1 %is_l.i18.i.3 to i64
  %_14.i.i.3 = getelementptr inbounds nuw float, ptr %_14.i.i.2, i64 %count2.i.i.3
  %count.i.i.3 = zext i1 %_8.i.mux.i.i.3 to i64
  %_12.i.i.3 = getelementptr inbounds nuw float, ptr %_12.i.i.2, i64 %count.i.i.3
  %_8.i.mux.i22.i.3 = fcmp olt float %_6.i.i19.i.3, %_7.i.i20.i.3
  %..i.i.3 = select i1 %_8.i.mux.i22.i.3, ptr %16, ptr %15
  %is_l.i.i.3 = xor i1 %_8.i.mux.i22.i.3, true
  %19 = load i32, ptr %..i.i.3, align 4, !alias.scope !240, !noalias !282
  store i32 %19, ptr %17, align 4, !noalias !284
  %count.neg.i.i.3 = sext i1 %is_l.i.i.3 to i64
  %20 = getelementptr float, ptr %15, i64 %count.neg.i.i.3
  %count3.neg.i.i.3 = sext i1 %_8.i.mux.i22.i.3 to i64
  %21 = getelementptr float, ptr %16, i64 %count3.neg.i.i.3
  %22 = getelementptr i8, ptr %21, i64 4
  %23 = getelementptr i8, ptr %20, i64 4
  %_31.i = icmp ne ptr %_14.i.i.3, %22
  %_32.i = icmp ne ptr %_12.i.i.3, %23
  %or.cond.i = select i1 %_31.i, i1 true, i1 %_32.i
  br i1 %or.cond.i, label %bb13.i, label %_ZN4core5slice4sort6shared9smallsort19bidirectional_merge17ha5355d97ee5c682eE.exit, !prof !357

bb13.i:                                           ; preds = %"_ZN5alloc5slice29_$LT$impl$u20$$u5b$T$u5d$$GT$7sort_by28_$u7b$$u7b$closure$u7d$$u7d$17hf5b8f37855ac0c3dE.exit24.i.3"
; call core::slice::sort::shared::smallsort::panic_on_ord_violation
  tail call void @_ZN4core5slice4sort6shared9smallsort22panic_on_ord_violation17hc77a22a2d50782cdE() #18, !noalias !240
  unreachable

_ZN4core5slice4sort6shared9smallsort19bidirectional_merge17ha5355d97ee5c682eE.exit: ; preds = %"_ZN5alloc5slice29_$LT$impl$u20$$u5b$T$u5d$$GT$7sort_by28_$u7b$$u7b$closure$u7d$$u7d$17hf5b8f37855ac0c3dE.exit24.i.3"
  ret void
}

; core::slice::sort::shared::smallsort::sort8_stable
; Function Attrs: nonlazybind uwtable
define internal fastcc void @_ZN4core5slice4sort6shared9smallsort12sort8_stable17h3ae107a90c900d55E(ptr noundef nonnull readonly captures(none) %v_base, ptr noundef nonnull writeonly captures(none) %dst, ptr noundef nonnull captures(address) %scratch_base) unnamed_addr #0 {
start:
; call core::slice::sort::shared::smallsort::sort4_stable
  tail call fastcc void @_ZN4core5slice4sort6shared9smallsort12sort4_stable17h7be21866dd44a082E(ptr noundef %v_base, ptr noundef %scratch_base)
  %_9 = getelementptr inbounds nuw i8, ptr %v_base, i64 16
  %_10 = getelementptr inbounds nuw i8, ptr %scratch_base, i64 16
; call core::slice::sort::shared::smallsort::sort4_stable
  tail call fastcc void @_ZN4core5slice4sort6shared9smallsort12sort4_stable17h7be21866dd44a082E(ptr noundef %_9, ptr noundef %_10)
  tail call void @llvm.experimental.noalias.scope.decl(metadata !358)
  %0 = getelementptr inbounds nuw i8, ptr %dst, i64 28
  %1 = getelementptr inbounds nuw i8, ptr %scratch_base, i64 28
  %2 = getelementptr i8, ptr %scratch_base, i64 12
  tail call void @llvm.experimental.noalias.scope.decl(metadata !361)
  tail call void @llvm.experimental.noalias.scope.decl(metadata !364)
  tail call void @llvm.experimental.noalias.scope.decl(metadata !366), !noalias !369
  tail call void @llvm.experimental.noalias.scope.decl(metadata !372), !noalias !369
  %_6.i.i.i = load float, ptr %_10, align 4, !alias.scope !374, !noalias !375, !noundef !18
  %_7.i.i.i = load float, ptr %scratch_base, align 4, !alias.scope !376, !noalias !377, !noundef !18
  %brmerge.not.i.i = fcmp uno float %_6.i.i.i, %_7.i.i.i
  br i1 %brmerge.not.i.i, label %bb6.i.i.i, label %"_ZN5alloc5slice29_$LT$impl$u20$$u5b$T$u5d$$GT$7sort_by28_$u7b$$u7b$closure$u7d$$u7d$17hfaa75802b1959b0aE.exit.i", !prof !21

bb6.i.i.i:                                        ; preds = %"_ZN5alloc5slice29_$LT$impl$u20$$u5b$T$u5d$$GT$7sort_by28_$u7b$$u7b$closure$u7d$$u7d$17hfaa75802b1959b0aE.exit24.i.2", %"_ZN5alloc5slice29_$LT$impl$u20$$u5b$T$u5d$$GT$7sort_by28_$u7b$$u7b$closure$u7d$$u7d$17hfaa75802b1959b0aE.exit24.i.1", %"_ZN5alloc5slice29_$LT$impl$u20$$u5b$T$u5d$$GT$7sort_by28_$u7b$$u7b$closure$u7d$$u7d$17hfaa75802b1959b0aE.exit24.i", %start
; call core::option::unwrap_failed
  tail call void @_ZN4core6option13unwrap_failed17hef2534b77b89c04fE(ptr noalias noundef readonly align 8 captures(address, read_provenance) dereferenceable(24) @alloc_4a4e7fec44b84c1472b04d0c86f3e1b7) #18, !noalias !378
  unreachable

"_ZN5alloc5slice29_$LT$impl$u20$$u5b$T$u5d$$GT$7sort_by28_$u7b$$u7b$closure$u7d$$u7d$17hfaa75802b1959b0aE.exit.i": ; preds = %start
  %_8.i.mux.i.i = fcmp olt float %_6.i.i.i, %_7.i.i.i
  %..i17.i = select i1 %_8.i.mux.i.i, ptr %_10, ptr %scratch_base
  %3 = load i32, ptr %..i17.i, align 4, !alias.scope !358, !noalias !379
  store i32 %3, ptr %dst, align 4, !noalias !381
  tail call void @llvm.experimental.noalias.scope.decl(metadata !382)
  tail call void @llvm.experimental.noalias.scope.decl(metadata !385)
  tail call void @llvm.experimental.noalias.scope.decl(metadata !387), !noalias !390
  tail call void @llvm.experimental.noalias.scope.decl(metadata !393), !noalias !390
  %_6.i.i19.i = load float, ptr %1, align 4, !alias.scope !395, !noalias !396, !noundef !18
  %_7.i.i20.i = load float, ptr %2, align 4, !alias.scope !397, !noalias !398, !noundef !18
  %brmerge.not.i21.i = fcmp uno float %_6.i.i19.i, %_7.i.i20.i
  br i1 %brmerge.not.i21.i, label %bb6.i.i23.i, label %"_ZN5alloc5slice29_$LT$impl$u20$$u5b$T$u5d$$GT$7sort_by28_$u7b$$u7b$closure$u7d$$u7d$17hfaa75802b1959b0aE.exit24.i", !prof !21

bb6.i.i23.i:                                      ; preds = %"_ZN5alloc5slice29_$LT$impl$u20$$u5b$T$u5d$$GT$7sort_by28_$u7b$$u7b$closure$u7d$$u7d$17hfaa75802b1959b0aE.exit.i.3", %"_ZN5alloc5slice29_$LT$impl$u20$$u5b$T$u5d$$GT$7sort_by28_$u7b$$u7b$closure$u7d$$u7d$17hfaa75802b1959b0aE.exit.i.2", %"_ZN5alloc5slice29_$LT$impl$u20$$u5b$T$u5d$$GT$7sort_by28_$u7b$$u7b$closure$u7d$$u7d$17hfaa75802b1959b0aE.exit.i.1", %"_ZN5alloc5slice29_$LT$impl$u20$$u5b$T$u5d$$GT$7sort_by28_$u7b$$u7b$closure$u7d$$u7d$17hfaa75802b1959b0aE.exit.i"
; call core::option::unwrap_failed
  tail call void @_ZN4core6option13unwrap_failed17hef2534b77b89c04fE(ptr noalias noundef readonly align 8 captures(address, read_provenance) dereferenceable(24) @alloc_4a4e7fec44b84c1472b04d0c86f3e1b7) #18, !noalias !399
  unreachable

"_ZN5alloc5slice29_$LT$impl$u20$$u5b$T$u5d$$GT$7sort_by28_$u7b$$u7b$closure$u7d$$u7d$17hfaa75802b1959b0aE.exit24.i": ; preds = %"_ZN5alloc5slice29_$LT$impl$u20$$u5b$T$u5d$$GT$7sort_by28_$u7b$$u7b$closure$u7d$$u7d$17hfaa75802b1959b0aE.exit.i"
  %is_l.i18.i = xor i1 %_8.i.mux.i.i, true
  %count2.i.i = zext i1 %is_l.i18.i to i64
  %_14.i.i = getelementptr inbounds nuw float, ptr %scratch_base, i64 %count2.i.i
  %count.i.i = zext i1 %_8.i.mux.i.i to i64
  %_12.i.i = getelementptr inbounds nuw float, ptr %_10, i64 %count.i.i
  %_8.i.mux.i22.i = fcmp olt float %_6.i.i19.i, %_7.i.i20.i
  %..i.i = select i1 %_8.i.mux.i22.i, ptr %2, ptr %1
  %is_l.i.i = xor i1 %_8.i.mux.i22.i, true
  %4 = load i32, ptr %..i.i, align 4, !alias.scope !358, !noalias !400
  store i32 %4, ptr %0, align 4, !noalias !402
  %count.neg.i.i = sext i1 %is_l.i.i to i64
  %5 = getelementptr float, ptr %1, i64 %count.neg.i.i
  %count3.neg.i.i = sext i1 %_8.i.mux.i22.i to i64
  %6 = getelementptr float, ptr %2, i64 %count3.neg.i.i
  %7 = getelementptr inbounds nuw i8, ptr %dst, i64 24
  tail call void @llvm.experimental.noalias.scope.decl(metadata !403)
  tail call void @llvm.experimental.noalias.scope.decl(metadata !405)
  tail call void @llvm.experimental.noalias.scope.decl(metadata !407), !noalias !369
  tail call void @llvm.experimental.noalias.scope.decl(metadata !409), !noalias !369
  %_6.i.i.i.1 = load float, ptr %_12.i.i, align 4, !alias.scope !411, !noalias !412, !noundef !18
  %_7.i.i.i.1 = load float, ptr %_14.i.i, align 4, !alias.scope !413, !noalias !414, !noundef !18
  %brmerge.not.i.i.1 = fcmp uno float %_6.i.i.i.1, %_7.i.i.i.1
  br i1 %brmerge.not.i.i.1, label %bb6.i.i.i, label %"_ZN5alloc5slice29_$LT$impl$u20$$u5b$T$u5d$$GT$7sort_by28_$u7b$$u7b$closure$u7d$$u7d$17hfaa75802b1959b0aE.exit.i.1", !prof !21

"_ZN5alloc5slice29_$LT$impl$u20$$u5b$T$u5d$$GT$7sort_by28_$u7b$$u7b$closure$u7d$$u7d$17hfaa75802b1959b0aE.exit.i.1": ; preds = %"_ZN5alloc5slice29_$LT$impl$u20$$u5b$T$u5d$$GT$7sort_by28_$u7b$$u7b$closure$u7d$$u7d$17hfaa75802b1959b0aE.exit24.i"
  %_16.i.i = getelementptr inbounds nuw i8, ptr %dst, i64 4
  %_8.i.mux.i.i.1 = fcmp olt float %_6.i.i.i.1, %_7.i.i.i.1
  %..i17.i.1 = select i1 %_8.i.mux.i.i.1, ptr %_12.i.i, ptr %_14.i.i
  %8 = load i32, ptr %..i17.i.1, align 4, !alias.scope !358, !noalias !379
  store i32 %8, ptr %_16.i.i, align 4, !noalias !381
  tail call void @llvm.experimental.noalias.scope.decl(metadata !415)
  tail call void @llvm.experimental.noalias.scope.decl(metadata !417)
  tail call void @llvm.experimental.noalias.scope.decl(metadata !419), !noalias !390
  tail call void @llvm.experimental.noalias.scope.decl(metadata !421), !noalias !390
  %_6.i.i19.i.1 = load float, ptr %5, align 4, !alias.scope !423, !noalias !424, !noundef !18
  %_7.i.i20.i.1 = load float, ptr %6, align 4, !alias.scope !425, !noalias !426, !noundef !18
  %brmerge.not.i21.i.1 = fcmp uno float %_6.i.i19.i.1, %_7.i.i20.i.1
  br i1 %brmerge.not.i21.i.1, label %bb6.i.i23.i, label %"_ZN5alloc5slice29_$LT$impl$u20$$u5b$T$u5d$$GT$7sort_by28_$u7b$$u7b$closure$u7d$$u7d$17hfaa75802b1959b0aE.exit24.i.1", !prof !21

"_ZN5alloc5slice29_$LT$impl$u20$$u5b$T$u5d$$GT$7sort_by28_$u7b$$u7b$closure$u7d$$u7d$17hfaa75802b1959b0aE.exit24.i.1": ; preds = %"_ZN5alloc5slice29_$LT$impl$u20$$u5b$T$u5d$$GT$7sort_by28_$u7b$$u7b$closure$u7d$$u7d$17hfaa75802b1959b0aE.exit.i.1"
  %is_l.i18.i.1 = xor i1 %_8.i.mux.i.i.1, true
  %count2.i.i.1 = zext i1 %is_l.i18.i.1 to i64
  %_14.i.i.1 = getelementptr inbounds nuw float, ptr %_14.i.i, i64 %count2.i.i.1
  %count.i.i.1 = zext i1 %_8.i.mux.i.i.1 to i64
  %_12.i.i.1 = getelementptr inbounds nuw float, ptr %_12.i.i, i64 %count.i.i.1
  %_8.i.mux.i22.i.1 = fcmp olt float %_6.i.i19.i.1, %_7.i.i20.i.1
  %..i.i.1 = select i1 %_8.i.mux.i22.i.1, ptr %6, ptr %5
  %is_l.i.i.1 = xor i1 %_8.i.mux.i22.i.1, true
  %9 = load i32, ptr %..i.i.1, align 4, !alias.scope !358, !noalias !400
  store i32 %9, ptr %7, align 4, !noalias !402
  %count.neg.i.i.1 = sext i1 %is_l.i.i.1 to i64
  %10 = getelementptr float, ptr %5, i64 %count.neg.i.i.1
  %count3.neg.i.i.1 = sext i1 %_8.i.mux.i22.i.1 to i64
  %11 = getelementptr float, ptr %6, i64 %count3.neg.i.i.1
  %12 = getelementptr inbounds nuw i8, ptr %dst, i64 20
  tail call void @llvm.experimental.noalias.scope.decl(metadata !427)
  tail call void @llvm.experimental.noalias.scope.decl(metadata !429)
  tail call void @llvm.experimental.noalias.scope.decl(metadata !431), !noalias !369
  tail call void @llvm.experimental.noalias.scope.decl(metadata !433), !noalias !369
  %_6.i.i.i.2 = load float, ptr %_12.i.i.1, align 4, !alias.scope !435, !noalias !436, !noundef !18
  %_7.i.i.i.2 = load float, ptr %_14.i.i.1, align 4, !alias.scope !437, !noalias !438, !noundef !18
  %brmerge.not.i.i.2 = fcmp uno float %_6.i.i.i.2, %_7.i.i.i.2
  br i1 %brmerge.not.i.i.2, label %bb6.i.i.i, label %"_ZN5alloc5slice29_$LT$impl$u20$$u5b$T$u5d$$GT$7sort_by28_$u7b$$u7b$closure$u7d$$u7d$17hfaa75802b1959b0aE.exit.i.2", !prof !21

"_ZN5alloc5slice29_$LT$impl$u20$$u5b$T$u5d$$GT$7sort_by28_$u7b$$u7b$closure$u7d$$u7d$17hfaa75802b1959b0aE.exit.i.2": ; preds = %"_ZN5alloc5slice29_$LT$impl$u20$$u5b$T$u5d$$GT$7sort_by28_$u7b$$u7b$closure$u7d$$u7d$17hfaa75802b1959b0aE.exit24.i.1"
  %_16.i.i.1 = getelementptr inbounds nuw i8, ptr %dst, i64 8
  %_8.i.mux.i.i.2 = fcmp olt float %_6.i.i.i.2, %_7.i.i.i.2
  %..i17.i.2 = select i1 %_8.i.mux.i.i.2, ptr %_12.i.i.1, ptr %_14.i.i.1
  %13 = load i32, ptr %..i17.i.2, align 4, !alias.scope !358, !noalias !379
  store i32 %13, ptr %_16.i.i.1, align 4, !noalias !381
  tail call void @llvm.experimental.noalias.scope.decl(metadata !439)
  tail call void @llvm.experimental.noalias.scope.decl(metadata !441)
  tail call void @llvm.experimental.noalias.scope.decl(metadata !443), !noalias !390
  tail call void @llvm.experimental.noalias.scope.decl(metadata !445), !noalias !390
  %_6.i.i19.i.2 = load float, ptr %10, align 4, !alias.scope !447, !noalias !448, !noundef !18
  %_7.i.i20.i.2 = load float, ptr %11, align 4, !alias.scope !449, !noalias !450, !noundef !18
  %brmerge.not.i21.i.2 = fcmp uno float %_6.i.i19.i.2, %_7.i.i20.i.2
  br i1 %brmerge.not.i21.i.2, label %bb6.i.i23.i, label %"_ZN5alloc5slice29_$LT$impl$u20$$u5b$T$u5d$$GT$7sort_by28_$u7b$$u7b$closure$u7d$$u7d$17hfaa75802b1959b0aE.exit24.i.2", !prof !21

"_ZN5alloc5slice29_$LT$impl$u20$$u5b$T$u5d$$GT$7sort_by28_$u7b$$u7b$closure$u7d$$u7d$17hfaa75802b1959b0aE.exit24.i.2": ; preds = %"_ZN5alloc5slice29_$LT$impl$u20$$u5b$T$u5d$$GT$7sort_by28_$u7b$$u7b$closure$u7d$$u7d$17hfaa75802b1959b0aE.exit.i.2"
  %is_l.i18.i.2 = xor i1 %_8.i.mux.i.i.2, true
  %count2.i.i.2 = zext i1 %is_l.i18.i.2 to i64
  %_14.i.i.2 = getelementptr inbounds nuw float, ptr %_14.i.i.1, i64 %count2.i.i.2
  %count.i.i.2 = zext i1 %_8.i.mux.i.i.2 to i64
  %_12.i.i.2 = getelementptr inbounds nuw float, ptr %_12.i.i.1, i64 %count.i.i.2
  %_8.i.mux.i22.i.2 = fcmp olt float %_6.i.i19.i.2, %_7.i.i20.i.2
  %..i.i.2 = select i1 %_8.i.mux.i22.i.2, ptr %11, ptr %10
  %is_l.i.i.2 = xor i1 %_8.i.mux.i22.i.2, true
  %14 = load i32, ptr %..i.i.2, align 4, !alias.scope !358, !noalias !400
  store i32 %14, ptr %12, align 4, !noalias !402
  %count.neg.i.i.2 = sext i1 %is_l.i.i.2 to i64
  %15 = getelementptr float, ptr %10, i64 %count.neg.i.i.2
  %count3.neg.i.i.2 = sext i1 %_8.i.mux.i22.i.2 to i64
  %16 = getelementptr float, ptr %11, i64 %count3.neg.i.i.2
  %17 = getelementptr inbounds nuw i8, ptr %dst, i64 16
  tail call void @llvm.experimental.noalias.scope.decl(metadata !451)
  tail call void @llvm.experimental.noalias.scope.decl(metadata !453)
  tail call void @llvm.experimental.noalias.scope.decl(metadata !455), !noalias !369
  tail call void @llvm.experimental.noalias.scope.decl(metadata !457), !noalias !369
  %_6.i.i.i.3 = load float, ptr %_12.i.i.2, align 4, !alias.scope !459, !noalias !460, !noundef !18
  %_7.i.i.i.3 = load float, ptr %_14.i.i.2, align 4, !alias.scope !461, !noalias !462, !noundef !18
  %brmerge.not.i.i.3 = fcmp uno float %_6.i.i.i.3, %_7.i.i.i.3
  br i1 %brmerge.not.i.i.3, label %bb6.i.i.i, label %"_ZN5alloc5slice29_$LT$impl$u20$$u5b$T$u5d$$GT$7sort_by28_$u7b$$u7b$closure$u7d$$u7d$17hfaa75802b1959b0aE.exit.i.3", !prof !21

"_ZN5alloc5slice29_$LT$impl$u20$$u5b$T$u5d$$GT$7sort_by28_$u7b$$u7b$closure$u7d$$u7d$17hfaa75802b1959b0aE.exit.i.3": ; preds = %"_ZN5alloc5slice29_$LT$impl$u20$$u5b$T$u5d$$GT$7sort_by28_$u7b$$u7b$closure$u7d$$u7d$17hfaa75802b1959b0aE.exit24.i.2"
  %_16.i.i.2 = getelementptr inbounds nuw i8, ptr %dst, i64 12
  %_8.i.mux.i.i.3 = fcmp olt float %_6.i.i.i.3, %_7.i.i.i.3
  %..i17.i.3 = select i1 %_8.i.mux.i.i.3, ptr %_12.i.i.2, ptr %_14.i.i.2
  %18 = load i32, ptr %..i17.i.3, align 4, !alias.scope !358, !noalias !379
  store i32 %18, ptr %_16.i.i.2, align 4, !noalias !381
  tail call void @llvm.experimental.noalias.scope.decl(metadata !463)
  tail call void @llvm.experimental.noalias.scope.decl(metadata !465)
  tail call void @llvm.experimental.noalias.scope.decl(metadata !467), !noalias !390
  tail call void @llvm.experimental.noalias.scope.decl(metadata !469), !noalias !390
  %_6.i.i19.i.3 = load float, ptr %15, align 4, !alias.scope !471, !noalias !472, !noundef !18
  %_7.i.i20.i.3 = load float, ptr %16, align 4, !alias.scope !473, !noalias !474, !noundef !18
  %brmerge.not.i21.i.3 = fcmp uno float %_6.i.i19.i.3, %_7.i.i20.i.3
  br i1 %brmerge.not.i21.i.3, label %bb6.i.i23.i, label %"_ZN5alloc5slice29_$LT$impl$u20$$u5b$T$u5d$$GT$7sort_by28_$u7b$$u7b$closure$u7d$$u7d$17hfaa75802b1959b0aE.exit24.i.3", !prof !21

"_ZN5alloc5slice29_$LT$impl$u20$$u5b$T$u5d$$GT$7sort_by28_$u7b$$u7b$closure$u7d$$u7d$17hfaa75802b1959b0aE.exit24.i.3": ; preds = %"_ZN5alloc5slice29_$LT$impl$u20$$u5b$T$u5d$$GT$7sort_by28_$u7b$$u7b$closure$u7d$$u7d$17hfaa75802b1959b0aE.exit.i.3"
  %is_l.i18.i.3 = xor i1 %_8.i.mux.i.i.3, true
  %count2.i.i.3 = zext i1 %is_l.i18.i.3 to i64
  %_14.i.i.3 = getelementptr inbounds nuw float, ptr %_14.i.i.2, i64 %count2.i.i.3
  %count.i.i.3 = zext i1 %_8.i.mux.i.i.3 to i64
  %_12.i.i.3 = getelementptr inbounds nuw float, ptr %_12.i.i.2, i64 %count.i.i.3
  %_8.i.mux.i22.i.3 = fcmp olt float %_6.i.i19.i.3, %_7.i.i20.i.3
  %..i.i.3 = select i1 %_8.i.mux.i22.i.3, ptr %16, ptr %15
  %is_l.i.i.3 = xor i1 %_8.i.mux.i22.i.3, true
  %19 = load i32, ptr %..i.i.3, align 4, !alias.scope !358, !noalias !400
  store i32 %19, ptr %17, align 4, !noalias !402
  %count.neg.i.i.3 = sext i1 %is_l.i.i.3 to i64
  %20 = getelementptr float, ptr %15, i64 %count.neg.i.i.3
  %count3.neg.i.i.3 = sext i1 %_8.i.mux.i22.i.3 to i64
  %21 = getelementptr float, ptr %16, i64 %count3.neg.i.i.3
  %22 = getelementptr i8, ptr %21, i64 4
  %23 = getelementptr i8, ptr %20, i64 4
  %_31.i = icmp ne ptr %_14.i.i.3, %22
  %_32.i = icmp ne ptr %_12.i.i.3, %23
  %or.cond.i = select i1 %_31.i, i1 true, i1 %_32.i
  br i1 %or.cond.i, label %bb13.i, label %_ZN4core5slice4sort6shared9smallsort19bidirectional_merge17h8fd5afa469382f2aE.exit, !prof !357

bb13.i:                                           ; preds = %"_ZN5alloc5slice29_$LT$impl$u20$$u5b$T$u5d$$GT$7sort_by28_$u7b$$u7b$closure$u7d$$u7d$17hfaa75802b1959b0aE.exit24.i.3"
; call core::slice::sort::shared::smallsort::panic_on_ord_violation
  tail call void @_ZN4core5slice4sort6shared9smallsort22panic_on_ord_violation17hc77a22a2d50782cdE() #18, !noalias !358
  unreachable

_ZN4core5slice4sort6shared9smallsort19bidirectional_merge17h8fd5afa469382f2aE.exit: ; preds = %"_ZN5alloc5slice29_$LT$impl$u20$$u5b$T$u5d$$GT$7sort_by28_$u7b$$u7b$closure$u7d$$u7d$17hfaa75802b1959b0aE.exit24.i.3"
  ret void
}

; core::slice::sort::shared::smallsort::sort8_stable
; Function Attrs: nonlazybind uwtable
define internal fastcc void @_ZN4core5slice4sort6shared9smallsort12sort8_stable17had7ded36d12690dcE(ptr noundef nonnull readonly captures(none) %v_base, ptr noundef nonnull writeonly captures(none) initializes((0, 32)) %dst, ptr noundef nonnull captures(address) initializes((0, 32)) %scratch_base) unnamed_addr #0 personality ptr @rust_eh_personality {
start:
  %_7.i = getelementptr inbounds nuw i8, ptr %v_base, i64 4
  tail call void @llvm.experimental.noalias.scope.decl(metadata !475)
  tail call void @llvm.experimental.noalias.scope.decl(metadata !478)
  tail call void @llvm.experimental.noalias.scope.decl(metadata !480)
  tail call void @llvm.experimental.noalias.scope.decl(metadata !483)
  tail call void @llvm.experimental.noalias.scope.decl(metadata !485)
  tail call void @llvm.experimental.noalias.scope.decl(metadata !488)
  %_3.i.i.i.i = load i32, ptr %_7.i, align 4, !alias.scope !490, !noalias !491, !noundef !18
  %_4.i.i.i.i = load i32, ptr %v_base, align 4, !alias.scope !491, !noalias !490, !noundef !18
  %_0.i.i = icmp slt i32 %_3.i.i.i.i, %_4.i.i.i.i
  %_12.i = getelementptr inbounds nuw i8, ptr %v_base, i64 12
  %_14.i = getelementptr inbounds nuw i8, ptr %v_base, i64 8
  tail call void @llvm.experimental.noalias.scope.decl(metadata !492)
  tail call void @llvm.experimental.noalias.scope.decl(metadata !495)
  tail call void @llvm.experimental.noalias.scope.decl(metadata !497)
  tail call void @llvm.experimental.noalias.scope.decl(metadata !500)
  tail call void @llvm.experimental.noalias.scope.decl(metadata !502)
  tail call void @llvm.experimental.noalias.scope.decl(metadata !505)
  %_3.i.i.i7.i = load i32, ptr %_12.i, align 4, !alias.scope !507, !noalias !508, !noundef !18
  %_4.i.i.i8.i = load i32, ptr %_14.i, align 4, !alias.scope !508, !noalias !507, !noundef !18
  %_0.i9.i = icmp slt i32 %_3.i.i.i7.i, %_4.i.i.i8.i
  %count.i = zext i1 %_0.i.i to i64
  %a.i = getelementptr inbounds nuw i32, ptr %v_base, i64 %count.i
  %_19.i = xor i1 %_0.i.i, true
  %count2.i = zext i1 %_19.i to i64
  %b.i = getelementptr inbounds nuw i32, ptr %v_base, i64 %count2.i
  %count3.i = select i1 %_0.i9.i, i64 3, i64 2
  %c.i = getelementptr inbounds nuw i32, ptr %v_base, i64 %count3.i
  %count4.i = select i1 %_0.i9.i, i64 2, i64 3
  %d.i = getelementptr inbounds nuw i32, ptr %v_base, i64 %count4.i
  tail call void @llvm.experimental.noalias.scope.decl(metadata !509)
  tail call void @llvm.experimental.noalias.scope.decl(metadata !512)
  tail call void @llvm.experimental.noalias.scope.decl(metadata !514)
  tail call void @llvm.experimental.noalias.scope.decl(metadata !517)
  tail call void @llvm.experimental.noalias.scope.decl(metadata !519)
  tail call void @llvm.experimental.noalias.scope.decl(metadata !522)
  %_3.i.i.i10.i = load i32, ptr %c.i, align 4, !alias.scope !524, !noalias !525, !noundef !18
  %_4.i.i.i11.i = load i32, ptr %a.i, align 4, !alias.scope !525, !noalias !524, !noundef !18
  %_0.i12.i = icmp slt i32 %_3.i.i.i10.i, %_4.i.i.i11.i
  tail call void @llvm.experimental.noalias.scope.decl(metadata !526)
  tail call void @llvm.experimental.noalias.scope.decl(metadata !529)
  tail call void @llvm.experimental.noalias.scope.decl(metadata !531)
  tail call void @llvm.experimental.noalias.scope.decl(metadata !534)
  tail call void @llvm.experimental.noalias.scope.decl(metadata !536)
  tail call void @llvm.experimental.noalias.scope.decl(metadata !539)
  %_3.i.i.i13.i = load i32, ptr %d.i, align 4, !alias.scope !541, !noalias !542, !noundef !18
  %_4.i.i.i14.i = load i32, ptr %b.i, align 4, !alias.scope !542, !noalias !541, !noundef !18
  %_0.i15.i = icmp slt i32 %_3.i.i.i13.i, %_4.i.i.i14.i
  %0 = tail call i32 @llvm.smin.i32(i32 %_3.i.i.i10.i, i32 %_4.i.i.i11.i)
  %1 = select i1 %_0.i15.i, ptr %c.i, ptr %b.i, !unpredictable !18
  %2 = select i1 %_0.i12.i, ptr %a.i, ptr %1, !unpredictable !18
  %3 = select i1 %_0.i12.i, ptr %b.i, ptr %c.i, !unpredictable !18
  %4 = select i1 %_0.i15.i, ptr %d.i, ptr %3, !unpredictable !18
  tail call void @llvm.experimental.noalias.scope.decl(metadata !543)
  tail call void @llvm.experimental.noalias.scope.decl(metadata !546)
  tail call void @llvm.experimental.noalias.scope.decl(metadata !548)
  tail call void @llvm.experimental.noalias.scope.decl(metadata !551)
  tail call void @llvm.experimental.noalias.scope.decl(metadata !553)
  tail call void @llvm.experimental.noalias.scope.decl(metadata !556)
  %_3.i.i.i16.i = load i32, ptr %4, align 4, !alias.scope !558, !noalias !559, !noundef !18
  %_4.i.i.i17.i = load i32, ptr %2, align 4, !alias.scope !559, !noalias !558, !noundef !18
  %_0.i18.i = icmp slt i32 %_3.i.i.i16.i, %_4.i.i.i17.i
  store i32 %0, ptr %scratch_base, align 4
  %dst5.i = getelementptr inbounds nuw i8, ptr %scratch_base, i64 4
  %.val.i = load i32, ptr %4, align 4
  %.val19.i = load i32, ptr %2, align 4
  %5 = select i1 %_0.i18.i, i32 %.val.i, i32 %.val19.i
  store i32 %5, ptr %dst5.i, align 4
  %dst6.i = getelementptr inbounds nuw i8, ptr %scratch_base, i64 8
  %.val20.i = load i32, ptr %2, align 4
  %.val21.i = load i32, ptr %4, align 4
  %6 = select i1 %_0.i18.i, i32 %.val20.i, i32 %.val21.i
  store i32 %6, ptr %dst6.i, align 4
  %7 = getelementptr i8, ptr %scratch_base, i64 12
  %b.val.i = load i32, ptr %b.i, align 4
  %d.val.i = load i32, ptr %d.i, align 4
  %8 = select i1 %_0.i15.i, i32 %b.val.i, i32 %d.val.i
  store i32 %8, ptr %7, align 4
  %_9 = getelementptr inbounds nuw i8, ptr %v_base, i64 16
  %_10 = getelementptr i8, ptr %scratch_base, i64 16
  %_7.i1 = getelementptr inbounds nuw i8, ptr %v_base, i64 20
  tail call void @llvm.experimental.noalias.scope.decl(metadata !560)
  tail call void @llvm.experimental.noalias.scope.decl(metadata !563)
  tail call void @llvm.experimental.noalias.scope.decl(metadata !565)
  tail call void @llvm.experimental.noalias.scope.decl(metadata !568)
  tail call void @llvm.experimental.noalias.scope.decl(metadata !570)
  tail call void @llvm.experimental.noalias.scope.decl(metadata !573)
  %_3.i.i.i.i2 = load i32, ptr %_7.i1, align 4, !alias.scope !575, !noalias !576, !noundef !18
  %_4.i.i.i.i3 = load i32, ptr %_9, align 4, !alias.scope !576, !noalias !575, !noundef !18
  %_0.i.i4 = icmp slt i32 %_3.i.i.i.i2, %_4.i.i.i.i3
  %_12.i5 = getelementptr inbounds nuw i8, ptr %v_base, i64 28
  %_14.i6 = getelementptr inbounds nuw i8, ptr %v_base, i64 24
  tail call void @llvm.experimental.noalias.scope.decl(metadata !577)
  tail call void @llvm.experimental.noalias.scope.decl(metadata !580)
  tail call void @llvm.experimental.noalias.scope.decl(metadata !582)
  tail call void @llvm.experimental.noalias.scope.decl(metadata !585)
  tail call void @llvm.experimental.noalias.scope.decl(metadata !587)
  tail call void @llvm.experimental.noalias.scope.decl(metadata !590)
  %_3.i.i.i7.i7 = load i32, ptr %_12.i5, align 4, !alias.scope !592, !noalias !593, !noundef !18
  %_4.i.i.i8.i8 = load i32, ptr %_14.i6, align 4, !alias.scope !593, !noalias !592, !noundef !18
  %_0.i9.i9 = icmp slt i32 %_3.i.i.i7.i7, %_4.i.i.i8.i8
  %count.i10 = zext i1 %_0.i.i4 to i64
  %a.i11 = getelementptr inbounds nuw i32, ptr %_9, i64 %count.i10
  %_19.i12 = xor i1 %_0.i.i4, true
  %count2.i13 = zext i1 %_19.i12 to i64
  %b.i14 = getelementptr inbounds nuw i32, ptr %_9, i64 %count2.i13
  %count3.i15 = select i1 %_0.i9.i9, i64 3, i64 2
  %c.i16 = getelementptr inbounds nuw i32, ptr %_9, i64 %count3.i15
  %count4.i17 = select i1 %_0.i9.i9, i64 2, i64 3
  %d.i18 = getelementptr inbounds nuw i32, ptr %_9, i64 %count4.i17
  tail call void @llvm.experimental.noalias.scope.decl(metadata !594)
  tail call void @llvm.experimental.noalias.scope.decl(metadata !597)
  tail call void @llvm.experimental.noalias.scope.decl(metadata !599)
  tail call void @llvm.experimental.noalias.scope.decl(metadata !602)
  tail call void @llvm.experimental.noalias.scope.decl(metadata !604)
  tail call void @llvm.experimental.noalias.scope.decl(metadata !607)
  %_3.i.i.i10.i19 = load i32, ptr %c.i16, align 4, !alias.scope !609, !noalias !610, !noundef !18
  %_4.i.i.i11.i20 = load i32, ptr %a.i11, align 4, !alias.scope !610, !noalias !609, !noundef !18
  %_0.i12.i21 = icmp slt i32 %_3.i.i.i10.i19, %_4.i.i.i11.i20
  tail call void @llvm.experimental.noalias.scope.decl(metadata !611)
  tail call void @llvm.experimental.noalias.scope.decl(metadata !614)
  tail call void @llvm.experimental.noalias.scope.decl(metadata !616)
  tail call void @llvm.experimental.noalias.scope.decl(metadata !619)
  tail call void @llvm.experimental.noalias.scope.decl(metadata !621)
  tail call void @llvm.experimental.noalias.scope.decl(metadata !624)
  %_3.i.i.i13.i22 = load i32, ptr %d.i18, align 4, !alias.scope !626, !noalias !627, !noundef !18
  %_4.i.i.i14.i23 = load i32, ptr %b.i14, align 4, !alias.scope !627, !noalias !626, !noundef !18
  %_0.i15.i24 = icmp slt i32 %_3.i.i.i13.i22, %_4.i.i.i14.i23
  %9 = tail call i32 @llvm.smin.i32(i32 %_3.i.i.i10.i19, i32 %_4.i.i.i11.i20)
  %10 = select i1 %_0.i15.i24, ptr %c.i16, ptr %b.i14, !unpredictable !18
  %11 = select i1 %_0.i12.i21, ptr %a.i11, ptr %10, !unpredictable !18
  %12 = select i1 %_0.i12.i21, ptr %b.i14, ptr %c.i16, !unpredictable !18
  %13 = select i1 %_0.i15.i24, ptr %d.i18, ptr %12, !unpredictable !18
  tail call void @llvm.experimental.noalias.scope.decl(metadata !628)
  tail call void @llvm.experimental.noalias.scope.decl(metadata !631)
  tail call void @llvm.experimental.noalias.scope.decl(metadata !633)
  tail call void @llvm.experimental.noalias.scope.decl(metadata !636)
  tail call void @llvm.experimental.noalias.scope.decl(metadata !638)
  tail call void @llvm.experimental.noalias.scope.decl(metadata !641)
  %_3.i.i.i16.i25 = load i32, ptr %13, align 4, !alias.scope !643, !noalias !644, !noundef !18
  %_4.i.i.i17.i26 = load i32, ptr %11, align 4, !alias.scope !644, !noalias !643, !noundef !18
  %_0.i18.i27 = icmp slt i32 %_3.i.i.i16.i25, %_4.i.i.i17.i26
  store i32 %9, ptr %_10, align 4
  %dst5.i28 = getelementptr i8, ptr %scratch_base, i64 20
  %.val.i29 = load i32, ptr %13, align 4
  %.val19.i30 = load i32, ptr %11, align 4
  %14 = select i1 %_0.i18.i27, i32 %.val.i29, i32 %.val19.i30
  store i32 %14, ptr %dst5.i28, align 4
  %dst6.i31 = getelementptr i8, ptr %scratch_base, i64 24
  %.val20.i32 = load i32, ptr %11, align 4
  %.val21.i33 = load i32, ptr %13, align 4
  %15 = select i1 %_0.i18.i27, i32 %.val20.i32, i32 %.val21.i33
  store i32 %15, ptr %dst6.i31, align 4
  %16 = getelementptr i8, ptr %scratch_base, i64 28
  %b.val.i34 = load i32, ptr %b.i14, align 4
  %d.val.i35 = load i32, ptr %d.i18, align 4
  %17 = select i1 %_0.i15.i24, i32 %b.val.i34, i32 %d.val.i35
  store i32 %17, ptr %16, align 4
  tail call void @llvm.experimental.noalias.scope.decl(metadata !645)
  %18 = getelementptr inbounds nuw i8, ptr %dst, i64 28
  %_4.i.i.i.i37 = load i32, ptr %scratch_base, align 4, !alias.scope !648, !noalias !655, !noundef !18
  %_0.i.i38 = icmp slt i32 %9, %_4.i.i.i.i37
  %is_l.i18.i = xor i1 %_0.i.i38, true
  %19 = tail call i32 @llvm.smin.i32(i32 %9, i32 %_4.i.i.i.i37)
  store i32 %19, ptr %dst, align 4, !noalias !661
  %count.i.i = zext i1 %_0.i.i38 to i64
  %_12.i.i = getelementptr inbounds nuw i32, ptr %_10, i64 %count.i.i
  %count2.i.i = zext i1 %is_l.i18.i to i64
  %_14.i.i = getelementptr inbounds nuw i32, ptr %scratch_base, i64 %count2.i.i
  %_16.i.i = getelementptr inbounds nuw i8, ptr %dst, i64 4
  %_4.i.i.i20.i = load i32, ptr %7, align 4, !alias.scope !663, !noalias !670, !noundef !18
  %_0.i21.i = icmp slt i32 %17, %_4.i.i.i20.i
  %is_l.i.i = xor i1 %_0.i21.i, true
  %20 = tail call i32 @llvm.smax.i32(i32 %17, i32 %_4.i.i.i20.i)
  store i32 %20, ptr %18, align 4, !noalias !676
  %count.neg.i.i = sext i1 %is_l.i.i to i64
  %21 = getelementptr i32, ptr %16, i64 %count.neg.i.i
  %count3.neg.i.i = sext i1 %_0.i21.i to i64
  %22 = getelementptr i32, ptr %7, i64 %count3.neg.i.i
  %23 = getelementptr inbounds nuw i8, ptr %dst, i64 24
  tail call void @llvm.experimental.noalias.scope.decl(metadata !678)
  tail call void @llvm.experimental.noalias.scope.decl(metadata !680)
  tail call void @llvm.experimental.noalias.scope.decl(metadata !682), !noalias !684
  tail call void @llvm.experimental.noalias.scope.decl(metadata !685), !noalias !684
  tail call void @llvm.experimental.noalias.scope.decl(metadata !687), !noalias !684
  tail call void @llvm.experimental.noalias.scope.decl(metadata !689), !noalias !684
  %_3.i.i.i.i36.1 = load i32, ptr %_12.i.i, align 4, !alias.scope !691, !noalias !692, !noundef !18
  %_4.i.i.i.i37.1 = load i32, ptr %_14.i.i, align 4, !alias.scope !693, !noalias !694, !noundef !18
  %_0.i.i38.1 = icmp slt i32 %_3.i.i.i.i36.1, %_4.i.i.i.i37.1
  %is_l.i18.i.1 = xor i1 %_0.i.i38.1, true
  %24 = tail call i32 @llvm.smin.i32(i32 %_3.i.i.i.i36.1, i32 %_4.i.i.i.i37.1)
  store i32 %24, ptr %_16.i.i, align 4, !noalias !661
  %count.i.i.1 = zext i1 %_0.i.i38.1 to i64
  %_12.i.i.1 = getelementptr inbounds nuw i32, ptr %_12.i.i, i64 %count.i.i.1
  %count2.i.i.1 = zext i1 %is_l.i18.i.1 to i64
  %_14.i.i.1 = getelementptr inbounds nuw i32, ptr %_14.i.i, i64 %count2.i.i.1
  %_16.i.i.1 = getelementptr inbounds nuw i8, ptr %dst, i64 8
  tail call void @llvm.experimental.noalias.scope.decl(metadata !695)
  tail call void @llvm.experimental.noalias.scope.decl(metadata !697)
  tail call void @llvm.experimental.noalias.scope.decl(metadata !699), !noalias !701
  tail call void @llvm.experimental.noalias.scope.decl(metadata !702), !noalias !701
  tail call void @llvm.experimental.noalias.scope.decl(metadata !704), !noalias !701
  tail call void @llvm.experimental.noalias.scope.decl(metadata !706), !noalias !701
  %_3.i.i.i19.i.1 = load i32, ptr %21, align 4, !alias.scope !708, !noalias !709, !noundef !18
  %_4.i.i.i20.i.1 = load i32, ptr %22, align 4, !alias.scope !710, !noalias !711, !noundef !18
  %_0.i21.i.1 = icmp slt i32 %_3.i.i.i19.i.1, %_4.i.i.i20.i.1
  %is_l.i.i.1 = xor i1 %_0.i21.i.1, true
  %25 = tail call i32 @llvm.smax.i32(i32 %_3.i.i.i19.i.1, i32 %_4.i.i.i20.i.1)
  store i32 %25, ptr %23, align 4, !noalias !676
  %count.neg.i.i.1 = sext i1 %is_l.i.i.1 to i64
  %26 = getelementptr i32, ptr %21, i64 %count.neg.i.i.1
  %count3.neg.i.i.1 = sext i1 %_0.i21.i.1 to i64
  %27 = getelementptr i32, ptr %22, i64 %count3.neg.i.i.1
  %28 = getelementptr inbounds nuw i8, ptr %dst, i64 20
  tail call void @llvm.experimental.noalias.scope.decl(metadata !712)
  tail call void @llvm.experimental.noalias.scope.decl(metadata !714)
  tail call void @llvm.experimental.noalias.scope.decl(metadata !716), !noalias !684
  tail call void @llvm.experimental.noalias.scope.decl(metadata !718), !noalias !684
  tail call void @llvm.experimental.noalias.scope.decl(metadata !720), !noalias !684
  tail call void @llvm.experimental.noalias.scope.decl(metadata !722), !noalias !684
  %_3.i.i.i.i36.2 = load i32, ptr %_12.i.i.1, align 4, !alias.scope !724, !noalias !725, !noundef !18
  %_4.i.i.i.i37.2 = load i32, ptr %_14.i.i.1, align 4, !alias.scope !726, !noalias !727, !noundef !18
  %_0.i.i38.2 = icmp slt i32 %_3.i.i.i.i36.2, %_4.i.i.i.i37.2
  %is_l.i18.i.2 = xor i1 %_0.i.i38.2, true
  %29 = tail call i32 @llvm.smin.i32(i32 %_3.i.i.i.i36.2, i32 %_4.i.i.i.i37.2)
  store i32 %29, ptr %_16.i.i.1, align 4, !noalias !661
  %count.i.i.2 = zext i1 %_0.i.i38.2 to i64
  %_12.i.i.2 = getelementptr inbounds nuw i32, ptr %_12.i.i.1, i64 %count.i.i.2
  %count2.i.i.2 = zext i1 %is_l.i18.i.2 to i64
  %_14.i.i.2 = getelementptr inbounds nuw i32, ptr %_14.i.i.1, i64 %count2.i.i.2
  %_16.i.i.2 = getelementptr inbounds nuw i8, ptr %dst, i64 12
  tail call void @llvm.experimental.noalias.scope.decl(metadata !728)
  tail call void @llvm.experimental.noalias.scope.decl(metadata !730)
  tail call void @llvm.experimental.noalias.scope.decl(metadata !732), !noalias !701
  tail call void @llvm.experimental.noalias.scope.decl(metadata !734), !noalias !701
  tail call void @llvm.experimental.noalias.scope.decl(metadata !736), !noalias !701
  tail call void @llvm.experimental.noalias.scope.decl(metadata !738), !noalias !701
  %_3.i.i.i19.i.2 = load i32, ptr %26, align 4, !alias.scope !740, !noalias !741, !noundef !18
  %_4.i.i.i20.i.2 = load i32, ptr %27, align 4, !alias.scope !742, !noalias !743, !noundef !18
  %_0.i21.i.2 = icmp slt i32 %_3.i.i.i19.i.2, %_4.i.i.i20.i.2
  %is_l.i.i.2 = xor i1 %_0.i21.i.2, true
  %30 = tail call i32 @llvm.smax.i32(i32 %_3.i.i.i19.i.2, i32 %_4.i.i.i20.i.2)
  store i32 %30, ptr %28, align 4, !noalias !676
  %count.neg.i.i.2 = sext i1 %is_l.i.i.2 to i64
  %31 = getelementptr i32, ptr %26, i64 %count.neg.i.i.2
  %count3.neg.i.i.2 = sext i1 %_0.i21.i.2 to i64
  %32 = getelementptr i32, ptr %27, i64 %count3.neg.i.i.2
  %33 = getelementptr inbounds nuw i8, ptr %dst, i64 16
  tail call void @llvm.experimental.noalias.scope.decl(metadata !744)
  tail call void @llvm.experimental.noalias.scope.decl(metadata !746)
  tail call void @llvm.experimental.noalias.scope.decl(metadata !748), !noalias !684
  tail call void @llvm.experimental.noalias.scope.decl(metadata !750), !noalias !684
  tail call void @llvm.experimental.noalias.scope.decl(metadata !752), !noalias !684
  tail call void @llvm.experimental.noalias.scope.decl(metadata !754), !noalias !684
  %_3.i.i.i.i36.3 = load i32, ptr %_12.i.i.2, align 4, !alias.scope !756, !noalias !757, !noundef !18
  %_4.i.i.i.i37.3 = load i32, ptr %_14.i.i.2, align 4, !alias.scope !758, !noalias !759, !noundef !18
  %_0.i.i38.3 = icmp slt i32 %_3.i.i.i.i36.3, %_4.i.i.i.i37.3
  %is_l.i18.i.3 = xor i1 %_0.i.i38.3, true
  %34 = tail call i32 @llvm.smin.i32(i32 %_3.i.i.i.i36.3, i32 %_4.i.i.i.i37.3)
  store i32 %34, ptr %_16.i.i.2, align 4, !noalias !661
  %count.i.i.3 = zext i1 %_0.i.i38.3 to i64
  %_12.i.i.3 = getelementptr inbounds nuw i32, ptr %_12.i.i.2, i64 %count.i.i.3
  %count2.i.i.3 = zext i1 %is_l.i18.i.3 to i64
  %_14.i.i.3 = getelementptr inbounds nuw i32, ptr %_14.i.i.2, i64 %count2.i.i.3
  tail call void @llvm.experimental.noalias.scope.decl(metadata !760)
  tail call void @llvm.experimental.noalias.scope.decl(metadata !762)
  tail call void @llvm.experimental.noalias.scope.decl(metadata !764), !noalias !701
  tail call void @llvm.experimental.noalias.scope.decl(metadata !766), !noalias !701
  tail call void @llvm.experimental.noalias.scope.decl(metadata !768), !noalias !701
  tail call void @llvm.experimental.noalias.scope.decl(metadata !770), !noalias !701
  %_3.i.i.i19.i.3 = load i32, ptr %31, align 4, !alias.scope !772, !noalias !773, !noundef !18
  %_4.i.i.i20.i.3 = load i32, ptr %32, align 4, !alias.scope !774, !noalias !775, !noundef !18
  %_0.i21.i.3 = icmp slt i32 %_3.i.i.i19.i.3, %_4.i.i.i20.i.3
  %is_l.i.i.3 = xor i1 %_0.i21.i.3, true
  %35 = tail call i32 @llvm.smax.i32(i32 %_3.i.i.i19.i.3, i32 %_4.i.i.i20.i.3)
  store i32 %35, ptr %33, align 4, !noalias !676
  %count.neg.i.i.3 = sext i1 %is_l.i.i.3 to i64
  %36 = getelementptr i32, ptr %31, i64 %count.neg.i.i.3
  %count3.neg.i.i.3 = sext i1 %_0.i21.i.3 to i64
  %37 = getelementptr i32, ptr %32, i64 %count3.neg.i.i.3
  %38 = getelementptr i8, ptr %37, i64 4
  %39 = getelementptr i8, ptr %36, i64 4
  %_31.i = icmp ne ptr %_14.i.i.3, %38
  %_32.i = icmp ne ptr %_12.i.i.3, %39
  %or.cond.i = select i1 %_31.i, i1 true, i1 %_32.i
  br i1 %or.cond.i, label %bb13.i, label %_ZN4core5slice4sort6shared9smallsort19bidirectional_merge17h88e3c5d50b4d1a5aE.exit, !prof !357

bb13.i:                                           ; preds = %start
; call core::slice::sort::shared::smallsort::panic_on_ord_violation
  tail call void @_ZN4core5slice4sort6shared9smallsort22panic_on_ord_violation17hc77a22a2d50782cdE() #18, !noalias !645
  unreachable

_ZN4core5slice4sort6shared9smallsort19bidirectional_merge17h88e3c5d50b4d1a5aE.exit: ; preds = %start
  ret void
}

; core::slice::sort::shared::smallsort::insertion_sort_shift_left
; Function Attrs: nonlazybind uwtable
define internal fastcc void @_ZN4core5slice4sort6shared9smallsort25insertion_sort_shift_left17h34510fd470fc988eE(ptr noalias noundef nonnull align 4 captures(address) %v.0, i64 noundef range(i64 2, 21) %v.1) unnamed_addr #0 personality ptr @rust_eh_personality {
bb5.preheader:
  %v_end.idx = shl nuw nsw i64 %v.1, 2
  %v_end = getelementptr inbounds nuw i8, ptr %v.0, i64 %v_end.idx
  %tail.sroa.0.03 = getelementptr inbounds nuw i8, ptr %v.0, i64 4
  br label %bb5

bb7:                                              ; preds = %_ZN4core5slice4sort6shared9smallsort11insert_tail17ha468f4743064a81cE.exit
  ret void

bb5:                                              ; preds = %bb5.preheader, %_ZN4core5slice4sort6shared9smallsort11insert_tail17ha468f4743064a81cE.exit
  %tail.sroa.0.06 = phi ptr [ %tail.sroa.0.0, %_ZN4core5slice4sort6shared9smallsort11insert_tail17ha468f4743064a81cE.exit ], [ %tail.sroa.0.03, %bb5.preheader ]
  %v.0.pn5 = phi ptr [ %tail.sroa.0.06, %_ZN4core5slice4sort6shared9smallsort11insert_tail17ha468f4743064a81cE.exit ], [ %v.0, %bb5.preheader ]
  tail call void @llvm.experimental.noalias.scope.decl(metadata !776)
  tail call void @llvm.experimental.noalias.scope.decl(metadata !779)
  tail call void @llvm.experimental.noalias.scope.decl(metadata !781)
  tail call void @llvm.experimental.noalias.scope.decl(metadata !784)
  %_6.i.i.i = load float, ptr %tail.sroa.0.06, align 4, !alias.scope !786, !noalias !787, !noundef !18
  %_7.i.i.i = load float, ptr %v.0.pn5, align 4, !alias.scope !787, !noalias !786, !noundef !18
  %brmerge.not.i.i = fcmp uno float %_6.i.i.i, %_7.i.i.i
  br i1 %brmerge.not.i.i, label %bb6.i.i.i, label %"_ZN5alloc5slice29_$LT$impl$u20$$u5b$T$u5d$$GT$7sort_by28_$u7b$$u7b$closure$u7d$$u7d$17hfaa75802b1959b0aE.exit.i", !prof !21

bb6.i.i.i:                                        ; preds = %bb5
; call core::option::unwrap_failed
  tail call void @_ZN4core6option13unwrap_failed17hef2534b77b89c04fE(ptr noalias noundef readonly align 8 captures(address, read_provenance) dereferenceable(24) @alloc_4a4e7fec44b84c1472b04d0c86f3e1b7) #18, !noalias !788
  unreachable

"_ZN5alloc5slice29_$LT$impl$u20$$u5b$T$u5d$$GT$7sort_by28_$u7b$$u7b$closure$u7d$$u7d$17hfaa75802b1959b0aE.exit.i": ; preds = %bb5
  %_8.i.mux.i.i = fcmp olt float %_6.i.i.i, %_7.i.i.i
  br i1 %_8.i.mux.i.i, label %bb4.i, label %_ZN4core5slice4sort6shared9smallsort11insert_tail17ha468f4743064a81cE.exit

bb4.i:                                            ; preds = %"_ZN5alloc5slice29_$LT$impl$u20$$u5b$T$u5d$$GT$7sort_by28_$u7b$$u7b$closure$u7d$$u7d$17hfaa75802b1959b0aE.exit.i", %bb7.i
  %.in.i = phi float [ %_7.i.i2.i, %bb7.i ], [ %_7.i.i.i, %"_ZN5alloc5slice29_$LT$impl$u20$$u5b$T$u5d$$GT$7sort_by28_$u7b$$u7b$closure$u7d$$u7d$17hfaa75802b1959b0aE.exit.i" ]
  %gap_guard.sroa.5.0.i = phi ptr [ %sift.sroa.0.0.i, %bb7.i ], [ %tail.sroa.0.06, %"_ZN5alloc5slice29_$LT$impl$u20$$u5b$T$u5d$$GT$7sort_by28_$u7b$$u7b$closure$u7d$$u7d$17hfaa75802b1959b0aE.exit.i" ]
  %sift.sroa.0.0.i = phi ptr [ %0, %bb7.i ], [ %v.0.pn5, %"_ZN5alloc5slice29_$LT$impl$u20$$u5b$T$u5d$$GT$7sort_by28_$u7b$$u7b$closure$u7d$$u7d$17hfaa75802b1959b0aE.exit.i" ]
  store float %.in.i, ptr %gap_guard.sroa.5.0.i, align 4
  %_18.i = icmp eq ptr %sift.sroa.0.0.i, %v.0
  br i1 %_18.i, label %bb10.i, label %bb6.i

bb6.i:                                            ; preds = %bb4.i
  %0 = getelementptr inbounds i8, ptr %sift.sroa.0.0.i, i64 -4
  %_7.i.i2.i = load float, ptr %0, align 4, !alias.scope !789, !noalias !794, !noundef !18
  %brmerge.not.i3.i = fcmp uno float %_6.i.i.i, %_7.i.i2.i
  br i1 %brmerge.not.i3.i, label %bb6.i.i5.i, label %bb7.i, !prof !21

bb6.i.i5.i:                                       ; preds = %bb6.i
; invoke core::option::unwrap_failed
  invoke void @_ZN4core6option13unwrap_failed17hef2534b77b89c04fE(ptr noalias noundef readonly align 8 captures(address, read_provenance) dereferenceable(24) @alloc_4a4e7fec44b84c1472b04d0c86f3e1b7) #18
          to label %.noexc.i unwind label %bb14.i

.noexc.i:                                         ; preds = %bb6.i.i5.i
  unreachable

bb7.i:                                            ; preds = %bb6.i
  %_8.i.mux.i4.i = fcmp olt float %_6.i.i.i, %_7.i.i2.i
  br i1 %_8.i.mux.i4.i, label %bb4.i, label %bb10.i

bb10.i:                                           ; preds = %bb7.i, %bb4.i
  %sift.sroa.0.0.i.lcssa = phi ptr [ %sift.sroa.0.0.i, %bb7.i ], [ %v.0, %bb4.i ]
  store float %_6.i.i.i, ptr %sift.sroa.0.0.i.lcssa, align 4, !noalias !797
  br label %_ZN4core5slice4sort6shared9smallsort11insert_tail17ha468f4743064a81cE.exit

bb14.i:                                           ; preds = %bb6.i.i5.i
  %1 = landingpad { ptr, i32 }
          cleanup
  store float %_6.i.i.i, ptr %sift.sroa.0.0.i, align 4, !noalias !802
  resume { ptr, i32 } %1

_ZN4core5slice4sort6shared9smallsort11insert_tail17ha468f4743064a81cE.exit: ; preds = %"_ZN5alloc5slice29_$LT$impl$u20$$u5b$T$u5d$$GT$7sort_by28_$u7b$$u7b$closure$u7d$$u7d$17hfaa75802b1959b0aE.exit.i", %bb10.i
  %tail.sroa.0.0 = getelementptr inbounds nuw i8, ptr %tail.sroa.0.06, i64 4
  %_11.not = icmp eq ptr %tail.sroa.0.0, %v_end
  br i1 %_11.not, label %bb7, label %bb5
}

; core::slice::sort::shared::smallsort::insertion_sort_shift_left
; Function Attrs: nonlazybind uwtable
define internal fastcc void @_ZN4core5slice4sort6shared9smallsort25insertion_sort_shift_left17h8c39bce6e1229ee3E(ptr noalias noundef nonnull align 4 captures(address) %v.0, i64 noundef range(i64 2, 21) %v.1) unnamed_addr #0 personality ptr @rust_eh_personality {
bb5.preheader:
  %v_end.idx = shl nuw nsw i64 %v.1, 2
  %v_end = getelementptr inbounds nuw i8, ptr %v.0, i64 %v_end.idx
  %tail.sroa.0.03 = getelementptr inbounds nuw i8, ptr %v.0, i64 4
  br label %bb5

bb7:                                              ; preds = %_ZN4core5slice4sort6shared9smallsort11insert_tail17he511fa7eb43a47edE.exit
  ret void

bb5:                                              ; preds = %bb5.preheader, %_ZN4core5slice4sort6shared9smallsort11insert_tail17he511fa7eb43a47edE.exit
  %tail.sroa.0.06 = phi ptr [ %tail.sroa.0.0, %_ZN4core5slice4sort6shared9smallsort11insert_tail17he511fa7eb43a47edE.exit ], [ %tail.sroa.0.03, %bb5.preheader ]
  %v.0.pn5 = phi ptr [ %tail.sroa.0.06, %_ZN4core5slice4sort6shared9smallsort11insert_tail17he511fa7eb43a47edE.exit ], [ %v.0, %bb5.preheader ]
  tail call void @llvm.experimental.noalias.scope.decl(metadata !807)
  tail call void @llvm.experimental.noalias.scope.decl(metadata !810)
  tail call void @llvm.experimental.noalias.scope.decl(metadata !812)
  tail call void @llvm.experimental.noalias.scope.decl(metadata !815)
  %_6.i.i.i = load float, ptr %tail.sroa.0.06, align 4, !alias.scope !817, !noalias !818, !noundef !18
  %_7.i.i.i = load float, ptr %v.0.pn5, align 4, !alias.scope !818, !noalias !817, !noundef !18
  %brmerge.not.i.i = fcmp uno float %_6.i.i.i, %_7.i.i.i
  br i1 %brmerge.not.i.i, label %bb6.i.i.i, label %"_ZN5alloc5slice29_$LT$impl$u20$$u5b$T$u5d$$GT$7sort_by28_$u7b$$u7b$closure$u7d$$u7d$17hf5b8f37855ac0c3dE.exit.i", !prof !21

bb6.i.i.i:                                        ; preds = %bb5
; call core::option::unwrap_failed
  tail call void @_ZN4core6option13unwrap_failed17hef2534b77b89c04fE(ptr noalias noundef readonly align 8 captures(address, read_provenance) dereferenceable(24) @alloc_b0e33ba48ef5fa15e44a55a18226b5ac) #18, !noalias !819
  unreachable

"_ZN5alloc5slice29_$LT$impl$u20$$u5b$T$u5d$$GT$7sort_by28_$u7b$$u7b$closure$u7d$$u7d$17hf5b8f37855ac0c3dE.exit.i": ; preds = %bb5
  %_8.i.mux.i.i = fcmp olt float %_6.i.i.i, %_7.i.i.i
  br i1 %_8.i.mux.i.i, label %bb4.i, label %_ZN4core5slice4sort6shared9smallsort11insert_tail17he511fa7eb43a47edE.exit

bb4.i:                                            ; preds = %"_ZN5alloc5slice29_$LT$impl$u20$$u5b$T$u5d$$GT$7sort_by28_$u7b$$u7b$closure$u7d$$u7d$17hf5b8f37855ac0c3dE.exit.i", %bb7.i
  %.in.i = phi float [ %_7.i.i2.i, %bb7.i ], [ %_7.i.i.i, %"_ZN5alloc5slice29_$LT$impl$u20$$u5b$T$u5d$$GT$7sort_by28_$u7b$$u7b$closure$u7d$$u7d$17hf5b8f37855ac0c3dE.exit.i" ]
  %gap_guard.sroa.5.0.i = phi ptr [ %sift.sroa.0.0.i, %bb7.i ], [ %tail.sroa.0.06, %"_ZN5alloc5slice29_$LT$impl$u20$$u5b$T$u5d$$GT$7sort_by28_$u7b$$u7b$closure$u7d$$u7d$17hf5b8f37855ac0c3dE.exit.i" ]
  %sift.sroa.0.0.i = phi ptr [ %0, %bb7.i ], [ %v.0.pn5, %"_ZN5alloc5slice29_$LT$impl$u20$$u5b$T$u5d$$GT$7sort_by28_$u7b$$u7b$closure$u7d$$u7d$17hf5b8f37855ac0c3dE.exit.i" ]
  store float %.in.i, ptr %gap_guard.sroa.5.0.i, align 4
  %_18.i = icmp eq ptr %sift.sroa.0.0.i, %v.0
  br i1 %_18.i, label %bb10.i, label %bb6.i

bb6.i:                                            ; preds = %bb4.i
  %0 = getelementptr inbounds i8, ptr %sift.sroa.0.0.i, i64 -4
  %_7.i.i2.i = load float, ptr %0, align 4, !alias.scope !820, !noalias !825, !noundef !18
  %brmerge.not.i3.i = fcmp uno float %_6.i.i.i, %_7.i.i2.i
  br i1 %brmerge.not.i3.i, label %bb6.i.i5.i, label %bb7.i, !prof !21

bb6.i.i5.i:                                       ; preds = %bb6.i
; invoke core::option::unwrap_failed
  invoke void @_ZN4core6option13unwrap_failed17hef2534b77b89c04fE(ptr noalias noundef readonly align 8 captures(address, read_provenance) dereferenceable(24) @alloc_b0e33ba48ef5fa15e44a55a18226b5ac) #18
          to label %.noexc.i unwind label %bb14.i

.noexc.i:                                         ; preds = %bb6.i.i5.i
  unreachable

bb7.i:                                            ; preds = %bb6.i
  %_8.i.mux.i4.i = fcmp olt float %_6.i.i.i, %_7.i.i2.i
  br i1 %_8.i.mux.i4.i, label %bb4.i, label %bb10.i

bb10.i:                                           ; preds = %bb7.i, %bb4.i
  %sift.sroa.0.0.i.lcssa = phi ptr [ %sift.sroa.0.0.i, %bb7.i ], [ %v.0, %bb4.i ]
  store float %_6.i.i.i, ptr %sift.sroa.0.0.i.lcssa, align 4, !noalias !828
  br label %_ZN4core5slice4sort6shared9smallsort11insert_tail17he511fa7eb43a47edE.exit

bb14.i:                                           ; preds = %bb6.i.i5.i
  %1 = landingpad { ptr, i32 }
          cleanup
  store float %_6.i.i.i, ptr %sift.sroa.0.0.i, align 4, !noalias !833
  resume { ptr, i32 } %1

_ZN4core5slice4sort6shared9smallsort11insert_tail17he511fa7eb43a47edE.exit: ; preds = %"_ZN5alloc5slice29_$LT$impl$u20$$u5b$T$u5d$$GT$7sort_by28_$u7b$$u7b$closure$u7d$$u7d$17hf5b8f37855ac0c3dE.exit.i", %bb10.i
  %tail.sroa.0.0 = getelementptr inbounds nuw i8, ptr %tail.sroa.0.06, i64 4
  %_11.not = icmp eq ptr %tail.sroa.0.0, %v_end
  br i1 %_11.not, label %bb7, label %bb5
}

; core::slice::sort::stable::driftsort_main
; Function Attrs: noinline nonlazybind uwtable
define void @_ZN4core5slice4sort6stable14driftsort_main17h0c6f5cb65c6269aaE(ptr noalias noundef nonnull align 4 %v.0, i64 noundef range(i64 0, 2305843009213693952) %v.1, ptr noalias noundef align 8 dereferenceable(8) %is_less) unnamed_addr #2 personality ptr @rust_eh_personality {
start:
  %stack_buf = alloca [4096 x i8], align 4
  %_105 = lshr i64 %v.1, 1
  %v1 = sub nsw i64 %v.1, %_105
  %_0.sroa.0.0.i = tail call noundef i64 @llvm.umin.i64(i64 %v.1, i64 2000000)
  %_0.sroa.0.0.i6 = tail call noundef i64 @llvm.umax.i64(i64 %_0.sroa.0.0.i, i64 %v1)
  %_0.sroa.0.0.i7 = tail call noundef i64 @llvm.umax.i64(i64 %_0.sroa.0.0.i6, i64 48)
  call void @llvm.lifetime.start.p0(i64 4096, ptr nonnull %stack_buf)
  %_15 = icmp ugt i64 %_0.sroa.0.0.i6, 1024
  br i1 %_15, label %bb4, label %bb8

bb4:                                              ; preds = %start
  %_21.0.i.i.i.i = shl i64 %_0.sroa.0.0.i7, 2
  %_21.1.i.i.i.i = icmp ugt i64 %v1, 4611686018427387903
  %_26.i.i.i.i = icmp ugt i64 %_21.0.i.i.i.i, 9223372036854775804
  %or.cond.i.i.i.i = or i1 %_21.1.i.i.i.i, %_26.i.i.i.i
  br i1 %or.cond.i.i.i.i, label %bb3.i.i, label %bb5.i.i.i, !prof !838

bb5.i.i.i:                                        ; preds = %bb4
; call __rustc::__rust_no_alloc_shim_is_unstable_v2
  tail call void @_RNvCsdBezzDwma51_7___rustc35___rust_no_alloc_shim_is_unstable_v2() #19, !noalias !839
; call __rustc::__rust_alloc
  %0 = tail call noundef align 4 ptr @_RNvCsdBezzDwma51_7___rustc12___rust_alloc(i64 noundef range(i64 1, 0) %_21.0.i.i.i.i, i64 noundef range(i64 1, -9223372036854775807) 4) #19, !noalias !839
  %1 = icmp eq ptr %0, null
  br i1 %1, label %bb3.i.i, label %bb8

bb3.i.i:                                          ; preds = %bb5.i.i.i, %bb4
  %_4.sroa.4.0.ph.i.i = phi i64 [ 4, %bb5.i.i.i ], [ 0, %bb4 ]
; call alloc::raw_vec::handle_error
  tail call void @_ZN5alloc7raw_vec12handle_error17h3a8c375904e593b2E(i64 noundef %_4.sroa.4.0.ph.i.i, i64 %_21.0.i.i.i.i) #20
  unreachable

cleanup:                                          ; preds = %bb8
  %2 = landingpad { ptr, i32 }
          cleanup
  br i1 %_15, label %bb2.i.i.i3.i10, label %bb11

bb8:                                              ; preds = %bb5.i.i.i, %start
  %heap_buf.sroa.6.1 = phi ptr [ undef, %start ], [ %0, %bb5.i.i.i ]
  %stack_scratch.sroa.4.0 = phi i64 [ 1024, %start ], [ %_0.sroa.0.0.i7, %bb5.i.i.i ]
  %stack_buf.pn = phi ptr [ %stack_buf, %start ], [ %0, %bb5.i.i.i ]
  %eager_sort = icmp samesign ult i64 %v.1, 65
; invoke core::slice::sort::stable::drift::sort
  invoke fastcc void @_ZN4core5slice4sort6stable5drift4sort17h077ef0bcbe90118aE(ptr noalias noundef nonnull align 4 %v.0, i64 noundef %v.1, ptr noalias noundef nonnull align 4 %stack_buf.pn, i64 noundef %stack_scratch.sroa.4.0, i1 noundef zeroext %eager_sort, ptr noalias noundef align 8 dereferenceable(8) %is_less)
          to label %bb9 unwind label %cleanup

bb9:                                              ; preds = %bb8
  br i1 %_15, label %bb2.i.i.i3.i, label %bb10

bb10:                                             ; preds = %bb2.i.i.i3.i, %bb9
  call void @llvm.lifetime.end.p0(i64 4096, ptr nonnull %stack_buf)
  ret void

bb2.i.i.i3.i:                                     ; preds = %bb9
  %3 = shl nuw i64 %_0.sroa.0.0.i7, 2
  %4 = icmp ne ptr %heap_buf.sroa.6.1, null
  call void @llvm.assume(i1 %4)
; call __rustc::__rust_dealloc
  call void @_RNvCsdBezzDwma51_7___rustc14___rust_dealloc(ptr noundef nonnull %heap_buf.sroa.6.1, i64 noundef %3, i64 noundef range(i64 1, -9223372036854775807) 4) #19, !noalias !844
  br label %bb10

bb11:                                             ; preds = %bb2.i.i.i3.i10, %cleanup
  resume { ptr, i32 } %2

bb2.i.i.i3.i10:                                   ; preds = %cleanup
  %5 = shl nuw i64 %_0.sroa.0.0.i7, 2
  %6 = icmp ne ptr %heap_buf.sroa.6.1, null
  call void @llvm.assume(i1 %6)
; call __rustc::__rust_dealloc
  call void @_RNvCsdBezzDwma51_7___rustc14___rust_dealloc(ptr noundef nonnull %heap_buf.sroa.6.1, i64 noundef %5, i64 noundef range(i64 1, -9223372036854775807) 4) #19, !noalias !853
  br label %bb11
}

; core::slice::sort::stable::driftsort_main
; Function Attrs: noinline nonlazybind uwtable
define void @_ZN4core5slice4sort6stable14driftsort_main17h54296ad700b061c7E(ptr noalias noundef nonnull align 4 %v.0, i64 noundef range(i64 0, 2305843009213693952) %v.1, ptr noalias noundef align 8 dereferenceable(8) %is_less) unnamed_addr #2 personality ptr @rust_eh_personality {
start:
  %stack_buf = alloca [4096 x i8], align 4
  %_105 = lshr i64 %v.1, 1
  %v1 = sub nsw i64 %v.1, %_105
  %_0.sroa.0.0.i = tail call noundef i64 @llvm.umin.i64(i64 %v.1, i64 2000000)
  %_0.sroa.0.0.i6 = tail call noundef i64 @llvm.umax.i64(i64 %_0.sroa.0.0.i, i64 %v1)
  %_0.sroa.0.0.i7 = tail call noundef i64 @llvm.umax.i64(i64 %_0.sroa.0.0.i6, i64 48)
  call void @llvm.lifetime.start.p0(i64 4096, ptr nonnull %stack_buf)
  %_15 = icmp ugt i64 %_0.sroa.0.0.i6, 1024
  br i1 %_15, label %bb4, label %bb8

bb4:                                              ; preds = %start
  %_21.0.i.i.i.i = shl i64 %_0.sroa.0.0.i7, 2
  %_21.1.i.i.i.i = icmp ugt i64 %v1, 4611686018427387903
  %_26.i.i.i.i = icmp ugt i64 %_21.0.i.i.i.i, 9223372036854775804
  %or.cond.i.i.i.i = or i1 %_21.1.i.i.i.i, %_26.i.i.i.i
  br i1 %or.cond.i.i.i.i, label %bb3.i.i, label %bb5.i.i.i, !prof !838

bb5.i.i.i:                                        ; preds = %bb4
; call __rustc::__rust_no_alloc_shim_is_unstable_v2
  tail call void @_RNvCsdBezzDwma51_7___rustc35___rust_no_alloc_shim_is_unstable_v2() #19, !noalias !862
; call __rustc::__rust_alloc
  %0 = tail call noundef align 4 ptr @_RNvCsdBezzDwma51_7___rustc12___rust_alloc(i64 noundef range(i64 1, 0) %_21.0.i.i.i.i, i64 noundef range(i64 1, -9223372036854775807) 4) #19, !noalias !862
  %1 = icmp eq ptr %0, null
  br i1 %1, label %bb3.i.i, label %bb8

bb3.i.i:                                          ; preds = %bb5.i.i.i, %bb4
  %_4.sroa.4.0.ph.i.i = phi i64 [ 4, %bb5.i.i.i ], [ 0, %bb4 ]
; call alloc::raw_vec::handle_error
  tail call void @_ZN5alloc7raw_vec12handle_error17h3a8c375904e593b2E(i64 noundef %_4.sroa.4.0.ph.i.i, i64 %_21.0.i.i.i.i) #20
  unreachable

cleanup:                                          ; preds = %bb8
  %2 = landingpad { ptr, i32 }
          cleanup
  br i1 %_15, label %bb2.i.i.i3.i10, label %bb11

bb8:                                              ; preds = %bb5.i.i.i, %start
  %heap_buf.sroa.6.1 = phi ptr [ undef, %start ], [ %0, %bb5.i.i.i ]
  %stack_scratch.sroa.4.0 = phi i64 [ 1024, %start ], [ %_0.sroa.0.0.i7, %bb5.i.i.i ]
  %stack_buf.pn = phi ptr [ %stack_buf, %start ], [ %0, %bb5.i.i.i ]
  %eager_sort = icmp samesign ult i64 %v.1, 65
; invoke core::slice::sort::stable::drift::sort
  invoke fastcc void @_ZN4core5slice4sort6stable5drift4sort17hf2c114673cd91d61E(ptr noalias noundef nonnull align 4 %v.0, i64 noundef %v.1, ptr noalias noundef nonnull align 4 %stack_buf.pn, i64 noundef %stack_scratch.sroa.4.0, i1 noundef zeroext %eager_sort, ptr noalias noundef align 8 dereferenceable(8) %is_less)
          to label %bb9 unwind label %cleanup

bb9:                                              ; preds = %bb8
  br i1 %_15, label %bb2.i.i.i3.i, label %bb10

bb10:                                             ; preds = %bb2.i.i.i3.i, %bb9
  call void @llvm.lifetime.end.p0(i64 4096, ptr nonnull %stack_buf)
  ret void

bb2.i.i.i3.i:                                     ; preds = %bb9
  %3 = shl nuw i64 %_0.sroa.0.0.i7, 2
  %4 = icmp ne ptr %heap_buf.sroa.6.1, null
  call void @llvm.assume(i1 %4)
; call __rustc::__rust_dealloc
  call void @_RNvCsdBezzDwma51_7___rustc14___rust_dealloc(ptr noundef nonnull %heap_buf.sroa.6.1, i64 noundef %3, i64 noundef range(i64 1, -9223372036854775807) 4) #19, !noalias !867
  br label %bb10

bb11:                                             ; preds = %bb2.i.i.i3.i10, %cleanup
  resume { ptr, i32 } %2

bb2.i.i.i3.i10:                                   ; preds = %cleanup
  %5 = shl nuw i64 %_0.sroa.0.0.i7, 2
  %6 = icmp ne ptr %heap_buf.sroa.6.1, null
  call void @llvm.assume(i1 %6)
; call __rustc::__rust_dealloc
  call void @_RNvCsdBezzDwma51_7___rustc14___rust_dealloc(ptr noundef nonnull %heap_buf.sroa.6.1, i64 noundef %5, i64 noundef range(i64 1, -9223372036854775807) 4) #19, !noalias !876
  br label %bb11
}

; core::slice::sort::stable::driftsort_main
; Function Attrs: noinline nonlazybind uwtable
define void @_ZN4core5slice4sort6stable14driftsort_main17hcb049b11f4721df8E(ptr noalias noundef nonnull align 4 %v.0, i64 noundef range(i64 0, 2305843009213693952) %v.1, ptr noalias noundef align 8 dereferenceable(8) %is_less) unnamed_addr #2 personality ptr @rust_eh_personality {
start:
  %stack_buf = alloca [4096 x i8], align 4
  %_105 = lshr i64 %v.1, 1
  %v1 = sub nsw i64 %v.1, %_105
  %_0.sroa.0.0.i = tail call noundef i64 @llvm.umin.i64(i64 %v.1, i64 2000000)
  %_0.sroa.0.0.i6 = tail call noundef i64 @llvm.umax.i64(i64 %_0.sroa.0.0.i, i64 %v1)
  %_0.sroa.0.0.i7 = tail call noundef i64 @llvm.umax.i64(i64 %_0.sroa.0.0.i6, i64 48)
  call void @llvm.lifetime.start.p0(i64 4096, ptr nonnull %stack_buf)
  %_15 = icmp ugt i64 %_0.sroa.0.0.i6, 1024
  br i1 %_15, label %bb4, label %bb8

bb4:                                              ; preds = %start
  %_21.0.i.i.i.i = shl i64 %_0.sroa.0.0.i7, 2
  %_21.1.i.i.i.i = icmp ugt i64 %v1, 4611686018427387903
  %_26.i.i.i.i = icmp ugt i64 %_21.0.i.i.i.i, 9223372036854775804
  %or.cond.i.i.i.i = or i1 %_21.1.i.i.i.i, %_26.i.i.i.i
  br i1 %or.cond.i.i.i.i, label %bb3.i.i, label %bb5.i.i.i, !prof !838

bb5.i.i.i:                                        ; preds = %bb4
; call __rustc::__rust_no_alloc_shim_is_unstable_v2
  tail call void @_RNvCsdBezzDwma51_7___rustc35___rust_no_alloc_shim_is_unstable_v2() #19, !noalias !885
; call __rustc::__rust_alloc
  %0 = tail call noundef align 4 ptr @_RNvCsdBezzDwma51_7___rustc12___rust_alloc(i64 noundef range(i64 1, 0) %_21.0.i.i.i.i, i64 noundef range(i64 1, -9223372036854775807) 4) #19, !noalias !885
  %1 = icmp eq ptr %0, null
  br i1 %1, label %bb3.i.i, label %bb8

bb3.i.i:                                          ; preds = %bb5.i.i.i, %bb4
  %_4.sroa.4.0.ph.i.i = phi i64 [ 4, %bb5.i.i.i ], [ 0, %bb4 ]
; call alloc::raw_vec::handle_error
  tail call void @_ZN5alloc7raw_vec12handle_error17h3a8c375904e593b2E(i64 noundef %_4.sroa.4.0.ph.i.i, i64 %_21.0.i.i.i.i) #20
  unreachable

cleanup:                                          ; preds = %bb8
  %2 = landingpad { ptr, i32 }
          cleanup
  br i1 %_15, label %bb2.i.i.i3.i10, label %bb11

bb8:                                              ; preds = %bb5.i.i.i, %start
  %heap_buf.sroa.6.1 = phi ptr [ undef, %start ], [ %0, %bb5.i.i.i ]
  %stack_scratch.sroa.4.0 = phi i64 [ 1024, %start ], [ %_0.sroa.0.0.i7, %bb5.i.i.i ]
  %stack_buf.pn = phi ptr [ %stack_buf, %start ], [ %0, %bb5.i.i.i ]
  %eager_sort = icmp samesign ult i64 %v.1, 65
; invoke core::slice::sort::stable::drift::sort
  invoke fastcc void @_ZN4core5slice4sort6stable5drift4sort17h4e9143ba5e79da94E(ptr noalias noundef nonnull align 4 %v.0, i64 noundef %v.1, ptr noalias noundef nonnull align 4 %stack_buf.pn, i64 noundef %stack_scratch.sroa.4.0, i1 noundef zeroext %eager_sort, ptr noalias noundef align 8 dereferenceable(8) %is_less)
          to label %bb9 unwind label %cleanup

bb9:                                              ; preds = %bb8
  br i1 %_15, label %bb2.i.i.i3.i, label %bb10

bb10:                                             ; preds = %bb2.i.i.i3.i, %bb9
  call void @llvm.lifetime.end.p0(i64 4096, ptr nonnull %stack_buf)
  ret void

bb2.i.i.i3.i:                                     ; preds = %bb9
  %3 = shl nuw i64 %_0.sroa.0.0.i7, 2
  %4 = icmp ne ptr %heap_buf.sroa.6.1, null
  call void @llvm.assume(i1 %4)
; call __rustc::__rust_dealloc
  call void @_RNvCsdBezzDwma51_7___rustc14___rust_dealloc(ptr noundef nonnull %heap_buf.sroa.6.1, i64 noundef %3, i64 noundef range(i64 1, -9223372036854775807) 4) #19, !noalias !890
  br label %bb10

bb11:                                             ; preds = %bb2.i.i.i3.i10, %cleanup
  resume { ptr, i32 } %2

bb2.i.i.i3.i10:                                   ; preds = %cleanup
  %5 = shl nuw i64 %_0.sroa.0.0.i7, 2
  %6 = icmp ne ptr %heap_buf.sroa.6.1, null
  call void @llvm.assume(i1 %6)
; call __rustc::__rust_dealloc
  call void @_RNvCsdBezzDwma51_7___rustc14___rust_dealloc(ptr noundef nonnull %heap_buf.sroa.6.1, i64 noundef %5, i64 noundef range(i64 1, -9223372036854775807) 4) #19, !noalias !899
  br label %bb11
}

; core::slice::sort::stable::drift::sort
; Function Attrs: nonlazybind uwtable
define internal fastcc void @_ZN4core5slice4sort6stable5drift4sort17h077ef0bcbe90118aE(ptr noalias noundef nonnull align 4 %v.0, i64 noundef range(i64 0, 2305843009213693952) %v.1, ptr noalias noundef nonnull align 4 %scratch.0, i64 noundef range(i64 0, 2305843009213693952) %scratch.1, i1 noundef zeroext %eager_sort, ptr noalias noundef nonnull align 8 dereferenceable(8) %is_less) unnamed_addr #0 personality ptr @rust_eh_personality {
start:
  %desired_depth_storage = alloca [66 x i8], align 1
  %run_storage = alloca [528 x i8], align 8
  %_6 = icmp samesign ult i64 %v.1, 2
  br i1 %_6, label %bb22, label %bb2

bb2:                                              ; preds = %start
  %d = udiv i64 4611686018427387904, %v.1
  %r = urem i64 4611686018427387904, %v.1
  %_73.not = icmp ne i64 %r, 0
  %0 = zext i1 %_73.not to i64
  %scale_factor.sroa.0.0 = add nuw nsw i64 %d, %0
  %_9 = icmp samesign ult i64 %v.1, 4097
  br i1 %_9, label %bb3, label %bb4

bb4:                                              ; preds = %bb2
; call core::slice::sort::stable::drift::sqrt_approx
  %1 = tail call noundef i64 @_ZN4core5slice4sort6stable5drift11sqrt_approx17h72a4dc1ae46294f4E(i64 noundef %v.1)
  br label %bb5

bb3:                                              ; preds = %bb2
  %_1135 = lshr i64 %v.1, 1
  %v1 = sub nsw i64 %v.1, %_1135
  %_0.sroa.0.0.i36 = tail call noundef i64 @llvm.umin.i64(i64 %v1, i64 64)
  br label %bb5

bb5:                                              ; preds = %bb3, %bb4
  %min_good_run_len.sroa.0.0 = phi i64 [ %_0.sroa.0.0.i36, %bb3 ], [ %1, %bb4 ]
  call void @llvm.lifetime.start.p0(i64 528, ptr nonnull %run_storage)
  call void @llvm.lifetime.start.p0(i64 66, ptr nonnull %desired_depth_storage)
  %_13.not.i97 = icmp ugt i64 %min_good_run_len.sroa.0.0, 2
  %_13.not.i103 = icmp ugt i64 %min_good_run_len.sroa.0.0, 2
  br label %bb6

bb6:                                              ; preds = %bb19, %bb5
  %prev_run.sroa.0.0 = phi i64 [ 1, %bb5 ], [ %next_run.sroa.0.0, %bb19 ]
  %scan_idx.sroa.0.0 = phi i64 [ 0, %bb5 ], [ %36, %bb19 ]
  %stack_len.sroa.0.0 = phi i64 [ 0, %bb5 ], [ %35, %bb19 ]
  %_22 = icmp ult i64 %scan_idx.sroa.0.0, %v.1
  br i1 %_22, label %bb30, label %bb10

bb10:                                             ; preds = %bb6, %_ZN4core5slice4sort6stable5drift10create_run17h144ae69255ff16a4E.exit
  %desired_depth.sroa.0.0 = phi i8 [ %18, %_ZN4core5slice4sort6stable5drift10create_run17h144ae69255ff16a4E.exit ], [ 0, %bb6 ]
  %next_run.sroa.0.0 = phi i64 [ %_0.sroa.0.0.i40, %_ZN4core5slice4sort6stable5drift10create_run17h144ae69255ff16a4E.exit ], [ 1, %bb6 ]
  %_3782 = icmp ugt i64 %stack_len.sroa.0.0, 1
  br i1 %_3782, label %bb12.lr.ph, label %bb17

bb12.lr.ph:                                       ; preds = %bb10
  %v_end.i = getelementptr inbounds nuw i32, ptr %v.0, i64 %scan_idx.sroa.0.0
  br label %bb12

bb30:                                             ; preds = %bb6
  %new_len = sub nuw nsw i64 %v.1, %scan_idx.sroa.0.0
  %_82 = getelementptr inbounds nuw i32, ptr %v.0, i64 %scan_idx.sroa.0.0
  %_7.not.i = icmp ult i64 %new_len, %min_good_run_len.sroa.0.0
  br i1 %_7.not.i, label %bb7.i41, label %bb1.i

bb7.i41:                                          ; preds = %_ZN4core5slice4sort6shared17find_existing_run17h00496244fb14ca66E.exit.i.thread100, %_ZN4core5slice4sort6shared17find_existing_run17h00496244fb14ca66E.exit.i.thread, %_ZN4core5slice4sort6shared17find_existing_run17h00496244fb14ca66E.exit.i, %bb30
  br i1 %eager_sort, label %bb16.i43, label %bb11.i42

bb1.i:                                            ; preds = %bb30
  %_4.i.i = icmp samesign ult i64 %new_len, 2
  br i1 %_4.i.i, label %bb5.i38, label %bb2.i.i

bb2.i.i:                                          ; preds = %bb1.i
  %_28.i.i = getelementptr inbounds nuw i8, ptr %_82, i64 4
  tail call void @llvm.experimental.noalias.scope.decl(metadata !908)
  tail call void @llvm.experimental.noalias.scope.decl(metadata !911)
  tail call void @llvm.experimental.noalias.scope.decl(metadata !913), !noalias !916
  tail call void @llvm.experimental.noalias.scope.decl(metadata !919), !noalias !916
  tail call void @llvm.experimental.noalias.scope.decl(metadata !921), !noalias !916
  tail call void @llvm.experimental.noalias.scope.decl(metadata !924), !noalias !916
  %_3.i.i.i61 = load i32, ptr %_28.i.i, align 4, !alias.scope !926, !noalias !927, !noundef !18
  %_4.i.i.i62 = load i32, ptr %_82, align 4, !alias.scope !928, !noalias !929, !noundef !18
  %_0.i63 = icmp slt i32 %_3.i.i.i61, %_4.i.i.i62
  %_10.i.i78.not = icmp eq i64 %new_len, 2
  br i1 %_0.i63, label %bb4.i.i.preheader, label %bb11.i.i.preheader

bb11.i.i.preheader:                               ; preds = %bb2.i.i
  br i1 %_10.i.i78.not, label %_ZN4core5slice4sort6shared17find_existing_run17h00496244fb14ca66E.exit.i.thread, label %bb12.i.i

bb4.i.i.preheader:                                ; preds = %bb2.i.i
  br i1 %_10.i.i78.not, label %_ZN4core5slice4sort6shared17find_existing_run17h00496244fb14ca66E.exit.i.thread100, label %bb5.i.i

bb12.i.i:                                         ; preds = %bb11.i.i.preheader, %bb15.i.i
  %_4.i.i.i59 = phi i32 [ %_3.i.i.i58, %bb15.i.i ], [ %_3.i.i.i61, %bb11.i.i.preheader ]
  %run_len.sroa.0.0.i.i76 = phi i64 [ %3, %bb15.i.i ], [ 2, %bb11.i.i.preheader ]
  %2 = getelementptr inbounds nuw i32, ptr %_82, i64 %run_len.sroa.0.0.i.i76
  %_3.i.i.i58 = load i32, ptr %2, align 4, !alias.scope !930, !noalias !937, !noundef !18
  %_0.i60 = icmp slt i32 %_3.i.i.i58, %_4.i.i.i59
  br i1 %_0.i60, label %_ZN4core5slice4sort6shared17find_existing_run17h00496244fb14ca66E.exit.i, label %bb15.i.i

bb15.i.i:                                         ; preds = %bb12.i.i
  %3 = add nuw i64 %run_len.sroa.0.0.i.i76, 1
  %exitcond.not = icmp eq i64 %3, %new_len
  br i1 %exitcond.not, label %_ZN4core5slice4sort6shared17find_existing_run17h00496244fb14ca66E.exit.i, label %bb12.i.i

bb5.i.i:                                          ; preds = %bb4.i.i.preheader, %bb7.i.i
  %_4.i.i.i = phi i32 [ %_3.i.i.i, %bb7.i.i ], [ %_3.i.i.i61, %bb4.i.i.preheader ]
  %run_len.sroa.0.1.i.i79 = phi i64 [ %5, %bb7.i.i ], [ 2, %bb4.i.i.preheader ]
  %4 = getelementptr inbounds nuw i32, ptr %_82, i64 %run_len.sroa.0.1.i.i79
  %_3.i.i.i = load i32, ptr %4, align 4, !alias.scope !941, !noalias !948, !noundef !18
  %_0.i = icmp slt i32 %_3.i.i.i, %_4.i.i.i
  br i1 %_0.i, label %bb7.i.i, label %_ZN4core5slice4sort6shared17find_existing_run17h00496244fb14ca66E.exit.i

bb7.i.i:                                          ; preds = %bb5.i.i
  %5 = add nuw i64 %run_len.sroa.0.1.i.i79, 1
  %exitcond92.not = icmp eq i64 %5, %new_len
  br i1 %exitcond92.not, label %_ZN4core5slice4sort6shared17find_existing_run17h00496244fb14ca66E.exit.i, label %bb5.i.i

_ZN4core5slice4sort6shared17find_existing_run17h00496244fb14ca66E.exit.i: ; preds = %bb15.i.i, %bb12.i.i, %bb7.i.i, %bb5.i.i
  %_0.sroa.0.0.i.i = phi i64 [ %new_len, %bb7.i.i ], [ %run_len.sroa.0.1.i.i79, %bb5.i.i ], [ %new_len, %bb15.i.i ], [ %run_len.sroa.0.0.i.i76, %bb12.i.i ]
  %_12.i = icmp samesign ule i64 %_0.sroa.0.0.i.i, %new_len
  tail call void @llvm.assume(i1 %_12.i)
  %_13.not.i = icmp ult i64 %_0.sroa.0.0.i.i, %min_good_run_len.sroa.0.0
  br i1 %_13.not.i, label %bb7.i41, label %bb3.i37

_ZN4core5slice4sort6shared17find_existing_run17h00496244fb14ca66E.exit.i.thread100: ; preds = %bb4.i.i.preheader
  br i1 %_13.not.i103, label %bb7.i41, label %bb5.preheader.i.i

_ZN4core5slice4sort6shared17find_existing_run17h00496244fb14ca66E.exit.i.thread: ; preds = %bb11.i.i.preheader
  br i1 %_13.not.i97, label %bb7.i41, label %bb5.i38

bb3.i37:                                          ; preds = %_ZN4core5slice4sort6shared17find_existing_run17h00496244fb14ca66E.exit.i
  br i1 %_0.i63, label %bb14.i, label %bb5.i38

bb11.i42:                                         ; preds = %bb7.i41
  %_0.sroa.0.0.i57 = tail call noundef i64 @llvm.umin.i64(i64 range(i64 0, 2305843009213693952) %new_len, i64 %min_good_run_len.sroa.0.0)
  %_36.i = shl nuw nsw i64 %_0.sroa.0.0.i57, 1
  br label %_ZN4core5slice4sort6stable5drift10create_run17h144ae69255ff16a4E.exit

bb16.i43:                                         ; preds = %bb7.i41
  %_0.sroa.0.0.i56 = tail call noundef i64 @llvm.umin.i64(i64 range(i64 0, 2305843009213693952) %new_len, i64 32)
; call core::slice::sort::stable::quicksort::quicksort
  tail call void @_ZN4core5slice4sort6stable9quicksort9quicksort17h960dc2f6c4bef9a8E(ptr noalias noundef nonnull align 4 %_82, i64 noundef %_0.sroa.0.0.i56, ptr noalias noundef nonnull align 4 %scratch.0, i64 noundef range(i64 0, 2305843009213693952) %scratch.1, i32 noundef 0, ptr noalias noundef readonly align 4 captures(address, read_provenance) dereferenceable_or_null(4) null, ptr noalias noundef nonnull align 8 dereferenceable(8) %is_less) #21
  %_35.i = shl nuw nsw i64 %_0.sroa.0.0.i56, 1
  %_34.i = or disjoint i64 %_35.i, 1
  br label %_ZN4core5slice4sort6stable5drift10create_run17h144ae69255ff16a4E.exit

bb5.i38:                                          ; preds = %bb6.i.i, %middle.block, %_ZN4core5slice4sort6shared17find_existing_run17h00496244fb14ca66E.exit.i.thread, %bb1.i, %bb14.i, %bb3.i37
  %_0.sroa.0.0.i.i6972 = phi i64 [ %_0.sroa.0.0.i.i, %bb3.i37 ], [ 1, %bb14.i ], [ %new_len, %bb1.i ], [ 2, %_ZN4core5slice4sort6shared17find_existing_run17h00496244fb14ca66E.exit.i.thread ], [ %_0.sroa.0.0.i.i98106110, %middle.block ], [ %_0.sroa.0.0.i.i98106110, %bb6.i.i ]
  %_27.i = shl nuw nsw i64 %_0.sroa.0.0.i.i6972, 1
  %_26.i = or disjoint i64 %_27.i, 1
  br label %_ZN4core5slice4sort6stable5drift10create_run17h144ae69255ff16a4E.exit

bb14.i:                                           ; preds = %bb3.i37
  %half_len2.i = lshr i64 %_0.sroa.0.0.i.i, 1
  tail call void @llvm.experimental.noalias.scope.decl(metadata !952), !noalias !955
  tail call void @llvm.experimental.noalias.scope.decl(metadata !957), !noalias !955
  %_915.not.i.i = icmp samesign ult i64 %_0.sroa.0.0.i.i, 2
  br i1 %_915.not.i.i, label %bb5.i38, label %bb5.preheader.i.i

bb5.preheader.i.i:                                ; preds = %_ZN4core5slice4sort6shared17find_existing_run17h00496244fb14ca66E.exit.i.thread100, %bb14.i
  %half_len2.i111 = phi i64 [ %half_len2.i, %bb14.i ], [ 1, %_ZN4core5slice4sort6shared17find_existing_run17h00496244fb14ca66E.exit.i.thread100 ]
  %_0.sroa.0.0.i.i98106110 = phi i64 [ %_0.sroa.0.0.i.i, %bb14.i ], [ 2, %_ZN4core5slice4sort6shared17find_existing_run17h00496244fb14ca66E.exit.i.thread100 ]
  %end.i = getelementptr inbounds nuw i32, ptr %_82, i64 %_0.sroa.0.0.i.i98106110
  %min.iters.check = icmp samesign ult i64 %half_len2.i111, 8
  br i1 %min.iters.check, label %bb6.i.i.preheader, label %vector.ph

vector.ph:                                        ; preds = %bb5.preheader.i.i
  %n.vec = and i64 %half_len2.i111, 9223372036854775800
  br label %vector.body

vector.body:                                      ; preds = %vector.body, %vector.ph
  %index = phi i64 [ 0, %vector.ph ], [ %index.next, %vector.body ]
  %6 = xor i64 %index, -1
  %7 = getelementptr inbounds nuw i32, ptr %_82, i64 %index
  %8 = getelementptr i32, ptr %end.i, i64 %6
  %9 = getelementptr inbounds nuw i8, ptr %7, i64 16
  %wide.load = load <4 x i32>, ptr %7, align 4, !alias.scope !959, !noalias !962
  %wide.load118 = load <4 x i32>, ptr %9, align 4, !alias.scope !959, !noalias !962
  %10 = getelementptr i8, ptr %8, i64 -12
  %11 = getelementptr i8, ptr %8, i64 -28
  %wide.load119 = load <4 x i32>, ptr %10, align 4, !alias.scope !963, !noalias !964
  %reverse = shufflevector <4 x i32> %wide.load119, <4 x i32> poison, <4 x i32> <i32 3, i32 2, i32 1, i32 0>
  %wide.load120 = load <4 x i32>, ptr %11, align 4, !alias.scope !963, !noalias !964
  %reverse121 = shufflevector <4 x i32> %wide.load120, <4 x i32> poison, <4 x i32> <i32 3, i32 2, i32 1, i32 0>
  store <4 x i32> %reverse, ptr %7, align 4, !alias.scope !959, !noalias !962
  store <4 x i32> %reverse121, ptr %9, align 4, !alias.scope !959, !noalias !962
  %reverse122 = shufflevector <4 x i32> %wide.load, <4 x i32> poison, <4 x i32> <i32 3, i32 2, i32 1, i32 0>
  store <4 x i32> %reverse122, ptr %10, align 4, !alias.scope !963, !noalias !964
  %reverse123 = shufflevector <4 x i32> %wide.load118, <4 x i32> poison, <4 x i32> <i32 3, i32 2, i32 1, i32 0>
  store <4 x i32> %reverse123, ptr %11, align 4, !alias.scope !963, !noalias !964
  %index.next = add nuw i64 %index, 8
  %12 = icmp eq i64 %index.next, %n.vec
  br i1 %12, label %middle.block, label %vector.body, !llvm.loop !965

middle.block:                                     ; preds = %vector.body
  %cmp.n = icmp eq i64 %half_len2.i111, %n.vec
  br i1 %cmp.n, label %bb5.i38, label %bb6.i.i.preheader

bb6.i.i.preheader:                                ; preds = %bb5.preheader.i.i, %middle.block
  %i.sroa.0.016.i.i.ph = phi i64 [ 0, %bb5.preheader.i.i ], [ %n.vec, %middle.block ]
  br label %bb6.i.i

bb6.i.i:                                          ; preds = %bb6.i.i.preheader, %bb6.i.i
  %i.sroa.0.016.i.i = phi i64 [ %16, %bb6.i.i ], [ %i.sroa.0.016.i.i.ph, %bb6.i.i.preheader ]
  %13 = xor i64 %i.sroa.0.016.i.i, -1
  %x.i.i = getelementptr inbounds nuw i32, ptr %_82, i64 %i.sroa.0.016.i.i
  %y.i.i = getelementptr i32, ptr %end.i, i64 %13
  %14 = load i32, ptr %x.i.i, align 4, !alias.scope !959, !noalias !962, !noundef !18
  %15 = load i32, ptr %y.i.i, align 4, !alias.scope !963, !noalias !964
  store i32 %15, ptr %x.i.i, align 4, !alias.scope !959, !noalias !962
  store i32 %14, ptr %y.i.i, align 4, !alias.scope !963, !noalias !964
  %16 = add nuw nsw i64 %i.sroa.0.016.i.i, 1
  %exitcond.not.i.i = icmp eq i64 %16, %half_len2.i111
  br i1 %exitcond.not.i.i, label %bb5.i38, label %bb6.i.i, !llvm.loop !968

_ZN4core5slice4sort6stable5drift10create_run17h144ae69255ff16a4E.exit: ; preds = %bb11.i42, %bb16.i43, %bb5.i38
  %_0.sroa.0.0.i40 = phi i64 [ %_26.i, %bb5.i38 ], [ %_34.i, %bb16.i43 ], [ %_36.i, %bb11.i42 ]
  %_31 = lshr i64 %prev_run.sroa.0.0, 1
  %_35 = lshr i64 %_0.sroa.0.0.i40, 1
  %factor = shl i64 %scan_idx.sroa.0.0, 1
  %x = sub i64 %factor, %_31
  %y = add i64 %_35, %factor
  %_90 = mul i64 %x, %scale_factor.sroa.0.0
  %_91 = mul i64 %y, %scale_factor.sroa.0.0
  %self4 = xor i64 %_91, %_90
  %17 = tail call range(i64 0, 65) i64 @llvm.ctlz.i64(i64 %self4, i1 false)
  %18 = trunc nuw nsw i64 %17 to i8
  br label %bb10

bb12:                                             ; preds = %bb12.lr.ph, %_ZN4core5slice4sort6stable5drift13logical_merge17h6322235afc7b8693E.exit
  %stack_len.sroa.0.184 = phi i64 [ %stack_len.sroa.0.0, %bb12.lr.ph ], [ %count, %_ZN4core5slice4sort6stable5drift13logical_merge17h6322235afc7b8693E.exit ]
  %prev_run.sroa.0.183 = phi i64 [ %prev_run.sroa.0.0, %bb12.lr.ph ], [ %_0.sroa.0.0.i, %_ZN4core5slice4sort6stable5drift13logical_merge17h6322235afc7b8693E.exit ]
  %count = add i64 %stack_len.sroa.0.184, -1
  %_41 = getelementptr inbounds nuw i8, ptr %desired_depth_storage, i64 %count
  %_40 = load i8, ptr %_41, align 1, !noundef !18
  %_39.not = icmp ult i8 %_40, %desired_depth.sroa.0.0
  br i1 %_39.not, label %bb17, label %bb13

bb17:                                             ; preds = %_ZN4core5slice4sort6stable5drift13logical_merge17h6322235afc7b8693E.exit, %bb12, %bb10
  %prev_run.sroa.0.1.lcssa = phi i64 [ %prev_run.sroa.0.0, %bb10 ], [ %prev_run.sroa.0.183, %bb12 ], [ %_0.sroa.0.0.i, %_ZN4core5slice4sort6stable5drift13logical_merge17h6322235afc7b8693E.exit ]
  %stack_len.sroa.0.1.lcssa = phi i64 [ %stack_len.sroa.0.0, %bb10 ], [ %stack_len.sroa.0.184, %bb12 ], [ 1, %_ZN4core5slice4sort6stable5drift13logical_merge17h6322235afc7b8693E.exit ]
  %_59 = getelementptr inbounds nuw i64, ptr %run_storage, i64 %stack_len.sroa.0.1.lcssa
  store i64 %prev_run.sroa.0.1.lcssa, ptr %_59, align 8
  %_61 = getelementptr inbounds nuw i8, ptr %desired_depth_storage, i64 %stack_len.sroa.0.1.lcssa
  store i8 %desired_depth.sroa.0.0, ptr %_61, align 1
  br i1 %_22, label %bb19, label %bb18

bb13:                                             ; preds = %bb12
  %_46 = getelementptr inbounds nuw i64, ptr %run_storage, i64 %count
  %left10 = load i64, ptr %_46, align 8, !noundef !18
  %_50 = lshr i64 %left10, 1
  %_51 = lshr i64 %prev_run.sroa.0.183, 1
  %merged_len = add nuw i64 %_50, %_51
  %merge_start_idx = sub i64 %scan_idx.sroa.0.0, %merged_len
  %_98 = getelementptr inbounds nuw i32, ptr %v.0, i64 %merge_start_idx
  %can_fit_in_scratch.i = icmp samesign ugt i64 %merged_len, %scratch.1
  %_22.i = and i64 %prev_run.sroa.0.183, 1
  %_10.not.i = icmp eq i64 %_22.i, 0
  %19 = or i64 %left10, %prev_run.sroa.0.183
  %20 = and i64 %19, 1
  %21 = icmp ne i64 %20, 0
  %or.cond2.i = or i1 %can_fit_in_scratch.i, %21
  br i1 %or.cond2.i, label %bb3.i, label %bb9.i

bb3.i:                                            ; preds = %bb13
  %_21.i = and i64 %left10, 1
  %_9.not.i = icmp eq i64 %_21.i, 0
  br i1 %_9.not.i, label %bb11.i, label %bb5.i

bb9.i:                                            ; preds = %bb13
  %_40.i = shl nuw nsw i64 %merged_len, 1
  br label %_ZN4core5slice4sort6stable5drift13logical_merge17h6322235afc7b8693E.exit

bb5.i:                                            ; preds = %bb11.i, %bb3.i
  br i1 %_10.not.i, label %bb16.i, label %bb7.i

bb11.i:                                           ; preds = %bb3.i
  %self.i = or i64 %_50, 1
  %22 = tail call range(i64 3, 64) i64 @llvm.ctlz.i64(i64 %self.i, i1 true)
  %23 = trunc nuw nsw i64 %22 to i32
  %log.i = shl nuw nsw i32 %23, 1
  %limit.i = xor i32 %log.i, 126
; call core::slice::sort::stable::quicksort::quicksort
  tail call void @_ZN4core5slice4sort6stable9quicksort9quicksort17h960dc2f6c4bef9a8E(ptr noalias noundef nonnull align 4 %_98, i64 noundef range(i64 0, 2305843009213693952) %_50, ptr noalias noundef nonnull align 4 %scratch.0, i64 noundef range(i64 0, 2305843009213693952) %scratch.1, i32 noundef %limit.i, ptr noalias noundef readonly align 4 captures(address, read_provenance) dereferenceable_or_null(4) null, ptr noalias noundef nonnull align 8 dereferenceable(8) %is_less) #21
  br label %bb5.i

bb7.i:                                            ; preds = %bb16.i, %bb5.i
  tail call void @llvm.experimental.noalias.scope.decl(metadata !969)
  tail call void @llvm.experimental.noalias.scope.decl(metadata !972)
  %_6.i = icmp ult i64 %left10, 2
  %_7.i = icmp ult i64 %prev_run.sroa.0.183, 2
  %or.cond.i = select i1 %_6.i, i1 true, i1 %_7.i
  br i1 %or.cond.i, label %_ZN4core5slice4sort6stable5merge5merge17h9f4203c273633beaE.exit, label %bb2.i

bb2.i:                                            ; preds = %bb7.i
  %_0.sroa.0.0.i.i44 = tail call i64 @llvm.umin.i64(i64 %_51, i64 range(i64 0, -9223372036854775808) %_50)
  %_8.i = icmp samesign ult i64 %scratch.1, %_0.sroa.0.0.i.i44
  br i1 %_8.i, label %_ZN4core5slice4sort6stable5merge5merge17h9f4203c273633beaE.exit, label %bb5.i45

bb5.i45:                                          ; preds = %bb2.i
  %v_mid.i = getelementptr inbounds nuw i32, ptr %_98, i64 %_50
  %left_is_shorter.not.i = icmp samesign ugt i64 %_50, %_51
  %spec.select.i = select i1 %left_is_shorter.not.i, ptr %v_mid.i, ptr %_98
  %24 = shl nuw nsw i64 %_0.sroa.0.0.i.i44, 2
  tail call void @llvm.memcpy.p0.p0.i64(ptr nonnull align 4 %scratch.0, ptr nonnull align 4 %spec.select.i, i64 %24, i1 false), !alias.scope !974
  %_22.i46 = getelementptr inbounds nuw i8, ptr %scratch.0, i64 %24
  br i1 %left_is_shorter.not.i, label %bb1.i.i, label %bb3.i.i

bb1.i.i:                                          ; preds = %bb5.i45, %bb1.i.i
  %_2110.i.i = phi ptr [ %_21.i.i49, %bb1.i.i ], [ %_22.i46, %bb5.i45 ]
  %_188.i.i = phi ptr [ %_18.i.i, %bb1.i.i ], [ %v_mid.i, %bb5.i45 ]
  %out.sroa.0.0.i.i = phi ptr [ %27, %bb1.i.i ], [ %v_end.i, %bb5.i45 ]
  %25 = getelementptr inbounds i8, ptr %_188.i.i, i64 -4
  %26 = getelementptr inbounds i8, ptr %_2110.i.i, i64 -4
  %27 = getelementptr inbounds i8, ptr %out.sroa.0.0.i.i, i64 -4
  tail call void @llvm.experimental.noalias.scope.decl(metadata !975)
  tail call void @llvm.experimental.noalias.scope.decl(metadata !978)
  tail call void @llvm.experimental.noalias.scope.decl(metadata !980)
  tail call void @llvm.experimental.noalias.scope.decl(metadata !983)
  tail call void @llvm.experimental.noalias.scope.decl(metadata !985)
  tail call void @llvm.experimental.noalias.scope.decl(metadata !988)
  %_3.i.i.i.i.i = load i32, ptr %26, align 4, !alias.scope !990, !noalias !991, !noundef !18
  %_4.i.i.i.i.i = load i32, ptr %25, align 4, !alias.scope !994, !noalias !995, !noundef !18
  %_0.i.i.i = icmp slt i32 %_3.i.i.i.i.i, %_4.i.i.i.i.i
  %28 = tail call i32 @llvm.smax.i32(i32 %_3.i.i.i.i.i, i32 %_4.i.i.i.i.i)
  store i32 %28, ptr %27, align 4, !alias.scope !969, !noalias !996
  %_20.i.i = xor i1 %_0.i.i.i, true
  %count.i.i = zext i1 %_20.i.i to i64
  %_18.i.i = getelementptr inbounds nuw i32, ptr %25, i64 %count.i.i
  %count4.i.i = zext i1 %_0.i.i.i to i64
  %_21.i.i49 = getelementptr inbounds nuw i32, ptr %26, i64 %count4.i.i
  %_23.i.i = icmp eq ptr %_18.i.i, %_98
  %_26.i.i = icmp eq ptr %_21.i.i49, %scratch.0
  %or.cond.i.i = select i1 %_23.i.i, i1 true, i1 %_26.i.i
  br i1 %or.cond.i.i, label %bb16.i48, label %bb1.i.i

bb3.i.i:                                          ; preds = %bb5.i45, %bb3.i.i
  %_2511.i.i = phi ptr [ %_25.i.i, %bb3.i.i ], [ %_98, %bb5.i45 ]
  %right.sroa.0.010.i.i = phi ptr [ %_23.i17.i, %bb3.i.i ], [ %v_mid.i, %bb5.i45 ]
  %_2059.i.i = phi ptr [ %_20.i16.i, %bb3.i.i ], [ %scratch.0, %bb5.i45 ]
  tail call void @llvm.experimental.noalias.scope.decl(metadata !997)
  tail call void @llvm.experimental.noalias.scope.decl(metadata !1000)
  tail call void @llvm.experimental.noalias.scope.decl(metadata !1002)
  tail call void @llvm.experimental.noalias.scope.decl(metadata !1005)
  tail call void @llvm.experimental.noalias.scope.decl(metadata !1007)
  tail call void @llvm.experimental.noalias.scope.decl(metadata !1010)
  %_3.i.i.i.i12.i = load i32, ptr %right.sroa.0.010.i.i, align 4, !alias.scope !1012, !noalias !1013, !noundef !18
  %_4.i.i.i.i13.i = load i32, ptr %_2059.i.i, align 4, !alias.scope !1016, !noalias !1017, !noundef !18
  %_0.i.i14.i = icmp slt i32 %_3.i.i.i.i12.i, %_4.i.i.i.i13.i
  %consume_left.i.i = xor i1 %_0.i.i14.i, true
  %29 = tail call i32 @llvm.smin.i32(i32 %_3.i.i.i.i12.i, i32 %_4.i.i.i.i13.i)
  store i32 %29, ptr %_2511.i.i, align 4, !alias.scope !969, !noalias !1018
  %count.i15.i = zext i1 %consume_left.i.i to i64
  %_20.i16.i = getelementptr inbounds nuw i32, ptr %_2059.i.i, i64 %count.i15.i
  %count2.i.i = zext i1 %_0.i.i14.i to i64
  %_23.i17.i = getelementptr inbounds nuw i32, ptr %right.sroa.0.010.i.i, i64 %count2.i.i
  %_25.i.i = getelementptr inbounds nuw i8, ptr %_2511.i.i, i64 4
  %_7.i.i = icmp ne ptr %_20.i16.i, %_22.i46
  %_10.i.i47 = icmp ne ptr %_23.i17.i, %v_end.i
  %or.cond.i18.i = select i1 %_7.i.i, i1 %_10.i.i47, i1 false
  br i1 %or.cond.i18.i, label %bb3.i.i, label %bb16.i48

bb16.i48:                                         ; preds = %bb3.i.i, %bb1.i.i
  %merge_state.sroa.13.0.i = phi ptr [ %_18.i.i, %bb1.i.i ], [ %_25.i.i, %bb3.i.i ]
  %merge_state.sroa.7.0.i = phi ptr [ %_21.i.i49, %bb1.i.i ], [ %_22.i46, %bb3.i.i ]
  %merge_state.sroa.0.0.i = phi ptr [ %scratch.0, %bb1.i.i ], [ %_20.i16.i, %bb3.i.i ]
  %30 = ptrtoint ptr %merge_state.sroa.7.0.i to i64
  %31 = ptrtoint ptr %merge_state.sroa.0.0.i to i64
  %32 = sub nuw i64 %30, %31
  tail call void @llvm.memcpy.p0.p0.i64(ptr nonnull align 4 %merge_state.sroa.13.0.i, ptr align 4 %merge_state.sroa.0.0.i, i64 %32, i1 false), !alias.scope !974, !noalias !1019
  br label %_ZN4core5slice4sort6stable5merge5merge17h9f4203c273633beaE.exit

_ZN4core5slice4sort6stable5merge5merge17h9f4203c273633beaE.exit: ; preds = %bb7.i, %bb2.i, %bb16.i48
  %_39.i = shl nuw nsw i64 %merged_len, 1
  %_38.i = or disjoint i64 %_39.i, 1
  br label %_ZN4core5slice4sort6stable5drift13logical_merge17h6322235afc7b8693E.exit

bb16.i:                                           ; preds = %bb5.i
  %_37.i = getelementptr inbounds nuw i32, ptr %_98, i64 %_50
  %self.i50 = or i64 %_51, 1
  %33 = tail call range(i64 3, 64) i64 @llvm.ctlz.i64(i64 %self.i50, i1 true)
  %34 = trunc nuw nsw i64 %33 to i32
  %log.i51 = shl nuw nsw i32 %34, 1
  %limit.i52 = xor i32 %log.i51, 126
; call core::slice::sort::stable::quicksort::quicksort
  tail call void @_ZN4core5slice4sort6stable9quicksort9quicksort17h960dc2f6c4bef9a8E(ptr noalias noundef nonnull align 4 %_37.i, i64 noundef range(i64 0, 2305843009213693952) %_51, ptr noalias noundef nonnull align 4 %scratch.0, i64 noundef range(i64 0, 2305843009213693952) %scratch.1, i32 noundef %limit.i52, ptr noalias noundef readonly align 4 captures(address, read_provenance) dereferenceable_or_null(4) null, ptr noalias noundef nonnull align 8 dereferenceable(8) %is_less) #21
  br label %bb7.i

_ZN4core5slice4sort6stable5drift13logical_merge17h6322235afc7b8693E.exit: ; preds = %bb9.i, %_ZN4core5slice4sort6stable5merge5merge17h9f4203c273633beaE.exit
  %_0.sroa.0.0.i = phi i64 [ %_38.i, %_ZN4core5slice4sort6stable5merge5merge17h9f4203c273633beaE.exit ], [ %_40.i, %bb9.i ]
  %_37 = icmp ugt i64 %count, 1
  br i1 %_37, label %bb12, label %bb17

bb19:                                             ; preds = %bb17
  %35 = add i64 %stack_len.sroa.0.1.lcssa, 1
  %_65 = lshr i64 %next_run.sroa.0.0, 1
  %36 = add nuw i64 %_65, %scan_idx.sroa.0.0
  br label %bb6

bb18:                                             ; preds = %bb17
  %_99 = and i64 %prev_run.sroa.0.1.lcssa, 1
  %_66.not = icmp eq i64 %_99, 0
  br i1 %_66.not, label %bb20, label %bb21

bb20:                                             ; preds = %bb18
  %self.i53 = or i64 %v.1, 1
  %37 = tail call range(i64 3, 64) i64 @llvm.ctlz.i64(i64 %self.i53, i1 true)
  %38 = trunc nuw nsw i64 %37 to i32
  %log.i54 = shl nuw nsw i32 %38, 1
  %limit.i55 = xor i32 %log.i54, 126
; call core::slice::sort::stable::quicksort::quicksort
  tail call void @_ZN4core5slice4sort6stable9quicksort9quicksort17h960dc2f6c4bef9a8E(ptr noalias noundef nonnull align 4 %v.0, i64 noundef range(i64 0, 2305843009213693952) %v.1, ptr noalias noundef nonnull align 4 %scratch.0, i64 noundef range(i64 0, 2305843009213693952) %scratch.1, i32 noundef %limit.i55, ptr noalias noundef readonly align 4 captures(address, read_provenance) dereferenceable_or_null(4) null, ptr noalias noundef nonnull align 8 dereferenceable(8) %is_less) #21
  br label %bb21

bb21:                                             ; preds = %bb20, %bb18
  call void @llvm.lifetime.end.p0(i64 66, ptr nonnull %desired_depth_storage)
  call void @llvm.lifetime.end.p0(i64 528, ptr nonnull %run_storage)
  br label %bb22

bb22:                                             ; preds = %start, %bb21
  ret void
}

; core::slice::sort::stable::drift::sort
; Function Attrs: nonlazybind uwtable
define internal fastcc void @_ZN4core5slice4sort6stable5drift4sort17h4e9143ba5e79da94E(ptr noalias noundef nonnull align 4 %v.0, i64 noundef range(i64 0, 2305843009213693952) %v.1, ptr noalias noundef nonnull align 4 %scratch.0, i64 noundef range(i64 0, 2305843009213693952) %scratch.1, i1 noundef zeroext %eager_sort, ptr noalias noundef nonnull align 8 dereferenceable(8) %is_less) unnamed_addr #0 personality ptr @rust_eh_personality {
start:
  %desired_depth_storage = alloca [66 x i8], align 1
  %run_storage = alloca [528 x i8], align 8
  %_6 = icmp samesign ult i64 %v.1, 2
  br i1 %_6, label %bb22, label %bb2

bb2:                                              ; preds = %start
  %d = udiv i64 4611686018427387904, %v.1
  %r = urem i64 4611686018427387904, %v.1
  %_73.not = icmp ne i64 %r, 0
  %0 = zext i1 %_73.not to i64
  %scale_factor.sroa.0.0 = add nuw nsw i64 %d, %0
  %_9 = icmp samesign ult i64 %v.1, 4097
  br i1 %_9, label %bb3, label %bb4

bb4:                                              ; preds = %bb2
; call core::slice::sort::stable::drift::sqrt_approx
  %1 = tail call noundef i64 @_ZN4core5slice4sort6stable5drift11sqrt_approx17h72a4dc1ae46294f4E(i64 noundef %v.1)
  br label %bb5

bb3:                                              ; preds = %bb2
  %_1135 = lshr i64 %v.1, 1
  %v1 = sub nsw i64 %v.1, %_1135
  %_0.sroa.0.0.i36 = tail call noundef i64 @llvm.umin.i64(i64 %v1, i64 64)
  br label %bb5

bb5:                                              ; preds = %bb3, %bb4
  %min_good_run_len.sroa.0.0 = phi i64 [ %_0.sroa.0.0.i36, %bb3 ], [ %1, %bb4 ]
  call void @llvm.lifetime.start.p0(i64 528, ptr nonnull %run_storage)
  call void @llvm.lifetime.start.p0(i64 66, ptr nonnull %desired_depth_storage)
  %_13.not.i121 = icmp ugt i64 %min_good_run_len.sroa.0.0, 2
  %_13.not.i127 = icmp ugt i64 %min_good_run_len.sroa.0.0, 2
  br label %bb6

bb6:                                              ; preds = %bb19, %bb5
  %prev_run.sroa.0.0 = phi i64 [ 1, %bb5 ], [ %next_run.sroa.0.0, %bb19 ]
  %scan_idx.sroa.0.0 = phi i64 [ 0, %bb5 ], [ %43, %bb19 ]
  %stack_len.sroa.0.0 = phi i64 [ 0, %bb5 ], [ %42, %bb19 ]
  %_22 = icmp ult i64 %scan_idx.sroa.0.0, %v.1
  br i1 %_22, label %bb30, label %bb10

bb10:                                             ; preds = %bb6, %_ZN4core5slice4sort6stable5drift10create_run17h4119af24d47959b6E.exit
  %desired_depth.sroa.0.0 = phi i8 [ %21, %_ZN4core5slice4sort6stable5drift10create_run17h4119af24d47959b6E.exit ], [ 0, %bb6 ]
  %next_run.sroa.0.0 = phi i64 [ %_0.sroa.0.0.i40, %_ZN4core5slice4sort6stable5drift10create_run17h4119af24d47959b6E.exit ], [ 1, %bb6 ]
  %_37101 = icmp ugt i64 %stack_len.sroa.0.0, 1
  br i1 %_37101, label %bb12.lr.ph, label %bb17

bb12.lr.ph:                                       ; preds = %bb10
  %v_end.i = getelementptr inbounds nuw float, ptr %v.0, i64 %scan_idx.sroa.0.0
  br label %bb12

bb30:                                             ; preds = %bb6
  %new_len = sub nuw nsw i64 %v.1, %scan_idx.sroa.0.0
  %_82 = getelementptr inbounds nuw float, ptr %v.0, i64 %scan_idx.sroa.0.0
  %_7.not.i = icmp ult i64 %new_len, %min_good_run_len.sroa.0.0
  br i1 %_7.not.i, label %bb7.i41, label %bb1.i

bb7.i41:                                          ; preds = %_ZN4core5slice4sort6shared17find_existing_run17h017626d65394a468E.exit.i.thread124, %_ZN4core5slice4sort6shared17find_existing_run17h017626d65394a468E.exit.i.thread, %_ZN4core5slice4sort6shared17find_existing_run17h017626d65394a468E.exit.i, %bb30
  br i1 %eager_sort, label %bb16.i43, label %bb11.i42

bb1.i:                                            ; preds = %bb30
  %_4.i.i = icmp samesign ult i64 %new_len, 2
  br i1 %_4.i.i, label %bb5.i38, label %bb2.i.i

bb2.i.i:                                          ; preds = %bb1.i
  %_28.i.i = getelementptr inbounds nuw i8, ptr %_82, i64 4
  tail call void @llvm.experimental.noalias.scope.decl(metadata !1024)
  tail call void @llvm.experimental.noalias.scope.decl(metadata !1027)
  tail call void @llvm.experimental.noalias.scope.decl(metadata !1029), !noalias !1032
  tail call void @llvm.experimental.noalias.scope.decl(metadata !1035), !noalias !1032
  %_6.i.i66 = load float, ptr %_28.i.i, align 4, !alias.scope !1037, !noalias !1038, !noundef !18
  %_7.i.i67 = load float, ptr %_82, align 4, !alias.scope !1039, !noalias !1040, !noundef !18
  %brmerge.not.i68 = fcmp uno float %_6.i.i66, %_7.i.i67
  br i1 %brmerge.not.i68, label %bb6.i.i70, label %"_ZN5alloc5slice29_$LT$impl$u20$$u5b$T$u5d$$GT$7sort_by28_$u7b$$u7b$closure$u7d$$u7d$17hfaa75802b1959b0aE.exit71", !prof !21

bb6.i.i70:                                        ; preds = %bb2.i.i
; call core::option::unwrap_failed
  tail call void @_ZN4core6option13unwrap_failed17hef2534b77b89c04fE(ptr noalias noundef readonly align 8 captures(address, read_provenance) dereferenceable(24) @alloc_4a4e7fec44b84c1472b04d0c86f3e1b7) #18, !noalias !1041
  unreachable

"_ZN5alloc5slice29_$LT$impl$u20$$u5b$T$u5d$$GT$7sort_by28_$u7b$$u7b$closure$u7d$$u7d$17hfaa75802b1959b0aE.exit71": ; preds = %bb2.i.i
  %_8.i.mux.i69 = fcmp olt float %_6.i.i66, %_7.i.i67
  %_10.i.i97.not = icmp eq i64 %new_len, 2
  br i1 %_8.i.mux.i69, label %bb4.i.i.preheader, label %bb11.i.i.preheader

bb11.i.i.preheader:                               ; preds = %"_ZN5alloc5slice29_$LT$impl$u20$$u5b$T$u5d$$GT$7sort_by28_$u7b$$u7b$closure$u7d$$u7d$17hfaa75802b1959b0aE.exit71"
  br i1 %_10.i.i97.not, label %_ZN4core5slice4sort6shared17find_existing_run17h017626d65394a468E.exit.i.thread, label %bb12.i.i

bb4.i.i.preheader:                                ; preds = %"_ZN5alloc5slice29_$LT$impl$u20$$u5b$T$u5d$$GT$7sort_by28_$u7b$$u7b$closure$u7d$$u7d$17hfaa75802b1959b0aE.exit71"
  br i1 %_10.i.i97.not, label %_ZN4core5slice4sort6shared17find_existing_run17h017626d65394a468E.exit.i.thread124, label %bb5.i.i

bb12.i.i:                                         ; preds = %bb11.i.i.preheader, %bb15.i.i
  %_7.i.i61 = phi float [ %_6.i.i60, %bb15.i.i ], [ %_6.i.i66, %bb11.i.i.preheader ]
  %run_len.sroa.0.0.i.i95 = phi i64 [ %3, %bb15.i.i ], [ 2, %bb11.i.i.preheader ]
  %2 = getelementptr inbounds nuw float, ptr %_82, i64 %run_len.sroa.0.0.i.i95
  tail call void @llvm.experimental.noalias.scope.decl(metadata !1042)
  tail call void @llvm.experimental.noalias.scope.decl(metadata !1045), !noalias !1032
  %_6.i.i60 = load float, ptr %2, align 4, !alias.scope !1048, !noalias !1049, !noundef !18
  %brmerge.not.i62 = fcmp uno float %_6.i.i60, %_7.i.i61
  br i1 %brmerge.not.i62, label %bb6.i.i64, label %"_ZN5alloc5slice29_$LT$impl$u20$$u5b$T$u5d$$GT$7sort_by28_$u7b$$u7b$closure$u7d$$u7d$17hfaa75802b1959b0aE.exit65", !prof !21

bb6.i.i64:                                        ; preds = %bb12.i.i
; call core::option::unwrap_failed
  tail call void @_ZN4core6option13unwrap_failed17hef2534b77b89c04fE(ptr noalias noundef readonly align 8 captures(address, read_provenance) dereferenceable(24) @alloc_4a4e7fec44b84c1472b04d0c86f3e1b7) #18, !noalias !1052
  unreachable

"_ZN5alloc5slice29_$LT$impl$u20$$u5b$T$u5d$$GT$7sort_by28_$u7b$$u7b$closure$u7d$$u7d$17hfaa75802b1959b0aE.exit65": ; preds = %bb12.i.i
  %_8.i.mux.i63 = fcmp olt float %_6.i.i60, %_7.i.i61
  br i1 %_8.i.mux.i63, label %_ZN4core5slice4sort6shared17find_existing_run17h017626d65394a468E.exit.i, label %bb15.i.i

bb15.i.i:                                         ; preds = %"_ZN5alloc5slice29_$LT$impl$u20$$u5b$T$u5d$$GT$7sort_by28_$u7b$$u7b$closure$u7d$$u7d$17hfaa75802b1959b0aE.exit65"
  %3 = add nuw i64 %run_len.sroa.0.0.i.i95, 1
  %exitcond.not = icmp eq i64 %3, %new_len
  br i1 %exitcond.not, label %_ZN4core5slice4sort6shared17find_existing_run17h017626d65394a468E.exit.i, label %bb12.i.i

bb5.i.i:                                          ; preds = %bb4.i.i.preheader, %bb7.i.i
  %_7.i.i58 = phi float [ %_6.i.i, %bb7.i.i ], [ %_6.i.i66, %bb4.i.i.preheader ]
  %run_len.sroa.0.1.i.i98 = phi i64 [ %5, %bb7.i.i ], [ 2, %bb4.i.i.preheader ]
  %4 = getelementptr inbounds nuw float, ptr %_82, i64 %run_len.sroa.0.1.i.i98
  tail call void @llvm.experimental.noalias.scope.decl(metadata !1053)
  tail call void @llvm.experimental.noalias.scope.decl(metadata !1056), !noalias !1032
  %_6.i.i = load float, ptr %4, align 4, !alias.scope !1059, !noalias !1060, !noundef !18
  %brmerge.not.i = fcmp uno float %_6.i.i, %_7.i.i58
  br i1 %brmerge.not.i, label %bb6.i.i59, label %"_ZN5alloc5slice29_$LT$impl$u20$$u5b$T$u5d$$GT$7sort_by28_$u7b$$u7b$closure$u7d$$u7d$17hfaa75802b1959b0aE.exit", !prof !21

bb6.i.i59:                                        ; preds = %bb5.i.i
; call core::option::unwrap_failed
  tail call void @_ZN4core6option13unwrap_failed17hef2534b77b89c04fE(ptr noalias noundef readonly align 8 captures(address, read_provenance) dereferenceable(24) @alloc_4a4e7fec44b84c1472b04d0c86f3e1b7) #18, !noalias !1063
  unreachable

"_ZN5alloc5slice29_$LT$impl$u20$$u5b$T$u5d$$GT$7sort_by28_$u7b$$u7b$closure$u7d$$u7d$17hfaa75802b1959b0aE.exit": ; preds = %bb5.i.i
  %_8.i.mux.i = fcmp olt float %_6.i.i, %_7.i.i58
  br i1 %_8.i.mux.i, label %bb7.i.i, label %_ZN4core5slice4sort6shared17find_existing_run17h017626d65394a468E.exit.i

bb7.i.i:                                          ; preds = %"_ZN5alloc5slice29_$LT$impl$u20$$u5b$T$u5d$$GT$7sort_by28_$u7b$$u7b$closure$u7d$$u7d$17hfaa75802b1959b0aE.exit"
  %5 = add nuw i64 %run_len.sroa.0.1.i.i98, 1
  %exitcond116.not = icmp eq i64 %5, %new_len
  br i1 %exitcond116.not, label %_ZN4core5slice4sort6shared17find_existing_run17h017626d65394a468E.exit.i, label %bb5.i.i

_ZN4core5slice4sort6shared17find_existing_run17h017626d65394a468E.exit.i: ; preds = %bb15.i.i, %"_ZN5alloc5slice29_$LT$impl$u20$$u5b$T$u5d$$GT$7sort_by28_$u7b$$u7b$closure$u7d$$u7d$17hfaa75802b1959b0aE.exit65", %bb7.i.i, %"_ZN5alloc5slice29_$LT$impl$u20$$u5b$T$u5d$$GT$7sort_by28_$u7b$$u7b$closure$u7d$$u7d$17hfaa75802b1959b0aE.exit"
  %_0.sroa.0.0.i.i = phi i64 [ %new_len, %bb7.i.i ], [ %run_len.sroa.0.1.i.i98, %"_ZN5alloc5slice29_$LT$impl$u20$$u5b$T$u5d$$GT$7sort_by28_$u7b$$u7b$closure$u7d$$u7d$17hfaa75802b1959b0aE.exit" ], [ %new_len, %bb15.i.i ], [ %run_len.sroa.0.0.i.i95, %"_ZN5alloc5slice29_$LT$impl$u20$$u5b$T$u5d$$GT$7sort_by28_$u7b$$u7b$closure$u7d$$u7d$17hfaa75802b1959b0aE.exit65" ]
  %_12.i = icmp samesign ule i64 %_0.sroa.0.0.i.i, %new_len
  tail call void @llvm.assume(i1 %_12.i)
  %_13.not.i = icmp ult i64 %_0.sroa.0.0.i.i, %min_good_run_len.sroa.0.0
  br i1 %_13.not.i, label %bb7.i41, label %bb3.i37

_ZN4core5slice4sort6shared17find_existing_run17h017626d65394a468E.exit.i.thread124: ; preds = %bb4.i.i.preheader
  br i1 %_13.not.i127, label %bb7.i41, label %bb5.preheader.i.i

_ZN4core5slice4sort6shared17find_existing_run17h017626d65394a468E.exit.i.thread: ; preds = %bb11.i.i.preheader
  br i1 %_13.not.i121, label %bb7.i41, label %bb5.i38

bb3.i37:                                          ; preds = %_ZN4core5slice4sort6shared17find_existing_run17h017626d65394a468E.exit.i
  br i1 %_8.i.mux.i69, label %bb14.i, label %bb5.i38

bb11.i42:                                         ; preds = %bb7.i41
  %_0.sroa.0.0.i57 = tail call noundef i64 @llvm.umin.i64(i64 range(i64 0, 2305843009213693952) %new_len, i64 %min_good_run_len.sroa.0.0)
  %_36.i = shl nuw nsw i64 %_0.sroa.0.0.i57, 1
  br label %_ZN4core5slice4sort6stable5drift10create_run17h4119af24d47959b6E.exit

bb16.i43:                                         ; preds = %bb7.i41
  %_0.sroa.0.0.i56 = tail call noundef i64 @llvm.umin.i64(i64 range(i64 0, 2305843009213693952) %new_len, i64 32)
; call core::slice::sort::stable::quicksort::quicksort
  tail call void @_ZN4core5slice4sort6stable9quicksort9quicksort17h39c332b52467a176E(ptr noalias noundef nonnull align 4 %_82, i64 noundef %_0.sroa.0.0.i56, ptr noalias noundef nonnull align 4 %scratch.0, i64 noundef range(i64 0, 2305843009213693952) %scratch.1, i32 noundef 0, ptr noalias noundef readonly align 4 captures(address, read_provenance) dereferenceable_or_null(4) null, ptr noalias noundef nonnull align 8 dereferenceable(8) %is_less) #21
  %_35.i = shl nuw nsw i64 %_0.sroa.0.0.i56, 1
  %_34.i = or disjoint i64 %_35.i, 1
  br label %_ZN4core5slice4sort6stable5drift10create_run17h4119af24d47959b6E.exit

bb5.i38:                                          ; preds = %bb6.i.i, %middle.block, %_ZN4core5slice4sort6shared17find_existing_run17h017626d65394a468E.exit.i.thread, %bb1.i, %bb14.i, %bb3.i37
  %_0.sroa.0.0.i.i7780 = phi i64 [ %_0.sroa.0.0.i.i, %bb3.i37 ], [ 1, %bb14.i ], [ %new_len, %bb1.i ], [ 2, %_ZN4core5slice4sort6shared17find_existing_run17h017626d65394a468E.exit.i.thread ], [ %_0.sroa.0.0.i.i122130134, %middle.block ], [ %_0.sroa.0.0.i.i122130134, %bb6.i.i ]
  %_27.i = shl nuw nsw i64 %_0.sroa.0.0.i.i7780, 1
  %_26.i = or disjoint i64 %_27.i, 1
  br label %_ZN4core5slice4sort6stable5drift10create_run17h4119af24d47959b6E.exit

bb14.i:                                           ; preds = %bb3.i37
  %half_len2.i = lshr i64 %_0.sroa.0.0.i.i, 1
  tail call void @llvm.experimental.noalias.scope.decl(metadata !1064), !noalias !1067
  tail call void @llvm.experimental.noalias.scope.decl(metadata !1069), !noalias !1067
  %_915.not.i.i = icmp samesign ult i64 %_0.sroa.0.0.i.i, 2
  br i1 %_915.not.i.i, label %bb5.i38, label %bb5.preheader.i.i

bb5.preheader.i.i:                                ; preds = %_ZN4core5slice4sort6shared17find_existing_run17h017626d65394a468E.exit.i.thread124, %bb14.i
  %half_len2.i135 = phi i64 [ %half_len2.i, %bb14.i ], [ 1, %_ZN4core5slice4sort6shared17find_existing_run17h017626d65394a468E.exit.i.thread124 ]
  %_0.sroa.0.0.i.i122130134 = phi i64 [ %_0.sroa.0.0.i.i, %bb14.i ], [ 2, %_ZN4core5slice4sort6shared17find_existing_run17h017626d65394a468E.exit.i.thread124 ]
  %end.i = getelementptr inbounds nuw float, ptr %_82, i64 %_0.sroa.0.0.i.i122130134
  %min.iters.check = icmp samesign ult i64 %half_len2.i135, 8
  br i1 %min.iters.check, label %bb6.i.i.preheader, label %vector.ph

vector.ph:                                        ; preds = %bb5.preheader.i.i
  %n.vec = and i64 %half_len2.i135, 9223372036854775800
  br label %vector.body

vector.body:                                      ; preds = %vector.body, %vector.ph
  %index = phi i64 [ 0, %vector.ph ], [ %index.next, %vector.body ]
  %6 = xor i64 %index, -1
  %7 = getelementptr inbounds nuw float, ptr %_82, i64 %index
  %8 = getelementptr float, ptr %end.i, i64 %6
  %9 = getelementptr inbounds nuw i8, ptr %7, i64 16
  %wide.load = load <4 x float>, ptr %7, align 4, !alias.scope !1071, !noalias !1074
  %wide.load152 = load <4 x float>, ptr %9, align 4, !alias.scope !1071, !noalias !1074
  %10 = getelementptr i8, ptr %8, i64 -12
  %11 = getelementptr i8, ptr %8, i64 -28
  %wide.load153 = load <4 x i32>, ptr %10, align 4, !alias.scope !1075, !noalias !1076
  %reverse = shufflevector <4 x i32> %wide.load153, <4 x i32> poison, <4 x i32> <i32 3, i32 2, i32 1, i32 0>
  %wide.load154 = load <4 x i32>, ptr %11, align 4, !alias.scope !1075, !noalias !1076
  %reverse155 = shufflevector <4 x i32> %wide.load154, <4 x i32> poison, <4 x i32> <i32 3, i32 2, i32 1, i32 0>
  %12 = getelementptr inbounds nuw i8, ptr %7, i64 16
  store <4 x i32> %reverse, ptr %7, align 4, !alias.scope !1071, !noalias !1074
  store <4 x i32> %reverse155, ptr %12, align 4, !alias.scope !1071, !noalias !1074
  %13 = getelementptr i8, ptr %8, i64 -12
  %14 = getelementptr i8, ptr %8, i64 -28
  %reverse156 = shufflevector <4 x float> %wide.load, <4 x float> poison, <4 x i32> <i32 3, i32 2, i32 1, i32 0>
  store <4 x float> %reverse156, ptr %13, align 4, !alias.scope !1075, !noalias !1076
  %reverse157 = shufflevector <4 x float> %wide.load152, <4 x float> poison, <4 x i32> <i32 3, i32 2, i32 1, i32 0>
  store <4 x float> %reverse157, ptr %14, align 4, !alias.scope !1075, !noalias !1076
  %index.next = add nuw i64 %index, 8
  %15 = icmp eq i64 %index.next, %n.vec
  br i1 %15, label %middle.block, label %vector.body, !llvm.loop !1077

middle.block:                                     ; preds = %vector.body
  %cmp.n = icmp eq i64 %half_len2.i135, %n.vec
  br i1 %cmp.n, label %bb5.i38, label %bb6.i.i.preheader

bb6.i.i.preheader:                                ; preds = %bb5.preheader.i.i, %middle.block
  %i.sroa.0.016.i.i.ph = phi i64 [ 0, %bb5.preheader.i.i ], [ %n.vec, %middle.block ]
  br label %bb6.i.i

bb6.i.i:                                          ; preds = %bb6.i.i.preheader, %bb6.i.i
  %i.sroa.0.016.i.i = phi i64 [ %19, %bb6.i.i ], [ %i.sroa.0.016.i.i.ph, %bb6.i.i.preheader ]
  %16 = xor i64 %i.sroa.0.016.i.i, -1
  %x.i.i = getelementptr inbounds nuw float, ptr %_82, i64 %i.sroa.0.016.i.i
  %y.i.i = getelementptr float, ptr %end.i, i64 %16
  %17 = load float, ptr %x.i.i, align 4, !alias.scope !1071, !noalias !1074, !noundef !18
  %18 = load i32, ptr %y.i.i, align 4, !alias.scope !1075, !noalias !1076
  store i32 %18, ptr %x.i.i, align 4, !alias.scope !1071, !noalias !1074
  store float %17, ptr %y.i.i, align 4, !alias.scope !1075, !noalias !1076
  %19 = add nuw nsw i64 %i.sroa.0.016.i.i, 1
  %exitcond.not.i.i = icmp eq i64 %19, %half_len2.i135
  br i1 %exitcond.not.i.i, label %bb5.i38, label %bb6.i.i, !llvm.loop !1078

_ZN4core5slice4sort6stable5drift10create_run17h4119af24d47959b6E.exit: ; preds = %bb11.i42, %bb16.i43, %bb5.i38
  %_0.sroa.0.0.i40 = phi i64 [ %_26.i, %bb5.i38 ], [ %_34.i, %bb16.i43 ], [ %_36.i, %bb11.i42 ]
  %_31 = lshr i64 %prev_run.sroa.0.0, 1
  %_35 = lshr i64 %_0.sroa.0.0.i40, 1
  %factor = shl i64 %scan_idx.sroa.0.0, 1
  %x = sub i64 %factor, %_31
  %y = add i64 %_35, %factor
  %_90 = mul i64 %x, %scale_factor.sroa.0.0
  %_91 = mul i64 %y, %scale_factor.sroa.0.0
  %self4 = xor i64 %_91, %_90
  %20 = tail call range(i64 0, 65) i64 @llvm.ctlz.i64(i64 %self4, i1 false)
  %21 = trunc nuw nsw i64 %20 to i8
  br label %bb10

bb12:                                             ; preds = %bb12.lr.ph, %_ZN4core5slice4sort6stable5drift13logical_merge17h6ad0a5d918e08348E.exit
  %stack_len.sroa.0.1103 = phi i64 [ %stack_len.sroa.0.0, %bb12.lr.ph ], [ %count, %_ZN4core5slice4sort6stable5drift13logical_merge17h6ad0a5d918e08348E.exit ]
  %prev_run.sroa.0.1102 = phi i64 [ %prev_run.sroa.0.0, %bb12.lr.ph ], [ %_0.sroa.0.0.i, %_ZN4core5slice4sort6stable5drift13logical_merge17h6ad0a5d918e08348E.exit ]
  %count = add i64 %stack_len.sroa.0.1103, -1
  %_41 = getelementptr inbounds nuw i8, ptr %desired_depth_storage, i64 %count
  %_40 = load i8, ptr %_41, align 1, !noundef !18
  %_39.not = icmp ult i8 %_40, %desired_depth.sroa.0.0
  br i1 %_39.not, label %bb17, label %bb13

bb17:                                             ; preds = %_ZN4core5slice4sort6stable5drift13logical_merge17h6ad0a5d918e08348E.exit, %bb12, %bb10
  %prev_run.sroa.0.1.lcssa = phi i64 [ %prev_run.sroa.0.0, %bb10 ], [ %prev_run.sroa.0.1102, %bb12 ], [ %_0.sroa.0.0.i, %_ZN4core5slice4sort6stable5drift13logical_merge17h6ad0a5d918e08348E.exit ]
  %stack_len.sroa.0.1.lcssa = phi i64 [ %stack_len.sroa.0.0, %bb10 ], [ %stack_len.sroa.0.1103, %bb12 ], [ 1, %_ZN4core5slice4sort6stable5drift13logical_merge17h6ad0a5d918e08348E.exit ]
  %_59 = getelementptr inbounds nuw i64, ptr %run_storage, i64 %stack_len.sroa.0.1.lcssa
  store i64 %prev_run.sroa.0.1.lcssa, ptr %_59, align 8
  %_61 = getelementptr inbounds nuw i8, ptr %desired_depth_storage, i64 %stack_len.sroa.0.1.lcssa
  store i8 %desired_depth.sroa.0.0, ptr %_61, align 1
  br i1 %_22, label %bb19, label %bb18

bb13:                                             ; preds = %bb12
  %_46 = getelementptr inbounds nuw i64, ptr %run_storage, i64 %count
  %left10 = load i64, ptr %_46, align 8, !noundef !18
  %_50 = lshr i64 %left10, 1
  %_51 = lshr i64 %prev_run.sroa.0.1102, 1
  %merged_len = add nuw i64 %_50, %_51
  %merge_start_idx = sub i64 %scan_idx.sroa.0.0, %merged_len
  %_98 = getelementptr inbounds nuw float, ptr %v.0, i64 %merge_start_idx
  %can_fit_in_scratch.i = icmp samesign ugt i64 %merged_len, %scratch.1
  %_22.i = and i64 %prev_run.sroa.0.1102, 1
  %_10.not.i = icmp eq i64 %_22.i, 0
  %22 = or i64 %left10, %prev_run.sroa.0.1102
  %23 = and i64 %22, 1
  %24 = icmp ne i64 %23, 0
  %or.cond2.i = or i1 %can_fit_in_scratch.i, %24
  br i1 %or.cond2.i, label %bb3.i, label %bb9.i

bb3.i:                                            ; preds = %bb13
  %_21.i = and i64 %left10, 1
  %_9.not.i = icmp eq i64 %_21.i, 0
  br i1 %_9.not.i, label %bb11.i, label %bb5.i

bb9.i:                                            ; preds = %bb13
  %_40.i = shl nuw nsw i64 %merged_len, 1
  br label %_ZN4core5slice4sort6stable5drift13logical_merge17h6ad0a5d918e08348E.exit

bb5.i:                                            ; preds = %bb11.i, %bb3.i
  br i1 %_10.not.i, label %bb16.i, label %bb7.i

bb11.i:                                           ; preds = %bb3.i
  %self.i = or i64 %_50, 1
  %25 = tail call range(i64 3, 64) i64 @llvm.ctlz.i64(i64 %self.i, i1 true)
  %26 = trunc nuw nsw i64 %25 to i32
  %log.i = shl nuw nsw i32 %26, 1
  %limit.i = xor i32 %log.i, 126
; call core::slice::sort::stable::quicksort::quicksort
  tail call void @_ZN4core5slice4sort6stable9quicksort9quicksort17h39c332b52467a176E(ptr noalias noundef nonnull align 4 %_98, i64 noundef range(i64 0, 2305843009213693952) %_50, ptr noalias noundef nonnull align 4 %scratch.0, i64 noundef range(i64 0, 2305843009213693952) %scratch.1, i32 noundef %limit.i, ptr noalias noundef readonly align 4 captures(address, read_provenance) dereferenceable_or_null(4) null, ptr noalias noundef nonnull align 8 dereferenceable(8) %is_less) #21
  br label %bb5.i

bb7.i:                                            ; preds = %bb16.i, %bb5.i
  tail call void @llvm.experimental.noalias.scope.decl(metadata !1079)
  tail call void @llvm.experimental.noalias.scope.decl(metadata !1082)
  %_6.i = icmp ult i64 %left10, 2
  %_7.i = icmp ult i64 %prev_run.sroa.0.1102, 2
  %or.cond.i = select i1 %_6.i, i1 true, i1 %_7.i
  br i1 %or.cond.i, label %_ZN4core5slice4sort6stable5merge5merge17hf2e29e4ca5e716cbE.exit, label %bb2.i

bb2.i:                                            ; preds = %bb7.i
  %_0.sroa.0.0.i.i44 = tail call i64 @llvm.umin.i64(i64 %_51, i64 range(i64 0, -9223372036854775808) %_50)
  %_8.i = icmp samesign ult i64 %scratch.1, %_0.sroa.0.0.i.i44
  br i1 %_8.i, label %_ZN4core5slice4sort6stable5merge5merge17hf2e29e4ca5e716cbE.exit, label %bb5.i45

bb5.i45:                                          ; preds = %bb2.i
  %v_mid.i = getelementptr inbounds nuw float, ptr %_98, i64 %_50
  %left_is_shorter.not.i = icmp samesign ugt i64 %_50, %_51
  %spec.select.i = select i1 %left_is_shorter.not.i, ptr %v_mid.i, ptr %_98
  %27 = shl nuw nsw i64 %_0.sroa.0.0.i.i44, 2
  tail call void @llvm.memcpy.p0.p0.i64(ptr nonnull align 4 %scratch.0, ptr nonnull align 4 %spec.select.i, i64 %27, i1 false), !alias.scope !1084
  %_22.i46 = getelementptr inbounds nuw i8, ptr %scratch.0, i64 %27
  br i1 %left_is_shorter.not.i, label %bb1.i.i, label %bb3.i.i

bb1.i.i:                                          ; preds = %bb5.i45, %"_ZN5alloc5slice29_$LT$impl$u20$$u5b$T$u5d$$GT$7sort_by28_$u7b$$u7b$closure$u7d$$u7d$17hfaa75802b1959b0aE.exit.i.i"
  %merge_state.sroa.13.2.i = phi ptr [ %_18.i.i, %"_ZN5alloc5slice29_$LT$impl$u20$$u5b$T$u5d$$GT$7sort_by28_$u7b$$u7b$closure$u7d$$u7d$17hfaa75802b1959b0aE.exit.i.i" ], [ %v_mid.i, %bb5.i45 ]
  %merge_state.sroa.7.2.i = phi ptr [ %_21.i.i49, %"_ZN5alloc5slice29_$LT$impl$u20$$u5b$T$u5d$$GT$7sort_by28_$u7b$$u7b$closure$u7d$$u7d$17hfaa75802b1959b0aE.exit.i.i" ], [ %_22.i46, %bb5.i45 ]
  %out.sroa.0.0.i.i = phi ptr [ %30, %"_ZN5alloc5slice29_$LT$impl$u20$$u5b$T$u5d$$GT$7sort_by28_$u7b$$u7b$closure$u7d$$u7d$17hfaa75802b1959b0aE.exit.i.i" ], [ %v_end.i, %bb5.i45 ]
  %28 = getelementptr inbounds i8, ptr %merge_state.sroa.13.2.i, i64 -4
  %29 = getelementptr inbounds i8, ptr %merge_state.sroa.7.2.i, i64 -4
  tail call void @llvm.experimental.noalias.scope.decl(metadata !1085)
  tail call void @llvm.experimental.noalias.scope.decl(metadata !1088)
  tail call void @llvm.experimental.noalias.scope.decl(metadata !1090)
  tail call void @llvm.experimental.noalias.scope.decl(metadata !1093)
  %_6.i.i.i.i = load float, ptr %29, align 4, !alias.scope !1095, !noalias !1096, !noundef !18
  %_7.i.i.i.i = load float, ptr %28, align 4, !alias.scope !1099, !noalias !1100, !noundef !18
  %brmerge.not.i.i.i = fcmp uno float %_6.i.i.i.i, %_7.i.i.i.i
  br i1 %brmerge.not.i.i.i, label %bb6.i.i.i.i, label %"_ZN5alloc5slice29_$LT$impl$u20$$u5b$T$u5d$$GT$7sort_by28_$u7b$$u7b$closure$u7d$$u7d$17hfaa75802b1959b0aE.exit.i.i", !prof !21

bb6.i.i.i.i:                                      ; preds = %bb1.i.i
; invoke core::option::unwrap_failed
  invoke void @_ZN4core6option13unwrap_failed17hef2534b77b89c04fE(ptr noalias noundef readonly align 8 captures(address, read_provenance) dereferenceable(24) @alloc_4a4e7fec44b84c1472b04d0c86f3e1b7) #18
          to label %.noexc.i unwind label %bb20.i, !noalias !1084

.noexc.i:                                         ; preds = %bb6.i.i.i.i
  unreachable

"_ZN5alloc5slice29_$LT$impl$u20$$u5b$T$u5d$$GT$7sort_by28_$u7b$$u7b$closure$u7d$$u7d$17hfaa75802b1959b0aE.exit.i.i": ; preds = %bb1.i.i
  %30 = getelementptr inbounds i8, ptr %out.sroa.0.0.i.i, i64 -4
  %_8.i.mux.i.i.i = fcmp olt float %_6.i.i.i.i, %_7.i.i.i.i
  %..i.i = select i1 %_8.i.mux.i.i.i, ptr %28, ptr %29
  %31 = load i32, ptr %..i.i, align 4, !alias.scope !1084, !noalias !1101
  store i32 %31, ptr %30, align 4, !alias.scope !1079, !noalias !1102
  %_20.i.i = xor i1 %_8.i.mux.i.i.i, true
  %count.i.i = zext i1 %_20.i.i to i64
  %_18.i.i = getelementptr inbounds nuw float, ptr %28, i64 %count.i.i
  %count4.i.i = zext i1 %_8.i.mux.i.i.i to i64
  %_21.i.i49 = getelementptr inbounds nuw float, ptr %29, i64 %count4.i.i
  %_23.i.i = icmp eq ptr %_18.i.i, %_98
  %_26.i.i = icmp eq ptr %_21.i.i49, %scratch.0
  %or.cond.i.i = select i1 %_23.i.i, i1 true, i1 %_26.i.i
  br i1 %or.cond.i.i, label %bb16.i48, label %bb1.i.i

bb3.i.i:                                          ; preds = %bb5.i45, %"_ZN5alloc5slice29_$LT$impl$u20$$u5b$T$u5d$$GT$7sort_by28_$u7b$$u7b$closure$u7d$$u7d$17hfaa75802b1959b0aE.exit.i15.i"
  %merge_state.sroa.13.3.i = phi ptr [ %_25.i.i, %"_ZN5alloc5slice29_$LT$impl$u20$$u5b$T$u5d$$GT$7sort_by28_$u7b$$u7b$closure$u7d$$u7d$17hfaa75802b1959b0aE.exit.i15.i" ], [ %_98, %bb5.i45 ]
  %merge_state.sroa.0.2.i = phi ptr [ %_20.i18.i, %"_ZN5alloc5slice29_$LT$impl$u20$$u5b$T$u5d$$GT$7sort_by28_$u7b$$u7b$closure$u7d$$u7d$17hfaa75802b1959b0aE.exit.i15.i" ], [ %scratch.0, %bb5.i45 ]
  %right.sroa.0.010.i.i = phi ptr [ %_23.i19.i, %"_ZN5alloc5slice29_$LT$impl$u20$$u5b$T$u5d$$GT$7sort_by28_$u7b$$u7b$closure$u7d$$u7d$17hfaa75802b1959b0aE.exit.i15.i" ], [ %v_mid.i, %bb5.i45 ]
  tail call void @llvm.experimental.noalias.scope.decl(metadata !1103)
  tail call void @llvm.experimental.noalias.scope.decl(metadata !1106)
  tail call void @llvm.experimental.noalias.scope.decl(metadata !1108)
  tail call void @llvm.experimental.noalias.scope.decl(metadata !1111)
  %_6.i.i.i12.i = load float, ptr %right.sroa.0.010.i.i, align 4, !alias.scope !1113, !noalias !1114, !noundef !18
  %_7.i.i.i13.i = load float, ptr %merge_state.sroa.0.2.i, align 4, !alias.scope !1117, !noalias !1118, !noundef !18
  %brmerge.not.i.i14.i = fcmp uno float %_6.i.i.i12.i, %_7.i.i.i13.i
  br i1 %brmerge.not.i.i14.i, label %bb6.i.i.i21.i, label %"_ZN5alloc5slice29_$LT$impl$u20$$u5b$T$u5d$$GT$7sort_by28_$u7b$$u7b$closure$u7d$$u7d$17hfaa75802b1959b0aE.exit.i15.i", !prof !21

bb6.i.i.i21.i:                                    ; preds = %bb3.i.i
; invoke core::option::unwrap_failed
  invoke void @_ZN4core6option13unwrap_failed17hef2534b77b89c04fE(ptr noalias noundef readonly align 8 captures(address, read_provenance) dereferenceable(24) @alloc_4a4e7fec44b84c1472b04d0c86f3e1b7) #18
          to label %.noexc22.i unwind label %bb20.i, !noalias !1084

.noexc22.i:                                       ; preds = %bb6.i.i.i21.i
  unreachable

"_ZN5alloc5slice29_$LT$impl$u20$$u5b$T$u5d$$GT$7sort_by28_$u7b$$u7b$closure$u7d$$u7d$17hfaa75802b1959b0aE.exit.i15.i": ; preds = %bb3.i.i
  %_8.i.mux.i.i16.i = fcmp olt float %_6.i.i.i12.i, %_7.i.i.i13.i
  %consume_left.i.i = xor i1 %_8.i.mux.i.i16.i, true
  %src.sroa.0.0.i.i = select i1 %_8.i.mux.i.i16.i, ptr %right.sroa.0.010.i.i, ptr %merge_state.sroa.0.2.i
  %32 = load i32, ptr %src.sroa.0.0.i.i, align 4, !alias.scope !1084, !noalias !1119
  store i32 %32, ptr %merge_state.sroa.13.3.i, align 4, !alias.scope !1079, !noalias !1120
  %count.i17.i = zext i1 %consume_left.i.i to i64
  %_20.i18.i = getelementptr inbounds nuw float, ptr %merge_state.sroa.0.2.i, i64 %count.i17.i
  %count2.i.i = zext i1 %_8.i.mux.i.i16.i to i64
  %_23.i19.i = getelementptr inbounds nuw float, ptr %right.sroa.0.010.i.i, i64 %count2.i.i
  %_25.i.i = getelementptr inbounds nuw i8, ptr %merge_state.sroa.13.3.i, i64 4
  %_7.i.i = icmp ne ptr %_20.i18.i, %_22.i46
  %_10.i.i47 = icmp ne ptr %_23.i19.i, %v_end.i
  %or.cond.i20.i = select i1 %_7.i.i, i1 %_10.i.i47, i1 false
  br i1 %or.cond.i20.i, label %bb3.i.i, label %bb16.i48

bb16.i48:                                         ; preds = %"_ZN5alloc5slice29_$LT$impl$u20$$u5b$T$u5d$$GT$7sort_by28_$u7b$$u7b$closure$u7d$$u7d$17hfaa75802b1959b0aE.exit.i15.i", %"_ZN5alloc5slice29_$LT$impl$u20$$u5b$T$u5d$$GT$7sort_by28_$u7b$$u7b$closure$u7d$$u7d$17hfaa75802b1959b0aE.exit.i.i"
  %merge_state.sroa.13.1.i = phi ptr [ %_18.i.i, %"_ZN5alloc5slice29_$LT$impl$u20$$u5b$T$u5d$$GT$7sort_by28_$u7b$$u7b$closure$u7d$$u7d$17hfaa75802b1959b0aE.exit.i.i" ], [ %_25.i.i, %"_ZN5alloc5slice29_$LT$impl$u20$$u5b$T$u5d$$GT$7sort_by28_$u7b$$u7b$closure$u7d$$u7d$17hfaa75802b1959b0aE.exit.i15.i" ]
  %merge_state.sroa.7.1.i = phi ptr [ %_21.i.i49, %"_ZN5alloc5slice29_$LT$impl$u20$$u5b$T$u5d$$GT$7sort_by28_$u7b$$u7b$closure$u7d$$u7d$17hfaa75802b1959b0aE.exit.i.i" ], [ %_22.i46, %"_ZN5alloc5slice29_$LT$impl$u20$$u5b$T$u5d$$GT$7sort_by28_$u7b$$u7b$closure$u7d$$u7d$17hfaa75802b1959b0aE.exit.i15.i" ]
  %merge_state.sroa.0.1.i = phi ptr [ %scratch.0, %"_ZN5alloc5slice29_$LT$impl$u20$$u5b$T$u5d$$GT$7sort_by28_$u7b$$u7b$closure$u7d$$u7d$17hfaa75802b1959b0aE.exit.i.i" ], [ %_20.i18.i, %"_ZN5alloc5slice29_$LT$impl$u20$$u5b$T$u5d$$GT$7sort_by28_$u7b$$u7b$closure$u7d$$u7d$17hfaa75802b1959b0aE.exit.i15.i" ]
  %33 = ptrtoint ptr %merge_state.sroa.7.1.i to i64
  %34 = ptrtoint ptr %merge_state.sroa.0.1.i to i64
  %35 = sub nuw i64 %33, %34
  tail call void @llvm.memcpy.p0.p0.i64(ptr nonnull align 4 %merge_state.sroa.13.1.i, ptr align 4 %merge_state.sroa.0.1.i, i64 %35, i1 false), !alias.scope !1084, !noalias !1121
  br label %_ZN4core5slice4sort6stable5merge5merge17hf2e29e4ca5e716cbE.exit

bb20.i:                                           ; preds = %bb6.i.i.i21.i, %bb6.i.i.i.i
  %merge_state.sroa.13.0.i = phi ptr [ %merge_state.sroa.13.2.i, %bb6.i.i.i.i ], [ %merge_state.sroa.13.3.i, %bb6.i.i.i21.i ]
  %merge_state.sroa.7.0.i = phi ptr [ %merge_state.sroa.7.2.i, %bb6.i.i.i.i ], [ %_22.i46, %bb6.i.i.i21.i ]
  %merge_state.sroa.0.0.i = phi ptr [ %scratch.0, %bb6.i.i.i.i ], [ %merge_state.sroa.0.2.i, %bb6.i.i.i21.i ]
  %36 = landingpad { ptr, i32 }
          cleanup
  %37 = ptrtoint ptr %merge_state.sroa.7.0.i to i64
  %38 = ptrtoint ptr %merge_state.sroa.0.0.i to i64
  %39 = sub nuw i64 %37, %38
  tail call void @llvm.memcpy.p0.p0.i64(ptr nonnull align 4 %merge_state.sroa.13.0.i, ptr nonnull align 4 %merge_state.sroa.0.0.i, i64 %39, i1 false), !alias.scope !1084, !noalias !1126
  resume { ptr, i32 } %36

_ZN4core5slice4sort6stable5merge5merge17hf2e29e4ca5e716cbE.exit: ; preds = %bb7.i, %bb2.i, %bb16.i48
  %_39.i = shl nuw nsw i64 %merged_len, 1
  %_38.i = or disjoint i64 %_39.i, 1
  br label %_ZN4core5slice4sort6stable5drift13logical_merge17h6ad0a5d918e08348E.exit

bb16.i:                                           ; preds = %bb5.i
  %_37.i = getelementptr inbounds nuw float, ptr %_98, i64 %_50
  %self.i50 = or i64 %_51, 1
  %40 = tail call range(i64 3, 64) i64 @llvm.ctlz.i64(i64 %self.i50, i1 true)
  %41 = trunc nuw nsw i64 %40 to i32
  %log.i51 = shl nuw nsw i32 %41, 1
  %limit.i52 = xor i32 %log.i51, 126
; call core::slice::sort::stable::quicksort::quicksort
  tail call void @_ZN4core5slice4sort6stable9quicksort9quicksort17h39c332b52467a176E(ptr noalias noundef nonnull align 4 %_37.i, i64 noundef range(i64 0, 2305843009213693952) %_51, ptr noalias noundef nonnull align 4 %scratch.0, i64 noundef range(i64 0, 2305843009213693952) %scratch.1, i32 noundef %limit.i52, ptr noalias noundef readonly align 4 captures(address, read_provenance) dereferenceable_or_null(4) null, ptr noalias noundef nonnull align 8 dereferenceable(8) %is_less) #21
  br label %bb7.i

_ZN4core5slice4sort6stable5drift13logical_merge17h6ad0a5d918e08348E.exit: ; preds = %bb9.i, %_ZN4core5slice4sort6stable5merge5merge17hf2e29e4ca5e716cbE.exit
  %_0.sroa.0.0.i = phi i64 [ %_38.i, %_ZN4core5slice4sort6stable5merge5merge17hf2e29e4ca5e716cbE.exit ], [ %_40.i, %bb9.i ]
  %_37 = icmp ugt i64 %count, 1
  br i1 %_37, label %bb12, label %bb17

bb19:                                             ; preds = %bb17
  %42 = add i64 %stack_len.sroa.0.1.lcssa, 1
  %_65 = lshr i64 %next_run.sroa.0.0, 1
  %43 = add nuw i64 %_65, %scan_idx.sroa.0.0
  br label %bb6

bb18:                                             ; preds = %bb17
  %_99 = and i64 %prev_run.sroa.0.1.lcssa, 1
  %_66.not = icmp eq i64 %_99, 0
  br i1 %_66.not, label %bb20, label %bb21

bb20:                                             ; preds = %bb18
  %self.i53 = or i64 %v.1, 1
  %44 = tail call range(i64 3, 64) i64 @llvm.ctlz.i64(i64 %self.i53, i1 true)
  %45 = trunc nuw nsw i64 %44 to i32
  %log.i54 = shl nuw nsw i32 %45, 1
  %limit.i55 = xor i32 %log.i54, 126
; call core::slice::sort::stable::quicksort::quicksort
  tail call void @_ZN4core5slice4sort6stable9quicksort9quicksort17h39c332b52467a176E(ptr noalias noundef nonnull align 4 %v.0, i64 noundef range(i64 0, 2305843009213693952) %v.1, ptr noalias noundef nonnull align 4 %scratch.0, i64 noundef range(i64 0, 2305843009213693952) %scratch.1, i32 noundef %limit.i55, ptr noalias noundef readonly align 4 captures(address, read_provenance) dereferenceable_or_null(4) null, ptr noalias noundef nonnull align 8 dereferenceable(8) %is_less) #21
  br label %bb21

bb21:                                             ; preds = %bb20, %bb18
  call void @llvm.lifetime.end.p0(i64 66, ptr nonnull %desired_depth_storage)
  call void @llvm.lifetime.end.p0(i64 528, ptr nonnull %run_storage)
  br label %bb22

bb22:                                             ; preds = %start, %bb21
  ret void
}

; core::slice::sort::stable::drift::sort
; Function Attrs: nonlazybind uwtable
define internal fastcc void @_ZN4core5slice4sort6stable5drift4sort17hf2c114673cd91d61E(ptr noalias noundef nonnull align 4 %v.0, i64 noundef range(i64 0, 2305843009213693952) %v.1, ptr noalias noundef nonnull align 4 %scratch.0, i64 noundef range(i64 0, 2305843009213693952) %scratch.1, i1 noundef zeroext %eager_sort, ptr noalias noundef nonnull align 8 dereferenceable(8) %is_less) unnamed_addr #0 personality ptr @rust_eh_personality {
start:
  %desired_depth_storage = alloca [66 x i8], align 1
  %run_storage = alloca [528 x i8], align 8
  %_6 = icmp samesign ult i64 %v.1, 2
  br i1 %_6, label %bb22, label %bb2

bb2:                                              ; preds = %start
  %d = udiv i64 4611686018427387904, %v.1
  %r = urem i64 4611686018427387904, %v.1
  %_73.not = icmp ne i64 %r, 0
  %0 = zext i1 %_73.not to i64
  %scale_factor.sroa.0.0 = add nuw nsw i64 %d, %0
  %_9 = icmp samesign ult i64 %v.1, 4097
  br i1 %_9, label %bb3, label %bb4

bb4:                                              ; preds = %bb2
; call core::slice::sort::stable::drift::sqrt_approx
  %1 = tail call noundef i64 @_ZN4core5slice4sort6stable5drift11sqrt_approx17h72a4dc1ae46294f4E(i64 noundef %v.1)
  br label %bb5

bb3:                                              ; preds = %bb2
  %_1135 = lshr i64 %v.1, 1
  %v1 = sub nsw i64 %v.1, %_1135
  %_0.sroa.0.0.i36 = tail call noundef i64 @llvm.umin.i64(i64 %v1, i64 64)
  br label %bb5

bb5:                                              ; preds = %bb3, %bb4
  %min_good_run_len.sroa.0.0 = phi i64 [ %_0.sroa.0.0.i36, %bb3 ], [ %1, %bb4 ]
  call void @llvm.lifetime.start.p0(i64 528, ptr nonnull %run_storage)
  call void @llvm.lifetime.start.p0(i64 66, ptr nonnull %desired_depth_storage)
  %_13.not.i121 = icmp ugt i64 %min_good_run_len.sroa.0.0, 2
  %_13.not.i127 = icmp ugt i64 %min_good_run_len.sroa.0.0, 2
  br label %bb6

bb6:                                              ; preds = %bb19, %bb5
  %prev_run.sroa.0.0 = phi i64 [ 1, %bb5 ], [ %next_run.sroa.0.0, %bb19 ]
  %scan_idx.sroa.0.0 = phi i64 [ 0, %bb5 ], [ %43, %bb19 ]
  %stack_len.sroa.0.0 = phi i64 [ 0, %bb5 ], [ %42, %bb19 ]
  %_22 = icmp ult i64 %scan_idx.sroa.0.0, %v.1
  br i1 %_22, label %bb30, label %bb10

bb10:                                             ; preds = %bb6, %_ZN4core5slice4sort6stable5drift10create_run17h06c467a4bb8b67c5E.exit
  %desired_depth.sroa.0.0 = phi i8 [ %21, %_ZN4core5slice4sort6stable5drift10create_run17h06c467a4bb8b67c5E.exit ], [ 0, %bb6 ]
  %next_run.sroa.0.0 = phi i64 [ %_0.sroa.0.0.i40, %_ZN4core5slice4sort6stable5drift10create_run17h06c467a4bb8b67c5E.exit ], [ 1, %bb6 ]
  %_37101 = icmp ugt i64 %stack_len.sroa.0.0, 1
  br i1 %_37101, label %bb12.lr.ph, label %bb17

bb12.lr.ph:                                       ; preds = %bb10
  %v_end.i = getelementptr inbounds nuw float, ptr %v.0, i64 %scan_idx.sroa.0.0
  br label %bb12

bb30:                                             ; preds = %bb6
  %new_len = sub nuw nsw i64 %v.1, %scan_idx.sroa.0.0
  %_82 = getelementptr inbounds nuw float, ptr %v.0, i64 %scan_idx.sroa.0.0
  %_7.not.i = icmp ult i64 %new_len, %min_good_run_len.sroa.0.0
  br i1 %_7.not.i, label %bb7.i41, label %bb1.i

bb7.i41:                                          ; preds = %_ZN4core5slice4sort6shared17find_existing_run17hfff9c6e1c581eeebE.exit.i.thread124, %_ZN4core5slice4sort6shared17find_existing_run17hfff9c6e1c581eeebE.exit.i.thread, %_ZN4core5slice4sort6shared17find_existing_run17hfff9c6e1c581eeebE.exit.i, %bb30
  br i1 %eager_sort, label %bb16.i43, label %bb11.i42

bb1.i:                                            ; preds = %bb30
  %_4.i.i = icmp samesign ult i64 %new_len, 2
  br i1 %_4.i.i, label %bb5.i38, label %bb2.i.i

bb2.i.i:                                          ; preds = %bb1.i
  %_28.i.i = getelementptr inbounds nuw i8, ptr %_82, i64 4
  tail call void @llvm.experimental.noalias.scope.decl(metadata !1131)
  tail call void @llvm.experimental.noalias.scope.decl(metadata !1134)
  tail call void @llvm.experimental.noalias.scope.decl(metadata !1136), !noalias !1139
  tail call void @llvm.experimental.noalias.scope.decl(metadata !1142), !noalias !1139
  %_6.i.i66 = load float, ptr %_28.i.i, align 4, !alias.scope !1144, !noalias !1145, !noundef !18
  %_7.i.i67 = load float, ptr %_82, align 4, !alias.scope !1146, !noalias !1147, !noundef !18
  %brmerge.not.i68 = fcmp uno float %_6.i.i66, %_7.i.i67
  br i1 %brmerge.not.i68, label %bb6.i.i70, label %"_ZN5alloc5slice29_$LT$impl$u20$$u5b$T$u5d$$GT$7sort_by28_$u7b$$u7b$closure$u7d$$u7d$17hf5b8f37855ac0c3dE.exit71", !prof !21

bb6.i.i70:                                        ; preds = %bb2.i.i
; call core::option::unwrap_failed
  tail call void @_ZN4core6option13unwrap_failed17hef2534b77b89c04fE(ptr noalias noundef readonly align 8 captures(address, read_provenance) dereferenceable(24) @alloc_b0e33ba48ef5fa15e44a55a18226b5ac) #18, !noalias !1148
  unreachable

"_ZN5alloc5slice29_$LT$impl$u20$$u5b$T$u5d$$GT$7sort_by28_$u7b$$u7b$closure$u7d$$u7d$17hf5b8f37855ac0c3dE.exit71": ; preds = %bb2.i.i
  %_8.i.mux.i69 = fcmp olt float %_6.i.i66, %_7.i.i67
  %_10.i.i97.not = icmp eq i64 %new_len, 2
  br i1 %_8.i.mux.i69, label %bb4.i.i.preheader, label %bb11.i.i.preheader

bb11.i.i.preheader:                               ; preds = %"_ZN5alloc5slice29_$LT$impl$u20$$u5b$T$u5d$$GT$7sort_by28_$u7b$$u7b$closure$u7d$$u7d$17hf5b8f37855ac0c3dE.exit71"
  br i1 %_10.i.i97.not, label %_ZN4core5slice4sort6shared17find_existing_run17hfff9c6e1c581eeebE.exit.i.thread, label %bb12.i.i

bb4.i.i.preheader:                                ; preds = %"_ZN5alloc5slice29_$LT$impl$u20$$u5b$T$u5d$$GT$7sort_by28_$u7b$$u7b$closure$u7d$$u7d$17hf5b8f37855ac0c3dE.exit71"
  br i1 %_10.i.i97.not, label %_ZN4core5slice4sort6shared17find_existing_run17hfff9c6e1c581eeebE.exit.i.thread124, label %bb5.i.i

bb12.i.i:                                         ; preds = %bb11.i.i.preheader, %bb15.i.i
  %_7.i.i61 = phi float [ %_6.i.i60, %bb15.i.i ], [ %_6.i.i66, %bb11.i.i.preheader ]
  %run_len.sroa.0.0.i.i95 = phi i64 [ %3, %bb15.i.i ], [ 2, %bb11.i.i.preheader ]
  %2 = getelementptr inbounds nuw float, ptr %_82, i64 %run_len.sroa.0.0.i.i95
  tail call void @llvm.experimental.noalias.scope.decl(metadata !1149)
  tail call void @llvm.experimental.noalias.scope.decl(metadata !1152), !noalias !1139
  %_6.i.i60 = load float, ptr %2, align 4, !alias.scope !1155, !noalias !1156, !noundef !18
  %brmerge.not.i62 = fcmp uno float %_6.i.i60, %_7.i.i61
  br i1 %brmerge.not.i62, label %bb6.i.i64, label %"_ZN5alloc5slice29_$LT$impl$u20$$u5b$T$u5d$$GT$7sort_by28_$u7b$$u7b$closure$u7d$$u7d$17hf5b8f37855ac0c3dE.exit65", !prof !21

bb6.i.i64:                                        ; preds = %bb12.i.i
; call core::option::unwrap_failed
  tail call void @_ZN4core6option13unwrap_failed17hef2534b77b89c04fE(ptr noalias noundef readonly align 8 captures(address, read_provenance) dereferenceable(24) @alloc_b0e33ba48ef5fa15e44a55a18226b5ac) #18, !noalias !1159
  unreachable

"_ZN5alloc5slice29_$LT$impl$u20$$u5b$T$u5d$$GT$7sort_by28_$u7b$$u7b$closure$u7d$$u7d$17hf5b8f37855ac0c3dE.exit65": ; preds = %bb12.i.i
  %_8.i.mux.i63 = fcmp olt float %_6.i.i60, %_7.i.i61
  br i1 %_8.i.mux.i63, label %_ZN4core5slice4sort6shared17find_existing_run17hfff9c6e1c581eeebE.exit.i, label %bb15.i.i

bb15.i.i:                                         ; preds = %"_ZN5alloc5slice29_$LT$impl$u20$$u5b$T$u5d$$GT$7sort_by28_$u7b$$u7b$closure$u7d$$u7d$17hf5b8f37855ac0c3dE.exit65"
  %3 = add nuw i64 %run_len.sroa.0.0.i.i95, 1
  %exitcond.not = icmp eq i64 %3, %new_len
  br i1 %exitcond.not, label %_ZN4core5slice4sort6shared17find_existing_run17hfff9c6e1c581eeebE.exit.i, label %bb12.i.i

bb5.i.i:                                          ; preds = %bb4.i.i.preheader, %bb7.i.i
  %_7.i.i58 = phi float [ %_6.i.i, %bb7.i.i ], [ %_6.i.i66, %bb4.i.i.preheader ]
  %run_len.sroa.0.1.i.i98 = phi i64 [ %5, %bb7.i.i ], [ 2, %bb4.i.i.preheader ]
  %4 = getelementptr inbounds nuw float, ptr %_82, i64 %run_len.sroa.0.1.i.i98
  tail call void @llvm.experimental.noalias.scope.decl(metadata !1160)
  tail call void @llvm.experimental.noalias.scope.decl(metadata !1163), !noalias !1139
  %_6.i.i = load float, ptr %4, align 4, !alias.scope !1166, !noalias !1167, !noundef !18
  %brmerge.not.i = fcmp uno float %_6.i.i, %_7.i.i58
  br i1 %brmerge.not.i, label %bb6.i.i59, label %"_ZN5alloc5slice29_$LT$impl$u20$$u5b$T$u5d$$GT$7sort_by28_$u7b$$u7b$closure$u7d$$u7d$17hf5b8f37855ac0c3dE.exit", !prof !21

bb6.i.i59:                                        ; preds = %bb5.i.i
; call core::option::unwrap_failed
  tail call void @_ZN4core6option13unwrap_failed17hef2534b77b89c04fE(ptr noalias noundef readonly align 8 captures(address, read_provenance) dereferenceable(24) @alloc_b0e33ba48ef5fa15e44a55a18226b5ac) #18, !noalias !1170
  unreachable

"_ZN5alloc5slice29_$LT$impl$u20$$u5b$T$u5d$$GT$7sort_by28_$u7b$$u7b$closure$u7d$$u7d$17hf5b8f37855ac0c3dE.exit": ; preds = %bb5.i.i
  %_8.i.mux.i = fcmp olt float %_6.i.i, %_7.i.i58
  br i1 %_8.i.mux.i, label %bb7.i.i, label %_ZN4core5slice4sort6shared17find_existing_run17hfff9c6e1c581eeebE.exit.i

bb7.i.i:                                          ; preds = %"_ZN5alloc5slice29_$LT$impl$u20$$u5b$T$u5d$$GT$7sort_by28_$u7b$$u7b$closure$u7d$$u7d$17hf5b8f37855ac0c3dE.exit"
  %5 = add nuw i64 %run_len.sroa.0.1.i.i98, 1
  %exitcond116.not = icmp eq i64 %5, %new_len
  br i1 %exitcond116.not, label %_ZN4core5slice4sort6shared17find_existing_run17hfff9c6e1c581eeebE.exit.i, label %bb5.i.i

_ZN4core5slice4sort6shared17find_existing_run17hfff9c6e1c581eeebE.exit.i: ; preds = %bb15.i.i, %"_ZN5alloc5slice29_$LT$impl$u20$$u5b$T$u5d$$GT$7sort_by28_$u7b$$u7b$closure$u7d$$u7d$17hf5b8f37855ac0c3dE.exit65", %bb7.i.i, %"_ZN5alloc5slice29_$LT$impl$u20$$u5b$T$u5d$$GT$7sort_by28_$u7b$$u7b$closure$u7d$$u7d$17hf5b8f37855ac0c3dE.exit"
  %_0.sroa.0.0.i.i = phi i64 [ %new_len, %bb7.i.i ], [ %run_len.sroa.0.1.i.i98, %"_ZN5alloc5slice29_$LT$impl$u20$$u5b$T$u5d$$GT$7sort_by28_$u7b$$u7b$closure$u7d$$u7d$17hf5b8f37855ac0c3dE.exit" ], [ %new_len, %bb15.i.i ], [ %run_len.sroa.0.0.i.i95, %"_ZN5alloc5slice29_$LT$impl$u20$$u5b$T$u5d$$GT$7sort_by28_$u7b$$u7b$closure$u7d$$u7d$17hf5b8f37855ac0c3dE.exit65" ]
  %_12.i = icmp samesign ule i64 %_0.sroa.0.0.i.i, %new_len
  tail call void @llvm.assume(i1 %_12.i)
  %_13.not.i = icmp ult i64 %_0.sroa.0.0.i.i, %min_good_run_len.sroa.0.0
  br i1 %_13.not.i, label %bb7.i41, label %bb3.i37

_ZN4core5slice4sort6shared17find_existing_run17hfff9c6e1c581eeebE.exit.i.thread124: ; preds = %bb4.i.i.preheader
  br i1 %_13.not.i127, label %bb7.i41, label %bb5.preheader.i.i

_ZN4core5slice4sort6shared17find_existing_run17hfff9c6e1c581eeebE.exit.i.thread: ; preds = %bb11.i.i.preheader
  br i1 %_13.not.i121, label %bb7.i41, label %bb5.i38

bb3.i37:                                          ; preds = %_ZN4core5slice4sort6shared17find_existing_run17hfff9c6e1c581eeebE.exit.i
  br i1 %_8.i.mux.i69, label %bb14.i, label %bb5.i38

bb11.i42:                                         ; preds = %bb7.i41
  %_0.sroa.0.0.i57 = tail call noundef i64 @llvm.umin.i64(i64 range(i64 0, 2305843009213693952) %new_len, i64 %min_good_run_len.sroa.0.0)
  %_36.i = shl nuw nsw i64 %_0.sroa.0.0.i57, 1
  br label %_ZN4core5slice4sort6stable5drift10create_run17h06c467a4bb8b67c5E.exit

bb16.i43:                                         ; preds = %bb7.i41
  %_0.sroa.0.0.i56 = tail call noundef i64 @llvm.umin.i64(i64 range(i64 0, 2305843009213693952) %new_len, i64 32)
; call core::slice::sort::stable::quicksort::quicksort
  tail call void @_ZN4core5slice4sort6stable9quicksort9quicksort17h23ee1f5ec6e131a2E(ptr noalias noundef nonnull align 4 %_82, i64 noundef %_0.sroa.0.0.i56, ptr noalias noundef nonnull align 4 %scratch.0, i64 noundef range(i64 0, 2305843009213693952) %scratch.1, i32 noundef 0, ptr noalias noundef readonly align 4 captures(address, read_provenance) dereferenceable_or_null(4) null, ptr noalias noundef nonnull align 8 dereferenceable(8) %is_less) #21
  %_35.i = shl nuw nsw i64 %_0.sroa.0.0.i56, 1
  %_34.i = or disjoint i64 %_35.i, 1
  br label %_ZN4core5slice4sort6stable5drift10create_run17h06c467a4bb8b67c5E.exit

bb5.i38:                                          ; preds = %bb6.i.i, %middle.block, %_ZN4core5slice4sort6shared17find_existing_run17hfff9c6e1c581eeebE.exit.i.thread, %bb1.i, %bb14.i, %bb3.i37
  %_0.sroa.0.0.i.i7780 = phi i64 [ %_0.sroa.0.0.i.i, %bb3.i37 ], [ 1, %bb14.i ], [ %new_len, %bb1.i ], [ 2, %_ZN4core5slice4sort6shared17find_existing_run17hfff9c6e1c581eeebE.exit.i.thread ], [ %_0.sroa.0.0.i.i122130134, %middle.block ], [ %_0.sroa.0.0.i.i122130134, %bb6.i.i ]
  %_27.i = shl nuw nsw i64 %_0.sroa.0.0.i.i7780, 1
  %_26.i = or disjoint i64 %_27.i, 1
  br label %_ZN4core5slice4sort6stable5drift10create_run17h06c467a4bb8b67c5E.exit

bb14.i:                                           ; preds = %bb3.i37
  %half_len2.i = lshr i64 %_0.sroa.0.0.i.i, 1
  tail call void @llvm.experimental.noalias.scope.decl(metadata !1171), !noalias !1174
  tail call void @llvm.experimental.noalias.scope.decl(metadata !1176), !noalias !1174
  %_915.not.i.i = icmp samesign ult i64 %_0.sroa.0.0.i.i, 2
  br i1 %_915.not.i.i, label %bb5.i38, label %bb5.preheader.i.i

bb5.preheader.i.i:                                ; preds = %_ZN4core5slice4sort6shared17find_existing_run17hfff9c6e1c581eeebE.exit.i.thread124, %bb14.i
  %half_len2.i135 = phi i64 [ %half_len2.i, %bb14.i ], [ 1, %_ZN4core5slice4sort6shared17find_existing_run17hfff9c6e1c581eeebE.exit.i.thread124 ]
  %_0.sroa.0.0.i.i122130134 = phi i64 [ %_0.sroa.0.0.i.i, %bb14.i ], [ 2, %_ZN4core5slice4sort6shared17find_existing_run17hfff9c6e1c581eeebE.exit.i.thread124 ]
  %end.i = getelementptr inbounds nuw float, ptr %_82, i64 %_0.sroa.0.0.i.i122130134
  %min.iters.check = icmp samesign ult i64 %half_len2.i135, 8
  br i1 %min.iters.check, label %bb6.i.i.preheader, label %vector.ph

vector.ph:                                        ; preds = %bb5.preheader.i.i
  %n.vec = and i64 %half_len2.i135, 9223372036854775800
  br label %vector.body

vector.body:                                      ; preds = %vector.body, %vector.ph
  %index = phi i64 [ 0, %vector.ph ], [ %index.next, %vector.body ]
  %6 = xor i64 %index, -1
  %7 = getelementptr inbounds nuw float, ptr %_82, i64 %index
  %8 = getelementptr float, ptr %end.i, i64 %6
  %9 = getelementptr inbounds nuw i8, ptr %7, i64 16
  %wide.load = load <4 x float>, ptr %7, align 4, !alias.scope !1178, !noalias !1181
  %wide.load152 = load <4 x float>, ptr %9, align 4, !alias.scope !1178, !noalias !1181
  %10 = getelementptr i8, ptr %8, i64 -12
  %11 = getelementptr i8, ptr %8, i64 -28
  %wide.load153 = load <4 x i32>, ptr %10, align 4, !alias.scope !1182, !noalias !1183
  %reverse = shufflevector <4 x i32> %wide.load153, <4 x i32> poison, <4 x i32> <i32 3, i32 2, i32 1, i32 0>
  %wide.load154 = load <4 x i32>, ptr %11, align 4, !alias.scope !1182, !noalias !1183
  %reverse155 = shufflevector <4 x i32> %wide.load154, <4 x i32> poison, <4 x i32> <i32 3, i32 2, i32 1, i32 0>
  %12 = getelementptr inbounds nuw i8, ptr %7, i64 16
  store <4 x i32> %reverse, ptr %7, align 4, !alias.scope !1178, !noalias !1181
  store <4 x i32> %reverse155, ptr %12, align 4, !alias.scope !1178, !noalias !1181
  %13 = getelementptr i8, ptr %8, i64 -12
  %14 = getelementptr i8, ptr %8, i64 -28
  %reverse156 = shufflevector <4 x float> %wide.load, <4 x float> poison, <4 x i32> <i32 3, i32 2, i32 1, i32 0>
  store <4 x float> %reverse156, ptr %13, align 4, !alias.scope !1182, !noalias !1183
  %reverse157 = shufflevector <4 x float> %wide.load152, <4 x float> poison, <4 x i32> <i32 3, i32 2, i32 1, i32 0>
  store <4 x float> %reverse157, ptr %14, align 4, !alias.scope !1182, !noalias !1183
  %index.next = add nuw i64 %index, 8
  %15 = icmp eq i64 %index.next, %n.vec
  br i1 %15, label %middle.block, label %vector.body, !llvm.loop !1184

middle.block:                                     ; preds = %vector.body
  %cmp.n = icmp eq i64 %half_len2.i135, %n.vec
  br i1 %cmp.n, label %bb5.i38, label %bb6.i.i.preheader

bb6.i.i.preheader:                                ; preds = %bb5.preheader.i.i, %middle.block
  %i.sroa.0.016.i.i.ph = phi i64 [ 0, %bb5.preheader.i.i ], [ %n.vec, %middle.block ]
  br label %bb6.i.i

bb6.i.i:                                          ; preds = %bb6.i.i.preheader, %bb6.i.i
  %i.sroa.0.016.i.i = phi i64 [ %19, %bb6.i.i ], [ %i.sroa.0.016.i.i.ph, %bb6.i.i.preheader ]
  %16 = xor i64 %i.sroa.0.016.i.i, -1
  %x.i.i = getelementptr inbounds nuw float, ptr %_82, i64 %i.sroa.0.016.i.i
  %y.i.i = getelementptr float, ptr %end.i, i64 %16
  %17 = load float, ptr %x.i.i, align 4, !alias.scope !1178, !noalias !1181, !noundef !18
  %18 = load i32, ptr %y.i.i, align 4, !alias.scope !1182, !noalias !1183
  store i32 %18, ptr %x.i.i, align 4, !alias.scope !1178, !noalias !1181
  store float %17, ptr %y.i.i, align 4, !alias.scope !1182, !noalias !1183
  %19 = add nuw nsw i64 %i.sroa.0.016.i.i, 1
  %exitcond.not.i.i = icmp eq i64 %19, %half_len2.i135
  br i1 %exitcond.not.i.i, label %bb5.i38, label %bb6.i.i, !llvm.loop !1185

_ZN4core5slice4sort6stable5drift10create_run17h06c467a4bb8b67c5E.exit: ; preds = %bb11.i42, %bb16.i43, %bb5.i38
  %_0.sroa.0.0.i40 = phi i64 [ %_26.i, %bb5.i38 ], [ %_34.i, %bb16.i43 ], [ %_36.i, %bb11.i42 ]
  %_31 = lshr i64 %prev_run.sroa.0.0, 1
  %_35 = lshr i64 %_0.sroa.0.0.i40, 1
  %factor = shl i64 %scan_idx.sroa.0.0, 1
  %x = sub i64 %factor, %_31
  %y = add i64 %_35, %factor
  %_90 = mul i64 %x, %scale_factor.sroa.0.0
  %_91 = mul i64 %y, %scale_factor.sroa.0.0
  %self4 = xor i64 %_91, %_90
  %20 = tail call range(i64 0, 65) i64 @llvm.ctlz.i64(i64 %self4, i1 false)
  %21 = trunc nuw nsw i64 %20 to i8
  br label %bb10

bb12:                                             ; preds = %bb12.lr.ph, %_ZN4core5slice4sort6stable5drift13logical_merge17hea58ed17d87957acE.exit
  %stack_len.sroa.0.1103 = phi i64 [ %stack_len.sroa.0.0, %bb12.lr.ph ], [ %count, %_ZN4core5slice4sort6stable5drift13logical_merge17hea58ed17d87957acE.exit ]
  %prev_run.sroa.0.1102 = phi i64 [ %prev_run.sroa.0.0, %bb12.lr.ph ], [ %_0.sroa.0.0.i, %_ZN4core5slice4sort6stable5drift13logical_merge17hea58ed17d87957acE.exit ]
  %count = add i64 %stack_len.sroa.0.1103, -1
  %_41 = getelementptr inbounds nuw i8, ptr %desired_depth_storage, i64 %count
  %_40 = load i8, ptr %_41, align 1, !noundef !18
  %_39.not = icmp ult i8 %_40, %desired_depth.sroa.0.0
  br i1 %_39.not, label %bb17, label %bb13

bb17:                                             ; preds = %_ZN4core5slice4sort6stable5drift13logical_merge17hea58ed17d87957acE.exit, %bb12, %bb10
  %prev_run.sroa.0.1.lcssa = phi i64 [ %prev_run.sroa.0.0, %bb10 ], [ %prev_run.sroa.0.1102, %bb12 ], [ %_0.sroa.0.0.i, %_ZN4core5slice4sort6stable5drift13logical_merge17hea58ed17d87957acE.exit ]
  %stack_len.sroa.0.1.lcssa = phi i64 [ %stack_len.sroa.0.0, %bb10 ], [ %stack_len.sroa.0.1103, %bb12 ], [ 1, %_ZN4core5slice4sort6stable5drift13logical_merge17hea58ed17d87957acE.exit ]
  %_59 = getelementptr inbounds nuw i64, ptr %run_storage, i64 %stack_len.sroa.0.1.lcssa
  store i64 %prev_run.sroa.0.1.lcssa, ptr %_59, align 8
  %_61 = getelementptr inbounds nuw i8, ptr %desired_depth_storage, i64 %stack_len.sroa.0.1.lcssa
  store i8 %desired_depth.sroa.0.0, ptr %_61, align 1
  br i1 %_22, label %bb19, label %bb18

bb13:                                             ; preds = %bb12
  %_46 = getelementptr inbounds nuw i64, ptr %run_storage, i64 %count
  %left10 = load i64, ptr %_46, align 8, !noundef !18
  %_50 = lshr i64 %left10, 1
  %_51 = lshr i64 %prev_run.sroa.0.1102, 1
  %merged_len = add nuw i64 %_50, %_51
  %merge_start_idx = sub i64 %scan_idx.sroa.0.0, %merged_len
  %_98 = getelementptr inbounds nuw float, ptr %v.0, i64 %merge_start_idx
  %can_fit_in_scratch.i = icmp samesign ugt i64 %merged_len, %scratch.1
  %_22.i = and i64 %prev_run.sroa.0.1102, 1
  %_10.not.i = icmp eq i64 %_22.i, 0
  %22 = or i64 %left10, %prev_run.sroa.0.1102
  %23 = and i64 %22, 1
  %24 = icmp ne i64 %23, 0
  %or.cond2.i = or i1 %can_fit_in_scratch.i, %24
  br i1 %or.cond2.i, label %bb3.i, label %bb9.i

bb3.i:                                            ; preds = %bb13
  %_21.i = and i64 %left10, 1
  %_9.not.i = icmp eq i64 %_21.i, 0
  br i1 %_9.not.i, label %bb11.i, label %bb5.i

bb9.i:                                            ; preds = %bb13
  %_40.i = shl nuw nsw i64 %merged_len, 1
  br label %_ZN4core5slice4sort6stable5drift13logical_merge17hea58ed17d87957acE.exit

bb5.i:                                            ; preds = %bb11.i, %bb3.i
  br i1 %_10.not.i, label %bb16.i, label %bb7.i

bb11.i:                                           ; preds = %bb3.i
  %self.i = or i64 %_50, 1
  %25 = tail call range(i64 3, 64) i64 @llvm.ctlz.i64(i64 %self.i, i1 true)
  %26 = trunc nuw nsw i64 %25 to i32
  %log.i = shl nuw nsw i32 %26, 1
  %limit.i = xor i32 %log.i, 126
; call core::slice::sort::stable::quicksort::quicksort
  tail call void @_ZN4core5slice4sort6stable9quicksort9quicksort17h23ee1f5ec6e131a2E(ptr noalias noundef nonnull align 4 %_98, i64 noundef range(i64 0, 2305843009213693952) %_50, ptr noalias noundef nonnull align 4 %scratch.0, i64 noundef range(i64 0, 2305843009213693952) %scratch.1, i32 noundef %limit.i, ptr noalias noundef readonly align 4 captures(address, read_provenance) dereferenceable_or_null(4) null, ptr noalias noundef nonnull align 8 dereferenceable(8) %is_less) #21
  br label %bb5.i

bb7.i:                                            ; preds = %bb16.i, %bb5.i
  tail call void @llvm.experimental.noalias.scope.decl(metadata !1186)
  tail call void @llvm.experimental.noalias.scope.decl(metadata !1189)
  %_6.i = icmp ult i64 %left10, 2
  %_7.i = icmp ult i64 %prev_run.sroa.0.1102, 2
  %or.cond.i = select i1 %_6.i, i1 true, i1 %_7.i
  br i1 %or.cond.i, label %_ZN4core5slice4sort6stable5merge5merge17hb18309dad419ab3cE.exit, label %bb2.i

bb2.i:                                            ; preds = %bb7.i
  %_0.sroa.0.0.i.i44 = tail call i64 @llvm.umin.i64(i64 %_51, i64 range(i64 0, -9223372036854775808) %_50)
  %_8.i = icmp samesign ult i64 %scratch.1, %_0.sroa.0.0.i.i44
  br i1 %_8.i, label %_ZN4core5slice4sort6stable5merge5merge17hb18309dad419ab3cE.exit, label %bb5.i45

bb5.i45:                                          ; preds = %bb2.i
  %v_mid.i = getelementptr inbounds nuw float, ptr %_98, i64 %_50
  %left_is_shorter.not.i = icmp samesign ugt i64 %_50, %_51
  %spec.select.i = select i1 %left_is_shorter.not.i, ptr %v_mid.i, ptr %_98
  %27 = shl nuw nsw i64 %_0.sroa.0.0.i.i44, 2
  tail call void @llvm.memcpy.p0.p0.i64(ptr nonnull align 4 %scratch.0, ptr nonnull align 4 %spec.select.i, i64 %27, i1 false), !alias.scope !1191
  %_22.i46 = getelementptr inbounds nuw i8, ptr %scratch.0, i64 %27
  br i1 %left_is_shorter.not.i, label %bb1.i.i, label %bb3.i.i

bb1.i.i:                                          ; preds = %bb5.i45, %"_ZN5alloc5slice29_$LT$impl$u20$$u5b$T$u5d$$GT$7sort_by28_$u7b$$u7b$closure$u7d$$u7d$17hf5b8f37855ac0c3dE.exit.i.i"
  %merge_state.sroa.13.2.i = phi ptr [ %_18.i.i, %"_ZN5alloc5slice29_$LT$impl$u20$$u5b$T$u5d$$GT$7sort_by28_$u7b$$u7b$closure$u7d$$u7d$17hf5b8f37855ac0c3dE.exit.i.i" ], [ %v_mid.i, %bb5.i45 ]
  %merge_state.sroa.7.2.i = phi ptr [ %_21.i.i49, %"_ZN5alloc5slice29_$LT$impl$u20$$u5b$T$u5d$$GT$7sort_by28_$u7b$$u7b$closure$u7d$$u7d$17hf5b8f37855ac0c3dE.exit.i.i" ], [ %_22.i46, %bb5.i45 ]
  %out.sroa.0.0.i.i = phi ptr [ %30, %"_ZN5alloc5slice29_$LT$impl$u20$$u5b$T$u5d$$GT$7sort_by28_$u7b$$u7b$closure$u7d$$u7d$17hf5b8f37855ac0c3dE.exit.i.i" ], [ %v_end.i, %bb5.i45 ]
  %28 = getelementptr inbounds i8, ptr %merge_state.sroa.13.2.i, i64 -4
  %29 = getelementptr inbounds i8, ptr %merge_state.sroa.7.2.i, i64 -4
  tail call void @llvm.experimental.noalias.scope.decl(metadata !1192)
  tail call void @llvm.experimental.noalias.scope.decl(metadata !1195)
  tail call void @llvm.experimental.noalias.scope.decl(metadata !1197)
  tail call void @llvm.experimental.noalias.scope.decl(metadata !1200)
  %_6.i.i.i.i = load float, ptr %29, align 4, !alias.scope !1202, !noalias !1203, !noundef !18
  %_7.i.i.i.i = load float, ptr %28, align 4, !alias.scope !1206, !noalias !1207, !noundef !18
  %brmerge.not.i.i.i = fcmp uno float %_6.i.i.i.i, %_7.i.i.i.i
  br i1 %brmerge.not.i.i.i, label %bb6.i.i.i.i, label %"_ZN5alloc5slice29_$LT$impl$u20$$u5b$T$u5d$$GT$7sort_by28_$u7b$$u7b$closure$u7d$$u7d$17hf5b8f37855ac0c3dE.exit.i.i", !prof !21

bb6.i.i.i.i:                                      ; preds = %bb1.i.i
; invoke core::option::unwrap_failed
  invoke void @_ZN4core6option13unwrap_failed17hef2534b77b89c04fE(ptr noalias noundef readonly align 8 captures(address, read_provenance) dereferenceable(24) @alloc_b0e33ba48ef5fa15e44a55a18226b5ac) #18
          to label %.noexc.i unwind label %bb20.i, !noalias !1191

.noexc.i:                                         ; preds = %bb6.i.i.i.i
  unreachable

"_ZN5alloc5slice29_$LT$impl$u20$$u5b$T$u5d$$GT$7sort_by28_$u7b$$u7b$closure$u7d$$u7d$17hf5b8f37855ac0c3dE.exit.i.i": ; preds = %bb1.i.i
  %30 = getelementptr inbounds i8, ptr %out.sroa.0.0.i.i, i64 -4
  %_8.i.mux.i.i.i = fcmp olt float %_6.i.i.i.i, %_7.i.i.i.i
  %..i.i = select i1 %_8.i.mux.i.i.i, ptr %28, ptr %29
  %31 = load i32, ptr %..i.i, align 4, !alias.scope !1191, !noalias !1208
  store i32 %31, ptr %30, align 4, !alias.scope !1186, !noalias !1209
  %_20.i.i = xor i1 %_8.i.mux.i.i.i, true
  %count.i.i = zext i1 %_20.i.i to i64
  %_18.i.i = getelementptr inbounds nuw float, ptr %28, i64 %count.i.i
  %count4.i.i = zext i1 %_8.i.mux.i.i.i to i64
  %_21.i.i49 = getelementptr inbounds nuw float, ptr %29, i64 %count4.i.i
  %_23.i.i = icmp eq ptr %_18.i.i, %_98
  %_26.i.i = icmp eq ptr %_21.i.i49, %scratch.0
  %or.cond.i.i = select i1 %_23.i.i, i1 true, i1 %_26.i.i
  br i1 %or.cond.i.i, label %bb16.i48, label %bb1.i.i

bb3.i.i:                                          ; preds = %bb5.i45, %"_ZN5alloc5slice29_$LT$impl$u20$$u5b$T$u5d$$GT$7sort_by28_$u7b$$u7b$closure$u7d$$u7d$17hf5b8f37855ac0c3dE.exit.i15.i"
  %merge_state.sroa.13.3.i = phi ptr [ %_25.i.i, %"_ZN5alloc5slice29_$LT$impl$u20$$u5b$T$u5d$$GT$7sort_by28_$u7b$$u7b$closure$u7d$$u7d$17hf5b8f37855ac0c3dE.exit.i15.i" ], [ %_98, %bb5.i45 ]
  %merge_state.sroa.0.2.i = phi ptr [ %_20.i18.i, %"_ZN5alloc5slice29_$LT$impl$u20$$u5b$T$u5d$$GT$7sort_by28_$u7b$$u7b$closure$u7d$$u7d$17hf5b8f37855ac0c3dE.exit.i15.i" ], [ %scratch.0, %bb5.i45 ]
  %right.sroa.0.010.i.i = phi ptr [ %_23.i19.i, %"_ZN5alloc5slice29_$LT$impl$u20$$u5b$T$u5d$$GT$7sort_by28_$u7b$$u7b$closure$u7d$$u7d$17hf5b8f37855ac0c3dE.exit.i15.i" ], [ %v_mid.i, %bb5.i45 ]
  tail call void @llvm.experimental.noalias.scope.decl(metadata !1210)
  tail call void @llvm.experimental.noalias.scope.decl(metadata !1213)
  tail call void @llvm.experimental.noalias.scope.decl(metadata !1215)
  tail call void @llvm.experimental.noalias.scope.decl(metadata !1218)
  %_6.i.i.i12.i = load float, ptr %right.sroa.0.010.i.i, align 4, !alias.scope !1220, !noalias !1221, !noundef !18
  %_7.i.i.i13.i = load float, ptr %merge_state.sroa.0.2.i, align 4, !alias.scope !1224, !noalias !1225, !noundef !18
  %brmerge.not.i.i14.i = fcmp uno float %_6.i.i.i12.i, %_7.i.i.i13.i
  br i1 %brmerge.not.i.i14.i, label %bb6.i.i.i21.i, label %"_ZN5alloc5slice29_$LT$impl$u20$$u5b$T$u5d$$GT$7sort_by28_$u7b$$u7b$closure$u7d$$u7d$17hf5b8f37855ac0c3dE.exit.i15.i", !prof !21

bb6.i.i.i21.i:                                    ; preds = %bb3.i.i
; invoke core::option::unwrap_failed
  invoke void @_ZN4core6option13unwrap_failed17hef2534b77b89c04fE(ptr noalias noundef readonly align 8 captures(address, read_provenance) dereferenceable(24) @alloc_b0e33ba48ef5fa15e44a55a18226b5ac) #18
          to label %.noexc22.i unwind label %bb20.i, !noalias !1191

.noexc22.i:                                       ; preds = %bb6.i.i.i21.i
  unreachable

"_ZN5alloc5slice29_$LT$impl$u20$$u5b$T$u5d$$GT$7sort_by28_$u7b$$u7b$closure$u7d$$u7d$17hf5b8f37855ac0c3dE.exit.i15.i": ; preds = %bb3.i.i
  %_8.i.mux.i.i16.i = fcmp olt float %_6.i.i.i12.i, %_7.i.i.i13.i
  %consume_left.i.i = xor i1 %_8.i.mux.i.i16.i, true
  %src.sroa.0.0.i.i = select i1 %_8.i.mux.i.i16.i, ptr %right.sroa.0.010.i.i, ptr %merge_state.sroa.0.2.i
  %32 = load i32, ptr %src.sroa.0.0.i.i, align 4, !alias.scope !1191, !noalias !1226
  store i32 %32, ptr %merge_state.sroa.13.3.i, align 4, !alias.scope !1186, !noalias !1227
  %count.i17.i = zext i1 %consume_left.i.i to i64
  %_20.i18.i = getelementptr inbounds nuw float, ptr %merge_state.sroa.0.2.i, i64 %count.i17.i
  %count2.i.i = zext i1 %_8.i.mux.i.i16.i to i64
  %_23.i19.i = getelementptr inbounds nuw float, ptr %right.sroa.0.010.i.i, i64 %count2.i.i
  %_25.i.i = getelementptr inbounds nuw i8, ptr %merge_state.sroa.13.3.i, i64 4
  %_7.i.i = icmp ne ptr %_20.i18.i, %_22.i46
  %_10.i.i47 = icmp ne ptr %_23.i19.i, %v_end.i
  %or.cond.i20.i = select i1 %_7.i.i, i1 %_10.i.i47, i1 false
  br i1 %or.cond.i20.i, label %bb3.i.i, label %bb16.i48

bb16.i48:                                         ; preds = %"_ZN5alloc5slice29_$LT$impl$u20$$u5b$T$u5d$$GT$7sort_by28_$u7b$$u7b$closure$u7d$$u7d$17hf5b8f37855ac0c3dE.exit.i15.i", %"_ZN5alloc5slice29_$LT$impl$u20$$u5b$T$u5d$$GT$7sort_by28_$u7b$$u7b$closure$u7d$$u7d$17hf5b8f37855ac0c3dE.exit.i.i"
  %merge_state.sroa.13.1.i = phi ptr [ %_18.i.i, %"_ZN5alloc5slice29_$LT$impl$u20$$u5b$T$u5d$$GT$7sort_by28_$u7b$$u7b$closure$u7d$$u7d$17hf5b8f37855ac0c3dE.exit.i.i" ], [ %_25.i.i, %"_ZN5alloc5slice29_$LT$impl$u20$$u5b$T$u5d$$GT$7sort_by28_$u7b$$u7b$closure$u7d$$u7d$17hf5b8f37855ac0c3dE.exit.i15.i" ]
  %merge_state.sroa.7.1.i = phi ptr [ %_21.i.i49, %"_ZN5alloc5slice29_$LT$impl$u20$$u5b$T$u5d$$GT$7sort_by28_$u7b$$u7b$closure$u7d$$u7d$17hf5b8f37855ac0c3dE.exit.i.i" ], [ %_22.i46, %"_ZN5alloc5slice29_$LT$impl$u20$$u5b$T$u5d$$GT$7sort_by28_$u7b$$u7b$closure$u7d$$u7d$17hf5b8f37855ac0c3dE.exit.i15.i" ]
  %merge_state.sroa.0.1.i = phi ptr [ %scratch.0, %"_ZN5alloc5slice29_$LT$impl$u20$$u5b$T$u5d$$GT$7sort_by28_$u7b$$u7b$closure$u7d$$u7d$17hf5b8f37855ac0c3dE.exit.i.i" ], [ %_20.i18.i, %"_ZN5alloc5slice29_$LT$impl$u20$$u5b$T$u5d$$GT$7sort_by28_$u7b$$u7b$closure$u7d$$u7d$17hf5b8f37855ac0c3dE.exit.i15.i" ]
  %33 = ptrtoint ptr %merge_state.sroa.7.1.i to i64
  %34 = ptrtoint ptr %merge_state.sroa.0.1.i to i64
  %35 = sub nuw i64 %33, %34
  tail call void @llvm.memcpy.p0.p0.i64(ptr nonnull align 4 %merge_state.sroa.13.1.i, ptr align 4 %merge_state.sroa.0.1.i, i64 %35, i1 false), !alias.scope !1191, !noalias !1228
  br label %_ZN4core5slice4sort6stable5merge5merge17hb18309dad419ab3cE.exit

bb20.i:                                           ; preds = %bb6.i.i.i21.i, %bb6.i.i.i.i
  %merge_state.sroa.13.0.i = phi ptr [ %merge_state.sroa.13.2.i, %bb6.i.i.i.i ], [ %merge_state.sroa.13.3.i, %bb6.i.i.i21.i ]
  %merge_state.sroa.7.0.i = phi ptr [ %merge_state.sroa.7.2.i, %bb6.i.i.i.i ], [ %_22.i46, %bb6.i.i.i21.i ]
  %merge_state.sroa.0.0.i = phi ptr [ %scratch.0, %bb6.i.i.i.i ], [ %merge_state.sroa.0.2.i, %bb6.i.i.i21.i ]
  %36 = landingpad { ptr, i32 }
          cleanup
  %37 = ptrtoint ptr %merge_state.sroa.7.0.i to i64
  %38 = ptrtoint ptr %merge_state.sroa.0.0.i to i64
  %39 = sub nuw i64 %37, %38
  tail call void @llvm.memcpy.p0.p0.i64(ptr nonnull align 4 %merge_state.sroa.13.0.i, ptr nonnull align 4 %merge_state.sroa.0.0.i, i64 %39, i1 false), !alias.scope !1191, !noalias !1233
  resume { ptr, i32 } %36

_ZN4core5slice4sort6stable5merge5merge17hb18309dad419ab3cE.exit: ; preds = %bb7.i, %bb2.i, %bb16.i48
  %_39.i = shl nuw nsw i64 %merged_len, 1
  %_38.i = or disjoint i64 %_39.i, 1
  br label %_ZN4core5slice4sort6stable5drift13logical_merge17hea58ed17d87957acE.exit

bb16.i:                                           ; preds = %bb5.i
  %_37.i = getelementptr inbounds nuw float, ptr %_98, i64 %_50
  %self.i50 = or i64 %_51, 1
  %40 = tail call range(i64 3, 64) i64 @llvm.ctlz.i64(i64 %self.i50, i1 true)
  %41 = trunc nuw nsw i64 %40 to i32
  %log.i51 = shl nuw nsw i32 %41, 1
  %limit.i52 = xor i32 %log.i51, 126
; call core::slice::sort::stable::quicksort::quicksort
  tail call void @_ZN4core5slice4sort6stable9quicksort9quicksort17h23ee1f5ec6e131a2E(ptr noalias noundef nonnull align 4 %_37.i, i64 noundef range(i64 0, 2305843009213693952) %_51, ptr noalias noundef nonnull align 4 %scratch.0, i64 noundef range(i64 0, 2305843009213693952) %scratch.1, i32 noundef %limit.i52, ptr noalias noundef readonly align 4 captures(address, read_provenance) dereferenceable_or_null(4) null, ptr noalias noundef nonnull align 8 dereferenceable(8) %is_less) #21
  br label %bb7.i

_ZN4core5slice4sort6stable5drift13logical_merge17hea58ed17d87957acE.exit: ; preds = %bb9.i, %_ZN4core5slice4sort6stable5merge5merge17hb18309dad419ab3cE.exit
  %_0.sroa.0.0.i = phi i64 [ %_38.i, %_ZN4core5slice4sort6stable5merge5merge17hb18309dad419ab3cE.exit ], [ %_40.i, %bb9.i ]
  %_37 = icmp ugt i64 %count, 1
  br i1 %_37, label %bb12, label %bb17

bb19:                                             ; preds = %bb17
  %42 = add i64 %stack_len.sroa.0.1.lcssa, 1
  %_65 = lshr i64 %next_run.sroa.0.0, 1
  %43 = add nuw i64 %_65, %scan_idx.sroa.0.0
  br label %bb6

bb18:                                             ; preds = %bb17
  %_99 = and i64 %prev_run.sroa.0.1.lcssa, 1
  %_66.not = icmp eq i64 %_99, 0
  br i1 %_66.not, label %bb20, label %bb21

bb20:                                             ; preds = %bb18
  %self.i53 = or i64 %v.1, 1
  %44 = tail call range(i64 3, 64) i64 @llvm.ctlz.i64(i64 %self.i53, i1 true)
  %45 = trunc nuw nsw i64 %44 to i32
  %log.i54 = shl nuw nsw i32 %45, 1
  %limit.i55 = xor i32 %log.i54, 126
; call core::slice::sort::stable::quicksort::quicksort
  tail call void @_ZN4core5slice4sort6stable9quicksort9quicksort17h23ee1f5ec6e131a2E(ptr noalias noundef nonnull align 4 %v.0, i64 noundef range(i64 0, 2305843009213693952) %v.1, ptr noalias noundef nonnull align 4 %scratch.0, i64 noundef range(i64 0, 2305843009213693952) %scratch.1, i32 noundef %limit.i55, ptr noalias noundef readonly align 4 captures(address, read_provenance) dereferenceable_or_null(4) null, ptr noalias noundef nonnull align 8 dereferenceable(8) %is_less) #21
  br label %bb21

bb21:                                             ; preds = %bb20, %bb18
  call void @llvm.lifetime.end.p0(i64 66, ptr nonnull %desired_depth_storage)
  call void @llvm.lifetime.end.p0(i64 528, ptr nonnull %run_storage)
  br label %bb22

bb22:                                             ; preds = %start, %bb21
  ret void
}

; core::slice::sort::stable::quicksort::quicksort
; Function Attrs: noinline nonlazybind uwtable
define void @_ZN4core5slice4sort6stable9quicksort9quicksort17h23ee1f5ec6e131a2E(ptr noalias noundef nonnull align 4 %0, i64 noundef range(i64 0, 2305843009213693952) %1, ptr noalias noundef nonnull align 4 %scratch.0, i64 noundef range(i64 0, 2305843009213693952) %scratch.1, i32 noundef %2, ptr noalias noundef readonly align 4 captures(address) dereferenceable_or_null(4) %3, ptr noalias noundef align 8 dereferenceable(8) %is_less) unnamed_addr #2 personality ptr @rust_eh_personality {
start:
  %pivot_copy = alloca [4 x i8], align 4
  %_8194200 = icmp samesign ult i64 %1, 33
  br i1 %_8194200, label %bb3, label %bb5.lr.ph

bb5.lr.ph:                                        ; preds = %start, %bb28
  %v.sroa.0.0.ph204 = phi ptr [ %_54, %bb28 ], [ %0, %start ]
  %v.sroa.16.0.ph203 = phi i64 [ %_63.i67, %bb28 ], [ %1, %start ]
  %limit.sroa.0.0.ph202 = phi i32 [ %29, %bb28 ], [ %2, %start ]
  %left_ancestor_pivot.sroa.0.0.ph201 = phi ptr [ null, %bb28 ], [ %3, %start ]
  %4 = ptrtoint ptr %v.sroa.0.0.ph204 to i64
  %.not = icmp eq ptr %left_ancestor_pivot.sroa.0.0.ph201, null
  br label %bb5

bb5:                                              ; preds = %bb5.lr.ph, %"_ZN4core5slice29_$LT$impl$u20$$u5b$T$u5d$$GT$12split_at_mut17hfcf5686026bf385fE.exit"
  %v.sroa.16.0196 = phi i64 [ %v.sroa.16.0.ph203, %bb5.lr.ph ], [ %state.sroa.27.2.lcssa.i, %"_ZN4core5slice29_$LT$impl$u20$$u5b$T$u5d$$GT$12split_at_mut17hfcf5686026bf385fE.exit" ]
  %limit.sroa.0.0195 = phi i32 [ %limit.sroa.0.0.ph202, %bb5.lr.ph ], [ %29, %"_ZN4core5slice29_$LT$impl$u20$$u5b$T$u5d$$GT$12split_at_mut17hfcf5686026bf385fE.exit" ]
  %_11 = icmp eq i32 %limit.sroa.0.0195, 0
  br i1 %_11, label %bb6, label %bb7

bb3:                                              ; preds = %bb28, %"_ZN4core5slice29_$LT$impl$u20$$u5b$T$u5d$$GT$12split_at_mut17hfcf5686026bf385fE.exit", %start
  %v.sroa.0.0.ph.lcssa193 = phi ptr [ %0, %start ], [ %v.sroa.0.0.ph204, %"_ZN4core5slice29_$LT$impl$u20$$u5b$T$u5d$$GT$12split_at_mut17hfcf5686026bf385fE.exit" ], [ %_54, %bb28 ]
  %v.sroa.16.0.lcssa = phi i64 [ %1, %start ], [ %state.sroa.27.2.lcssa.i, %"_ZN4core5slice29_$LT$impl$u20$$u5b$T$u5d$$GT$12split_at_mut17hfcf5686026bf385fE.exit" ], [ %_63.i67, %bb28 ]
  call void @llvm.experimental.noalias.scope.decl(metadata !1238)
  call void @llvm.experimental.noalias.scope.decl(metadata !1241)
  %_5.i = icmp samesign ult i64 %v.sroa.16.0.lcssa, 2
  br i1 %_5.i, label %bb22, label %bb2.i

bb2.i:                                            ; preds = %bb3
  %_8.i = add nuw nsw i64 %v.sroa.16.0.lcssa, 16
  %_6.i = icmp samesign ult i64 %scratch.1, %_8.i
  br i1 %_6.i, label %bb3.i, label %bb4.i

bb4.i:                                            ; preds = %bb2.i
  %len_div_211.i = lshr i64 %v.sroa.16.0.lcssa, 1
  %_14.i = icmp samesign ugt i64 %v.sroa.16.0.lcssa, 15
  br i1 %_14.i, label %bb6.i, label %bb9.i

bb3.i:                                            ; preds = %bb2.i
  call void @llvm.trap()
  unreachable

bb9.i:                                            ; preds = %bb4.i
  %_22.i = icmp samesign ugt i64 %v.sroa.16.0.lcssa, 7
  br i1 %_22.i, label %bb10.i, label %bb46.i

bb6.i:                                            ; preds = %bb4.i
  %_16.i = getelementptr inbounds nuw float, ptr %scratch.0, i64 %v.sroa.16.0.lcssa
; call core::slice::sort::shared::smallsort::sort8_stable
  call fastcc void @_ZN4core5slice4sort6shared9smallsort12sort8_stable17h0c524828a1a47f46E(ptr noundef nonnull align 4 %v.sroa.0.0.ph.lcssa193, ptr noundef nonnull align 4 %scratch.0, ptr noundef %_16.i)
  %_18.i = getelementptr inbounds nuw float, ptr %v.sroa.0.0.ph.lcssa193, i64 %len_div_211.i
  %_19.i = getelementptr inbounds nuw float, ptr %scratch.0, i64 %len_div_211.i
  %_20.i = getelementptr inbounds nuw i8, ptr %_16.i, i64 32
; call core::slice::sort::shared::smallsort::sort8_stable
  call fastcc void @_ZN4core5slice4sort6shared9smallsort12sort8_stable17h0c524828a1a47f46E(ptr noundef %_18.i, ptr noundef %_19.i, ptr noundef %_20.i)
  br label %bb15.i

bb10.i:                                           ; preds = %bb9.i
; call core::slice::sort::shared::smallsort::sort4_stable
  call fastcc void @_ZN4core5slice4sort6shared9smallsort12sort4_stable17h1c3fb6f95c737a92E(ptr noundef nonnull align 4 %v.sroa.0.0.ph.lcssa193, ptr noundef nonnull align 4 %scratch.0)
  %_27.i = getelementptr inbounds nuw float, ptr %v.sroa.0.0.ph.lcssa193, i64 %len_div_211.i
  %_28.i = getelementptr inbounds nuw float, ptr %scratch.0, i64 %len_div_211.i
; call core::slice::sort::shared::smallsort::sort4_stable
  call fastcc void @_ZN4core5slice4sort6shared9smallsort12sort4_stable17h1c3fb6f95c737a92E(ptr noundef %_27.i, ptr noundef %_28.i)
  br label %bb15.i

bb46.i:                                           ; preds = %bb9.i
  %5 = load i32, ptr %v.sroa.0.0.ph.lcssa193, align 4, !alias.scope !1238, !noalias !1243
  store i32 %5, ptr %scratch.0, align 4, !alias.scope !1241, !noalias !1245
  %_31.i = getelementptr inbounds nuw float, ptr %v.sroa.0.0.ph.lcssa193, i64 %len_div_211.i
  %6 = getelementptr inbounds nuw float, ptr %scratch.0, i64 %len_div_211.i
  %7 = load i32, ptr %_31.i, align 4, !alias.scope !1238, !noalias !1243
  store i32 %7, ptr %6, align 4, !alias.scope !1241, !noalias !1245
  br label %bb15.i

bb15.i:                                           ; preds = %bb46.i, %bb10.i, %bb6.i
  %presorted_len.sroa.0.0.i = phi i64 [ 8, %bb6.i ], [ 4, %bb10.i ], [ 1, %bb46.i ]
  %8 = sub nsw i64 %v.sroa.16.0.lcssa, %len_div_211.i
  %_8030.i = icmp samesign ult i64 %presorted_len.sroa.0.0.i, %len_div_211.i
  br i1 %_8030.i, label %bb24.preheader.i, label %bb16.loopexit.i

bb16.loopexit.i:                                  ; preds = %_ZN4core5slice4sort6shared9smallsort11insert_tail17he511fa7eb43a47edE.exit.i, %bb15.i
  %src5.1.i = getelementptr inbounds nuw float, ptr %v.sroa.0.0.ph.lcssa193, i64 %len_div_211.i
  %dst6.1.i = getelementptr float, ptr %scratch.0, i64 %len_div_211.i
  %_8030.1.i = icmp ult i64 %presorted_len.sroa.0.0.i, %8
  br i1 %_8030.1.i, label %bb24.preheader.1.i, label %bb16.loopexit.1.i

bb24.preheader.1.i:                               ; preds = %bb16.loopexit.i
  %iter1.sroa.0.132.1.i = add nuw nsw i64 %presorted_len.sroa.0.0.i, 1
  br label %bb24.1.i

bb24.1.i:                                         ; preds = %_ZN4core5slice4sort6shared9smallsort11insert_tail17he511fa7eb43a47edE.exit.1.i, %bb24.preheader.1.i
  %iter1.sroa.0.134.1.i = phi i64 [ %iter1.sroa.0.1.1.i, %_ZN4core5slice4sort6shared9smallsort11insert_tail17he511fa7eb43a47edE.exit.1.i ], [ %iter1.sroa.0.132.1.i, %bb24.preheader.1.i ]
  %iter1.sroa.0.033.1.i = phi i64 [ %iter1.sroa.0.134.1.i, %_ZN4core5slice4sort6shared9smallsort11insert_tail17he511fa7eb43a47edE.exit.1.i ], [ %presorted_len.sroa.0.0.i, %bb24.preheader.1.i ]
  %_55.1.i = getelementptr inbounds nuw float, ptr %src5.1.i, i64 %iter1.sroa.0.033.1.i
  %dst7.1.i = getelementptr inbounds nuw float, ptr %dst6.1.i, i64 %iter1.sroa.0.033.1.i
  %9 = load i32, ptr %_55.1.i, align 4, !alias.scope !1238, !noalias !1243
  store i32 %9, ptr %dst7.1.i, align 4, !alias.scope !1241, !noalias !1245
  %10 = getelementptr inbounds i8, ptr %dst7.1.i, i64 -4
  %_6.i.i.i16.cast.1.i = bitcast i32 %9 to float
  %_7.i.i.i17.1.i = load float, ptr %10, align 4, !alias.scope !1246, !noalias !1251, !noundef !18
  %brmerge.not.i.i18.1.i = fcmp uno float %_7.i.i.i17.1.i, %_6.i.i.i16.cast.1.i
  br i1 %brmerge.not.i.i18.1.i, label %bb6.i.i.i21.i, label %"_ZN5alloc5slice29_$LT$impl$u20$$u5b$T$u5d$$GT$7sort_by28_$u7b$$u7b$closure$u7d$$u7d$17hf5b8f37855ac0c3dE.exit.i19.1.i", !prof !21

"_ZN5alloc5slice29_$LT$impl$u20$$u5b$T$u5d$$GT$7sort_by28_$u7b$$u7b$closure$u7d$$u7d$17hf5b8f37855ac0c3dE.exit.i19.1.i": ; preds = %bb24.1.i
  %_8.i.mux.i.i20.1.i = fcmp ogt float %_7.i.i.i17.1.i, %_6.i.i.i16.cast.1.i
  br i1 %_8.i.mux.i.i20.1.i, label %bb4.i.1.i, label %_ZN4core5slice4sort6shared9smallsort11insert_tail17he511fa7eb43a47edE.exit.1.i

bb4.i.1.i:                                        ; preds = %"_ZN5alloc5slice29_$LT$impl$u20$$u5b$T$u5d$$GT$7sort_by28_$u7b$$u7b$closure$u7d$$u7d$17hf5b8f37855ac0c3dE.exit.i19.1.i", %bb7.i.1.i
  %.in.i.1.i = phi float [ %_7.i.i2.i.1.i, %bb7.i.1.i ], [ %_7.i.i.i17.1.i, %"_ZN5alloc5slice29_$LT$impl$u20$$u5b$T$u5d$$GT$7sort_by28_$u7b$$u7b$closure$u7d$$u7d$17hf5b8f37855ac0c3dE.exit.i19.1.i" ]
  %gap_guard.sroa.5.0.i.1.i = phi ptr [ %sift.sroa.0.0.i.1.i, %bb7.i.1.i ], [ %dst7.1.i, %"_ZN5alloc5slice29_$LT$impl$u20$$u5b$T$u5d$$GT$7sort_by28_$u7b$$u7b$closure$u7d$$u7d$17hf5b8f37855ac0c3dE.exit.i19.1.i" ]
  %sift.sroa.0.0.i.1.i = phi ptr [ %11, %bb7.i.1.i ], [ %10, %"_ZN5alloc5slice29_$LT$impl$u20$$u5b$T$u5d$$GT$7sort_by28_$u7b$$u7b$closure$u7d$$u7d$17hf5b8f37855ac0c3dE.exit.i19.1.i" ]
  store float %.in.i.1.i, ptr %gap_guard.sroa.5.0.i.1.i, align 4, !alias.scope !1241, !noalias !1245
  %_18.i.1.i = icmp eq ptr %sift.sroa.0.0.i.1.i, %dst6.1.i
  br i1 %_18.i.1.i, label %bb10.i.1.i, label %bb6.i.1.i

bb6.i.1.i:                                        ; preds = %bb4.i.1.i
  %11 = getelementptr inbounds i8, ptr %sift.sroa.0.0.i.1.i, i64 -4
  %_7.i.i2.i.1.i = load float, ptr %11, align 4, !alias.scope !1254, !noalias !1259, !noundef !18
  %brmerge.not.i3.i.1.i = fcmp uno float %_7.i.i2.i.1.i, %_6.i.i.i16.cast.1.i
  br i1 %brmerge.not.i3.i.1.i, label %bb6.i.i5.i.i, label %bb7.i.1.i, !prof !21

bb7.i.1.i:                                        ; preds = %bb6.i.1.i
  %_8.i.mux.i4.i.1.i = fcmp ogt float %_7.i.i2.i.1.i, %_6.i.i.i16.cast.1.i
  br i1 %_8.i.mux.i4.i.1.i, label %bb4.i.1.i, label %bb10.i.1.i

bb10.i.1.i:                                       ; preds = %bb7.i.1.i, %bb4.i.1.i
  %sift.sroa.0.0.i.lcssa.1.i = phi ptr [ %sift.sroa.0.0.i.1.i, %bb7.i.1.i ], [ %dst6.1.i, %bb4.i.1.i ]
  store i32 %9, ptr %sift.sroa.0.0.i.lcssa.1.i, align 4, !alias.scope !1241, !noalias !1262
  br label %_ZN4core5slice4sort6shared9smallsort11insert_tail17he511fa7eb43a47edE.exit.1.i

_ZN4core5slice4sort6shared9smallsort11insert_tail17he511fa7eb43a47edE.exit.1.i: ; preds = %bb10.i.1.i, %"_ZN5alloc5slice29_$LT$impl$u20$$u5b$T$u5d$$GT$7sort_by28_$u7b$$u7b$closure$u7d$$u7d$17hf5b8f37855ac0c3dE.exit.i19.1.i"
  %_80.1.i = icmp ult i64 %iter1.sroa.0.134.1.i, %8
  %_84.1.i = zext i1 %_80.1.i to i64
  %iter1.sroa.0.1.1.i = add nuw i64 %iter1.sroa.0.134.1.i, %_84.1.i
  br i1 %_80.1.i, label %bb24.1.i, label %bb16.loopexit.1.i

bb16.loopexit.1.i:                                ; preds = %_ZN4core5slice4sort6shared9smallsort11insert_tail17he511fa7eb43a47edE.exit.1.i, %bb16.loopexit.i
  call void @llvm.experimental.noalias.scope.decl(metadata !1267)
  %count1.i.i = add nsw i64 %v.sroa.16.0.lcssa, -1
  %12 = getelementptr inbounds nuw float, ptr %v.sroa.0.0.ph.lcssa193, i64 %count1.i.i
  %13 = getelementptr inbounds nuw float, ptr %scratch.0, i64 %count1.i.i
  %14 = getelementptr i8, ptr %dst6.1.i, i64 -4
  br label %bb15.i.i

bb24.preheader.i:                                 ; preds = %bb15.i
  %iter1.sroa.0.132.i = add nuw nsw i64 %presorted_len.sroa.0.0.i, 1
  br label %bb24.i

bb16.i.i:                                         ; preds = %"_ZN5alloc5slice29_$LT$impl$u20$$u5b$T$u5d$$GT$7sort_by28_$u7b$$u7b$closure$u7d$$u7d$17hf5b8f37855ac0c3dE.exit24.i.i"
  %15 = getelementptr i8, ptr %20, i64 4
  %16 = getelementptr i8, ptr %19, i64 4
  %_44.i.i = and i64 %v.sroa.16.0.lcssa, 1
  %_22.i.i = icmp eq i64 %_44.i.i, 0
  br i1 %_22.i.i, label %bb9.i.i, label %bb5.i.i

bb15.i.i:                                         ; preds = %"_ZN5alloc5slice29_$LT$impl$u20$$u5b$T$u5d$$GT$7sort_by28_$u7b$$u7b$closure$u7d$$u7d$17hf5b8f37855ac0c3dE.exit24.i.i", %bb16.loopexit.1.i
  %dst.sroa.0.042.i.i = phi ptr [ %_16.i.i.i, %"_ZN5alloc5slice29_$LT$impl$u20$$u5b$T$u5d$$GT$7sort_by28_$u7b$$u7b$closure$u7d$$u7d$17hf5b8f37855ac0c3dE.exit24.i.i" ], [ %v.sroa.0.0.ph.lcssa193, %bb16.loopexit.1.i ]
  %iter.sroa.0.041.i.i = phi i64 [ %_39.i.i, %"_ZN5alloc5slice29_$LT$impl$u20$$u5b$T$u5d$$GT$7sort_by28_$u7b$$u7b$closure$u7d$$u7d$17hf5b8f37855ac0c3dE.exit24.i.i" ], [ 0, %bb16.loopexit.1.i ]
  %left.sroa.0.040.i.i = phi ptr [ %_14.i.i.i, %"_ZN5alloc5slice29_$LT$impl$u20$$u5b$T$u5d$$GT$7sort_by28_$u7b$$u7b$closure$u7d$$u7d$17hf5b8f37855ac0c3dE.exit24.i.i" ], [ %scratch.0, %bb16.loopexit.1.i ]
  %right.sroa.0.039.i.i = phi ptr [ %_12.i.i.i, %"_ZN5alloc5slice29_$LT$impl$u20$$u5b$T$u5d$$GT$7sort_by28_$u7b$$u7b$closure$u7d$$u7d$17hf5b8f37855ac0c3dE.exit24.i.i" ], [ %dst6.1.i, %bb16.loopexit.1.i ]
  %left_rev.sroa.0.038.i.i = phi ptr [ %20, %"_ZN5alloc5slice29_$LT$impl$u20$$u5b$T$u5d$$GT$7sort_by28_$u7b$$u7b$closure$u7d$$u7d$17hf5b8f37855ac0c3dE.exit24.i.i" ], [ %14, %bb16.loopexit.1.i ]
  %right_rev.sroa.0.037.i.i = phi ptr [ %19, %"_ZN5alloc5slice29_$LT$impl$u20$$u5b$T$u5d$$GT$7sort_by28_$u7b$$u7b$closure$u7d$$u7d$17hf5b8f37855ac0c3dE.exit24.i.i" ], [ %13, %bb16.loopexit.1.i ]
  %dst_rev.sroa.0.036.i.i = phi ptr [ %21, %"_ZN5alloc5slice29_$LT$impl$u20$$u5b$T$u5d$$GT$7sort_by28_$u7b$$u7b$closure$u7d$$u7d$17hf5b8f37855ac0c3dE.exit24.i.i" ], [ %12, %bb16.loopexit.1.i ]
  %_39.i.i = add nuw nsw i64 %iter.sroa.0.041.i.i, 1
  call void @llvm.experimental.noalias.scope.decl(metadata !1270)
  call void @llvm.experimental.noalias.scope.decl(metadata !1273)
  call void @llvm.experimental.noalias.scope.decl(metadata !1275), !noalias !1278
  call void @llvm.experimental.noalias.scope.decl(metadata !1281), !noalias !1278
  %_6.i.i.i.i = load float, ptr %right.sroa.0.039.i.i, align 4, !alias.scope !1283, !noalias !1284, !noundef !18
  %_7.i.i.i.i = load float, ptr %left.sroa.0.040.i.i, align 4, !alias.scope !1285, !noalias !1286, !noundef !18
  %brmerge.not.i.i.i = fcmp uno float %_6.i.i.i.i, %_7.i.i.i.i
  br i1 %brmerge.not.i.i.i, label %bb6.i.i23.i.invoke.i, label %"_ZN5alloc5slice29_$LT$impl$u20$$u5b$T$u5d$$GT$7sort_by28_$u7b$$u7b$closure$u7d$$u7d$17hf5b8f37855ac0c3dE.exit.i.i", !prof !21

"_ZN5alloc5slice29_$LT$impl$u20$$u5b$T$u5d$$GT$7sort_by28_$u7b$$u7b$closure$u7d$$u7d$17hf5b8f37855ac0c3dE.exit.i.i": ; preds = %bb15.i.i
  %_8.i.mux.i.i.i = fcmp olt float %_6.i.i.i.i, %_7.i.i.i.i
  %..i17.i.i = select i1 %_8.i.mux.i.i.i, ptr %right.sroa.0.039.i.i, ptr %left.sroa.0.040.i.i
  %17 = load i32, ptr %..i17.i.i, align 4, !alias.scope !1287, !noalias !1288
  store i32 %17, ptr %dst.sroa.0.042.i.i, align 4, !alias.scope !1238, !noalias !1290
  call void @llvm.experimental.noalias.scope.decl(metadata !1291)
  call void @llvm.experimental.noalias.scope.decl(metadata !1294)
  call void @llvm.experimental.noalias.scope.decl(metadata !1296), !noalias !1299
  call void @llvm.experimental.noalias.scope.decl(metadata !1302), !noalias !1299
  %_6.i.i19.i.i = load float, ptr %right_rev.sroa.0.037.i.i, align 4, !alias.scope !1304, !noalias !1305, !noundef !18
  %_7.i.i20.i.i = load float, ptr %left_rev.sroa.0.038.i.i, align 4, !alias.scope !1306, !noalias !1307, !noundef !18
  %brmerge.not.i21.i.i = fcmp uno float %_6.i.i19.i.i, %_7.i.i20.i.i
  br i1 %brmerge.not.i21.i.i, label %bb6.i.i23.i.invoke.i, label %"_ZN5alloc5slice29_$LT$impl$u20$$u5b$T$u5d$$GT$7sort_by28_$u7b$$u7b$closure$u7d$$u7d$17hf5b8f37855ac0c3dE.exit24.i.i", !prof !21

bb6.i.i23.i.invoke.i:                             ; preds = %"_ZN5alloc5slice29_$LT$impl$u20$$u5b$T$u5d$$GT$7sort_by28_$u7b$$u7b$closure$u7d$$u7d$17hf5b8f37855ac0c3dE.exit.i.i", %bb15.i.i
; invoke core::option::unwrap_failed
  invoke void @_ZN4core6option13unwrap_failed17hef2534b77b89c04fE(ptr noalias noundef readonly align 8 captures(address, read_provenance) dereferenceable(24) @alloc_b0e33ba48ef5fa15e44a55a18226b5ac) #18
          to label %bb6.i.i23.i.cont.i unwind label %cleanup2.i, !noalias !1308

bb6.i.i23.i.cont.i:                               ; preds = %bb6.i.i23.i.invoke.i
  unreachable

"_ZN5alloc5slice29_$LT$impl$u20$$u5b$T$u5d$$GT$7sort_by28_$u7b$$u7b$closure$u7d$$u7d$17hf5b8f37855ac0c3dE.exit24.i.i": ; preds = %"_ZN5alloc5slice29_$LT$impl$u20$$u5b$T$u5d$$GT$7sort_by28_$u7b$$u7b$closure$u7d$$u7d$17hf5b8f37855ac0c3dE.exit.i.i"
  %_16.i.i.i = getelementptr inbounds nuw i8, ptr %dst.sroa.0.042.i.i, i64 4
  %is_l.i18.i.i = xor i1 %_8.i.mux.i.i.i, true
  %count2.i.i.i = zext i1 %is_l.i18.i.i to i64
  %_14.i.i.i = getelementptr inbounds nuw float, ptr %left.sroa.0.040.i.i, i64 %count2.i.i.i
  %count.i.i.i = zext i1 %_8.i.mux.i.i.i to i64
  %_12.i.i.i = getelementptr inbounds nuw float, ptr %right.sroa.0.039.i.i, i64 %count.i.i.i
  %_8.i.mux.i22.i.i = fcmp olt float %_6.i.i19.i.i, %_7.i.i20.i.i
  %..i.i.i = select i1 %_8.i.mux.i22.i.i, ptr %left_rev.sroa.0.038.i.i, ptr %right_rev.sroa.0.037.i.i
  %is_l.i.i.i = xor i1 %_8.i.mux.i22.i.i, true
  %18 = load i32, ptr %..i.i.i, align 4, !alias.scope !1287, !noalias !1309
  store i32 %18, ptr %dst_rev.sroa.0.036.i.i, align 4, !alias.scope !1238, !noalias !1311
  %count.neg.i.i.i = sext i1 %is_l.i.i.i to i64
  %19 = getelementptr float, ptr %right_rev.sroa.0.037.i.i, i64 %count.neg.i.i.i
  %count3.neg.i.i.i = sext i1 %_8.i.mux.i22.i.i to i64
  %20 = getelementptr float, ptr %left_rev.sroa.0.038.i.i, i64 %count3.neg.i.i.i
  %21 = getelementptr inbounds i8, ptr %dst_rev.sroa.0.036.i.i, i64 -4
  %exitcond.not.i.i = icmp eq i64 %_39.i.i, %len_div_211.i
  br i1 %exitcond.not.i.i, label %bb16.i.i, label %bb15.i.i

bb5.i.i:                                          ; preds = %bb16.i.i
  %left_nonempty.i.i = icmp ult ptr %_14.i.i.i, %15
  %left.sroa.0.0.right.sroa.0.0.i.i = select i1 %left_nonempty.i.i, ptr %_14.i.i.i, ptr %_12.i.i.i
  %22 = load i32, ptr %left.sroa.0.0.right.sroa.0.0.i.i, align 4, !alias.scope !1287, !noalias !1245
  store i32 %22, ptr %_16.i.i.i, align 4, !alias.scope !1238, !noalias !1312
  %count2.i.i = zext i1 %left_nonempty.i.i to i64
  %_26.i.i = getelementptr inbounds nuw float, ptr %_14.i.i.i, i64 %count2.i.i
  %_30.i.i = xor i1 %left_nonempty.i.i, true
  %count3.i.i = zext i1 %_30.i.i to i64
  %_28.i.i = getelementptr inbounds nuw float, ptr %_12.i.i.i, i64 %count3.i.i
  br label %bb9.i.i

bb9.i.i:                                          ; preds = %bb5.i.i, %bb16.i.i
  %right.sroa.0.1.i.i = phi ptr [ %_12.i.i.i, %bb16.i.i ], [ %_28.i.i, %bb5.i.i ]
  %left.sroa.0.1.i.i = phi ptr [ %_14.i.i.i, %bb16.i.i ], [ %_26.i.i, %bb5.i.i ]
  %_31.i.i = icmp ne ptr %left.sroa.0.1.i.i, %15
  %_32.i.i = icmp ne ptr %right.sroa.0.1.i.i, %16
  %or.cond.i.i = select i1 %_31.i.i, i1 true, i1 %_32.i.i
  br i1 %or.cond.i.i, label %bb13.i.i, label %bb22, !prof !357

bb13.i.i:                                         ; preds = %bb9.i.i
; invoke core::slice::sort::shared::smallsort::panic_on_ord_violation
  invoke void @_ZN4core5slice4sort6shared9smallsort22panic_on_ord_violation17hc77a22a2d50782cdE() #18
          to label %.noexc14.i unwind label %cleanup2.i, !noalias !1308

.noexc14.i:                                       ; preds = %bb13.i.i
  unreachable

cleanup2.i:                                       ; preds = %bb13.i.i, %bb6.i.i23.i.invoke.i
  %23 = landingpad { ptr, i32 }
          cleanup
  %24 = shl nuw nsw i64 %v.sroa.16.0.lcssa, 2
  call void @llvm.memcpy.p0.p0.i64(ptr nonnull align 4 %v.sroa.0.0.ph.lcssa193, ptr nonnull align 4 %scratch.0, i64 %24, i1 false), !alias.scope !1313, !noalias !1314
  br label %bb31.i

bb31.i:                                           ; preds = %bb14.i.i, %cleanup2.i
  %.pn.i = phi { ptr, i32 } [ %23, %cleanup2.i ], [ %28, %bb14.i.i ]
  resume { ptr, i32 } %.pn.i

bb24.i:                                           ; preds = %_ZN4core5slice4sort6shared9smallsort11insert_tail17he511fa7eb43a47edE.exit.i, %bb24.preheader.i
  %iter1.sroa.0.134.i = phi i64 [ %iter1.sroa.0.1.i, %_ZN4core5slice4sort6shared9smallsort11insert_tail17he511fa7eb43a47edE.exit.i ], [ %iter1.sroa.0.132.i, %bb24.preheader.i ]
  %iter1.sroa.0.033.i = phi i64 [ %iter1.sroa.0.134.i, %_ZN4core5slice4sort6shared9smallsort11insert_tail17he511fa7eb43a47edE.exit.i ], [ %presorted_len.sroa.0.0.i, %bb24.preheader.i ]
  %_55.i = getelementptr inbounds nuw float, ptr %v.sroa.0.0.ph.lcssa193, i64 %iter1.sroa.0.033.i
  %dst7.i = getelementptr inbounds nuw float, ptr %scratch.0, i64 %iter1.sroa.0.033.i
  %25 = load i32, ptr %_55.i, align 4, !alias.scope !1238, !noalias !1243
  store i32 %25, ptr %dst7.i, align 4, !alias.scope !1241, !noalias !1245
  %26 = getelementptr inbounds i8, ptr %dst7.i, i64 -4
  %_6.i.i.i16.cast.i = bitcast i32 %25 to float
  %_7.i.i.i17.i = load float, ptr %26, align 4, !alias.scope !1246, !noalias !1251, !noundef !18
  %brmerge.not.i.i18.i = fcmp uno float %_7.i.i.i17.i, %_6.i.i.i16.cast.i
  br i1 %brmerge.not.i.i18.i, label %bb6.i.i.i21.i, label %"_ZN5alloc5slice29_$LT$impl$u20$$u5b$T$u5d$$GT$7sort_by28_$u7b$$u7b$closure$u7d$$u7d$17hf5b8f37855ac0c3dE.exit.i19.i", !prof !21

bb6.i.i.i21.i:                                    ; preds = %bb24.i, %bb24.1.i
; call core::option::unwrap_failed
  call void @_ZN4core6option13unwrap_failed17hef2534b77b89c04fE(ptr noalias noundef readonly align 8 captures(address, read_provenance) dereferenceable(24) @alloc_b0e33ba48ef5fa15e44a55a18226b5ac) #18, !noalias !1308
  unreachable

"_ZN5alloc5slice29_$LT$impl$u20$$u5b$T$u5d$$GT$7sort_by28_$u7b$$u7b$closure$u7d$$u7d$17hf5b8f37855ac0c3dE.exit.i19.i": ; preds = %bb24.i
  %_8.i.mux.i.i20.i = fcmp ogt float %_7.i.i.i17.i, %_6.i.i.i16.cast.i
  br i1 %_8.i.mux.i.i20.i, label %bb4.i.i, label %_ZN4core5slice4sort6shared9smallsort11insert_tail17he511fa7eb43a47edE.exit.i

bb4.i.i:                                          ; preds = %"_ZN5alloc5slice29_$LT$impl$u20$$u5b$T$u5d$$GT$7sort_by28_$u7b$$u7b$closure$u7d$$u7d$17hf5b8f37855ac0c3dE.exit.i19.i", %bb7.i.i
  %.in.i.i = phi float [ %_7.i.i2.i.i, %bb7.i.i ], [ %_7.i.i.i17.i, %"_ZN5alloc5slice29_$LT$impl$u20$$u5b$T$u5d$$GT$7sort_by28_$u7b$$u7b$closure$u7d$$u7d$17hf5b8f37855ac0c3dE.exit.i19.i" ]
  %gap_guard.sroa.5.0.i.i = phi ptr [ %sift.sroa.0.0.i.i, %bb7.i.i ], [ %dst7.i, %"_ZN5alloc5slice29_$LT$impl$u20$$u5b$T$u5d$$GT$7sort_by28_$u7b$$u7b$closure$u7d$$u7d$17hf5b8f37855ac0c3dE.exit.i19.i" ]
  %sift.sroa.0.0.i.i = phi ptr [ %27, %bb7.i.i ], [ %26, %"_ZN5alloc5slice29_$LT$impl$u20$$u5b$T$u5d$$GT$7sort_by28_$u7b$$u7b$closure$u7d$$u7d$17hf5b8f37855ac0c3dE.exit.i19.i" ]
  store float %.in.i.i, ptr %gap_guard.sroa.5.0.i.i, align 4, !alias.scope !1241, !noalias !1245
  %_18.i.i = icmp eq ptr %sift.sroa.0.0.i.i, %scratch.0
  br i1 %_18.i.i, label %bb10.i.i, label %bb6.i.i

bb6.i.i:                                          ; preds = %bb4.i.i
  %27 = getelementptr inbounds i8, ptr %sift.sroa.0.0.i.i, i64 -4
  %_7.i.i2.i.i = load float, ptr %27, align 4, !alias.scope !1254, !noalias !1259, !noundef !18
  %brmerge.not.i3.i.i = fcmp uno float %_7.i.i2.i.i, %_6.i.i.i16.cast.i
  br i1 %brmerge.not.i3.i.i, label %bb6.i.i5.i.i, label %bb7.i.i, !prof !21

bb6.i.i5.i.i:                                     ; preds = %bb6.i.i, %bb6.i.1.i
  %.lcssa38.i = phi i32 [ %9, %bb6.i.1.i ], [ %25, %bb6.i.i ]
  %sift.sroa.0.0.i.lcssa36.i = phi ptr [ %sift.sroa.0.0.i.1.i, %bb6.i.1.i ], [ %sift.sroa.0.0.i.i, %bb6.i.i ]
; invoke core::option::unwrap_failed
  invoke void @_ZN4core6option13unwrap_failed17hef2534b77b89c04fE(ptr noalias noundef readonly align 8 captures(address, read_provenance) dereferenceable(24) @alloc_b0e33ba48ef5fa15e44a55a18226b5ac) #18
          to label %.noexc.i.i unwind label %bb14.i.i, !noalias !1308

.noexc.i.i:                                       ; preds = %bb6.i.i5.i.i
  unreachable

bb7.i.i:                                          ; preds = %bb6.i.i
  %_8.i.mux.i4.i.i = fcmp ogt float %_7.i.i2.i.i, %_6.i.i.i16.cast.i
  br i1 %_8.i.mux.i4.i.i, label %bb4.i.i, label %bb10.i.i

bb10.i.i:                                         ; preds = %bb7.i.i, %bb4.i.i
  %sift.sroa.0.0.i.lcssa.i = phi ptr [ %sift.sroa.0.0.i.i, %bb7.i.i ], [ %scratch.0, %bb4.i.i ]
  store i32 %25, ptr %sift.sroa.0.0.i.lcssa.i, align 4, !alias.scope !1241, !noalias !1262
  br label %_ZN4core5slice4sort6shared9smallsort11insert_tail17he511fa7eb43a47edE.exit.i

bb14.i.i:                                         ; preds = %bb6.i.i5.i.i
  %28 = landingpad { ptr, i32 }
          cleanup
  store i32 %.lcssa38.i, ptr %sift.sroa.0.0.i.lcssa36.i, align 4, !alias.scope !1241, !noalias !1319
  br label %bb31.i

_ZN4core5slice4sort6shared9smallsort11insert_tail17he511fa7eb43a47edE.exit.i: ; preds = %bb10.i.i, %"_ZN5alloc5slice29_$LT$impl$u20$$u5b$T$u5d$$GT$7sort_by28_$u7b$$u7b$closure$u7d$$u7d$17hf5b8f37855ac0c3dE.exit.i19.i"
  %_80.i = icmp ult i64 %iter1.sroa.0.134.i, %len_div_211.i
  %_84.i = zext i1 %_80.i to i64
  %iter1.sroa.0.1.i = add nuw i64 %iter1.sroa.0.134.i, %_84.i
  br i1 %_80.i, label %bb24.i, label %bb16.loopexit.i

bb7:                                              ; preds = %bb5
  %29 = add i32 %limit.sroa.0.0195, -1
  call void @llvm.experimental.noalias.scope.decl(metadata !1324)
  %len_div_84.i = lshr i64 %v.sroa.16.0196, 3
  %b.idx.i = shl nuw nsw i64 %len_div_84.i, 4
  %b.i = getelementptr inbounds nuw i8, ptr %v.sroa.0.0.ph204, i64 %b.idx.i
  %c.idx.i = mul nuw nsw i64 %len_div_84.i, 28
  %c.i = getelementptr inbounds nuw i8, ptr %v.sroa.0.0.ph204, i64 %c.idx.i
  %_12.i = icmp samesign ult i64 %v.sroa.16.0196, 64
  br i1 %_12.i, label %bb3.i23, label %bb5.i

bb5.i:                                            ; preds = %bb7
; call core::slice::sort::shared::pivot::median3_rec
  %self.i = call fastcc noundef ptr @_ZN4core5slice4sort6shared5pivot11median3_rec17h16032f23b0df01aeE(ptr noundef nonnull readonly align 4 %v.sroa.0.0.ph204, ptr noundef readonly %b.i, ptr noundef readonly %c.i, i64 noundef %len_div_84.i)
  br label %bb10

bb3.i23:                                          ; preds = %bb7
  call void @llvm.experimental.noalias.scope.decl(metadata !1327)
  call void @llvm.experimental.noalias.scope.decl(metadata !1330)
  call void @llvm.experimental.noalias.scope.decl(metadata !1332), !noalias !1335
  call void @llvm.experimental.noalias.scope.decl(metadata !1338), !noalias !1335
  %_6.i.i.i = load float, ptr %v.sroa.0.0.ph204, align 4, !alias.scope !1340, !noalias !1341, !noundef !18
  %_7.i.i.i = load float, ptr %b.i, align 4, !alias.scope !1343, !noalias !1344, !noundef !18
  %brmerge.not.i.i = fcmp uno float %_6.i.i.i, %_7.i.i.i
  br i1 %brmerge.not.i.i, label %bb6.i.i.i, label %"_ZN5alloc5slice29_$LT$impl$u20$$u5b$T$u5d$$GT$7sort_by28_$u7b$$u7b$closure$u7d$$u7d$17hf5b8f37855ac0c3dE.exit.i", !prof !21

bb6.i.i.i:                                        ; preds = %bb3.i23
; call core::option::unwrap_failed
  call void @_ZN4core6option13unwrap_failed17hef2534b77b89c04fE(ptr noalias noundef readonly align 8 captures(address, read_provenance) dereferenceable(24) @alloc_b0e33ba48ef5fa15e44a55a18226b5ac) #18, !noalias !1345
  unreachable

"_ZN5alloc5slice29_$LT$impl$u20$$u5b$T$u5d$$GT$7sort_by28_$u7b$$u7b$closure$u7d$$u7d$17hf5b8f37855ac0c3dE.exit.i": ; preds = %bb3.i23
  %_8.i.mux.i.i = fcmp olt float %_6.i.i.i, %_7.i.i.i
  call void @llvm.experimental.noalias.scope.decl(metadata !1346)
  call void @llvm.experimental.noalias.scope.decl(metadata !1349)
  %_7.i.i6.i = load float, ptr %c.i, align 4, !alias.scope !1352, !noalias !1353, !noundef !18
  %brmerge.not.i7.i = fcmp uno float %_6.i.i.i, %_7.i.i6.i
  br i1 %brmerge.not.i7.i, label %bb6.i.i9.i, label %"_ZN5alloc5slice29_$LT$impl$u20$$u5b$T$u5d$$GT$7sort_by28_$u7b$$u7b$closure$u7d$$u7d$17hf5b8f37855ac0c3dE.exit10.i", !prof !21

bb6.i.i9.i:                                       ; preds = %"_ZN5alloc5slice29_$LT$impl$u20$$u5b$T$u5d$$GT$7sort_by28_$u7b$$u7b$closure$u7d$$u7d$17hf5b8f37855ac0c3dE.exit.i"
; call core::option::unwrap_failed
  call void @_ZN4core6option13unwrap_failed17hef2534b77b89c04fE(ptr noalias noundef readonly align 8 captures(address, read_provenance) dereferenceable(24) @alloc_b0e33ba48ef5fa15e44a55a18226b5ac) #18, !noalias !1356
  unreachable

"_ZN5alloc5slice29_$LT$impl$u20$$u5b$T$u5d$$GT$7sort_by28_$u7b$$u7b$closure$u7d$$u7d$17hf5b8f37855ac0c3dE.exit10.i": ; preds = %"_ZN5alloc5slice29_$LT$impl$u20$$u5b$T$u5d$$GT$7sort_by28_$u7b$$u7b$closure$u7d$$u7d$17hf5b8f37855ac0c3dE.exit.i"
  %_8.i.mux.i8.i = fcmp olt float %_6.i.i.i, %_7.i.i6.i
  %30 = xor i1 %_8.i.mux.i.i, %_8.i.mux.i8.i
  br i1 %30, label %bb10, label %bb3.i.i

bb3.i.i:                                          ; preds = %"_ZN5alloc5slice29_$LT$impl$u20$$u5b$T$u5d$$GT$7sort_by28_$u7b$$u7b$closure$u7d$$u7d$17hf5b8f37855ac0c3dE.exit10.i"
  %brmerge.not.i13.i = fcmp uno float %_7.i.i.i, %_7.i.i6.i
  br i1 %brmerge.not.i13.i, label %bb6.i.i15.i, label %"_ZN5alloc5slice29_$LT$impl$u20$$u5b$T$u5d$$GT$7sort_by28_$u7b$$u7b$closure$u7d$$u7d$17hf5b8f37855ac0c3dE.exit16.i", !prof !21

bb6.i.i15.i:                                      ; preds = %bb3.i.i
; call core::option::unwrap_failed
  call void @_ZN4core6option13unwrap_failed17hef2534b77b89c04fE(ptr noalias noundef readonly align 8 captures(address, read_provenance) dereferenceable(24) @alloc_b0e33ba48ef5fa15e44a55a18226b5ac) #18, !noalias !1357
  unreachable

"_ZN5alloc5slice29_$LT$impl$u20$$u5b$T$u5d$$GT$7sort_by28_$u7b$$u7b$closure$u7d$$u7d$17hf5b8f37855ac0c3dE.exit16.i": ; preds = %bb3.i.i
  %_8.i.mux.i14.i = fcmp olt float %_7.i.i.i, %_7.i.i6.i
  %_12.i.i = xor i1 %_8.i.mux.i.i, %_8.i.mux.i14.i
  %c.b.i.i = select i1 %_12.i.i, ptr %c.i, ptr %b.i
  br label %bb10

bb6:                                              ; preds = %bb5
; call core::slice::sort::stable::drift::sort
  call fastcc void @_ZN4core5slice4sort6stable5drift4sort17hf2c114673cd91d61E(ptr noalias noundef nonnull align 4 %v.sroa.0.0.ph204, i64 noundef %v.sroa.16.0196, ptr noalias noundef nonnull align 4 %scratch.0, i64 noundef %scratch.1, i1 noundef zeroext true, ptr noalias noundef align 8 dereferenceable(8) %is_less)
  br label %bb22

bb10:                                             ; preds = %"_ZN5alloc5slice29_$LT$impl$u20$$u5b$T$u5d$$GT$7sort_by28_$u7b$$u7b$closure$u7d$$u7d$17hf5b8f37855ac0c3dE.exit16.i", %"_ZN5alloc5slice29_$LT$impl$u20$$u5b$T$u5d$$GT$7sort_by28_$u7b$$u7b$closure$u7d$$u7d$17hf5b8f37855ac0c3dE.exit10.i", %bb5.i
  %_0.sroa.0.0.i.sink.i = phi ptr [ %self.i, %bb5.i ], [ %v.sroa.0.0.ph204, %"_ZN5alloc5slice29_$LT$impl$u20$$u5b$T$u5d$$GT$7sort_by28_$u7b$$u7b$closure$u7d$$u7d$17hf5b8f37855ac0c3dE.exit10.i" ], [ %c.b.i.i, %"_ZN5alloc5slice29_$LT$impl$u20$$u5b$T$u5d$$GT$7sort_by28_$u7b$$u7b$closure$u7d$$u7d$17hf5b8f37855ac0c3dE.exit16.i" ]
  %31 = ptrtoint ptr %_0.sroa.0.0.i.sink.i to i64
  %32 = sub nuw i64 %31, %4
  %index.sroa.0.0.i = lshr exact i64 %32, 2
  %cond.i = icmp samesign ult i64 %index.sroa.0.0.i, %v.sroa.16.0196
  call void @llvm.assume(i1 %cond.i)
  call void @llvm.lifetime.start.p0(i64 4, ptr nonnull %pivot_copy)
  %src = getelementptr inbounds nuw i8, ptr %v.sroa.0.0.ph204, i64 %32
  %value = load float, ptr %src, align 4, !noundef !18
  store float %value, ptr %pivot_copy, align 4
  br i1 %.not, label %bb14, label %bb12

bb12:                                             ; preds = %bb10
  call void @llvm.experimental.noalias.scope.decl(metadata !1364)
  call void @llvm.experimental.noalias.scope.decl(metadata !1367)
  %_6.i.i = load float, ptr %left_ancestor_pivot.sroa.0.0.ph201, align 4, !alias.scope !1370, !noalias !1371, !noundef !18
  %brmerge.not.i = fcmp uno float %_6.i.i, %value
  br i1 %brmerge.not.i, label %bb6.i.i24, label %"_ZN5alloc5slice29_$LT$impl$u20$$u5b$T$u5d$$GT$7sort_by28_$u7b$$u7b$closure$u7d$$u7d$17hf5b8f37855ac0c3dE.exit", !prof !21

bb6.i.i24:                                        ; preds = %bb12
; call core::option::unwrap_failed
  call void @_ZN4core6option13unwrap_failed17hef2534b77b89c04fE(ptr noalias noundef readonly align 8 captures(address, read_provenance) dereferenceable(24) @alloc_b0e33ba48ef5fa15e44a55a18226b5ac) #18, !noalias !1374
  unreachable

"_ZN5alloc5slice29_$LT$impl$u20$$u5b$T$u5d$$GT$7sort_by28_$u7b$$u7b$closure$u7d$$u7d$17hf5b8f37855ac0c3dE.exit": ; preds = %bb12
  %_8.i.mux.i = fcmp olt float %_6.i.i, %value
  br i1 %_8.i.mux.i, label %bb14, label %bb17

bb14:                                             ; preds = %bb10, %"_ZN5alloc5slice29_$LT$impl$u20$$u5b$T$u5d$$GT$7sort_by28_$u7b$$u7b$closure$u7d$$u7d$17hf5b8f37855ac0c3dE.exit"
  call void @llvm.experimental.noalias.scope.decl(metadata !1375)
  call void @llvm.experimental.noalias.scope.decl(metadata !1378)
  %_8.i25.not = icmp samesign ult i64 %scratch.1, %v.sroa.16.0196
  br i1 %_8.i25.not, label %bb31.i26, label %bb33.i, !prof !357

bb33.i:                                           ; preds = %bb14
  %_86.i = getelementptr float, ptr %scratch.0, i64 %v.sroa.16.0196
  br label %bb3.i27

bb31.i26:                                         ; preds = %bb14
  call void @llvm.trap()
  unreachable

bb3.i27:                                          ; preds = %bb23.i, %bb33.i
  %state.sroa.27.0.i = phi i64 [ 0, %bb33.i ], [ %state.sroa.27.2.lcssa.i, %bb23.i ]
  %state.sroa.9.0.i = phi ptr [ %v.sroa.0.0.ph204, %bb33.i ], [ %_9.i82.i, %bb23.i ]
  %state.sroa.43.0.i = phi ptr [ %_86.i, %bb33.i ], [ %44, %bb23.i ]
  %pivot_pos.sroa.0.0.i = phi i64 [ %index.sroa.0.0.i, %bb33.i ], [ %v.sroa.16.0196, %bb23.i ]
  %33 = call i64 @llvm.usub.sat.i64(i64 %pivot_pos.sroa.0.0.i, i64 3)
  %unroll_end.i = getelementptr inbounds nuw float, ptr %v.sroa.0.0.ph204, i64 %33
  %_19111.i = icmp ult ptr %state.sroa.9.0.i, %unroll_end.i
  br i1 %_19111.i, label %bb6.i29.preheader, label %bb16.i

bb6.i29.preheader:                                ; preds = %bb3.i27
  %_7.i.i.i31 = load float, ptr %src, align 4, !alias.scope !1380, !noalias !1385, !noundef !18
  br label %bb6.i29

bb6.i29:                                          ; preds = %bb6.i29.preheader, %"_ZN5alloc5slice29_$LT$impl$u20$$u5b$T$u5d$$GT$7sort_by28_$u7b$$u7b$closure$u7d$$u7d$17hf5b8f37855ac0c3dE.exit56.i"
  %state.sroa.43.1114.i = phi ptr [ %40, %"_ZN5alloc5slice29_$LT$impl$u20$$u5b$T$u5d$$GT$7sort_by28_$u7b$$u7b$closure$u7d$$u7d$17hf5b8f37855ac0c3dE.exit56.i" ], [ %state.sroa.43.0.i, %bb6.i29.preheader ]
  %state.sroa.9.1113.i = phi ptr [ %_9.i63.i, %"_ZN5alloc5slice29_$LT$impl$u20$$u5b$T$u5d$$GT$7sort_by28_$u7b$$u7b$closure$u7d$$u7d$17hf5b8f37855ac0c3dE.exit56.i" ], [ %state.sroa.9.0.i, %bb6.i29.preheader ]
  %state.sroa.27.1112.i = phi i64 [ %41, %"_ZN5alloc5slice29_$LT$impl$u20$$u5b$T$u5d$$GT$7sort_by28_$u7b$$u7b$closure$u7d$$u7d$17hf5b8f37855ac0c3dE.exit56.i" ], [ %state.sroa.27.0.i, %bb6.i29.preheader ]
  call void @llvm.experimental.noalias.scope.decl(metadata !1388)
  call void @llvm.experimental.noalias.scope.decl(metadata !1389)
  call void @llvm.experimental.noalias.scope.decl(metadata !1390)
  call void @llvm.experimental.noalias.scope.decl(metadata !1391)
  %_6.i.i.i30 = load float, ptr %state.sroa.9.1113.i, align 4, !alias.scope !1392, !noalias !1393, !noundef !18
  %brmerge.not.i.i32 = fcmp uno float %_6.i.i.i30, %_7.i.i.i31
  br i1 %brmerge.not.i.i32, label %bb6.i.i.i36, label %"_ZN5alloc5slice29_$LT$impl$u20$$u5b$T$u5d$$GT$7sort_by28_$u7b$$u7b$closure$u7d$$u7d$17hf5b8f37855ac0c3dE.exit.i33", !prof !21

bb6.i.i.i36:                                      ; preds = %bb6.i29
; call core::option::unwrap_failed
  call void @_ZN4core6option13unwrap_failed17hef2534b77b89c04fE(ptr noalias noundef readonly align 8 captures(address, read_provenance) dereferenceable(24) @alloc_b0e33ba48ef5fa15e44a55a18226b5ac) #18, !noalias !1394
  unreachable

"_ZN5alloc5slice29_$LT$impl$u20$$u5b$T$u5d$$GT$7sort_by28_$u7b$$u7b$closure$u7d$$u7d$17hf5b8f37855ac0c3dE.exit.i33": ; preds = %bb6.i29
  %_8.i.mux.i.i34 = fcmp olt float %_6.i.i.i30, %_7.i.i.i31
  %34 = getelementptr inbounds i8, ptr %state.sroa.43.1114.i, i64 -4
  %dst_base.sroa.0.0.i.i = select i1 %_8.i.mux.i.i34, ptr %scratch.0, ptr %34
  %dst.i.i = getelementptr inbounds nuw float, ptr %dst_base.sroa.0.0.i.i, i64 %state.sroa.27.1112.i
  store float %_6.i.i.i30, ptr %dst.i.i, align 4, !alias.scope !1378, !noalias !1395
  %_9.i.i = getelementptr inbounds nuw i8, ptr %state.sroa.9.1113.i, i64 4
  call void @llvm.experimental.noalias.scope.decl(metadata !1398)
  call void @llvm.experimental.noalias.scope.decl(metadata !1401)
  %_6.i.i25.i = load float, ptr %_9.i.i, align 4, !alias.scope !1404, !noalias !1405, !noundef !18
  %brmerge.not.i27.i = fcmp uno float %_6.i.i25.i, %_7.i.i.i31
  br i1 %brmerge.not.i27.i, label %bb6.i.i29.i, label %"_ZN5alloc5slice29_$LT$impl$u20$$u5b$T$u5d$$GT$7sort_by28_$u7b$$u7b$closure$u7d$$u7d$17hf5b8f37855ac0c3dE.exit30.i", !prof !21

bb6.i.i29.i:                                      ; preds = %"_ZN5alloc5slice29_$LT$impl$u20$$u5b$T$u5d$$GT$7sort_by28_$u7b$$u7b$closure$u7d$$u7d$17hf5b8f37855ac0c3dE.exit.i33"
; call core::option::unwrap_failed
  call void @_ZN4core6option13unwrap_failed17hef2534b77b89c04fE(ptr noalias noundef readonly align 8 captures(address, read_provenance) dereferenceable(24) @alloc_b0e33ba48ef5fa15e44a55a18226b5ac) #18, !noalias !1408
  unreachable

"_ZN5alloc5slice29_$LT$impl$u20$$u5b$T$u5d$$GT$7sort_by28_$u7b$$u7b$closure$u7d$$u7d$17hf5b8f37855ac0c3dE.exit30.i": ; preds = %"_ZN5alloc5slice29_$LT$impl$u20$$u5b$T$u5d$$GT$7sort_by28_$u7b$$u7b$closure$u7d$$u7d$17hf5b8f37855ac0c3dE.exit.i33"
  %_8.i.i = zext i1 %_8.i.mux.i.i34 to i64
  %35 = add i64 %state.sroa.27.1112.i, %_8.i.i
  %_8.i.mux.i28.i = fcmp olt float %_6.i.i25.i, %_7.i.i.i31
  %36 = getelementptr inbounds i8, ptr %state.sroa.43.1114.i, i64 -8
  %dst_base.sroa.0.0.i32.i = select i1 %_8.i.mux.i28.i, ptr %scratch.0, ptr %36
  %dst.i34.i = getelementptr inbounds nuw float, ptr %dst_base.sroa.0.0.i32.i, i64 %35
  store float %_6.i.i25.i, ptr %dst.i34.i, align 4, !alias.scope !1378, !noalias !1409
  %_9.i37.i = getelementptr inbounds nuw i8, ptr %state.sroa.9.1113.i, i64 8
  call void @llvm.experimental.noalias.scope.decl(metadata !1412)
  call void @llvm.experimental.noalias.scope.decl(metadata !1415)
  %_6.i.i38.i = load float, ptr %_9.i37.i, align 4, !alias.scope !1418, !noalias !1419, !noundef !18
  %brmerge.not.i40.i = fcmp uno float %_6.i.i38.i, %_7.i.i.i31
  br i1 %brmerge.not.i40.i, label %bb6.i.i42.i, label %"_ZN5alloc5slice29_$LT$impl$u20$$u5b$T$u5d$$GT$7sort_by28_$u7b$$u7b$closure$u7d$$u7d$17hf5b8f37855ac0c3dE.exit43.i", !prof !21

bb6.i.i42.i:                                      ; preds = %"_ZN5alloc5slice29_$LT$impl$u20$$u5b$T$u5d$$GT$7sort_by28_$u7b$$u7b$closure$u7d$$u7d$17hf5b8f37855ac0c3dE.exit30.i"
; call core::option::unwrap_failed
  call void @_ZN4core6option13unwrap_failed17hef2534b77b89c04fE(ptr noalias noundef readonly align 8 captures(address, read_provenance) dereferenceable(24) @alloc_b0e33ba48ef5fa15e44a55a18226b5ac) #18, !noalias !1422
  unreachable

"_ZN5alloc5slice29_$LT$impl$u20$$u5b$T$u5d$$GT$7sort_by28_$u7b$$u7b$closure$u7d$$u7d$17hf5b8f37855ac0c3dE.exit43.i": ; preds = %"_ZN5alloc5slice29_$LT$impl$u20$$u5b$T$u5d$$GT$7sort_by28_$u7b$$u7b$closure$u7d$$u7d$17hf5b8f37855ac0c3dE.exit30.i"
  %_8.i36.i = zext i1 %_8.i.mux.i28.i to i64
  %37 = add i64 %35, %_8.i36.i
  %_8.i.mux.i41.i = fcmp olt float %_6.i.i38.i, %_7.i.i.i31
  %38 = getelementptr inbounds i8, ptr %state.sroa.43.1114.i, i64 -12
  %dst_base.sroa.0.0.i45.i = select i1 %_8.i.mux.i41.i, ptr %scratch.0, ptr %38
  %dst.i47.i = getelementptr inbounds nuw float, ptr %dst_base.sroa.0.0.i45.i, i64 %37
  store float %_6.i.i38.i, ptr %dst.i47.i, align 4, !alias.scope !1378, !noalias !1423
  %_9.i50.i = getelementptr inbounds nuw i8, ptr %state.sroa.9.1113.i, i64 12
  call void @llvm.experimental.noalias.scope.decl(metadata !1426)
  call void @llvm.experimental.noalias.scope.decl(metadata !1429)
  %_6.i.i51.i = load float, ptr %_9.i50.i, align 4, !alias.scope !1432, !noalias !1433, !noundef !18
  %brmerge.not.i53.i = fcmp uno float %_6.i.i51.i, %_7.i.i.i31
  br i1 %brmerge.not.i53.i, label %bb6.i.i55.i, label %"_ZN5alloc5slice29_$LT$impl$u20$$u5b$T$u5d$$GT$7sort_by28_$u7b$$u7b$closure$u7d$$u7d$17hf5b8f37855ac0c3dE.exit56.i", !prof !21

bb6.i.i55.i:                                      ; preds = %"_ZN5alloc5slice29_$LT$impl$u20$$u5b$T$u5d$$GT$7sort_by28_$u7b$$u7b$closure$u7d$$u7d$17hf5b8f37855ac0c3dE.exit43.i"
; call core::option::unwrap_failed
  call void @_ZN4core6option13unwrap_failed17hef2534b77b89c04fE(ptr noalias noundef readonly align 8 captures(address, read_provenance) dereferenceable(24) @alloc_b0e33ba48ef5fa15e44a55a18226b5ac) #18, !noalias !1436
  unreachable

"_ZN5alloc5slice29_$LT$impl$u20$$u5b$T$u5d$$GT$7sort_by28_$u7b$$u7b$closure$u7d$$u7d$17hf5b8f37855ac0c3dE.exit56.i": ; preds = %"_ZN5alloc5slice29_$LT$impl$u20$$u5b$T$u5d$$GT$7sort_by28_$u7b$$u7b$closure$u7d$$u7d$17hf5b8f37855ac0c3dE.exit43.i"
  %_8.i49.i = zext i1 %_8.i.mux.i41.i to i64
  %39 = add i64 %37, %_8.i49.i
  %_8.i.mux.i54.i = fcmp olt float %_6.i.i51.i, %_7.i.i.i31
  %40 = getelementptr inbounds i8, ptr %state.sroa.43.1114.i, i64 -16
  %dst_base.sroa.0.0.i58.i = select i1 %_8.i.mux.i54.i, ptr %scratch.0, ptr %40
  %dst.i60.i = getelementptr inbounds nuw float, ptr %dst_base.sroa.0.0.i58.i, i64 %39
  store float %_6.i.i51.i, ptr %dst.i60.i, align 4, !alias.scope !1378, !noalias !1437
  %_8.i62.i = zext i1 %_8.i.mux.i54.i to i64
  %41 = add i64 %39, %_8.i62.i
  %_9.i63.i = getelementptr inbounds nuw i8, ptr %state.sroa.9.1113.i, i64 16
  %_19.i35 = icmp ult ptr %_9.i63.i, %unroll_end.i
  br i1 %_19.i35, label %bb6.i29, label %bb16.i

bb16.i:                                           ; preds = %"_ZN5alloc5slice29_$LT$impl$u20$$u5b$T$u5d$$GT$7sort_by28_$u7b$$u7b$closure$u7d$$u7d$17hf5b8f37855ac0c3dE.exit56.i", %bb3.i27
  %state.sroa.27.1.lcssa.i = phi i64 [ %state.sroa.27.0.i, %bb3.i27 ], [ %41, %"_ZN5alloc5slice29_$LT$impl$u20$$u5b$T$u5d$$GT$7sort_by28_$u7b$$u7b$closure$u7d$$u7d$17hf5b8f37855ac0c3dE.exit56.i" ]
  %state.sroa.9.1.lcssa.i = phi ptr [ %state.sroa.9.0.i, %bb3.i27 ], [ %_9.i63.i, %"_ZN5alloc5slice29_$LT$impl$u20$$u5b$T$u5d$$GT$7sort_by28_$u7b$$u7b$closure$u7d$$u7d$17hf5b8f37855ac0c3dE.exit56.i" ]
  %state.sroa.43.1.lcssa.i = phi ptr [ %state.sroa.43.0.i, %bb3.i27 ], [ %40, %"_ZN5alloc5slice29_$LT$impl$u20$$u5b$T$u5d$$GT$7sort_by28_$u7b$$u7b$closure$u7d$$u7d$17hf5b8f37855ac0c3dE.exit56.i" ]
  %loop_end.i = getelementptr inbounds nuw float, ptr %v.sroa.0.0.ph204, i64 %pivot_pos.sroa.0.0.i
  %_47117.i = icmp ult ptr %state.sroa.9.1.lcssa.i, %loop_end.i
  br i1 %_47117.i, label %bb18.i.preheader, label %bb21.i

bb18.i.preheader:                                 ; preds = %bb16.i
  %_7.i.i65.i = load float, ptr %src, align 4, !alias.scope !1440, !noalias !1445, !noundef !18
  br label %bb18.i

bb21.i:                                           ; preds = %"_ZN5alloc5slice29_$LT$impl$u20$$u5b$T$u5d$$GT$7sort_by28_$u7b$$u7b$closure$u7d$$u7d$17hf5b8f37855ac0c3dE.exit69.i", %bb16.i
  %state.sroa.27.2.lcssa.i = phi i64 [ %state.sroa.27.1.lcssa.i, %bb16.i ], [ %43, %"_ZN5alloc5slice29_$LT$impl$u20$$u5b$T$u5d$$GT$7sort_by28_$u7b$$u7b$closure$u7d$$u7d$17hf5b8f37855ac0c3dE.exit69.i" ]
  %state.sroa.9.2.lcssa.i = phi ptr [ %state.sroa.9.1.lcssa.i, %bb16.i ], [ %_9.i76.i, %"_ZN5alloc5slice29_$LT$impl$u20$$u5b$T$u5d$$GT$7sort_by28_$u7b$$u7b$closure$u7d$$u7d$17hf5b8f37855ac0c3dE.exit69.i" ]
