; ModuleID = 'FIND_MINIMUM_RADIUS_ATLEAST_K_POINT_LIE_INSIDE_CIRCLE_emit.9ce1212e3f915cbe-cgu.0'
source_filename = "FIND_MINIMUM_RADIUS_ATLEAST_K_POINT_LIE_INSIDE_CIRCLE_emit.9ce1212e3f915cbe-cgu.0"
target datalayout = "e-m:e-p270:32:32-p271:32:32-p272:64:64-i64:64-i128:128-f80:128-n8:16:32:64-S128"
target triple = "x86_64-unknown-linux-gnu"

@alloc_d1084648e479974e70c9329824bf76f9 = private unnamed_addr constant [9 x i8] c"mid > len", align 1
@alloc_e8e5fd9f509afcb950667480b3e3e42a = private unnamed_addr constant [126 x i8] c"/root/.rustup/toolchains/stable-x86_64-unknown-linux-gnu/lib/rustlib/src/rust/library/core/src/slice/sort/stable/quicksort.rs\00", align 1
@alloc_58d434a1e795f965ef82c8e9c5db822a = private unnamed_addr constant <{ ptr, [16 x i8] }> <{ ptr @alloc_e8e5fd9f509afcb950667480b3e3e42a, [16 x i8] c"}\00\00\00\00\00\00\00J\00\00\00\1F\00\00\00" }>, align 8
@alloc_0766b232215672ee1bd2195fdb153938 = private unnamed_addr constant <{ ptr, [16 x i8] }> <{ ptr @alloc_e8e5fd9f509afcb950667480b3e3e42a, [16 x i8] c"}\00\00\00\00\00\00\00D\00\00\00\17\00\00\00" }>, align 8
@alloc_1740f0399c4336f609ea074fb12f1baa = private unnamed_addr constant [161 x i8] c"/root/es/vert/vert/rust_funcs/cpp_transcoder/FIND_MINIMUM_RADIUS_ATLEAST_K_POINT_LIE_INSIDE_CIRCLE/FIND_MINIMUM_RADIUS_ATLEAST_K_POINT_LIE_INSIDE_CIRCLE_emit.rs\00", align 1
@alloc_e233725058d574d75123974d8763f424 = private unnamed_addr constant <{ ptr, [16 x i8] }> <{ ptr @alloc_1740f0399c4336f609ea074fb12f1baa, [16 x i8] c"\A0\00\00\00\00\00\00\00\1B\00\00\00)\00\00\00" }>, align 8
@alloc_91929aa5fd5ecdf230d71e4a2b4c6739 = private unnamed_addr constant <{ ptr, [16 x i8] }> <{ ptr @alloc_1740f0399c4336f609ea074fb12f1baa, [16 x i8] c"\A0\00\00\00\00\00\00\00\1C\00\00\00\0F\00\00\00" }>, align 8
@alloc_d62f07554f1472b25e34b1cc2dcde560 = private unnamed_addr constant <{ ptr, [16 x i8] }> <{ ptr @alloc_1740f0399c4336f609ea074fb12f1baa, [16 x i8] c"\A0\00\00\00\00\00\00\00\19\00\00\00\12\00\00\00" }>, align 8

; core::slice::sort::shared::pivot::median3_rec
; Function Attrs: nonlazybind uwtable
define internal fastcc noundef nonnull ptr @_ZN4core5slice4sort6shared5pivot11median3_rec17h6170ce92e8f2efbeE(ptr noundef nonnull %0, ptr noundef nonnull %1, ptr noundef nonnull %2, i64 noundef range(i64 0, 288230376151711744) %n) unnamed_addr #0 {
start:
  %_6 = icmp samesign ugt i64 %n, 7
  br i1 %_6, label %bb1, label %bb6

bb1:                                              ; preds = %start
  %n84 = lshr i64 %n, 3
  %count = shl nuw nsw i64 %n84, 2
  %_10 = getelementptr inbounds nuw float, ptr %0, i64 %count
  %count1 = mul nuw nsw i64 %n84, 7
  %_13 = getelementptr inbounds nuw float, ptr %0, i64 %count1
; call core::slice::sort::shared::pivot::median3_rec
  %3 = tail call fastcc noundef ptr @_ZN4core5slice4sort6shared5pivot11median3_rec17h6170ce92e8f2efbeE(ptr noundef %0, ptr noundef %_10, ptr noundef %_13, i64 noundef %n84)
  %_16 = getelementptr inbounds nuw float, ptr %1, i64 %count
  %_18 = getelementptr inbounds nuw float, ptr %1, i64 %count1
; call core::slice::sort::shared::pivot::median3_rec
  %4 = tail call fastcc noundef ptr @_ZN4core5slice4sort6shared5pivot11median3_rec17h6170ce92e8f2efbeE(ptr noundef %1, ptr noundef %_16, ptr noundef %_18, i64 noundef %n84)
  %_20 = getelementptr inbounds nuw float, ptr %2, i64 %count
  %_22 = getelementptr inbounds nuw float, ptr %2, i64 %count1
; call core::slice::sort::shared::pivot::median3_rec
  %5 = tail call fastcc noundef ptr @_ZN4core5slice4sort6shared5pivot11median3_rec17h6170ce92e8f2efbeE(ptr noundef %2, ptr noundef %_20, ptr noundef %_22, i64 noundef %n84)
  br label %bb6

bb6:                                              ; preds = %start, %bb1
  %c.sroa.0.0 = phi ptr [ %5, %bb1 ], [ %2, %start ]
  %b.sroa.0.0 = phi ptr [ %4, %bb1 ], [ %1, %start ]
  %a.sroa.0.0 = phi ptr [ %3, %bb1 ], [ %0, %start ]
  tail call void @llvm.experimental.noalias.scope.decl(metadata !3)
  tail call void @llvm.experimental.noalias.scope.decl(metadata !6)
  tail call void @llvm.experimental.noalias.scope.decl(metadata !8), !noalias !11
  tail call void @llvm.experimental.noalias.scope.decl(metadata !14), !noalias !11
  %_6.i.i = load float, ptr %a.sroa.0.0, align 4, !alias.scope !16, !noalias !17, !noundef !18
  %_7.i.i = load float, ptr %b.sroa.0.0, align 4, !alias.scope !19, !noalias !20, !noundef !18
  %brmerge.not.i = fcmp uno float %_6.i.i, %_7.i.i
  br i1 %brmerge.not.i, label %bb6.i.i, label %"_ZN5alloc5slice29_$LT$impl$u20$$u5b$T$u5d$$GT$7sort_by28_$u7b$$u7b$closure$u7d$$u7d$17h47d2093944d38971E.exit", !prof !21

bb6.i.i:                                          ; preds = %bb6
; call core::option::unwrap_failed
  tail call void @_ZN4core6option13unwrap_failed17hef2534b77b89c04fE(ptr noalias noundef readonly align 8 captures(address, read_provenance) dereferenceable(24) @alloc_e233725058d574d75123974d8763f424) #21, !noalias !22
  unreachable

"_ZN5alloc5slice29_$LT$impl$u20$$u5b$T$u5d$$GT$7sort_by28_$u7b$$u7b$closure$u7d$$u7d$17h47d2093944d38971E.exit": ; preds = %bb6
  %_8.i.mux.i = fcmp olt float %_6.i.i, %_7.i.i
  tail call void @llvm.experimental.noalias.scope.decl(metadata !23)
  tail call void @llvm.experimental.noalias.scope.decl(metadata !26)
  %_7.i.i6 = load float, ptr %c.sroa.0.0, align 4, !alias.scope !29, !noalias !30, !noundef !18
  %brmerge.not.i7 = fcmp uno float %_6.i.i, %_7.i.i6
  br i1 %brmerge.not.i7, label %bb6.i.i9, label %"_ZN5alloc5slice29_$LT$impl$u20$$u5b$T$u5d$$GT$7sort_by28_$u7b$$u7b$closure$u7d$$u7d$17h47d2093944d38971E.exit10", !prof !21

bb6.i.i9:                                         ; preds = %"_ZN5alloc5slice29_$LT$impl$u20$$u5b$T$u5d$$GT$7sort_by28_$u7b$$u7b$closure$u7d$$u7d$17h47d2093944d38971E.exit"
; call core::option::unwrap_failed
  tail call void @_ZN4core6option13unwrap_failed17hef2534b77b89c04fE(ptr noalias noundef readonly align 8 captures(address, read_provenance) dereferenceable(24) @alloc_e233725058d574d75123974d8763f424) #21, !noalias !33
  unreachable

"_ZN5alloc5slice29_$LT$impl$u20$$u5b$T$u5d$$GT$7sort_by28_$u7b$$u7b$closure$u7d$$u7d$17h47d2093944d38971E.exit10": ; preds = %"_ZN5alloc5slice29_$LT$impl$u20$$u5b$T$u5d$$GT$7sort_by28_$u7b$$u7b$closure$u7d$$u7d$17h47d2093944d38971E.exit"
  %_8.i.mux.i8 = fcmp olt float %_6.i.i, %_7.i.i6
  %6 = xor i1 %_8.i.mux.i, %_8.i.mux.i8
  br i1 %6, label %_ZN4core5slice4sort6shared5pivot7median317h10f5e7d7bf5b7b20E.exit, label %bb3.i

bb3.i:                                            ; preds = %"_ZN5alloc5slice29_$LT$impl$u20$$u5b$T$u5d$$GT$7sort_by28_$u7b$$u7b$closure$u7d$$u7d$17h47d2093944d38971E.exit10"
  %brmerge.not.i13 = fcmp uno float %_7.i.i, %_7.i.i6
  br i1 %brmerge.not.i13, label %bb6.i.i15, label %"_ZN5alloc5slice29_$LT$impl$u20$$u5b$T$u5d$$GT$7sort_by28_$u7b$$u7b$closure$u7d$$u7d$17h47d2093944d38971E.exit16", !prof !21

bb6.i.i15:                                        ; preds = %bb3.i
; call core::option::unwrap_failed
  tail call void @_ZN4core6option13unwrap_failed17hef2534b77b89c04fE(ptr noalias noundef readonly align 8 captures(address, read_provenance) dereferenceable(24) @alloc_e233725058d574d75123974d8763f424) #21, !noalias !34
  unreachable

"_ZN5alloc5slice29_$LT$impl$u20$$u5b$T$u5d$$GT$7sort_by28_$u7b$$u7b$closure$u7d$$u7d$17h47d2093944d38971E.exit16": ; preds = %bb3.i
  %_8.i.mux.i14 = fcmp olt float %_7.i.i, %_7.i.i6
  %_12.i = xor i1 %_8.i.mux.i, %_8.i.mux.i14
  %c.b.i = select i1 %_12.i, ptr %c.sroa.0.0, ptr %b.sroa.0.0
  br label %_ZN4core5slice4sort6shared5pivot7median317h10f5e7d7bf5b7b20E.exit

_ZN4core5slice4sort6shared5pivot7median317h10f5e7d7bf5b7b20E.exit: ; preds = %"_ZN5alloc5slice29_$LT$impl$u20$$u5b$T$u5d$$GT$7sort_by28_$u7b$$u7b$closure$u7d$$u7d$17h47d2093944d38971E.exit10", %"_ZN5alloc5slice29_$LT$impl$u20$$u5b$T$u5d$$GT$7sort_by28_$u7b$$u7b$closure$u7d$$u7d$17h47d2093944d38971E.exit16"
  %_0.sroa.0.0.i = phi ptr [ %a.sroa.0.0, %"_ZN5alloc5slice29_$LT$impl$u20$$u5b$T$u5d$$GT$7sort_by28_$u7b$$u7b$closure$u7d$$u7d$17h47d2093944d38971E.exit10" ], [ %c.b.i, %"_ZN5alloc5slice29_$LT$impl$u20$$u5b$T$u5d$$GT$7sort_by28_$u7b$$u7b$closure$u7d$$u7d$17h47d2093944d38971E.exit16" ]
  ret ptr %_0.sroa.0.0.i
}

; core::slice::sort::shared::pivot::median3_rec
; Function Attrs: nofree nosync nounwind nonlazybind memory(read, inaccessiblemem: readwrite) uwtable
define internal fastcc noundef nonnull ptr @_ZN4core5slice4sort6shared5pivot11median3_rec17h63df4c18b3244a7aE(ptr noundef nonnull %0, ptr noundef nonnull %1, ptr noundef nonnull %2, i64 noundef range(i64 0, 288230376151711744) %n) unnamed_addr #1 {
start:
  %_6 = icmp samesign ugt i64 %n, 7
  br i1 %_6, label %bb1, label %bb6

bb1:                                              ; preds = %start
  %n84 = lshr i64 %n, 3
  %count = shl nuw nsw i64 %n84, 2
  %_10 = getelementptr inbounds nuw i32, ptr %0, i64 %count
  %count1 = mul nuw nsw i64 %n84, 7
  %_13 = getelementptr inbounds nuw i32, ptr %0, i64 %count1
; call core::slice::sort::shared::pivot::median3_rec
  %3 = tail call fastcc noundef ptr @_ZN4core5slice4sort6shared5pivot11median3_rec17h63df4c18b3244a7aE(ptr noundef %0, ptr noundef %_10, ptr noundef %_13, i64 noundef %n84)
  %_16 = getelementptr inbounds nuw i32, ptr %1, i64 %count
  %_18 = getelementptr inbounds nuw i32, ptr %1, i64 %count1
; call core::slice::sort::shared::pivot::median3_rec
  %4 = tail call fastcc noundef ptr @_ZN4core5slice4sort6shared5pivot11median3_rec17h63df4c18b3244a7aE(ptr noundef %1, ptr noundef %_16, ptr noundef %_18, i64 noundef %n84)
  %_20 = getelementptr inbounds nuw i32, ptr %2, i64 %count
  %_22 = getelementptr inbounds nuw i32, ptr %2, i64 %count1
; call core::slice::sort::shared::pivot::median3_rec
  %5 = tail call fastcc noundef ptr @_ZN4core5slice4sort6shared5pivot11median3_rec17h63df4c18b3244a7aE(ptr noundef %2, ptr noundef %_20, ptr noundef %_22, i64 noundef %n84)
  br label %bb6

bb6:                                              ; preds = %start, %bb1
  %c.sroa.0.0 = phi ptr [ %5, %bb1 ], [ %2, %start ]
  %b.sroa.0.0 = phi ptr [ %4, %bb1 ], [ %1, %start ]
  %a.sroa.0.0 = phi ptr [ %3, %bb1 ], [ %0, %start ]
  tail call void @llvm.experimental.noalias.scope.decl(metadata !41)
  tail call void @llvm.experimental.noalias.scope.decl(metadata !44)
  tail call void @llvm.experimental.noalias.scope.decl(metadata !46), !noalias !49
  tail call void @llvm.experimental.noalias.scope.decl(metadata !52), !noalias !49
  tail call void @llvm.experimental.noalias.scope.decl(metadata !54), !noalias !49
  tail call void @llvm.experimental.noalias.scope.decl(metadata !57), !noalias !49
  %_3.i.i.i = load i32, ptr %a.sroa.0.0, align 4, !alias.scope !59, !noalias !60, !noundef !18
  %_4.i.i.i = load i32, ptr %b.sroa.0.0, align 4, !alias.scope !61, !noalias !62, !noundef !18
  %_0.i = icmp slt i32 %_3.i.i.i, %_4.i.i.i
  %_4.i.i.i6 = load i32, ptr %c.sroa.0.0, align 4, !alias.scope !63, !noalias !70, !noundef !18
  %_0.i7 = icmp slt i32 %_3.i.i.i, %_4.i.i.i6
  %6 = xor i1 %_0.i, %_0.i7
  %_0.i10 = icmp slt i32 %_4.i.i.i, %_4.i.i.i6
  %_12.i = xor i1 %_0.i, %_0.i10
  %c.b.i = select i1 %_12.i, ptr %c.sroa.0.0, ptr %b.sroa.0.0
  %_0.sroa.0.0.i = select i1 %6, ptr %a.sroa.0.0, ptr %c.b.i
  ret ptr %_0.sroa.0.0.i
}

; core::slice::sort::shared::smallsort::sort4_stable
; Function Attrs: nonlazybind uwtable
define internal fastcc void @_ZN4core5slice4sort6shared9smallsort12sort4_stable17hff7d5c64b61890c1E(ptr noundef nonnull readonly captures(none) %v_base, ptr noundef nonnull writeonly captures(none) %dst) unnamed_addr #0 personality ptr @rust_eh_personality {
start:
  %_7 = getelementptr inbounds nuw i8, ptr %v_base, i64 4
  tail call void @llvm.experimental.noalias.scope.decl(metadata !74)
  tail call void @llvm.experimental.noalias.scope.decl(metadata !77)
  tail call void @llvm.experimental.noalias.scope.decl(metadata !79)
  tail call void @llvm.experimental.noalias.scope.decl(metadata !82)
  %_6.i.i = load float, ptr %_7, align 4, !alias.scope !84, !noalias !85, !noundef !18
  %_7.i.i = load float, ptr %v_base, align 4, !alias.scope !85, !noalias !84, !noundef !18
  %brmerge.not.i = fcmp uno float %_6.i.i, %_7.i.i
  br i1 %brmerge.not.i, label %bb6.i.i, label %"_ZN5alloc5slice29_$LT$impl$u20$$u5b$T$u5d$$GT$7sort_by28_$u7b$$u7b$closure$u7d$$u7d$17h47d2093944d38971E.exit", !prof !21

bb6.i.i:                                          ; preds = %start
; call core::option::unwrap_failed
  tail call void @_ZN4core6option13unwrap_failed17hef2534b77b89c04fE(ptr noalias noundef readonly align 8 captures(address, read_provenance) dereferenceable(24) @alloc_e233725058d574d75123974d8763f424) #21, !noalias !86
  unreachable

"_ZN5alloc5slice29_$LT$impl$u20$$u5b$T$u5d$$GT$7sort_by28_$u7b$$u7b$closure$u7d$$u7d$17h47d2093944d38971E.exit": ; preds = %start
  %_12 = getelementptr inbounds nuw i8, ptr %v_base, i64 12
  %_14 = getelementptr inbounds nuw i8, ptr %v_base, i64 8
  tail call void @llvm.experimental.noalias.scope.decl(metadata !87)
  tail call void @llvm.experimental.noalias.scope.decl(metadata !90)
  tail call void @llvm.experimental.noalias.scope.decl(metadata !92)
  tail call void @llvm.experimental.noalias.scope.decl(metadata !95)
  %_6.i.i7 = load float, ptr %_12, align 4, !alias.scope !97, !noalias !98, !noundef !18
  %_7.i.i8 = load float, ptr %_14, align 4, !alias.scope !98, !noalias !97, !noundef !18
  %brmerge.not.i9 = fcmp uno float %_6.i.i7, %_7.i.i8
  br i1 %brmerge.not.i9, label %bb6.i.i11, label %"_ZN5alloc5slice29_$LT$impl$u20$$u5b$T$u5d$$GT$7sort_by28_$u7b$$u7b$closure$u7d$$u7d$17h47d2093944d38971E.exit12", !prof !21

bb6.i.i11:                                        ; preds = %"_ZN5alloc5slice29_$LT$impl$u20$$u5b$T$u5d$$GT$7sort_by28_$u7b$$u7b$closure$u7d$$u7d$17h47d2093944d38971E.exit"
; call core::option::unwrap_failed
  tail call void @_ZN4core6option13unwrap_failed17hef2534b77b89c04fE(ptr noalias noundef readonly align 8 captures(address, read_provenance) dereferenceable(24) @alloc_e233725058d574d75123974d8763f424) #21, !noalias !99
  unreachable

"_ZN5alloc5slice29_$LT$impl$u20$$u5b$T$u5d$$GT$7sort_by28_$u7b$$u7b$closure$u7d$$u7d$17h47d2093944d38971E.exit12": ; preds = %"_ZN5alloc5slice29_$LT$impl$u20$$u5b$T$u5d$$GT$7sort_by28_$u7b$$u7b$closure$u7d$$u7d$17h47d2093944d38971E.exit"
  %_8.i.mux.i = fcmp olt float %_6.i.i, %_7.i.i
  %_8.i.mux.i10 = fcmp olt float %_6.i.i7, %_7.i.i8
  %count = zext i1 %_8.i.mux.i to i64
  %a = getelementptr inbounds nuw float, ptr %v_base, i64 %count
  %_19 = xor i1 %_8.i.mux.i, true
  %count2 = zext i1 %_19 to i64
  %b = getelementptr inbounds nuw float, ptr %v_base, i64 %count2
  %count3 = select i1 %_8.i.mux.i10, i64 3, i64 2
  %c = getelementptr inbounds nuw float, ptr %v_base, i64 %count3
  %count4 = select i1 %_8.i.mux.i10, i64 2, i64 3
  %d = getelementptr inbounds nuw float, ptr %v_base, i64 %count4
  tail call void @llvm.experimental.noalias.scope.decl(metadata !100)
  tail call void @llvm.experimental.noalias.scope.decl(metadata !103)
  tail call void @llvm.experimental.noalias.scope.decl(metadata !105)
  tail call void @llvm.experimental.noalias.scope.decl(metadata !108)
  %_6.i.i13 = load float, ptr %c, align 4, !alias.scope !110, !noalias !111, !noundef !18
  %_7.i.i14 = load float, ptr %a, align 4, !alias.scope !111, !noalias !110, !noundef !18
  %brmerge.not.i15 = fcmp uno float %_6.i.i13, %_7.i.i14
  br i1 %brmerge.not.i15, label %bb6.i.i17, label %"_ZN5alloc5slice29_$LT$impl$u20$$u5b$T$u5d$$GT$7sort_by28_$u7b$$u7b$closure$u7d$$u7d$17h47d2093944d38971E.exit18", !prof !21

bb6.i.i17:                                        ; preds = %"_ZN5alloc5slice29_$LT$impl$u20$$u5b$T$u5d$$GT$7sort_by28_$u7b$$u7b$closure$u7d$$u7d$17h47d2093944d38971E.exit12"
; call core::option::unwrap_failed
  tail call void @_ZN4core6option13unwrap_failed17hef2534b77b89c04fE(ptr noalias noundef readonly align 8 captures(address, read_provenance) dereferenceable(24) @alloc_e233725058d574d75123974d8763f424) #21, !noalias !112
  unreachable

"_ZN5alloc5slice29_$LT$impl$u20$$u5b$T$u5d$$GT$7sort_by28_$u7b$$u7b$closure$u7d$$u7d$17h47d2093944d38971E.exit18": ; preds = %"_ZN5alloc5slice29_$LT$impl$u20$$u5b$T$u5d$$GT$7sort_by28_$u7b$$u7b$closure$u7d$$u7d$17h47d2093944d38971E.exit12"
  tail call void @llvm.experimental.noalias.scope.decl(metadata !113)
  tail call void @llvm.experimental.noalias.scope.decl(metadata !116)
  tail call void @llvm.experimental.noalias.scope.decl(metadata !118)
  tail call void @llvm.experimental.noalias.scope.decl(metadata !121)
  %_6.i.i19 = load float, ptr %d, align 4, !alias.scope !123, !noalias !124, !noundef !18
  %_7.i.i20 = load float, ptr %b, align 4, !alias.scope !124, !noalias !123, !noundef !18
  %brmerge.not.i21 = fcmp uno float %_6.i.i19, %_7.i.i20
  br i1 %brmerge.not.i21, label %bb6.i.i23, label %"_ZN5alloc5slice29_$LT$impl$u20$$u5b$T$u5d$$GT$7sort_by28_$u7b$$u7b$closure$u7d$$u7d$17h47d2093944d38971E.exit24", !prof !21

bb6.i.i23:                                        ; preds = %"_ZN5alloc5slice29_$LT$impl$u20$$u5b$T$u5d$$GT$7sort_by28_$u7b$$u7b$closure$u7d$$u7d$17h47d2093944d38971E.exit18"
; call core::option::unwrap_failed
  tail call void @_ZN4core6option13unwrap_failed17hef2534b77b89c04fE(ptr noalias noundef readonly align 8 captures(address, read_provenance) dereferenceable(24) @alloc_e233725058d574d75123974d8763f424) #21, !noalias !125
  unreachable

"_ZN5alloc5slice29_$LT$impl$u20$$u5b$T$u5d$$GT$7sort_by28_$u7b$$u7b$closure$u7d$$u7d$17h47d2093944d38971E.exit24": ; preds = %"_ZN5alloc5slice29_$LT$impl$u20$$u5b$T$u5d$$GT$7sort_by28_$u7b$$u7b$closure$u7d$$u7d$17h47d2093944d38971E.exit18"
  %_8.i.mux.i16 = fcmp olt float %_6.i.i13, %_7.i.i14
  %_8.i.mux.i22 = fcmp olt float %_6.i.i19, %_7.i.i20
  %0 = select i1 %_8.i.mux.i22, ptr %c, ptr %b, !unpredictable !18
  %1 = select i1 %_8.i.mux.i16, ptr %a, ptr %0, !unpredictable !18
  %2 = select i1 %_8.i.mux.i16, ptr %b, ptr %c, !unpredictable !18
  %3 = select i1 %_8.i.mux.i22, ptr %d, ptr %2, !unpredictable !18
  tail call void @llvm.experimental.noalias.scope.decl(metadata !126)
  tail call void @llvm.experimental.noalias.scope.decl(metadata !129)
  tail call void @llvm.experimental.noalias.scope.decl(metadata !131)
  tail call void @llvm.experimental.noalias.scope.decl(metadata !134)
  %_6.i.i25 = load float, ptr %3, align 4, !alias.scope !136, !noalias !137, !noundef !18
  %_7.i.i26 = load float, ptr %1, align 4, !alias.scope !137, !noalias !136, !noundef !18
  %brmerge.not.i27 = fcmp uno float %_6.i.i25, %_7.i.i26
  br i1 %brmerge.not.i27, label %bb6.i.i29, label %"_ZN5alloc5slice29_$LT$impl$u20$$u5b$T$u5d$$GT$7sort_by28_$u7b$$u7b$closure$u7d$$u7d$17h47d2093944d38971E.exit30", !prof !21

bb6.i.i29:                                        ; preds = %"_ZN5alloc5slice29_$LT$impl$u20$$u5b$T$u5d$$GT$7sort_by28_$u7b$$u7b$closure$u7d$$u7d$17h47d2093944d38971E.exit24"
; call core::option::unwrap_failed
  tail call void @_ZN4core6option13unwrap_failed17hef2534b77b89c04fE(ptr noalias noundef readonly align 8 captures(address, read_provenance) dereferenceable(24) @alloc_e233725058d574d75123974d8763f424) #21, !noalias !138
  unreachable

"_ZN5alloc5slice29_$LT$impl$u20$$u5b$T$u5d$$GT$7sort_by28_$u7b$$u7b$closure$u7d$$u7d$17h47d2093944d38971E.exit30": ; preds = %"_ZN5alloc5slice29_$LT$impl$u20$$u5b$T$u5d$$GT$7sort_by28_$u7b$$u7b$closure$u7d$$u7d$17h47d2093944d38971E.exit24"
  %4 = select i1 %_8.i.mux.i22, ptr %b, ptr %d, !unpredictable !18
  %5 = select i1 %_8.i.mux.i16, ptr %c, ptr %a, !unpredictable !18
  %_8.i.mux.i28 = fcmp olt float %_6.i.i25, %_7.i.i26
  %6 = select i1 %_8.i.mux.i28, ptr %3, ptr %1, !unpredictable !18
  %7 = select i1 %_8.i.mux.i28, ptr %1, ptr %3, !unpredictable !18
  %8 = load i32, ptr %5, align 4
  store i32 %8, ptr %dst, align 4
  %dst5 = getelementptr inbounds nuw i8, ptr %dst, i64 4
  %9 = load i32, ptr %6, align 4
  store i32 %9, ptr %dst5, align 4
  %dst6 = getelementptr inbounds nuw i8, ptr %dst, i64 8
  %10 = load i32, ptr %7, align 4
  store i32 %10, ptr %dst6, align 4
  %11 = getelementptr inbounds nuw i8, ptr %dst, i64 12
  %12 = load i32, ptr %4, align 4
  store i32 %12, ptr %11, align 4
  ret void
}

; core::slice::sort::shared::smallsort::sort8_stable
; Function Attrs: nonlazybind uwtable
define internal fastcc void @_ZN4core5slice4sort6shared9smallsort12sort8_stable17h191e2cd2a4055331E(ptr noundef nonnull readonly captures(none) %v_base, ptr noundef nonnull writeonly captures(none) initializes((0, 32)) %dst, ptr noundef nonnull captures(address) initializes((0, 32)) %scratch_base) unnamed_addr #0 personality ptr @rust_eh_personality {
start:
  %_7.i = getelementptr inbounds nuw i8, ptr %v_base, i64 4
  tail call void @llvm.experimental.noalias.scope.decl(metadata !139)
  tail call void @llvm.experimental.noalias.scope.decl(metadata !142)
  tail call void @llvm.experimental.noalias.scope.decl(metadata !144)
  tail call void @llvm.experimental.noalias.scope.decl(metadata !147)
  tail call void @llvm.experimental.noalias.scope.decl(metadata !149)
  tail call void @llvm.experimental.noalias.scope.decl(metadata !152)
  %_3.i.i.i.i = load i32, ptr %_7.i, align 4, !alias.scope !154, !noalias !155, !noundef !18
  %_4.i.i.i.i = load i32, ptr %v_base, align 4, !alias.scope !155, !noalias !154, !noundef !18
  %_0.i.i = icmp slt i32 %_3.i.i.i.i, %_4.i.i.i.i
  %_12.i = getelementptr inbounds nuw i8, ptr %v_base, i64 12
  %_14.i = getelementptr inbounds nuw i8, ptr %v_base, i64 8
  tail call void @llvm.experimental.noalias.scope.decl(metadata !156)
  tail call void @llvm.experimental.noalias.scope.decl(metadata !159)
  tail call void @llvm.experimental.noalias.scope.decl(metadata !161)
  tail call void @llvm.experimental.noalias.scope.decl(metadata !164)
  tail call void @llvm.experimental.noalias.scope.decl(metadata !166)
  tail call void @llvm.experimental.noalias.scope.decl(metadata !169)
  %_3.i.i.i7.i = load i32, ptr %_12.i, align 4, !alias.scope !171, !noalias !172, !noundef !18
  %_4.i.i.i8.i = load i32, ptr %_14.i, align 4, !alias.scope !172, !noalias !171, !noundef !18
  %_0.i9.i = icmp slt i32 %_3.i.i.i7.i, %_4.i.i.i8.i
  %count.i = zext i1 %_0.i.i to i64
  %a.i = getelementptr inbounds nuw i32, ptr %v_base, i64 %count.i
  %_19.i = xor i1 %_0.i.i, true
  %count2.i = zext i1 %_19.i to i64
  %b.i = getelementptr inbounds nuw i32, ptr %v_base, i64 %count2.i
  %count3.i = select i1 %_0.i9.i, i64 3, i64 2
  %c.i = getelementptr inbounds nuw i32, ptr %v_base, i64 %count3.i
  %count4.i = select i1 %_0.i9.i, i64 2, i64 3
  %d.i = getelementptr inbounds nuw i32, ptr %v_base, i64 %count4.i
  tail call void @llvm.experimental.noalias.scope.decl(metadata !173)
  tail call void @llvm.experimental.noalias.scope.decl(metadata !176)
  tail call void @llvm.experimental.noalias.scope.decl(metadata !178)
  tail call void @llvm.experimental.noalias.scope.decl(metadata !181)
  tail call void @llvm.experimental.noalias.scope.decl(metadata !183)
  tail call void @llvm.experimental.noalias.scope.decl(metadata !186)
  %_3.i.i.i10.i = load i32, ptr %c.i, align 4, !alias.scope !188, !noalias !189, !noundef !18
  %_4.i.i.i11.i = load i32, ptr %a.i, align 4, !alias.scope !189, !noalias !188, !noundef !18
  %_0.i12.i = icmp slt i32 %_3.i.i.i10.i, %_4.i.i.i11.i
  tail call void @llvm.experimental.noalias.scope.decl(metadata !190)
  tail call void @llvm.experimental.noalias.scope.decl(metadata !193)
  tail call void @llvm.experimental.noalias.scope.decl(metadata !195)
  tail call void @llvm.experimental.noalias.scope.decl(metadata !198)
  tail call void @llvm.experimental.noalias.scope.decl(metadata !200)
  tail call void @llvm.experimental.noalias.scope.decl(metadata !203)
  %_3.i.i.i13.i = load i32, ptr %d.i, align 4, !alias.scope !205, !noalias !206, !noundef !18
  %_4.i.i.i14.i = load i32, ptr %b.i, align 4, !alias.scope !206, !noalias !205, !noundef !18
  %_0.i15.i = icmp slt i32 %_3.i.i.i13.i, %_4.i.i.i14.i
  %0 = tail call i32 @llvm.smin.i32(i32 %_3.i.i.i10.i, i32 %_4.i.i.i11.i)
  %1 = select i1 %_0.i15.i, ptr %c.i, ptr %b.i, !unpredictable !18
  %2 = select i1 %_0.i12.i, ptr %a.i, ptr %1, !unpredictable !18
  %3 = select i1 %_0.i12.i, ptr %b.i, ptr %c.i, !unpredictable !18
  %4 = select i1 %_0.i15.i, ptr %d.i, ptr %3, !unpredictable !18
  tail call void @llvm.experimental.noalias.scope.decl(metadata !207)
  tail call void @llvm.experimental.noalias.scope.decl(metadata !210)
  tail call void @llvm.experimental.noalias.scope.decl(metadata !212)
  tail call void @llvm.experimental.noalias.scope.decl(metadata !215)
  tail call void @llvm.experimental.noalias.scope.decl(metadata !217)
  tail call void @llvm.experimental.noalias.scope.decl(metadata !220)
  %_3.i.i.i16.i = load i32, ptr %4, align 4, !alias.scope !222, !noalias !223, !noundef !18
  %_4.i.i.i17.i = load i32, ptr %2, align 4, !alias.scope !223, !noalias !222, !noundef !18
  %_0.i18.i = icmp slt i32 %_3.i.i.i16.i, %_4.i.i.i17.i
  store i32 %0, ptr %scratch_base, align 4
  %dst5.i = getelementptr inbounds nuw i8, ptr %scratch_base, i64 4
  %.val.i = load i32, ptr %4, align 4
  %.val19.i = load i32, ptr %2, align 4
  %5 = select i1 %_0.i18.i, i32 %.val.i, i32 %.val19.i
  store i32 %5, ptr %dst5.i, align 4
  %dst6.i = getelementptr inbounds nuw i8, ptr %scratch_base, i64 8
  %.val20.i = load i32, ptr %2, align 4
  %.val21.i = load i32, ptr %4, align 4
  %6 = select i1 %_0.i18.i, i32 %.val20.i, i32 %.val21.i
  store i32 %6, ptr %dst6.i, align 4
  %7 = getelementptr i8, ptr %scratch_base, i64 12
  %b.val.i = load i32, ptr %b.i, align 4
  %d.val.i = load i32, ptr %d.i, align 4
  %8 = select i1 %_0.i15.i, i32 %b.val.i, i32 %d.val.i
  store i32 %8, ptr %7, align 4
  %_9 = getelementptr inbounds nuw i8, ptr %v_base, i64 16
  %_10 = getelementptr i8, ptr %scratch_base, i64 16
  %_7.i1 = getelementptr inbounds nuw i8, ptr %v_base, i64 20
  tail call void @llvm.experimental.noalias.scope.decl(metadata !224)
  tail call void @llvm.experimental.noalias.scope.decl(metadata !227)
  tail call void @llvm.experimental.noalias.scope.decl(metadata !229)
  tail call void @llvm.experimental.noalias.scope.decl(metadata !232)
  tail call void @llvm.experimental.noalias.scope.decl(metadata !234)
  tail call void @llvm.experimental.noalias.scope.decl(metadata !237)
  %_3.i.i.i.i2 = load i32, ptr %_7.i1, align 4, !alias.scope !239, !noalias !240, !noundef !18
  %_4.i.i.i.i3 = load i32, ptr %_9, align 4, !alias.scope !240, !noalias !239, !noundef !18
  %_0.i.i4 = icmp slt i32 %_3.i.i.i.i2, %_4.i.i.i.i3
  %_12.i5 = getelementptr inbounds nuw i8, ptr %v_base, i64 28
  %_14.i6 = getelementptr inbounds nuw i8, ptr %v_base, i64 24
  tail call void @llvm.experimental.noalias.scope.decl(metadata !241)
  tail call void @llvm.experimental.noalias.scope.decl(metadata !244)
  tail call void @llvm.experimental.noalias.scope.decl(metadata !246)
  tail call void @llvm.experimental.noalias.scope.decl(metadata !249)
  tail call void @llvm.experimental.noalias.scope.decl(metadata !251)
  tail call void @llvm.experimental.noalias.scope.decl(metadata !254)
  %_3.i.i.i7.i7 = load i32, ptr %_12.i5, align 4, !alias.scope !256, !noalias !257, !noundef !18
  %_4.i.i.i8.i8 = load i32, ptr %_14.i6, align 4, !alias.scope !257, !noalias !256, !noundef !18
  %_0.i9.i9 = icmp slt i32 %_3.i.i.i7.i7, %_4.i.i.i8.i8
  %count.i10 = zext i1 %_0.i.i4 to i64
  %a.i11 = getelementptr inbounds nuw i32, ptr %_9, i64 %count.i10
  %_19.i12 = xor i1 %_0.i.i4, true
  %count2.i13 = zext i1 %_19.i12 to i64
  %b.i14 = getelementptr inbounds nuw i32, ptr %_9, i64 %count2.i13
  %count3.i15 = select i1 %_0.i9.i9, i64 3, i64 2
  %c.i16 = getelementptr inbounds nuw i32, ptr %_9, i64 %count3.i15
  %count4.i17 = select i1 %_0.i9.i9, i64 2, i64 3
  %d.i18 = getelementptr inbounds nuw i32, ptr %_9, i64 %count4.i17
  tail call void @llvm.experimental.noalias.scope.decl(metadata !258)
  tail call void @llvm.experimental.noalias.scope.decl(metadata !261)
  tail call void @llvm.experimental.noalias.scope.decl(metadata !263)
  tail call void @llvm.experimental.noalias.scope.decl(metadata !266)
  tail call void @llvm.experimental.noalias.scope.decl(metadata !268)
  tail call void @llvm.experimental.noalias.scope.decl(metadata !271)
  %_3.i.i.i10.i19 = load i32, ptr %c.i16, align 4, !alias.scope !273, !noalias !274, !noundef !18
  %_4.i.i.i11.i20 = load i32, ptr %a.i11, align 4, !alias.scope !274, !noalias !273, !noundef !18
  %_0.i12.i21 = icmp slt i32 %_3.i.i.i10.i19, %_4.i.i.i11.i20
  tail call void @llvm.experimental.noalias.scope.decl(metadata !275)
  tail call void @llvm.experimental.noalias.scope.decl(metadata !278)
  tail call void @llvm.experimental.noalias.scope.decl(metadata !280)
  tail call void @llvm.experimental.noalias.scope.decl(metadata !283)
  tail call void @llvm.experimental.noalias.scope.decl(metadata !285)
  tail call void @llvm.experimental.noalias.scope.decl(metadata !288)
  %_3.i.i.i13.i22 = load i32, ptr %d.i18, align 4, !alias.scope !290, !noalias !291, !noundef !18
  %_4.i.i.i14.i23 = load i32, ptr %b.i14, align 4, !alias.scope !291, !noalias !290, !noundef !18
  %_0.i15.i24 = icmp slt i32 %_3.i.i.i13.i22, %_4.i.i.i14.i23
  %9 = tail call i32 @llvm.smin.i32(i32 %_3.i.i.i10.i19, i32 %_4.i.i.i11.i20)
  %10 = select i1 %_0.i15.i24, ptr %c.i16, ptr %b.i14, !unpredictable !18
  %11 = select i1 %_0.i12.i21, ptr %a.i11, ptr %10, !unpredictable !18
  %12 = select i1 %_0.i12.i21, ptr %b.i14, ptr %c.i16, !unpredictable !18
  %13 = select i1 %_0.i15.i24, ptr %d.i18, ptr %12, !unpredictable !18
  tail call void @llvm.experimental.noalias.scope.decl(metadata !292)
  tail call void @llvm.experimental.noalias.scope.decl(metadata !295)
  tail call void @llvm.experimental.noalias.scope.decl(metadata !297)
  tail call void @llvm.experimental.noalias.scope.decl(metadata !300)
  tail call void @llvm.experimental.noalias.scope.decl(metadata !302)
  tail call void @llvm.experimental.noalias.scope.decl(metadata !305)
  %_3.i.i.i16.i25 = load i32, ptr %13, align 4, !alias.scope !307, !noalias !308, !noundef !18
  %_4.i.i.i17.i26 = load i32, ptr %11, align 4, !alias.scope !308, !noalias !307, !noundef !18
  %_0.i18.i27 = icmp slt i32 %_3.i.i.i16.i25, %_4.i.i.i17.i26
  store i32 %9, ptr %_10, align 4
  %dst5.i28 = getelementptr i8, ptr %scratch_base, i64 20
  %.val.i29 = load i32, ptr %13, align 4
  %.val19.i30 = load i32, ptr %11, align 4
  %14 = select i1 %_0.i18.i27, i32 %.val.i29, i32 %.val19.i30
  store i32 %14, ptr %dst5.i28, align 4
  %dst6.i31 = getelementptr i8, ptr %scratch_base, i64 24
  %.val20.i32 = load i32, ptr %11, align 4
  %.val21.i33 = load i32, ptr %13, align 4
  %15 = select i1 %_0.i18.i27, i32 %.val20.i32, i32 %.val21.i33
  store i32 %15, ptr %dst6.i31, align 4
  %16 = getelementptr i8, ptr %scratch_base, i64 28
  %b.val.i34 = load i32, ptr %b.i14, align 4
  %d.val.i35 = load i32, ptr %d.i18, align 4
  %17 = select i1 %_0.i15.i24, i32 %b.val.i34, i32 %d.val.i35
  store i32 %17, ptr %16, align 4
  tail call void @llvm.experimental.noalias.scope.decl(metadata !309)
  %18 = getelementptr inbounds nuw i8, ptr %dst, i64 28
  %_4.i.i.i.i37 = load i32, ptr %scratch_base, align 4, !alias.scope !312, !noalias !319, !noundef !18
  %_0.i.i38 = icmp slt i32 %9, %_4.i.i.i.i37
  %is_l.i18.i = xor i1 %_0.i.i38, true
  %19 = tail call i32 @llvm.smin.i32(i32 %9, i32 %_4.i.i.i.i37)
  store i32 %19, ptr %dst, align 4, !noalias !325
  %count.i.i = zext i1 %_0.i.i38 to i64
  %_12.i.i = getelementptr inbounds nuw i32, ptr %_10, i64 %count.i.i
  %count2.i.i = zext i1 %is_l.i18.i to i64
  %_14.i.i = getelementptr inbounds nuw i32, ptr %scratch_base, i64 %count2.i.i
  %_16.i.i = getelementptr inbounds nuw i8, ptr %dst, i64 4
  %_4.i.i.i20.i = load i32, ptr %7, align 4, !alias.scope !327, !noalias !334, !noundef !18
  %_0.i21.i = icmp slt i32 %17, %_4.i.i.i20.i
  %is_l.i.i = xor i1 %_0.i21.i, true
  %20 = tail call i32 @llvm.smax.i32(i32 %17, i32 %_4.i.i.i20.i)
  store i32 %20, ptr %18, align 4, !noalias !340
  %count.neg.i.i = sext i1 %is_l.i.i to i64
  %21 = getelementptr i32, ptr %16, i64 %count.neg.i.i
  %count3.neg.i.i = sext i1 %_0.i21.i to i64
  %22 = getelementptr i32, ptr %7, i64 %count3.neg.i.i
  %23 = getelementptr inbounds nuw i8, ptr %dst, i64 24
  tail call void @llvm.experimental.noalias.scope.decl(metadata !342)
  tail call void @llvm.experimental.noalias.scope.decl(metadata !344)
  tail call void @llvm.experimental.noalias.scope.decl(metadata !346), !noalias !348
  tail call void @llvm.experimental.noalias.scope.decl(metadata !349), !noalias !348
  tail call void @llvm.experimental.noalias.scope.decl(metadata !351), !noalias !348
  tail call void @llvm.experimental.noalias.scope.decl(metadata !353), !noalias !348
  %_3.i.i.i.i36.1 = load i32, ptr %_12.i.i, align 4, !alias.scope !355, !noalias !356, !noundef !18
  %_4.i.i.i.i37.1 = load i32, ptr %_14.i.i, align 4, !alias.scope !357, !noalias !358, !noundef !18
  %_0.i.i38.1 = icmp slt i32 %_3.i.i.i.i36.1, %_4.i.i.i.i37.1
  %is_l.i18.i.1 = xor i1 %_0.i.i38.1, true
  %24 = tail call i32 @llvm.smin.i32(i32 %_3.i.i.i.i36.1, i32 %_4.i.i.i.i37.1)
  store i32 %24, ptr %_16.i.i, align 4, !noalias !325
  %count.i.i.1 = zext i1 %_0.i.i38.1 to i64
  %_12.i.i.1 = getelementptr inbounds nuw i32, ptr %_12.i.i, i64 %count.i.i.1
  %count2.i.i.1 = zext i1 %is_l.i18.i.1 to i64
  %_14.i.i.1 = getelementptr inbounds nuw i32, ptr %_14.i.i, i64 %count2.i.i.1
  %_16.i.i.1 = getelementptr inbounds nuw i8, ptr %dst, i64 8
  tail call void @llvm.experimental.noalias.scope.decl(metadata !359)
  tail call void @llvm.experimental.noalias.scope.decl(metadata !361)
  tail call void @llvm.experimental.noalias.scope.decl(metadata !363), !noalias !365
  tail call void @llvm.experimental.noalias.scope.decl(metadata !366), !noalias !365
  tail call void @llvm.experimental.noalias.scope.decl(metadata !368), !noalias !365
  tail call void @llvm.experimental.noalias.scope.decl(metadata !370), !noalias !365
  %_3.i.i.i19.i.1 = load i32, ptr %21, align 4, !alias.scope !372, !noalias !373, !noundef !18
  %_4.i.i.i20.i.1 = load i32, ptr %22, align 4, !alias.scope !374, !noalias !375, !noundef !18
  %_0.i21.i.1 = icmp slt i32 %_3.i.i.i19.i.1, %_4.i.i.i20.i.1
  %is_l.i.i.1 = xor i1 %_0.i21.i.1, true
  %25 = tail call i32 @llvm.smax.i32(i32 %_3.i.i.i19.i.1, i32 %_4.i.i.i20.i.1)
  store i32 %25, ptr %23, align 4, !noalias !340
  %count.neg.i.i.1 = sext i1 %is_l.i.i.1 to i64
  %26 = getelementptr i32, ptr %21, i64 %count.neg.i.i.1
  %count3.neg.i.i.1 = sext i1 %_0.i21.i.1 to i64
  %27 = getelementptr i32, ptr %22, i64 %count3.neg.i.i.1
  %28 = getelementptr inbounds nuw i8, ptr %dst, i64 20
  tail call void @llvm.experimental.noalias.scope.decl(metadata !376)
  tail call void @llvm.experimental.noalias.scope.decl(metadata !378)
  tail call void @llvm.experimental.noalias.scope.decl(metadata !380), !noalias !348
  tail call void @llvm.experimental.noalias.scope.decl(metadata !382), !noalias !348
  tail call void @llvm.experimental.noalias.scope.decl(metadata !384), !noalias !348
  tail call void @llvm.experimental.noalias.scope.decl(metadata !386), !noalias !348
  %_3.i.i.i.i36.2 = load i32, ptr %_12.i.i.1, align 4, !alias.scope !388, !noalias !389, !noundef !18
  %_4.i.i.i.i37.2 = load i32, ptr %_14.i.i.1, align 4, !alias.scope !390, !noalias !391, !noundef !18
  %_0.i.i38.2 = icmp slt i32 %_3.i.i.i.i36.2, %_4.i.i.i.i37.2
  %is_l.i18.i.2 = xor i1 %_0.i.i38.2, true
  %29 = tail call i32 @llvm.smin.i32(i32 %_3.i.i.i.i36.2, i32 %_4.i.i.i.i37.2)
  store i32 %29, ptr %_16.i.i.1, align 4, !noalias !325
  %count.i.i.2 = zext i1 %_0.i.i38.2 to i64
  %_12.i.i.2 = getelementptr inbounds nuw i32, ptr %_12.i.i.1, i64 %count.i.i.2
  %count2.i.i.2 = zext i1 %is_l.i18.i.2 to i64
  %_14.i.i.2 = getelementptr inbounds nuw i32, ptr %_14.i.i.1, i64 %count2.i.i.2
  %_16.i.i.2 = getelementptr inbounds nuw i8, ptr %dst, i64 12
  tail call void @llvm.experimental.noalias.scope.decl(metadata !392)
  tail call void @llvm.experimental.noalias.scope.decl(metadata !394)
  tail call void @llvm.experimental.noalias.scope.decl(metadata !396), !noalias !365
  tail call void @llvm.experimental.noalias.scope.decl(metadata !398), !noalias !365
  tail call void @llvm.experimental.noalias.scope.decl(metadata !400), !noalias !365
  tail call void @llvm.experimental.noalias.scope.decl(metadata !402), !noalias !365
  %_3.i.i.i19.i.2 = load i32, ptr %26, align 4, !alias.scope !404, !noalias !405, !noundef !18
  %_4.i.i.i20.i.2 = load i32, ptr %27, align 4, !alias.scope !406, !noalias !407, !noundef !18
  %_0.i21.i.2 = icmp slt i32 %_3.i.i.i19.i.2, %_4.i.i.i20.i.2
  %is_l.i.i.2 = xor i1 %_0.i21.i.2, true
  %30 = tail call i32 @llvm.smax.i32(i32 %_3.i.i.i19.i.2, i32 %_4.i.i.i20.i.2)
  store i32 %30, ptr %28, align 4, !noalias !340
  %count.neg.i.i.2 = sext i1 %is_l.i.i.2 to i64
  %31 = getelementptr i32, ptr %26, i64 %count.neg.i.i.2
  %count3.neg.i.i.2 = sext i1 %_0.i21.i.2 to i64
  %32 = getelementptr i32, ptr %27, i64 %count3.neg.i.i.2
  %33 = getelementptr inbounds nuw i8, ptr %dst, i64 16
  tail call void @llvm.experimental.noalias.scope.decl(metadata !408)
  tail call void @llvm.experimental.noalias.scope.decl(metadata !410)
  tail call void @llvm.experimental.noalias.scope.decl(metadata !412), !noalias !348
  tail call void @llvm.experimental.noalias.scope.decl(metadata !414), !noalias !348
  tail call void @llvm.experimental.noalias.scope.decl(metadata !416), !noalias !348
  tail call void @llvm.experimental.noalias.scope.decl(metadata !418), !noalias !348
  %_3.i.i.i.i36.3 = load i32, ptr %_12.i.i.2, align 4, !alias.scope !420, !noalias !421, !noundef !18
  %_4.i.i.i.i37.3 = load i32, ptr %_14.i.i.2, align 4, !alias.scope !422, !noalias !423, !noundef !18
  %_0.i.i38.3 = icmp slt i32 %_3.i.i.i.i36.3, %_4.i.i.i.i37.3
  %is_l.i18.i.3 = xor i1 %_0.i.i38.3, true
  %34 = tail call i32 @llvm.smin.i32(i32 %_3.i.i.i.i36.3, i32 %_4.i.i.i.i37.3)
  store i32 %34, ptr %_16.i.i.2, align 4, !noalias !325
  %count.i.i.3 = zext i1 %_0.i.i38.3 to i64
  %_12.i.i.3 = getelementptr inbounds nuw i32, ptr %_12.i.i.2, i64 %count.i.i.3
  %count2.i.i.3 = zext i1 %is_l.i18.i.3 to i64
  %_14.i.i.3 = getelementptr inbounds nuw i32, ptr %_14.i.i.2, i64 %count2.i.i.3
  tail call void @llvm.experimental.noalias.scope.decl(metadata !424)
  tail call void @llvm.experimental.noalias.scope.decl(metadata !426)
  tail call void @llvm.experimental.noalias.scope.decl(metadata !428), !noalias !365
  tail call void @llvm.experimental.noalias.scope.decl(metadata !430), !noalias !365
  tail call void @llvm.experimental.noalias.scope.decl(metadata !432), !noalias !365
  tail call void @llvm.experimental.noalias.scope.decl(metadata !434), !noalias !365
  %_3.i.i.i19.i.3 = load i32, ptr %31, align 4, !alias.scope !436, !noalias !437, !noundef !18
  %_4.i.i.i20.i.3 = load i32, ptr %32, align 4, !alias.scope !438, !noalias !439, !noundef !18
  %_0.i21.i.3 = icmp slt i32 %_3.i.i.i19.i.3, %_4.i.i.i20.i.3
  %is_l.i.i.3 = xor i1 %_0.i21.i.3, true
  %35 = tail call i32 @llvm.smax.i32(i32 %_3.i.i.i19.i.3, i32 %_4.i.i.i20.i.3)
  store i32 %35, ptr %33, align 4, !noalias !340
  %count.neg.i.i.3 = sext i1 %is_l.i.i.3 to i64
  %36 = getelementptr i32, ptr %31, i64 %count.neg.i.i.3
  %count3.neg.i.i.3 = sext i1 %_0.i21.i.3 to i64
  %37 = getelementptr i32, ptr %32, i64 %count3.neg.i.i.3
  %38 = getelementptr i8, ptr %37, i64 4
  %39 = getelementptr i8, ptr %36, i64 4
  %_31.i = icmp ne ptr %_14.i.i.3, %38
  %_32.i = icmp ne ptr %_12.i.i.3, %39
  %or.cond.i = select i1 %_31.i, i1 true, i1 %_32.i
  br i1 %or.cond.i, label %bb13.i, label %_ZN4core5slice4sort6shared9smallsort19bidirectional_merge17h9a78ceb788512c3fE.exit, !prof !440

bb13.i:                                           ; preds = %start
; call core::slice::sort::shared::smallsort::panic_on_ord_violation
  tail call void @_ZN4core5slice4sort6shared9smallsort22panic_on_ord_violation17hc77a22a2d50782cdE() #21, !noalias !309
  unreachable

_ZN4core5slice4sort6shared9smallsort19bidirectional_merge17h9a78ceb788512c3fE.exit: ; preds = %start
  ret void
}

; core::slice::sort::shared::smallsort::sort8_stable
; Function Attrs: nonlazybind uwtable
define internal fastcc void @_ZN4core5slice4sort6shared9smallsort12sort8_stable17hb77e0116e665e416E(ptr noundef nonnull readonly captures(none) %v_base, ptr noundef nonnull writeonly captures(none) %dst, ptr noundef nonnull captures(address) %scratch_base) unnamed_addr #0 {
start:
; call core::slice::sort::shared::smallsort::sort4_stable
  tail call fastcc void @_ZN4core5slice4sort6shared9smallsort12sort4_stable17hff7d5c64b61890c1E(ptr noundef %v_base, ptr noundef %scratch_base)
  %_9 = getelementptr inbounds nuw i8, ptr %v_base, i64 16
  %_10 = getelementptr inbounds nuw i8, ptr %scratch_base, i64 16
; call core::slice::sort::shared::smallsort::sort4_stable
  tail call fastcc void @_ZN4core5slice4sort6shared9smallsort12sort4_stable17hff7d5c64b61890c1E(ptr noundef %_9, ptr noundef %_10)
  tail call void @llvm.experimental.noalias.scope.decl(metadata !441)
  %0 = getelementptr inbounds nuw i8, ptr %dst, i64 28
  %1 = getelementptr inbounds nuw i8, ptr %scratch_base, i64 28
  %2 = getelementptr i8, ptr %scratch_base, i64 12
  tail call void @llvm.experimental.noalias.scope.decl(metadata !444)
  tail call void @llvm.experimental.noalias.scope.decl(metadata !447)
  tail call void @llvm.experimental.noalias.scope.decl(metadata !449), !noalias !452
  tail call void @llvm.experimental.noalias.scope.decl(metadata !455), !noalias !452
  %_6.i.i.i = load float, ptr %_10, align 4, !alias.scope !457, !noalias !458, !noundef !18
  %_7.i.i.i = load float, ptr %scratch_base, align 4, !alias.scope !459, !noalias !460, !noundef !18
  %brmerge.not.i.i = fcmp uno float %_6.i.i.i, %_7.i.i.i
  br i1 %brmerge.not.i.i, label %bb6.i.i.i, label %"_ZN5alloc5slice29_$LT$impl$u20$$u5b$T$u5d$$GT$7sort_by28_$u7b$$u7b$closure$u7d$$u7d$17h47d2093944d38971E.exit.i", !prof !21

bb6.i.i.i:                                        ; preds = %"_ZN5alloc5slice29_$LT$impl$u20$$u5b$T$u5d$$GT$7sort_by28_$u7b$$u7b$closure$u7d$$u7d$17h47d2093944d38971E.exit24.i.2", %"_ZN5alloc5slice29_$LT$impl$u20$$u5b$T$u5d$$GT$7sort_by28_$u7b$$u7b$closure$u7d$$u7d$17h47d2093944d38971E.exit24.i.1", %"_ZN5alloc5slice29_$LT$impl$u20$$u5b$T$u5d$$GT$7sort_by28_$u7b$$u7b$closure$u7d$$u7d$17h47d2093944d38971E.exit24.i", %start
; call core::option::unwrap_failed
  tail call void @_ZN4core6option13unwrap_failed17hef2534b77b89c04fE(ptr noalias noundef readonly align 8 captures(address, read_provenance) dereferenceable(24) @alloc_e233725058d574d75123974d8763f424) #21, !noalias !461
  unreachable

"_ZN5alloc5slice29_$LT$impl$u20$$u5b$T$u5d$$GT$7sort_by28_$u7b$$u7b$closure$u7d$$u7d$17h47d2093944d38971E.exit.i": ; preds = %start
  %_8.i.mux.i.i = fcmp olt float %_6.i.i.i, %_7.i.i.i
  %..i17.i = select i1 %_8.i.mux.i.i, ptr %_10, ptr %scratch_base
  %3 = load i32, ptr %..i17.i, align 4, !alias.scope !441, !noalias !462
  store i32 %3, ptr %dst, align 4, !noalias !464
  tail call void @llvm.experimental.noalias.scope.decl(metadata !465)
  tail call void @llvm.experimental.noalias.scope.decl(metadata !468)
  tail call void @llvm.experimental.noalias.scope.decl(metadata !470), !noalias !473
  tail call void @llvm.experimental.noalias.scope.decl(metadata !476), !noalias !473
  %_6.i.i19.i = load float, ptr %1, align 4, !alias.scope !478, !noalias !479, !noundef !18
  %_7.i.i20.i = load float, ptr %2, align 4, !alias.scope !480, !noalias !481, !noundef !18
  %brmerge.not.i21.i = fcmp uno float %_6.i.i19.i, %_7.i.i20.i
  br i1 %brmerge.not.i21.i, label %bb6.i.i23.i, label %"_ZN5alloc5slice29_$LT$impl$u20$$u5b$T$u5d$$GT$7sort_by28_$u7b$$u7b$closure$u7d$$u7d$17h47d2093944d38971E.exit24.i", !prof !21

bb6.i.i23.i:                                      ; preds = %"_ZN5alloc5slice29_$LT$impl$u20$$u5b$T$u5d$$GT$7sort_by28_$u7b$$u7b$closure$u7d$$u7d$17h47d2093944d38971E.exit.i.3", %"_ZN5alloc5slice29_$LT$impl$u20$$u5b$T$u5d$$GT$7sort_by28_$u7b$$u7b$closure$u7d$$u7d$17h47d2093944d38971E.exit.i.2", %"_ZN5alloc5slice29_$LT$impl$u20$$u5b$T$u5d$$GT$7sort_by28_$u7b$$u7b$closure$u7d$$u7d$17h47d2093944d38971E.exit.i.1", %"_ZN5alloc5slice29_$LT$impl$u20$$u5b$T$u5d$$GT$7sort_by28_$u7b$$u7b$closure$u7d$$u7d$17h47d2093944d38971E.exit.i"
; call core::option::unwrap_failed
  tail call void @_ZN4core6option13unwrap_failed17hef2534b77b89c04fE(ptr noalias noundef readonly align 8 captures(address, read_provenance) dereferenceable(24) @alloc_e233725058d574d75123974d8763f424) #21, !noalias !482
  unreachable

"_ZN5alloc5slice29_$LT$impl$u20$$u5b$T$u5d$$GT$7sort_by28_$u7b$$u7b$closure$u7d$$u7d$17h47d2093944d38971E.exit24.i": ; preds = %"_ZN5alloc5slice29_$LT$impl$u20$$u5b$T$u5d$$GT$7sort_by28_$u7b$$u7b$closure$u7d$$u7d$17h47d2093944d38971E.exit.i"
  %is_l.i18.i = xor i1 %_8.i.mux.i.i, true
  %count2.i.i = zext i1 %is_l.i18.i to i64
  %_14.i.i = getelementptr inbounds nuw float, ptr %scratch_base, i64 %count2.i.i
  %count.i.i = zext i1 %_8.i.mux.i.i to i64
  %_12.i.i = getelementptr inbounds nuw float, ptr %_10, i64 %count.i.i
  %_8.i.mux.i22.i = fcmp olt float %_6.i.i19.i, %_7.i.i20.i
  %..i.i = select i1 %_8.i.mux.i22.i, ptr %2, ptr %1
  %is_l.i.i = xor i1 %_8.i.mux.i22.i, true
  %4 = load i32, ptr %..i.i, align 4, !alias.scope !441, !noalias !483
  store i32 %4, ptr %0, align 4, !noalias !485
  %count.neg.i.i = sext i1 %is_l.i.i to i64
  %5 = getelementptr float, ptr %1, i64 %count.neg.i.i
  %count3.neg.i.i = sext i1 %_8.i.mux.i22.i to i64
  %6 = getelementptr float, ptr %2, i64 %count3.neg.i.i
  %7 = getelementptr inbounds nuw i8, ptr %dst, i64 24
  tail call void @llvm.experimental.noalias.scope.decl(metadata !486)
  tail call void @llvm.experimental.noalias.scope.decl(metadata !488)
  tail call void @llvm.experimental.noalias.scope.decl(metadata !490), !noalias !452
  tail call void @llvm.experimental.noalias.scope.decl(metadata !492), !noalias !452
  %_6.i.i.i.1 = load float, ptr %_12.i.i, align 4, !alias.scope !494, !noalias !495, !noundef !18
  %_7.i.i.i.1 = load float, ptr %_14.i.i, align 4, !alias.scope !496, !noalias !497, !noundef !18
  %brmerge.not.i.i.1 = fcmp uno float %_6.i.i.i.1, %_7.i.i.i.1
  br i1 %brmerge.not.i.i.1, label %bb6.i.i.i, label %"_ZN5alloc5slice29_$LT$impl$u20$$u5b$T$u5d$$GT$7sort_by28_$u7b$$u7b$closure$u7d$$u7d$17h47d2093944d38971E.exit.i.1", !prof !21

"_ZN5alloc5slice29_$LT$impl$u20$$u5b$T$u5d$$GT$7sort_by28_$u7b$$u7b$closure$u7d$$u7d$17h47d2093944d38971E.exit.i.1": ; preds = %"_ZN5alloc5slice29_$LT$impl$u20$$u5b$T$u5d$$GT$7sort_by28_$u7b$$u7b$closure$u7d$$u7d$17h47d2093944d38971E.exit24.i"
  %_16.i.i = getelementptr inbounds nuw i8, ptr %dst, i64 4
  %_8.i.mux.i.i.1 = fcmp olt float %_6.i.i.i.1, %_7.i.i.i.1
  %..i17.i.1 = select i1 %_8.i.mux.i.i.1, ptr %_12.i.i, ptr %_14.i.i
  %8 = load i32, ptr %..i17.i.1, align 4, !alias.scope !441, !noalias !462
  store i32 %8, ptr %_16.i.i, align 4, !noalias !464
  tail call void @llvm.experimental.noalias.scope.decl(metadata !498)
  tail call void @llvm.experimental.noalias.scope.decl(metadata !500)
  tail call void @llvm.experimental.noalias.scope.decl(metadata !502), !noalias !473
  tail call void @llvm.experimental.noalias.scope.decl(metadata !504), !noalias !473
  %_6.i.i19.i.1 = load float, ptr %5, align 4, !alias.scope !506, !noalias !507, !noundef !18
  %_7.i.i20.i.1 = load float, ptr %6, align 4, !alias.scope !508, !noalias !509, !noundef !18
  %brmerge.not.i21.i.1 = fcmp uno float %_6.i.i19.i.1, %_7.i.i20.i.1
  br i1 %brmerge.not.i21.i.1, label %bb6.i.i23.i, label %"_ZN5alloc5slice29_$LT$impl$u20$$u5b$T$u5d$$GT$7sort_by28_$u7b$$u7b$closure$u7d$$u7d$17h47d2093944d38971E.exit24.i.1", !prof !21

"_ZN5alloc5slice29_$LT$impl$u20$$u5b$T$u5d$$GT$7sort_by28_$u7b$$u7b$closure$u7d$$u7d$17h47d2093944d38971E.exit24.i.1": ; preds = %"_ZN5alloc5slice29_$LT$impl$u20$$u5b$T$u5d$$GT$7sort_by28_$u7b$$u7b$closure$u7d$$u7d$17h47d2093944d38971E.exit.i.1"
  %is_l.i18.i.1 = xor i1 %_8.i.mux.i.i.1, true
  %count2.i.i.1 = zext i1 %is_l.i18.i.1 to i64
  %_14.i.i.1 = getelementptr inbounds nuw float, ptr %_14.i.i, i64 %count2.i.i.1
  %count.i.i.1 = zext i1 %_8.i.mux.i.i.1 to i64
  %_12.i.i.1 = getelementptr inbounds nuw float, ptr %_12.i.i, i64 %count.i.i.1
  %_8.i.mux.i22.i.1 = fcmp olt float %_6.i.i19.i.1, %_7.i.i20.i.1
  %..i.i.1 = select i1 %_8.i.mux.i22.i.1, ptr %6, ptr %5
  %is_l.i.i.1 = xor i1 %_8.i.mux.i22.i.1, true
  %9 = load i32, ptr %..i.i.1, align 4, !alias.scope !441, !noalias !483
  store i32 %9, ptr %7, align 4, !noalias !485
  %count.neg.i.i.1 = sext i1 %is_l.i.i.1 to i64
  %10 = getelementptr float, ptr %5, i64 %count.neg.i.i.1
  %count3.neg.i.i.1 = sext i1 %_8.i.mux.i22.i.1 to i64
  %11 = getelementptr float, ptr %6, i64 %count3.neg.i.i.1
  %12 = getelementptr inbounds nuw i8, ptr %dst, i64 20
  tail call void @llvm.experimental.noalias.scope.decl(metadata !510)
  tail call void @llvm.experimental.noalias.scope.decl(metadata !512)
  tail call void @llvm.experimental.noalias.scope.decl(metadata !514), !noalias !452
  tail call void @llvm.experimental.noalias.scope.decl(metadata !516), !noalias !452
  %_6.i.i.i.2 = load float, ptr %_12.i.i.1, align 4, !alias.scope !518, !noalias !519, !noundef !18
  %_7.i.i.i.2 = load float, ptr %_14.i.i.1, align 4, !alias.scope !520, !noalias !521, !noundef !18
  %brmerge.not.i.i.2 = fcmp uno float %_6.i.i.i.2, %_7.i.i.i.2
  br i1 %brmerge.not.i.i.2, label %bb6.i.i.i, label %"_ZN5alloc5slice29_$LT$impl$u20$$u5b$T$u5d$$GT$7sort_by28_$u7b$$u7b$closure$u7d$$u7d$17h47d2093944d38971E.exit.i.2", !prof !21

"_ZN5alloc5slice29_$LT$impl$u20$$u5b$T$u5d$$GT$7sort_by28_$u7b$$u7b$closure$u7d$$u7d$17h47d2093944d38971E.exit.i.2": ; preds = %"_ZN5alloc5slice29_$LT$impl$u20$$u5b$T$u5d$$GT$7sort_by28_$u7b$$u7b$closure$u7d$$u7d$17h47d2093944d38971E.exit24.i.1"
  %_16.i.i.1 = getelementptr inbounds nuw i8, ptr %dst, i64 8
  %_8.i.mux.i.i.2 = fcmp olt float %_6.i.i.i.2, %_7.i.i.i.2
  %..i17.i.2 = select i1 %_8.i.mux.i.i.2, ptr %_12.i.i.1, ptr %_14.i.i.1
  %13 = load i32, ptr %..i17.i.2, align 4, !alias.scope !441, !noalias !462
  store i32 %13, ptr %_16.i.i.1, align 4, !noalias !464
  tail call void @llvm.experimental.noalias.scope.decl(metadata !522)
  tail call void @llvm.experimental.noalias.scope.decl(metadata !524)
  tail call void @llvm.experimental.noalias.scope.decl(metadata !526), !noalias !473
  tail call void @llvm.experimental.noalias.scope.decl(metadata !528), !noalias !473
  %_6.i.i19.i.2 = load float, ptr %10, align 4, !alias.scope !530, !noalias !531, !noundef !18
  %_7.i.i20.i.2 = load float, ptr %11, align 4, !alias.scope !532, !noalias !533, !noundef !18
  %brmerge.not.i21.i.2 = fcmp uno float %_6.i.i19.i.2, %_7.i.i20.i.2
  br i1 %brmerge.not.i21.i.2, label %bb6.i.i23.i, label %"_ZN5alloc5slice29_$LT$impl$u20$$u5b$T$u5d$$GT$7sort_by28_$u7b$$u7b$closure$u7d$$u7d$17h47d2093944d38971E.exit24.i.2", !prof !21

"_ZN5alloc5slice29_$LT$impl$u20$$u5b$T$u5d$$GT$7sort_by28_$u7b$$u7b$closure$u7d$$u7d$17h47d2093944d38971E.exit24.i.2": ; preds = %"_ZN5alloc5slice29_$LT$impl$u20$$u5b$T$u5d$$GT$7sort_by28_$u7b$$u7b$closure$u7d$$u7d$17h47d2093944d38971E.exit.i.2"
  %is_l.i18.i.2 = xor i1 %_8.i.mux.i.i.2, true
  %count2.i.i.2 = zext i1 %is_l.i18.i.2 to i64
  %_14.i.i.2 = getelementptr inbounds nuw float, ptr %_14.i.i.1, i64 %count2.i.i.2
  %count.i.i.2 = zext i1 %_8.i.mux.i.i.2 to i64
  %_12.i.i.2 = getelementptr inbounds nuw float, ptr %_12.i.i.1, i64 %count.i.i.2
  %_8.i.mux.i22.i.2 = fcmp olt float %_6.i.i19.i.2, %_7.i.i20.i.2
  %..i.i.2 = select i1 %_8.i.mux.i22.i.2, ptr %11, ptr %10
  %is_l.i.i.2 = xor i1 %_8.i.mux.i22.i.2, true
  %14 = load i32, ptr %..i.i.2, align 4, !alias.scope !441, !noalias !483
  store i32 %14, ptr %12, align 4, !noalias !485
  %count.neg.i.i.2 = sext i1 %is_l.i.i.2 to i64
  %15 = getelementptr float, ptr %10, i64 %count.neg.i.i.2
  %count3.neg.i.i.2 = sext i1 %_8.i.mux.i22.i.2 to i64
  %16 = getelementptr float, ptr %11, i64 %count3.neg.i.i.2
  %17 = getelementptr inbounds nuw i8, ptr %dst, i64 16
  tail call void @llvm.experimental.noalias.scope.decl(metadata !534)
  tail call void @llvm.experimental.noalias.scope.decl(metadata !536)
  tail call void @llvm.experimental.noalias.scope.decl(metadata !538), !noalias !452
  tail call void @llvm.experimental.noalias.scope.decl(metadata !540), !noalias !452
  %_6.i.i.i.3 = load float, ptr %_12.i.i.2, align 4, !alias.scope !542, !noalias !543, !noundef !18
  %_7.i.i.i.3 = load float, ptr %_14.i.i.2, align 4, !alias.scope !544, !noalias !545, !noundef !18
  %brmerge.not.i.i.3 = fcmp uno float %_6.i.i.i.3, %_7.i.i.i.3
  br i1 %brmerge.not.i.i.3, label %bb6.i.i.i, label %"_ZN5alloc5slice29_$LT$impl$u20$$u5b$T$u5d$$GT$7sort_by28_$u7b$$u7b$closure$u7d$$u7d$17h47d2093944d38971E.exit.i.3", !prof !21

"_ZN5alloc5slice29_$LT$impl$u20$$u5b$T$u5d$$GT$7sort_by28_$u7b$$u7b$closure$u7d$$u7d$17h47d2093944d38971E.exit.i.3": ; preds = %"_ZN5alloc5slice29_$LT$impl$u20$$u5b$T$u5d$$GT$7sort_by28_$u7b$$u7b$closure$u7d$$u7d$17h47d2093944d38971E.exit24.i.2"
  %_16.i.i.2 = getelementptr inbounds nuw i8, ptr %dst, i64 12
  %_8.i.mux.i.i.3 = fcmp olt float %_6.i.i.i.3, %_7.i.i.i.3
  %..i17.i.3 = select i1 %_8.i.mux.i.i.3, ptr %_12.i.i.2, ptr %_14.i.i.2
  %18 = load i32, ptr %..i17.i.3, align 4, !alias.scope !441, !noalias !462
  store i32 %18, ptr %_16.i.i.2, align 4, !noalias !464
  tail call void @llvm.experimental.noalias.scope.decl(metadata !546)
  tail call void @llvm.experimental.noalias.scope.decl(metadata !548)
  tail call void @llvm.experimental.noalias.scope.decl(metadata !550), !noalias !473
  tail call void @llvm.experimental.noalias.scope.decl(metadata !552), !noalias !473
  %_6.i.i19.i.3 = load float, ptr %15, align 4, !alias.scope !554, !noalias !555, !noundef !18
  %_7.i.i20.i.3 = load float, ptr %16, align 4, !alias.scope !556, !noalias !557, !noundef !18
  %brmerge.not.i21.i.3 = fcmp uno float %_6.i.i19.i.3, %_7.i.i20.i.3
  br i1 %brmerge.not.i21.i.3, label %bb6.i.i23.i, label %"_ZN5alloc5slice29_$LT$impl$u20$$u5b$T$u5d$$GT$7sort_by28_$u7b$$u7b$closure$u7d$$u7d$17h47d2093944d38971E.exit24.i.3", !prof !21

"_ZN5alloc5slice29_$LT$impl$u20$$u5b$T$u5d$$GT$7sort_by28_$u7b$$u7b$closure$u7d$$u7d$17h47d2093944d38971E.exit24.i.3": ; preds = %"_ZN5alloc5slice29_$LT$impl$u20$$u5b$T$u5d$$GT$7sort_by28_$u7b$$u7b$closure$u7d$$u7d$17h47d2093944d38971E.exit.i.3"
  %is_l.i18.i.3 = xor i1 %_8.i.mux.i.i.3, true
  %count2.i.i.3 = zext i1 %is_l.i18.i.3 to i64
  %_14.i.i.3 = getelementptr inbounds nuw float, ptr %_14.i.i.2, i64 %count2.i.i.3
  %count.i.i.3 = zext i1 %_8.i.mux.i.i.3 to i64
  %_12.i.i.3 = getelementptr inbounds nuw float, ptr %_12.i.i.2, i64 %count.i.i.3
  %_8.i.mux.i22.i.3 = fcmp olt float %_6.i.i19.i.3, %_7.i.i20.i.3
  %..i.i.3 = select i1 %_8.i.mux.i22.i.3, ptr %16, ptr %15
  %is_l.i.i.3 = xor i1 %_8.i.mux.i22.i.3, true
  %19 = load i32, ptr %..i.i.3, align 4, !alias.scope !441, !noalias !483
  store i32 %19, ptr %17, align 4, !noalias !485
  %count.neg.i.i.3 = sext i1 %is_l.i.i.3 to i64
  %20 = getelementptr float, ptr %15, i64 %count.neg.i.i.3
  %count3.neg.i.i.3 = sext i1 %_8.i.mux.i22.i.3 to i64
  %21 = getelementptr float, ptr %16, i64 %count3.neg.i.i.3
  %22 = getelementptr i8, ptr %21, i64 4
  %23 = getelementptr i8, ptr %20, i64 4
  %_31.i = icmp ne ptr %_14.i.i.3, %22
  %_32.i = icmp ne ptr %_12.i.i.3, %23
  %or.cond.i = select i1 %_31.i, i1 true, i1 %_32.i
  br i1 %or.cond.i, label %bb13.i, label %_ZN4core5slice4sort6shared9smallsort19bidirectional_merge17hda7045743ed9389cE.exit, !prof !440

bb13.i:                                           ; preds = %"_ZN5alloc5slice29_$LT$impl$u20$$u5b$T$u5d$$GT$7sort_by28_$u7b$$u7b$closure$u7d$$u7d$17h47d2093944d38971E.exit24.i.3"
; call core::slice::sort::shared::smallsort::panic_on_ord_violation
  tail call void @_ZN4core5slice4sort6shared9smallsort22panic_on_ord_violation17hc77a22a2d50782cdE() #21, !noalias !441
  unreachable

_ZN4core5slice4sort6shared9smallsort19bidirectional_merge17hda7045743ed9389cE.exit: ; preds = %"_ZN5alloc5slice29_$LT$impl$u20$$u5b$T$u5d$$GT$7sort_by28_$u7b$$u7b$closure$u7d$$u7d$17h47d2093944d38971E.exit24.i.3"
  ret void
}

; core::slice::sort::shared::smallsort::insertion_sort_shift_left
; Function Attrs: nonlazybind uwtable
define internal fastcc void @_ZN4core5slice4sort6shared9smallsort25insertion_sort_shift_left17h500061426fbe7d96E(ptr noalias noundef nonnull align 4 captures(address) %v.0, i64 noundef range(i64 2, 21) %v.1) unnamed_addr #0 personality ptr @rust_eh_personality {
bb5.preheader:
  %v_end.idx = shl nuw nsw i64 %v.1, 2
  %v_end = getelementptr inbounds nuw i8, ptr %v.0, i64 %v_end.idx
  %tail.sroa.0.03 = getelementptr inbounds nuw i8, ptr %v.0, i64 4
  br label %bb5

bb7:                                              ; preds = %_ZN4core5slice4sort6shared9smallsort11insert_tail17h4f7839f268585107E.exit
  ret void

bb5:                                              ; preds = %bb5.preheader, %_ZN4core5slice4sort6shared9smallsort11insert_tail17h4f7839f268585107E.exit
  %tail.sroa.0.06 = phi ptr [ %tail.sroa.0.0, %_ZN4core5slice4sort6shared9smallsort11insert_tail17h4f7839f268585107E.exit ], [ %tail.sroa.0.03, %bb5.preheader ]
  %v.0.pn5 = phi ptr [ %tail.sroa.0.06, %_ZN4core5slice4sort6shared9smallsort11insert_tail17h4f7839f268585107E.exit ], [ %v.0, %bb5.preheader ]
  tail call void @llvm.experimental.noalias.scope.decl(metadata !558)
  tail call void @llvm.experimental.noalias.scope.decl(metadata !561)
  tail call void @llvm.experimental.noalias.scope.decl(metadata !563)
  tail call void @llvm.experimental.noalias.scope.decl(metadata !566)
  %_6.i.i.i = load float, ptr %tail.sroa.0.06, align 4, !alias.scope !568, !noalias !569, !noundef !18
  %_7.i.i.i = load float, ptr %v.0.pn5, align 4, !alias.scope !569, !noalias !568, !noundef !18
  %brmerge.not.i.i = fcmp uno float %_6.i.i.i, %_7.i.i.i
  br i1 %brmerge.not.i.i, label %bb6.i.i.i, label %"_ZN5alloc5slice29_$LT$impl$u20$$u5b$T$u5d$$GT$7sort_by28_$u7b$$u7b$closure$u7d$$u7d$17h47d2093944d38971E.exit.i", !prof !21

bb6.i.i.i:                                        ; preds = %bb5
; call core::option::unwrap_failed
  tail call void @_ZN4core6option13unwrap_failed17hef2534b77b89c04fE(ptr noalias noundef readonly align 8 captures(address, read_provenance) dereferenceable(24) @alloc_e233725058d574d75123974d8763f424) #21, !noalias !570
  unreachable

"_ZN5alloc5slice29_$LT$impl$u20$$u5b$T$u5d$$GT$7sort_by28_$u7b$$u7b$closure$u7d$$u7d$17h47d2093944d38971E.exit.i": ; preds = %bb5
  %_8.i.mux.i.i = fcmp olt float %_6.i.i.i, %_7.i.i.i
  br i1 %_8.i.mux.i.i, label %bb4.i, label %_ZN4core5slice4sort6shared9smallsort11insert_tail17h4f7839f268585107E.exit

bb4.i:                                            ; preds = %"_ZN5alloc5slice29_$LT$impl$u20$$u5b$T$u5d$$GT$7sort_by28_$u7b$$u7b$closure$u7d$$u7d$17h47d2093944d38971E.exit.i", %bb7.i
  %.in.i = phi float [ %_7.i.i2.i, %bb7.i ], [ %_7.i.i.i, %"_ZN5alloc5slice29_$LT$impl$u20$$u5b$T$u5d$$GT$7sort_by28_$u7b$$u7b$closure$u7d$$u7d$17h47d2093944d38971E.exit.i" ]
  %gap_guard.sroa.5.0.i = phi ptr [ %sift.sroa.0.0.i, %bb7.i ], [ %tail.sroa.0.06, %"_ZN5alloc5slice29_$LT$impl$u20$$u5b$T$u5d$$GT$7sort_by28_$u7b$$u7b$closure$u7d$$u7d$17h47d2093944d38971E.exit.i" ]
  %sift.sroa.0.0.i = phi ptr [ %0, %bb7.i ], [ %v.0.pn5, %"_ZN5alloc5slice29_$LT$impl$u20$$u5b$T$u5d$$GT$7sort_by28_$u7b$$u7b$closure$u7d$$u7d$17h47d2093944d38971E.exit.i" ]
  store float %.in.i, ptr %gap_guard.sroa.5.0.i, align 4
  %_18.i = icmp eq ptr %sift.sroa.0.0.i, %v.0
  br i1 %_18.i, label %bb10.i, label %bb6.i

bb6.i:                                            ; preds = %bb4.i
  %0 = getelementptr inbounds i8, ptr %sift.sroa.0.0.i, i64 -4
  %_7.i.i2.i = load float, ptr %0, align 4, !alias.scope !571, !noalias !576, !noundef !18
  %brmerge.not.i3.i = fcmp uno float %_6.i.i.i, %_7.i.i2.i
  br i1 %brmerge.not.i3.i, label %bb6.i.i5.i, label %bb7.i, !prof !21

bb6.i.i5.i:                                       ; preds = %bb6.i
; invoke core::option::unwrap_failed
  invoke void @_ZN4core6option13unwrap_failed17hef2534b77b89c04fE(ptr noalias noundef readonly align 8 captures(address, read_provenance) dereferenceable(24) @alloc_e233725058d574d75123974d8763f424) #21
          to label %.noexc.i unwind label %bb14.i

.noexc.i:                                         ; preds = %bb6.i.i5.i
  unreachable

bb7.i:                                            ; preds = %bb6.i
  %_8.i.mux.i4.i = fcmp olt float %_6.i.i.i, %_7.i.i2.i
  br i1 %_8.i.mux.i4.i, label %bb4.i, label %bb10.i

bb10.i:                                           ; preds = %bb7.i, %bb4.i
  %sift.sroa.0.0.i.lcssa = phi ptr [ %sift.sroa.0.0.i, %bb7.i ], [ %v.0, %bb4.i ]
  store float %_6.i.i.i, ptr %sift.sroa.0.0.i.lcssa, align 4, !noalias !579
  br label %_ZN4core5slice4sort6shared9smallsort11insert_tail17h4f7839f268585107E.exit

bb14.i:                                           ; preds = %bb6.i.i5.i
  %1 = landingpad { ptr, i32 }
          cleanup
  store float %_6.i.i.i, ptr %sift.sroa.0.0.i, align 4, !noalias !584
  resume { ptr, i32 } %1

_ZN4core5slice4sort6shared9smallsort11insert_tail17h4f7839f268585107E.exit: ; preds = %"_ZN5alloc5slice29_$LT$impl$u20$$u5b$T$u5d$$GT$7sort_by28_$u7b$$u7b$closure$u7d$$u7d$17h47d2093944d38971E.exit.i", %bb10.i
  %tail.sroa.0.0 = getelementptr inbounds nuw i8, ptr %tail.sroa.0.06, i64 4
  %_11.not = icmp eq ptr %tail.sroa.0.0, %v_end
  br i1 %_11.not, label %bb7, label %bb5
}

; core::slice::sort::stable::driftsort_main
; Function Attrs: noinline nonlazybind uwtable
define void @_ZN4core5slice4sort6stable14driftsort_main17h29c9ac81b22d647fE(ptr noalias noundef nonnull align 4 %v.0, i64 noundef range(i64 0, 2305843009213693952) %v.1, ptr noalias noundef align 8 dereferenceable(8) %is_less) unnamed_addr #2 personality ptr @rust_eh_personality {
start:
  %stack_buf = alloca [4096 x i8], align 4
  %_105 = lshr i64 %v.1, 1
  %v1 = sub nsw i64 %v.1, %_105
  %_0.sroa.0.0.i = tail call noundef i64 @llvm.umin.i64(i64 %v.1, i64 2000000)
  %_0.sroa.0.0.i6 = tail call noundef i64 @llvm.umax.i64(i64 %_0.sroa.0.0.i, i64 %v1)
  %_0.sroa.0.0.i7 = tail call noundef i64 @llvm.umax.i64(i64 %_0.sroa.0.0.i6, i64 48)
  call void @llvm.lifetime.start.p0(i64 4096, ptr nonnull %stack_buf)
  %_15 = icmp ugt i64 %_0.sroa.0.0.i6, 1024
  br i1 %_15, label %bb4, label %bb8

bb4:                                              ; preds = %start
  %_21.0.i.i.i.i = shl i64 %_0.sroa.0.0.i7, 2
  %_21.1.i.i.i.i = icmp ugt i64 %v1, 4611686018427387903
  %_26.i.i.i.i = icmp ugt i64 %_21.0.i.i.i.i, 9223372036854775804
  %or.cond.i.i.i.i = or i1 %_21.1.i.i.i.i, %_26.i.i.i.i
  br i1 %or.cond.i.i.i.i, label %bb3.i.i, label %"_ZN63_$LT$alloc..alloc..Global$u20$as$u20$core..alloc..Allocator$GT$8allocate17h02618852de544ee2E.exit.i.i.i", !prof !589

"_ZN63_$LT$alloc..alloc..Global$u20$as$u20$core..alloc..Allocator$GT$8allocate17h02618852de544ee2E.exit.i.i.i": ; preds = %bb4
; call __rustc::__rust_no_alloc_shim_is_unstable_v2
  tail call void @_RNvCsdBezzDwma51_7___rustc35___rust_no_alloc_shim_is_unstable_v2() #22, !noalias !590
; call __rustc::__rust_alloc
  %0 = tail call noundef align 4 ptr @_RNvCsdBezzDwma51_7___rustc12___rust_alloc(i64 noundef %_21.0.i.i.i.i, i64 noundef range(i64 1, -9223372036854775807) 4) #22, !noalias !590
  %1 = icmp eq ptr %0, null
  br i1 %1, label %bb3.i.i, label %bb8

bb3.i.i:                                          ; preds = %"_ZN63_$LT$alloc..alloc..Global$u20$as$u20$core..alloc..Allocator$GT$8allocate17h02618852de544ee2E.exit.i.i.i", %bb4
  %_4.sroa.4.0.ph.i.i = phi i64 [ 4, %"_ZN63_$LT$alloc..alloc..Global$u20$as$u20$core..alloc..Allocator$GT$8allocate17h02618852de544ee2E.exit.i.i.i" ], [ 0, %bb4 ]
; call alloc::raw_vec::handle_error
  tail call void @_ZN5alloc7raw_vec12handle_error17h3a8c375904e593b2E(i64 noundef %_4.sroa.4.0.ph.i.i, i64 %_21.0.i.i.i.i) #23
  unreachable

cleanup:                                          ; preds = %bb8
  %2 = landingpad { ptr, i32 }
          cleanup
  br i1 %_15, label %"_ZN4core3ptr47drop_in_place$LT$alloc..vec..Vec$LT$i32$GT$$GT$17h2a5deca2238eb3b2E.exit12", label %bb11

bb8:                                              ; preds = %"_ZN63_$LT$alloc..alloc..Global$u20$as$u20$core..alloc..Allocator$GT$8allocate17h02618852de544ee2E.exit.i.i.i", %start
  %heap_buf.sroa.6.1 = phi ptr [ undef, %start ], [ %0, %"_ZN63_$LT$alloc..alloc..Global$u20$as$u20$core..alloc..Allocator$GT$8allocate17h02618852de544ee2E.exit.i.i.i" ]
  %stack_scratch.sroa.4.0 = phi i64 [ 1024, %start ], [ %_0.sroa.0.0.i7, %"_ZN63_$LT$alloc..alloc..Global$u20$as$u20$core..alloc..Allocator$GT$8allocate17h02618852de544ee2E.exit.i.i.i" ]
  %stack_buf.pn = phi ptr [ %stack_buf, %start ], [ %0, %"_ZN63_$LT$alloc..alloc..Global$u20$as$u20$core..alloc..Allocator$GT$8allocate17h02618852de544ee2E.exit.i.i.i" ]
  %eager_sort = icmp samesign ult i64 %v.1, 65
; invoke core::slice::sort::stable::drift::sort
  invoke fastcc void @_ZN4core5slice4sort6stable5drift4sort17hbd75ce168a8b00beE(ptr noalias noundef nonnull align 4 %v.0, i64 noundef %v.1, ptr noalias noundef nonnull align 4 %stack_buf.pn, i64 noundef %stack_scratch.sroa.4.0, i1 noundef zeroext %eager_sort, ptr noalias noundef align 8 dereferenceable(8) %is_less)
          to label %bb9 unwind label %cleanup

bb9:                                              ; preds = %bb8
  br i1 %_15, label %"_ZN4core3ptr47drop_in_place$LT$alloc..vec..Vec$LT$i32$GT$$GT$17h2a5deca2238eb3b2E.exit", label %bb10

bb10:                                             ; preds = %"_ZN4core3ptr47drop_in_place$LT$alloc..vec..Vec$LT$i32$GT$$GT$17h2a5deca2238eb3b2E.exit", %bb9
  call void @llvm.lifetime.end.p0(i64 4096, ptr nonnull %stack_buf)
  ret void

"_ZN4core3ptr47drop_in_place$LT$alloc..vec..Vec$LT$i32$GT$$GT$17h2a5deca2238eb3b2E.exit": ; preds = %bb9
  %3 = shl nuw i64 %_0.sroa.0.0.i7, 2
  %4 = icmp ne ptr %heap_buf.sroa.6.1, null
  call void @llvm.assume(i1 %4)
; call __rustc::__rust_dealloc
  call void @_RNvCsdBezzDwma51_7___rustc14___rust_dealloc(ptr noundef nonnull %heap_buf.sroa.6.1, i64 noundef %3, i64 noundef range(i64 1, -9223372036854775807) 4) #22, !noalias !595
  br label %bb10

bb11:                                             ; preds = %"_ZN4core3ptr47drop_in_place$LT$alloc..vec..Vec$LT$i32$GT$$GT$17h2a5deca2238eb3b2E.exit12", %cleanup
  resume { ptr, i32 } %2

"_ZN4core3ptr47drop_in_place$LT$alloc..vec..Vec$LT$i32$GT$$GT$17h2a5deca2238eb3b2E.exit12": ; preds = %cleanup
  %5 = shl nuw i64 %_0.sroa.0.0.i7, 2
  %6 = icmp ne ptr %heap_buf.sroa.6.1, null
  call void @llvm.assume(i1 %6)
; call __rustc::__rust_dealloc
  call void @_RNvCsdBezzDwma51_7___rustc14___rust_dealloc(ptr noundef nonnull %heap_buf.sroa.6.1, i64 noundef %5, i64 noundef range(i64 1, -9223372036854775807) 4) #22, !noalias !604
  br label %bb11
}

; core::slice::sort::stable::driftsort_main
; Function Attrs: noinline nonlazybind uwtable
define void @_ZN4core5slice4sort6stable14driftsort_main17he5fef1bddceca5efE(ptr noalias noundef nonnull align 4 %v.0, i64 noundef range(i64 0, 2305843009213693952) %v.1, ptr noalias noundef align 8 dereferenceable(8) %is_less) unnamed_addr #2 personality ptr @rust_eh_personality {
start:
  %stack_buf = alloca [4096 x i8], align 4
  %_105 = lshr i64 %v.1, 1
  %v1 = sub nsw i64 %v.1, %_105
  %_0.sroa.0.0.i = tail call noundef i64 @llvm.umin.i64(i64 %v.1, i64 2000000)
  %_0.sroa.0.0.i6 = tail call noundef i64 @llvm.umax.i64(i64 %_0.sroa.0.0.i, i64 %v1)
  %_0.sroa.0.0.i7 = tail call noundef i64 @llvm.umax.i64(i64 %_0.sroa.0.0.i6, i64 48)
  call void @llvm.lifetime.start.p0(i64 4096, ptr nonnull %stack_buf)
  %_15 = icmp ugt i64 %_0.sroa.0.0.i6, 1024
  br i1 %_15, label %bb4, label %bb8

bb4:                                              ; preds = %start
  %_21.0.i.i.i.i = shl i64 %_0.sroa.0.0.i7, 2
  %_21.1.i.i.i.i = icmp ugt i64 %v1, 4611686018427387903
  %_26.i.i.i.i = icmp ugt i64 %_21.0.i.i.i.i, 9223372036854775804
  %or.cond.i.i.i.i = or i1 %_21.1.i.i.i.i, %_26.i.i.i.i
  br i1 %or.cond.i.i.i.i, label %bb3.i.i, label %"_ZN63_$LT$alloc..alloc..Global$u20$as$u20$core..alloc..Allocator$GT$8allocate17h02618852de544ee2E.exit.i.i.i", !prof !589

"_ZN63_$LT$alloc..alloc..Global$u20$as$u20$core..alloc..Allocator$GT$8allocate17h02618852de544ee2E.exit.i.i.i": ; preds = %bb4
; call __rustc::__rust_no_alloc_shim_is_unstable_v2
  tail call void @_RNvCsdBezzDwma51_7___rustc35___rust_no_alloc_shim_is_unstable_v2() #22, !noalias !613
; call __rustc::__rust_alloc
  %0 = tail call noundef align 4 ptr @_RNvCsdBezzDwma51_7___rustc12___rust_alloc(i64 noundef %_21.0.i.i.i.i, i64 noundef range(i64 1, -9223372036854775807) 4) #22, !noalias !613
  %1 = icmp eq ptr %0, null
  br i1 %1, label %bb3.i.i, label %bb8

bb3.i.i:                                          ; preds = %"_ZN63_$LT$alloc..alloc..Global$u20$as$u20$core..alloc..Allocator$GT$8allocate17h02618852de544ee2E.exit.i.i.i", %bb4
  %_4.sroa.4.0.ph.i.i = phi i64 [ 4, %"_ZN63_$LT$alloc..alloc..Global$u20$as$u20$core..alloc..Allocator$GT$8allocate17h02618852de544ee2E.exit.i.i.i" ], [ 0, %bb4 ]
; call alloc::raw_vec::handle_error
  tail call void @_ZN5alloc7raw_vec12handle_error17h3a8c375904e593b2E(i64 noundef %_4.sroa.4.0.ph.i.i, i64 %_21.0.i.i.i.i) #23
  unreachable

cleanup:                                          ; preds = %bb8
  %2 = landingpad { ptr, i32 }
          cleanup
  br i1 %_15, label %"_ZN4core3ptr47drop_in_place$LT$alloc..vec..Vec$LT$f32$GT$$GT$17h6e63235cc0d24036E.exit12", label %bb11

bb8:                                              ; preds = %"_ZN63_$LT$alloc..alloc..Global$u20$as$u20$core..alloc..Allocator$GT$8allocate17h02618852de544ee2E.exit.i.i.i", %start
  %heap_buf.sroa.6.1 = phi ptr [ undef, %start ], [ %0, %"_ZN63_$LT$alloc..alloc..Global$u20$as$u20$core..alloc..Allocator$GT$8allocate17h02618852de544ee2E.exit.i.i.i" ]
  %stack_scratch.sroa.4.0 = phi i64 [ 1024, %start ], [ %_0.sroa.0.0.i7, %"_ZN63_$LT$alloc..alloc..Global$u20$as$u20$core..alloc..Allocator$GT$8allocate17h02618852de544ee2E.exit.i.i.i" ]
  %stack_buf.pn = phi ptr [ %stack_buf, %start ], [ %0, %"_ZN63_$LT$alloc..alloc..Global$u20$as$u20$core..alloc..Allocator$GT$8allocate17h02618852de544ee2E.exit.i.i.i" ]
  %eager_sort = icmp samesign ult i64 %v.1, 65
; invoke core::slice::sort::stable::drift::sort
  invoke fastcc void @_ZN4core5slice4sort6stable5drift4sort17h061b1c9959168dd3E(ptr noalias noundef nonnull align 4 %v.0, i64 noundef %v.1, ptr noalias noundef nonnull align 4 %stack_buf.pn, i64 noundef %stack_scratch.sroa.4.0, i1 noundef zeroext %eager_sort, ptr noalias noundef align 8 dereferenceable(8) %is_less)
          to label %bb9 unwind label %cleanup

bb9:                                              ; preds = %bb8
  br i1 %_15, label %"_ZN4core3ptr47drop_in_place$LT$alloc..vec..Vec$LT$f32$GT$$GT$17h6e63235cc0d24036E.exit", label %bb10

bb10:                                             ; preds = %"_ZN4core3ptr47drop_in_place$LT$alloc..vec..Vec$LT$f32$GT$$GT$17h6e63235cc0d24036E.exit", %bb9
  call void @llvm.lifetime.end.p0(i64 4096, ptr nonnull %stack_buf)
  ret void

"_ZN4core3ptr47drop_in_place$LT$alloc..vec..Vec$LT$f32$GT$$GT$17h6e63235cc0d24036E.exit": ; preds = %bb9
  %3 = shl nuw i64 %_0.sroa.0.0.i7, 2
  %4 = icmp ne ptr %heap_buf.sroa.6.1, null
  call void @llvm.assume(i1 %4)
; call __rustc::__rust_dealloc
  call void @_RNvCsdBezzDwma51_7___rustc14___rust_dealloc(ptr noundef nonnull %heap_buf.sroa.6.1, i64 noundef %3, i64 noundef range(i64 1, -9223372036854775807) 4) #22, !noalias !618
  br label %bb10

bb11:                                             ; preds = %"_ZN4core3ptr47drop_in_place$LT$alloc..vec..Vec$LT$f32$GT$$GT$17h6e63235cc0d24036E.exit12", %cleanup
  resume { ptr, i32 } %2

"_ZN4core3ptr47drop_in_place$LT$alloc..vec..Vec$LT$f32$GT$$GT$17h6e63235cc0d24036E.exit12": ; preds = %cleanup
  %5 = shl nuw i64 %_0.sroa.0.0.i7, 2
  %6 = icmp ne ptr %heap_buf.sroa.6.1, null
  call void @llvm.assume(i1 %6)
; call __rustc::__rust_dealloc
  call void @_RNvCsdBezzDwma51_7___rustc14___rust_dealloc(ptr noundef nonnull %heap_buf.sroa.6.1, i64 noundef %5, i64 noundef range(i64 1, -9223372036854775807) 4) #22, !noalias !627
  br label %bb11
}

; core::slice::sort::stable::drift::sort
; Function Attrs: nonlazybind uwtable
define internal fastcc void @_ZN4core5slice4sort6stable5drift4sort17h061b1c9959168dd3E(ptr noalias noundef nonnull align 4 %v.0, i64 noundef range(i64 0, 2305843009213693952) %v.1, ptr noalias noundef nonnull align 4 %scratch.0, i64 noundef range(i64 0, 2305843009213693952) %scratch.1, i1 noundef zeroext %eager_sort, ptr noalias noundef nonnull align 8 dereferenceable(8) %is_less) unnamed_addr #0 personality ptr @rust_eh_personality {
start:
  %desired_depth_storage = alloca [66 x i8], align 1
  %run_storage = alloca [528 x i8], align 8
  %_6 = icmp samesign ult i64 %v.1, 2
  br i1 %_6, label %bb22, label %bb2

bb2:                                              ; preds = %start
  %d = udiv i64 4611686018427387904, %v.1
  %r = urem i64 4611686018427387904, %v.1
  %_73.not = icmp ne i64 %r, 0
  %0 = zext i1 %_73.not to i64
  %scale_factor.sroa.0.0 = add nuw nsw i64 %d, %0
  %_9 = icmp samesign ult i64 %v.1, 4097
  br i1 %_9, label %bb3, label %bb4

bb4:                                              ; preds = %bb2
; call core::slice::sort::stable::drift::sqrt_approx
  %1 = tail call noundef i64 @_ZN4core5slice4sort6stable5drift11sqrt_approx17h72a4dc1ae46294f4E(i64 noundef %v.1)
  br label %bb5

bb3:                                              ; preds = %bb2
  %_1135 = lshr i64 %v.1, 1
  %v1 = sub nsw i64 %v.1, %_1135
  %_0.sroa.0.0.i36 = tail call noundef i64 @llvm.umin.i64(i64 %v1, i64 64)
  br label %bb5

bb5:                                              ; preds = %bb3, %bb4
  %min_good_run_len.sroa.0.0 = phi i64 [ %_0.sroa.0.0.i36, %bb3 ], [ %1, %bb4 ]
  call void @llvm.lifetime.start.p0(i64 528, ptr nonnull %run_storage)
  call void @llvm.lifetime.start.p0(i64 66, ptr nonnull %desired_depth_storage)
  %_13.not.i121 = icmp ugt i64 %min_good_run_len.sroa.0.0, 2
  %_13.not.i127 = icmp ugt i64 %min_good_run_len.sroa.0.0, 2
  br label %bb6

bb6:                                              ; preds = %bb19, %bb5
  %prev_run.sroa.0.0 = phi i64 [ 1, %bb5 ], [ %next_run.sroa.0.0, %bb19 ]
  %scan_idx.sroa.0.0 = phi i64 [ 0, %bb5 ], [ %43, %bb19 ]
  %stack_len.sroa.0.0 = phi i64 [ 0, %bb5 ], [ %42, %bb19 ]
  %_22 = icmp ult i64 %scan_idx.sroa.0.0, %v.1
  br i1 %_22, label %bb30, label %bb10

bb10:                                             ; preds = %bb6, %_ZN4core5slice4sort6stable5drift10create_run17h6e2a93f230ac16e0E.exit
  %desired_depth.sroa.0.0 = phi i8 [ %21, %_ZN4core5slice4sort6stable5drift10create_run17h6e2a93f230ac16e0E.exit ], [ 0, %bb6 ]
  %next_run.sroa.0.0 = phi i64 [ %_0.sroa.0.0.i40, %_ZN4core5slice4sort6stable5drift10create_run17h6e2a93f230ac16e0E.exit ], [ 1, %bb6 ]
  %_37101 = icmp ugt i64 %stack_len.sroa.0.0, 1
  br i1 %_37101, label %bb12.lr.ph, label %bb17

bb12.lr.ph:                                       ; preds = %bb10
  %v_end.i = getelementptr inbounds nuw float, ptr %v.0, i64 %scan_idx.sroa.0.0
  br label %bb12

bb30:                                             ; preds = %bb6
  %new_len = sub nuw nsw i64 %v.1, %scan_idx.sroa.0.0
  %_82 = getelementptr inbounds nuw float, ptr %v.0, i64 %scan_idx.sroa.0.0
  %_7.not.i = icmp ult i64 %new_len, %min_good_run_len.sroa.0.0
  br i1 %_7.not.i, label %bb7.i41, label %bb1.i

bb7.i41:                                          ; preds = %_ZN4core5slice4sort6shared17find_existing_run17h1859e993548aa19aE.exit.i.thread124, %_ZN4core5slice4sort6shared17find_existing_run17h1859e993548aa19aE.exit.i.thread, %_ZN4core5slice4sort6shared17find_existing_run17h1859e993548aa19aE.exit.i, %bb30
  br i1 %eager_sort, label %bb16.i43, label %bb11.i42

bb1.i:                                            ; preds = %bb30
  %_4.i.i = icmp samesign ult i64 %new_len, 2
  br i1 %_4.i.i, label %bb5.i38, label %bb2.i.i

bb2.i.i:                                          ; preds = %bb1.i
  %_28.i.i = getelementptr inbounds nuw i8, ptr %_82, i64 4
  tail call void @llvm.experimental.noalias.scope.decl(metadata !636)
  tail call void @llvm.experimental.noalias.scope.decl(metadata !639)
  tail call void @llvm.experimental.noalias.scope.decl(metadata !641), !noalias !644
  tail call void @llvm.experimental.noalias.scope.decl(metadata !647), !noalias !644
  %_6.i.i66 = load float, ptr %_28.i.i, align 4, !alias.scope !649, !noalias !650, !noundef !18
  %_7.i.i67 = load float, ptr %_82, align 4, !alias.scope !651, !noalias !652, !noundef !18
  %brmerge.not.i68 = fcmp uno float %_6.i.i66, %_7.i.i67
  br i1 %brmerge.not.i68, label %bb6.i.i70, label %"_ZN5alloc5slice29_$LT$impl$u20$$u5b$T$u5d$$GT$7sort_by28_$u7b$$u7b$closure$u7d$$u7d$17h47d2093944d38971E.exit71", !prof !21

bb6.i.i70:                                        ; preds = %bb2.i.i
; call core::option::unwrap_failed
  tail call void @_ZN4core6option13unwrap_failed17hef2534b77b89c04fE(ptr noalias noundef readonly align 8 captures(address, read_provenance) dereferenceable(24) @alloc_e233725058d574d75123974d8763f424) #21, !noalias !653
  unreachable

"_ZN5alloc5slice29_$LT$impl$u20$$u5b$T$u5d$$GT$7sort_by28_$u7b$$u7b$closure$u7d$$u7d$17h47d2093944d38971E.exit71": ; preds = %bb2.i.i
  %_8.i.mux.i69 = fcmp olt float %_6.i.i66, %_7.i.i67
  %_10.i.i97.not = icmp eq i64 %new_len, 2
  br i1 %_8.i.mux.i69, label %bb4.i.i.preheader, label %bb11.i.i.preheader

bb11.i.i.preheader:                               ; preds = %"_ZN5alloc5slice29_$LT$impl$u20$$u5b$T$u5d$$GT$7sort_by28_$u7b$$u7b$closure$u7d$$u7d$17h47d2093944d38971E.exit71"
  br i1 %_10.i.i97.not, label %_ZN4core5slice4sort6shared17find_existing_run17h1859e993548aa19aE.exit.i.thread, label %bb12.i.i

bb4.i.i.preheader:                                ; preds = %"_ZN5alloc5slice29_$LT$impl$u20$$u5b$T$u5d$$GT$7sort_by28_$u7b$$u7b$closure$u7d$$u7d$17h47d2093944d38971E.exit71"
  br i1 %_10.i.i97.not, label %_ZN4core5slice4sort6shared17find_existing_run17h1859e993548aa19aE.exit.i.thread124, label %bb5.i.i

bb12.i.i:                                         ; preds = %bb11.i.i.preheader, %bb15.i.i
  %_7.i.i61 = phi float [ %_6.i.i60, %bb15.i.i ], [ %_6.i.i66, %bb11.i.i.preheader ]
  %run_len.sroa.0.0.i.i95 = phi i64 [ %3, %bb15.i.i ], [ 2, %bb11.i.i.preheader ]
  %2 = getelementptr inbounds nuw float, ptr %_82, i64 %run_len.sroa.0.0.i.i95
  tail call void @llvm.experimental.noalias.scope.decl(metadata !654)
  tail call void @llvm.experimental.noalias.scope.decl(metadata !657), !noalias !644
  %_6.i.i60 = load float, ptr %2, align 4, !alias.scope !660, !noalias !661, !noundef !18
  %brmerge.not.i62 = fcmp uno float %_6.i.i60, %_7.i.i61
  br i1 %brmerge.not.i62, label %bb6.i.i64, label %"_ZN5alloc5slice29_$LT$impl$u20$$u5b$T$u5d$$GT$7sort_by28_$u7b$$u7b$closure$u7d$$u7d$17h47d2093944d38971E.exit65", !prof !21

bb6.i.i64:                                        ; preds = %bb12.i.i
; call core::option::unwrap_failed
  tail call void @_ZN4core6option13unwrap_failed17hef2534b77b89c04fE(ptr noalias noundef readonly align 8 captures(address, read_provenance) dereferenceable(24) @alloc_e233725058d574d75123974d8763f424) #21, !noalias !664
  unreachable

"_ZN5alloc5slice29_$LT$impl$u20$$u5b$T$u5d$$GT$7sort_by28_$u7b$$u7b$closure$u7d$$u7d$17h47d2093944d38971E.exit65": ; preds = %bb12.i.i
  %_8.i.mux.i63 = fcmp olt float %_6.i.i60, %_7.i.i61
  br i1 %_8.i.mux.i63, label %_ZN4core5slice4sort6shared17find_existing_run17h1859e993548aa19aE.exit.i, label %bb15.i.i

bb15.i.i:                                         ; preds = %"_ZN5alloc5slice29_$LT$impl$u20$$u5b$T$u5d$$GT$7sort_by28_$u7b$$u7b$closure$u7d$$u7d$17h47d2093944d38971E.exit65"
  %3 = add nuw i64 %run_len.sroa.0.0.i.i95, 1
  %exitcond.not = icmp eq i64 %3, %new_len
  br i1 %exitcond.not, label %_ZN4core5slice4sort6shared17find_existing_run17h1859e993548aa19aE.exit.i, label %bb12.i.i

bb5.i.i:                                          ; preds = %bb4.i.i.preheader, %bb7.i.i
  %_7.i.i58 = phi float [ %_6.i.i, %bb7.i.i ], [ %_6.i.i66, %bb4.i.i.preheader ]
  %run_len.sroa.0.1.i.i98 = phi i64 [ %5, %bb7.i.i ], [ 2, %bb4.i.i.preheader ]
  %4 = getelementptr inbounds nuw float, ptr %_82, i64 %run_len.sroa.0.1.i.i98
  tail call void @llvm.experimental.noalias.scope.decl(metadata !665)
  tail call void @llvm.experimental.noalias.scope.decl(metadata !668), !noalias !644
  %_6.i.i = load float, ptr %4, align 4, !alias.scope !671, !noalias !672, !noundef !18
  %brmerge.not.i = fcmp uno float %_6.i.i, %_7.i.i58
  br i1 %brmerge.not.i, label %bb6.i.i59, label %"_ZN5alloc5slice29_$LT$impl$u20$$u5b$T$u5d$$GT$7sort_by28_$u7b$$u7b$closure$u7d$$u7d$17h47d2093944d38971E.exit", !prof !21

bb6.i.i59:                                        ; preds = %bb5.i.i
; call core::option::unwrap_failed
  tail call void @_ZN4core6option13unwrap_failed17hef2534b77b89c04fE(ptr noalias noundef readonly align 8 captures(address, read_provenance) dereferenceable(24) @alloc_e233725058d574d75123974d8763f424) #21, !noalias !675
  unreachable

"_ZN5alloc5slice29_$LT$impl$u20$$u5b$T$u5d$$GT$7sort_by28_$u7b$$u7b$closure$u7d$$u7d$17h47d2093944d38971E.exit": ; preds = %bb5.i.i
  %_8.i.mux.i = fcmp olt float %_6.i.i, %_7.i.i58
  br i1 %_8.i.mux.i, label %bb7.i.i, label %_ZN4core5slice4sort6shared17find_existing_run17h1859e993548aa19aE.exit.i

bb7.i.i:                                          ; preds = %"_ZN5alloc5slice29_$LT$impl$u20$$u5b$T$u5d$$GT$7sort_by28_$u7b$$u7b$closure$u7d$$u7d$17h47d2093944d38971E.exit"
  %5 = add nuw i64 %run_len.sroa.0.1.i.i98, 1
  %exitcond116.not = icmp eq i64 %5, %new_len
  br i1 %exitcond116.not, label %_ZN4core5slice4sort6shared17find_existing_run17h1859e993548aa19aE.exit.i, label %bb5.i.i

_ZN4core5slice4sort6shared17find_existing_run17h1859e993548aa19aE.exit.i: ; preds = %bb15.i.i, %"_ZN5alloc5slice29_$LT$impl$u20$$u5b$T$u5d$$GT$7sort_by28_$u7b$$u7b$closure$u7d$$u7d$17h47d2093944d38971E.exit65", %bb7.i.i, %"_ZN5alloc5slice29_$LT$impl$u20$$u5b$T$u5d$$GT$7sort_by28_$u7b$$u7b$closure$u7d$$u7d$17h47d2093944d38971E.exit"
  %_0.sroa.0.0.i.i = phi i64 [ %new_len, %bb7.i.i ], [ %run_len.sroa.0.1.i.i98, %"_ZN5alloc5slice29_$LT$impl$u20$$u5b$T$u5d$$GT$7sort_by28_$u7b$$u7b$closure$u7d$$u7d$17h47d2093944d38971E.exit" ], [ %new_len, %bb15.i.i ], [ %run_len.sroa.0.0.i.i95, %"_ZN5alloc5slice29_$LT$impl$u20$$u5b$T$u5d$$GT$7sort_by28_$u7b$$u7b$closure$u7d$$u7d$17h47d2093944d38971E.exit65" ]
  %_12.i = icmp samesign ule i64 %_0.sroa.0.0.i.i, %new_len
  tail call void @llvm.assume(i1 %_12.i)
  %_13.not.i = icmp ult i64 %_0.sroa.0.0.i.i, %min_good_run_len.sroa.0.0
  br i1 %_13.not.i, label %bb7.i41, label %bb3.i37

_ZN4core5slice4sort6shared17find_existing_run17h1859e993548aa19aE.exit.i.thread124: ; preds = %bb4.i.i.preheader
  br i1 %_13.not.i127, label %bb7.i41, label %bb5.preheader.i.i

_ZN4core5slice4sort6shared17find_existing_run17h1859e993548aa19aE.exit.i.thread: ; preds = %bb11.i.i.preheader
  br i1 %_13.not.i121, label %bb7.i41, label %bb5.i38

bb3.i37:                                          ; preds = %_ZN4core5slice4sort6shared17find_existing_run17h1859e993548aa19aE.exit.i
  br i1 %_8.i.mux.i69, label %bb14.i, label %bb5.i38

bb11.i42:                                         ; preds = %bb7.i41
  %_0.sroa.0.0.i57 = tail call noundef i64 @llvm.umin.i64(i64 range(i64 0, 2305843009213693952) %new_len, i64 %min_good_run_len.sroa.0.0)
  %_36.i = shl nuw nsw i64 %_0.sroa.0.0.i57, 1
  br label %_ZN4core5slice4sort6stable5drift10create_run17h6e2a93f230ac16e0E.exit

bb16.i43:                                         ; preds = %bb7.i41
  %_0.sroa.0.0.i56 = tail call noundef i64 @llvm.umin.i64(i64 range(i64 0, 2305843009213693952) %new_len, i64 32)
; call core::slice::sort::stable::quicksort::quicksort
  tail call void @_ZN4core5slice4sort6stable9quicksort9quicksort17h6c1ff9bca1b551deE(ptr noalias noundef nonnull align 4 %_82, i64 noundef %_0.sroa.0.0.i56, ptr noalias noundef nonnull align 4 %scratch.0, i64 noundef range(i64 0, 2305843009213693952) %scratch.1, i32 noundef 0, ptr noalias noundef readonly align 4 captures(address, read_provenance) dereferenceable_or_null(4) null, ptr noalias noundef nonnull align 8 dereferenceable(8) %is_less) #24
  %_35.i = shl nuw nsw i64 %_0.sroa.0.0.i56, 1
  %_34.i = or disjoint i64 %_35.i, 1
  br label %_ZN4core5slice4sort6stable5drift10create_run17h6e2a93f230ac16e0E.exit

bb5.i38:                                          ; preds = %bb6.i.i, %middle.block, %_ZN4core5slice4sort6shared17find_existing_run17h1859e993548aa19aE.exit.i.thread, %bb1.i, %bb14.i, %bb3.i37
  %_0.sroa.0.0.i.i7780 = phi i64 [ %_0.sroa.0.0.i.i, %bb3.i37 ], [ 1, %bb14.i ], [ %new_len, %bb1.i ], [ 2, %_ZN4core5slice4sort6shared17find_existing_run17h1859e993548aa19aE.exit.i.thread ], [ %_0.sroa.0.0.i.i122130134, %middle.block ], [ %_0.sroa.0.0.i.i122130134, %bb6.i.i ]
  %_27.i = shl nuw nsw i64 %_0.sroa.0.0.i.i7780, 1
  %_26.i = or disjoint i64 %_27.i, 1
  br label %_ZN4core5slice4sort6stable5drift10create_run17h6e2a93f230ac16e0E.exit

bb14.i:                                           ; preds = %bb3.i37
  %half_len2.i = lshr i64 %_0.sroa.0.0.i.i, 1
  tail call void @llvm.experimental.noalias.scope.decl(metadata !676), !noalias !679
  tail call void @llvm.experimental.noalias.scope.decl(metadata !681), !noalias !679
  %_915.not.i.i = icmp samesign ult i64 %_0.sroa.0.0.i.i, 2
  br i1 %_915.not.i.i, label %bb5.i38, label %bb5.preheader.i.i

bb5.preheader.i.i:                                ; preds = %_ZN4core5slice4sort6shared17find_existing_run17h1859e993548aa19aE.exit.i.thread124, %bb14.i
  %half_len2.i135 = phi i64 [ %half_len2.i, %bb14.i ], [ 1, %_ZN4core5slice4sort6shared17find_existing_run17h1859e993548aa19aE.exit.i.thread124 ]
  %_0.sroa.0.0.i.i122130134 = phi i64 [ %_0.sroa.0.0.i.i, %bb14.i ], [ 2, %_ZN4core5slice4sort6shared17find_existing_run17h1859e993548aa19aE.exit.i.thread124 ]
  %end.i = getelementptr inbounds nuw float, ptr %_82, i64 %_0.sroa.0.0.i.i122130134
  %min.iters.check = icmp samesign ult i64 %half_len2.i135, 8
  br i1 %min.iters.check, label %bb6.i.i.preheader, label %vector.ph

vector.ph:                                        ; preds = %bb5.preheader.i.i
  %n.vec = and i64 %half_len2.i135, 9223372036854775800
  br label %vector.body

vector.body:                                      ; preds = %vector.body, %vector.ph
  %index = phi i64 [ 0, %vector.ph ], [ %index.next, %vector.body ]
  %6 = xor i64 %index, -1
  %7 = getelementptr inbounds nuw float, ptr %_82, i64 %index
  %8 = getelementptr float, ptr %end.i, i64 %6
  %9 = getelementptr inbounds nuw i8, ptr %7, i64 16
  %wide.load = load <4 x float>, ptr %7, align 4, !alias.scope !683, !noalias !686
  %wide.load152 = load <4 x float>, ptr %9, align 4, !alias.scope !683, !noalias !686
  %10 = getelementptr i8, ptr %8, i64 -12
  %11 = getelementptr i8, ptr %8, i64 -28
  %wide.load153 = load <4 x i32>, ptr %10, align 4, !alias.scope !687, !noalias !688
  %reverse = shufflevector <4 x i32> %wide.load153, <4 x i32> poison, <4 x i32> <i32 3, i32 2, i32 1, i32 0>
  %wide.load154 = load <4 x i32>, ptr %11, align 4, !alias.scope !687, !noalias !688
  %reverse155 = shufflevector <4 x i32> %wide.load154, <4 x i32> poison, <4 x i32> <i32 3, i32 2, i32 1, i32 0>
  %12 = getelementptr inbounds nuw i8, ptr %7, i64 16
  store <4 x i32> %reverse, ptr %7, align 4, !alias.scope !683, !noalias !686
  store <4 x i32> %reverse155, ptr %12, align 4, !alias.scope !683, !noalias !686
  %13 = getelementptr i8, ptr %8, i64 -12
  %14 = getelementptr i8, ptr %8, i64 -28
  %reverse156 = shufflevector <4 x float> %wide.load, <4 x float> poison, <4 x i32> <i32 3, i32 2, i32 1, i32 0>
  store <4 x float> %reverse156, ptr %13, align 4, !alias.scope !687, !noalias !688
  %reverse157 = shufflevector <4 x float> %wide.load152, <4 x float> poison, <4 x i32> <i32 3, i32 2, i32 1, i32 0>
  store <4 x float> %reverse157, ptr %14, align 4, !alias.scope !687, !noalias !688
  %index.next = add nuw i64 %index, 8
  %15 = icmp eq i64 %index.next, %n.vec
  br i1 %15, label %middle.block, label %vector.body, !llvm.loop !689

middle.block:                                     ; preds = %vector.body
  %cmp.n = icmp eq i64 %half_len2.i135, %n.vec
  br i1 %cmp.n, label %bb5.i38, label %bb6.i.i.preheader

bb6.i.i.preheader:                                ; preds = %bb5.preheader.i.i, %middle.block
  %i.sroa.0.016.i.i.ph = phi i64 [ 0, %bb5.preheader.i.i ], [ %n.vec, %middle.block ]
  br label %bb6.i.i

bb6.i.i:                                          ; preds = %bb6.i.i.preheader, %bb6.i.i
  %i.sroa.0.016.i.i = phi i64 [ %19, %bb6.i.i ], [ %i.sroa.0.016.i.i.ph, %bb6.i.i.preheader ]
  %16 = xor i64 %i.sroa.0.016.i.i, -1
  %x.i.i = getelementptr inbounds nuw float, ptr %_82, i64 %i.sroa.0.016.i.i
  %y.i.i = getelementptr float, ptr %end.i, i64 %16
  %17 = load float, ptr %x.i.i, align 4, !alias.scope !683, !noalias !686, !noundef !18
  %18 = load i32, ptr %y.i.i, align 4, !alias.scope !687, !noalias !688
  store i32 %18, ptr %x.i.i, align 4, !alias.scope !683, !noalias !686
  store float %17, ptr %y.i.i, align 4, !alias.scope !687, !noalias !688
  %19 = add nuw nsw i64 %i.sroa.0.016.i.i, 1
  %exitcond.not.i.i = icmp eq i64 %19, %half_len2.i135
  br i1 %exitcond.not.i.i, label %bb5.i38, label %bb6.i.i, !llvm.loop !692

_ZN4core5slice4sort6stable5drift10create_run17h6e2a93f230ac16e0E.exit: ; preds = %bb11.i42, %bb16.i43, %bb5.i38
  %_0.sroa.0.0.i40 = phi i64 [ %_26.i, %bb5.i38 ], [ %_34.i, %bb16.i43 ], [ %_36.i, %bb11.i42 ]
  %_31 = lshr i64 %prev_run.sroa.0.0, 1
  %_35 = lshr i64 %_0.sroa.0.0.i40, 1
  %factor = shl i64 %scan_idx.sroa.0.0, 1
  %x = sub i64 %factor, %_31
  %y = add i64 %_35, %factor
  %_90 = mul i64 %x, %scale_factor.sroa.0.0
  %_91 = mul i64 %y, %scale_factor.sroa.0.0
  %self4 = xor i64 %_91, %_90
  %20 = tail call range(i64 0, 65) i64 @llvm.ctlz.i64(i64 %self4, i1 false)
  %21 = trunc nuw nsw i64 %20 to i8
  br label %bb10

bb12:                                             ; preds = %bb12.lr.ph, %_ZN4core5slice4sort6stable5drift13logical_merge17hca8108c7b0623ee4E.exit
  %stack_len.sroa.0.1103 = phi i64 [ %stack_len.sroa.0.0, %bb12.lr.ph ], [ %count, %_ZN4core5slice4sort6stable5drift13logical_merge17hca8108c7b0623ee4E.exit ]
  %prev_run.sroa.0.1102 = phi i64 [ %prev_run.sroa.0.0, %bb12.lr.ph ], [ %_0.sroa.0.0.i, %_ZN4core5slice4sort6stable5drift13logical_merge17hca8108c7b0623ee4E.exit ]
  %count = add i64 %stack_len.sroa.0.1103, -1
  %_41 = getelementptr inbounds nuw i8, ptr %desired_depth_storage, i64 %count
  %_40 = load i8, ptr %_41, align 1, !noundef !18
  %_39.not = icmp ult i8 %_40, %desired_depth.sroa.0.0
  br i1 %_39.not, label %bb17, label %bb13

bb17:                                             ; preds = %_ZN4core5slice4sort6stable5drift13logical_merge17hca8108c7b0623ee4E.exit, %bb12, %bb10
  %prev_run.sroa.0.1.lcssa = phi i64 [ %prev_run.sroa.0.0, %bb10 ], [ %prev_run.sroa.0.1102, %bb12 ], [ %_0.sroa.0.0.i, %_ZN4core5slice4sort6stable5drift13logical_merge17hca8108c7b0623ee4E.exit ]
  %stack_len.sroa.0.1.lcssa = phi i64 [ %stack_len.sroa.0.0, %bb10 ], [ %stack_len.sroa.0.1103, %bb12 ], [ 1, %_ZN4core5slice4sort6stable5drift13logical_merge17hca8108c7b0623ee4E.exit ]
  %_59 = getelementptr inbounds nuw i64, ptr %run_storage, i64 %stack_len.sroa.0.1.lcssa
  store i64 %prev_run.sroa.0.1.lcssa, ptr %_59, align 8
  %_61 = getelementptr inbounds nuw i8, ptr %desired_depth_storage, i64 %stack_len.sroa.0.1.lcssa
  store i8 %desired_depth.sroa.0.0, ptr %_61, align 1
  br i1 %_22, label %bb19, label %bb18

bb13:                                             ; preds = %bb12
  %_46 = getelementptr inbounds nuw i64, ptr %run_storage, i64 %count
  %left10 = load i64, ptr %_46, align 8, !noundef !18
  %_50 = lshr i64 %left10, 1
  %_51 = lshr i64 %prev_run.sroa.0.1102, 1
  %merged_len = add nuw i64 %_50, %_51
  %merge_start_idx = sub i64 %scan_idx.sroa.0.0, %merged_len
  %_98 = getelementptr inbounds nuw float, ptr %v.0, i64 %merge_start_idx
  %can_fit_in_scratch.i = icmp samesign ugt i64 %merged_len, %scratch.1
  %_22.i = and i64 %prev_run.sroa.0.1102, 1
  %_10.not.i = icmp eq i64 %_22.i, 0
  %22 = or i64 %left10, %prev_run.sroa.0.1102
  %23 = and i64 %22, 1
  %24 = icmp ne i64 %23, 0
  %or.cond2.i = or i1 %can_fit_in_scratch.i, %24
  br i1 %or.cond2.i, label %bb3.i, label %bb9.i

bb3.i:                                            ; preds = %bb13
  %_21.i = and i64 %left10, 1
  %_9.not.i = icmp eq i64 %_21.i, 0
  br i1 %_9.not.i, label %bb11.i, label %bb5.i

bb9.i:                                            ; preds = %bb13
  %_40.i = shl nuw nsw i64 %merged_len, 1
  br label %_ZN4core5slice4sort6stable5drift13logical_merge17hca8108c7b0623ee4E.exit

bb5.i:                                            ; preds = %bb11.i, %bb3.i
  br i1 %_10.not.i, label %bb16.i, label %bb7.i

bb11.i:                                           ; preds = %bb3.i
  %self.i = or i64 %_50, 1
  %25 = tail call range(i64 3, 64) i64 @llvm.ctlz.i64(i64 %self.i, i1 true)
  %26 = trunc nuw nsw i64 %25 to i32
  %log.i = shl nuw nsw i32 %26, 1
  %limit.i = xor i32 %log.i, 126
; call core::slice::sort::stable::quicksort::quicksort
  tail call void @_ZN4core5slice4sort6stable9quicksort9quicksort17h6c1ff9bca1b551deE(ptr noalias noundef nonnull align 4 %_98, i64 noundef range(i64 0, 2305843009213693952) %_50, ptr noalias noundef nonnull align 4 %scratch.0, i64 noundef range(i64 0, 2305843009213693952) %scratch.1, i32 noundef %limit.i, ptr noalias noundef readonly align 4 captures(address, read_provenance) dereferenceable_or_null(4) null, ptr noalias noundef nonnull align 8 dereferenceable(8) %is_less) #24
  br label %bb5.i

bb7.i:                                            ; preds = %bb16.i, %bb5.i
  tail call void @llvm.experimental.noalias.scope.decl(metadata !693)
  tail call void @llvm.experimental.noalias.scope.decl(metadata !696)
  %_6.i = icmp ult i64 %left10, 2
  %_7.i = icmp ult i64 %prev_run.sroa.0.1102, 2
  %or.cond.i = select i1 %_6.i, i1 true, i1 %_7.i
  br i1 %or.cond.i, label %_ZN4core5slice4sort6stable5merge5merge17h4b6f260cee8dbb44E.exit, label %bb2.i

bb2.i:                                            ; preds = %bb7.i
  %_0.sroa.0.0.i.i44 = tail call i64 @llvm.umin.i64(i64 %_51, i64 range(i64 0, -9223372036854775808) %_50)
  %_8.i = icmp samesign ult i64 %scratch.1, %_0.sroa.0.0.i.i44
  br i1 %_8.i, label %_ZN4core5slice4sort6stable5merge5merge17h4b6f260cee8dbb44E.exit, label %bb5.i45

bb5.i45:                                          ; preds = %bb2.i
  %v_mid.i = getelementptr inbounds nuw float, ptr %_98, i64 %_50
  %left_is_shorter.not.i = icmp samesign ugt i64 %_50, %_51
  %spec.select.i = select i1 %left_is_shorter.not.i, ptr %v_mid.i, ptr %_98
  %27 = shl nuw nsw i64 %_0.sroa.0.0.i.i44, 2
  tail call void @llvm.memcpy.p0.p0.i64(ptr nonnull align 4 %scratch.0, ptr nonnull align 4 %spec.select.i, i64 %27, i1 false), !alias.scope !698
  %_22.i46 = getelementptr inbounds nuw i8, ptr %scratch.0, i64 %27
  br i1 %left_is_shorter.not.i, label %bb1.i.i, label %bb3.i.i

bb1.i.i:                                          ; preds = %bb5.i45, %"_ZN5alloc5slice29_$LT$impl$u20$$u5b$T$u5d$$GT$7sort_by28_$u7b$$u7b$closure$u7d$$u7d$17h47d2093944d38971E.exit.i.i"
  %merge_state.sroa.13.2.i = phi ptr [ %_18.i.i, %"_ZN5alloc5slice29_$LT$impl$u20$$u5b$T$u5d$$GT$7sort_by28_$u7b$$u7b$closure$u7d$$u7d$17h47d2093944d38971E.exit.i.i" ], [ %v_mid.i, %bb5.i45 ]
  %merge_state.sroa.7.2.i = phi ptr [ %_21.i.i49, %"_ZN5alloc5slice29_$LT$impl$u20$$u5b$T$u5d$$GT$7sort_by28_$u7b$$u7b$closure$u7d$$u7d$17h47d2093944d38971E.exit.i.i" ], [ %_22.i46, %bb5.i45 ]
  %out.sroa.0.0.i.i = phi ptr [ %30, %"_ZN5alloc5slice29_$LT$impl$u20$$u5b$T$u5d$$GT$7sort_by28_$u7b$$u7b$closure$u7d$$u7d$17h47d2093944d38971E.exit.i.i" ], [ %v_end.i, %bb5.i45 ]
  %28 = getelementptr inbounds i8, ptr %merge_state.sroa.13.2.i, i64 -4
  %29 = getelementptr inbounds i8, ptr %merge_state.sroa.7.2.i, i64 -4
  tail call void @llvm.experimental.noalias.scope.decl(metadata !699)
  tail call void @llvm.experimental.noalias.scope.decl(metadata !702)
  tail call void @llvm.experimental.noalias.scope.decl(metadata !704)
  tail call void @llvm.experimental.noalias.scope.decl(metadata !707)
  %_6.i.i.i.i = load float, ptr %29, align 4, !alias.scope !709, !noalias !710, !noundef !18
  %_7.i.i.i.i = load float, ptr %28, align 4, !alias.scope !713, !noalias !714, !noundef !18
  %brmerge.not.i.i.i = fcmp uno float %_6.i.i.i.i, %_7.i.i.i.i
  br i1 %brmerge.not.i.i.i, label %bb6.i.i.i.i, label %"_ZN5alloc5slice29_$LT$impl$u20$$u5b$T$u5d$$GT$7sort_by28_$u7b$$u7b$closure$u7d$$u7d$17h47d2093944d38971E.exit.i.i", !prof !21

bb6.i.i.i.i:                                      ; preds = %bb1.i.i
; invoke core::option::unwrap_failed
  invoke void @_ZN4core6option13unwrap_failed17hef2534b77b89c04fE(ptr noalias noundef readonly align 8 captures(address, read_provenance) dereferenceable(24) @alloc_e233725058d574d75123974d8763f424) #21
          to label %.noexc.i unwind label %bb20.i, !noalias !698

.noexc.i:                                         ; preds = %bb6.i.i.i.i
  unreachable

"_ZN5alloc5slice29_$LT$impl$u20$$u5b$T$u5d$$GT$7sort_by28_$u7b$$u7b$closure$u7d$$u7d$17h47d2093944d38971E.exit.i.i": ; preds = %bb1.i.i
  %30 = getelementptr inbounds i8, ptr %out.sroa.0.0.i.i, i64 -4
  %_8.i.mux.i.i.i = fcmp olt float %_6.i.i.i.i, %_7.i.i.i.i
  %..i.i = select i1 %_8.i.mux.i.i.i, ptr %28, ptr %29
  %31 = load i32, ptr %..i.i, align 4, !alias.scope !698, !noalias !715
  store i32 %31, ptr %30, align 4, !alias.scope !693, !noalias !716
  %_20.i.i = xor i1 %_8.i.mux.i.i.i, true
  %count.i.i = zext i1 %_20.i.i to i64
  %_18.i.i = getelementptr inbounds nuw float, ptr %28, i64 %count.i.i
  %count4.i.i = zext i1 %_8.i.mux.i.i.i to i64
  %_21.i.i49 = getelementptr inbounds nuw float, ptr %29, i64 %count4.i.i
  %_23.i.i = icmp eq ptr %_18.i.i, %_98
  %_26.i.i = icmp eq ptr %_21.i.i49, %scratch.0
  %or.cond.i.i = select i1 %_23.i.i, i1 true, i1 %_26.i.i
  br i1 %or.cond.i.i, label %bb16.i48, label %bb1.i.i

bb3.i.i:                                          ; preds = %bb5.i45, %"_ZN5alloc5slice29_$LT$impl$u20$$u5b$T$u5d$$GT$7sort_by28_$u7b$$u7b$closure$u7d$$u7d$17h47d2093944d38971E.exit.i15.i"
  %merge_state.sroa.13.3.i = phi ptr [ %_25.i.i, %"_ZN5alloc5slice29_$LT$impl$u20$$u5b$T$u5d$$GT$7sort_by28_$u7b$$u7b$closure$u7d$$u7d$17h47d2093944d38971E.exit.i15.i" ], [ %_98, %bb5.i45 ]
  %merge_state.sroa.0.2.i = phi ptr [ %_20.i18.i, %"_ZN5alloc5slice29_$LT$impl$u20$$u5b$T$u5d$$GT$7sort_by28_$u7b$$u7b$closure$u7d$$u7d$17h47d2093944d38971E.exit.i15.i" ], [ %scratch.0, %bb5.i45 ]
  %right.sroa.0.010.i.i = phi ptr [ %_23.i19.i, %"_ZN5alloc5slice29_$LT$impl$u20$$u5b$T$u5d$$GT$7sort_by28_$u7b$$u7b$closure$u7d$$u7d$17h47d2093944d38971E.exit.i15.i" ], [ %v_mid.i, %bb5.i45 ]
  tail call void @llvm.experimental.noalias.scope.decl(metadata !717)
  tail call void @llvm.experimental.noalias.scope.decl(metadata !720)
  tail call void @llvm.experimental.noalias.scope.decl(metadata !722)
  tail call void @llvm.experimental.noalias.scope.decl(metadata !725)
  %_6.i.i.i12.i = load float, ptr %right.sroa.0.010.i.i, align 4, !alias.scope !727, !noalias !728, !noundef !18
  %_7.i.i.i13.i = load float, ptr %merge_state.sroa.0.2.i, align 4, !alias.scope !731, !noalias !732, !noundef !18
  %brmerge.not.i.i14.i = fcmp uno float %_6.i.i.i12.i, %_7.i.i.i13.i
  br i1 %brmerge.not.i.i14.i, label %bb6.i.i.i21.i, label %"_ZN5alloc5slice29_$LT$impl$u20$$u5b$T$u5d$$GT$7sort_by28_$u7b$$u7b$closure$u7d$$u7d$17h47d2093944d38971E.exit.i15.i", !prof !21

bb6.i.i.i21.i:                                    ; preds = %bb3.i.i
; invoke core::option::unwrap_failed
  invoke void @_ZN4core6option13unwrap_failed17hef2534b77b89c04fE(ptr noalias noundef readonly align 8 captures(address, read_provenance) dereferenceable(24) @alloc_e233725058d574d75123974d8763f424) #21
          to label %.noexc22.i unwind label %bb20.i, !noalias !698

.noexc22.i:                                       ; preds = %bb6.i.i.i21.i
  unreachable

"_ZN5alloc5slice29_$LT$impl$u20$$u5b$T$u5d$$GT$7sort_by28_$u7b$$u7b$closure$u7d$$u7d$17h47d2093944d38971E.exit.i15.i": ; preds = %bb3.i.i
  %_8.i.mux.i.i16.i = fcmp olt float %_6.i.i.i12.i, %_7.i.i.i13.i
  %consume_left.i.i = xor i1 %_8.i.mux.i.i16.i, true
  %src.sroa.0.0.i.i = select i1 %_8.i.mux.i.i16.i, ptr %right.sroa.0.010.i.i, ptr %merge_state.sroa.0.2.i
  %32 = load i32, ptr %src.sroa.0.0.i.i, align 4, !alias.scope !698, !noalias !733
  store i32 %32, ptr %merge_state.sroa.13.3.i, align 4, !alias.scope !693, !noalias !734
  %count.i17.i = zext i1 %consume_left.i.i to i64
  %_20.i18.i = getelementptr inbounds nuw float, ptr %merge_state.sroa.0.2.i, i64 %count.i17.i
  %count2.i.i = zext i1 %_8.i.mux.i.i16.i to i64
  %_23.i19.i = getelementptr inbounds nuw float, ptr %right.sroa.0.010.i.i, i64 %count2.i.i
  %_25.i.i = getelementptr inbounds nuw i8, ptr %merge_state.sroa.13.3.i, i64 4
  %_7.i.i = icmp ne ptr %_20.i18.i, %_22.i46
  %_10.i.i47 = icmp ne ptr %_23.i19.i, %v_end.i
  %or.cond.i20.i = select i1 %_7.i.i, i1 %_10.i.i47, i1 false
  br i1 %or.cond.i20.i, label %bb3.i.i, label %bb16.i48

bb16.i48:                                         ; preds = %"_ZN5alloc5slice29_$LT$impl$u20$$u5b$T$u5d$$GT$7sort_by28_$u7b$$u7b$closure$u7d$$u7d$17h47d2093944d38971E.exit.i15.i", %"_ZN5alloc5slice29_$LT$impl$u20$$u5b$T$u5d$$GT$7sort_by28_$u7b$$u7b$closure$u7d$$u7d$17h47d2093944d38971E.exit.i.i"
  %merge_state.sroa.13.1.i = phi ptr [ %_18.i.i, %"_ZN5alloc5slice29_$LT$impl$u20$$u5b$T$u5d$$GT$7sort_by28_$u7b$$u7b$closure$u7d$$u7d$17h47d2093944d38971E.exit.i.i" ], [ %_25.i.i, %"_ZN5alloc5slice29_$LT$impl$u20$$u5b$T$u5d$$GT$7sort_by28_$u7b$$u7b$closure$u7d$$u7d$17h47d2093944d38971E.exit.i15.i" ]
  %merge_state.sroa.7.1.i = phi ptr [ %_21.i.i49, %"_ZN5alloc5slice29_$LT$impl$u20$$u5b$T$u5d$$GT$7sort_by28_$u7b$$u7b$closure$u7d$$u7d$17h47d2093944d38971E.exit.i.i" ], [ %_22.i46, %"_ZN5alloc5slice29_$LT$impl$u20$$u5b$T$u5d$$GT$7sort_by28_$u7b$$u7b$closure$u7d$$u7d$17h47d2093944d38971E.exit.i15.i" ]
  %merge_state.sroa.0.1.i = phi ptr [ %scratch.0, %"_ZN5alloc5slice29_$LT$impl$u20$$u5b$T$u5d$$GT$7sort_by28_$u7b$$u7b$closure$u7d$$u7d$17h47d2093944d38971E.exit.i.i" ], [ %_20.i18.i, %"_ZN5alloc5slice29_$LT$impl$u20$$u5b$T$u5d$$GT$7sort_by28_$u7b$$u7b$closure$u7d$$u7d$17h47d2093944d38971E.exit.i15.i" ]
  %33 = ptrtoint ptr %merge_state.sroa.7.1.i to i64
  %34 = ptrtoint ptr %merge_state.sroa.0.1.i to i64
  %35 = sub nuw i64 %33, %34
  tail call void @llvm.memcpy.p0.p0.i64(ptr nonnull align 4 %merge_state.sroa.13.1.i, ptr align 4 %merge_state.sroa.0.1.i, i64 %35, i1 false), !alias.scope !698, !noalias !735
  br label %_ZN4core5slice4sort6stable5merge5merge17h4b6f260cee8dbb44E.exit

bb20.i:                                           ; preds = %bb6.i.i.i21.i, %bb6.i.i.i.i
  %merge_state.sroa.13.0.i = phi ptr [ %merge_state.sroa.13.2.i, %bb6.i.i.i.i ], [ %merge_state.sroa.13.3.i, %bb6.i.i.i21.i ]
  %merge_state.sroa.7.0.i = phi ptr [ %merge_state.sroa.7.2.i, %bb6.i.i.i.i ], [ %_22.i46, %bb6.i.i.i21.i ]
  %merge_state.sroa.0.0.i = phi ptr [ %scratch.0, %bb6.i.i.i.i ], [ %merge_state.sroa.0.2.i, %bb6.i.i.i21.i ]
  %36 = landingpad { ptr, i32 }
          cleanup
  %37 = ptrtoint ptr %merge_state.sroa.7.0.i to i64
  %38 = ptrtoint ptr %merge_state.sroa.0.0.i to i64
  %39 = sub nuw i64 %37, %38
  tail call void @llvm.memcpy.p0.p0.i64(ptr nonnull align 4 %merge_state.sroa.13.0.i, ptr nonnull align 4 %merge_state.sroa.0.0.i, i64 %39, i1 false), !alias.scope !698, !noalias !740
  resume { ptr, i32 } %36

_ZN4core5slice4sort6stable5merge5merge17h4b6f260cee8dbb44E.exit: ; preds = %bb7.i, %bb2.i, %bb16.i48
  %_39.i = shl nuw nsw i64 %merged_len, 1
  %_38.i = or disjoint i64 %_39.i, 1
  br label %_ZN4core5slice4sort6stable5drift13logical_merge17hca8108c7b0623ee4E.exit

bb16.i:                                           ; preds = %bb5.i
  %_37.i = getelementptr inbounds nuw float, ptr %_98, i64 %_50
  %self.i50 = or i64 %_51, 1
  %40 = tail call range(i64 3, 64) i64 @llvm.ctlz.i64(i64 %self.i50, i1 true)
  %41 = trunc nuw nsw i64 %40 to i32
  %log.i51 = shl nuw nsw i32 %41, 1
  %limit.i52 = xor i32 %log.i51, 126
; call core::slice::sort::stable::quicksort::quicksort
  tail call void @_ZN4core5slice4sort6stable9quicksort9quicksort17h6c1ff9bca1b551deE(ptr noalias noundef nonnull align 4 %_37.i, i64 noundef range(i64 0, 2305843009213693952) %_51, ptr noalias noundef nonnull align 4 %scratch.0, i64 noundef range(i64 0, 2305843009213693952) %scratch.1, i32 noundef %limit.i52, ptr noalias noundef readonly align 4 captures(address, read_provenance) dereferenceable_or_null(4) null, ptr noalias noundef nonnull align 8 dereferenceable(8) %is_less) #24
  br label %bb7.i

_ZN4core5slice4sort6stable5drift13logical_merge17hca8108c7b0623ee4E.exit: ; preds = %bb9.i, %_ZN4core5slice4sort6stable5merge5merge17h4b6f260cee8dbb44E.exit
  %_0.sroa.0.0.i = phi i64 [ %_38.i, %_ZN4core5slice4sort6stable5merge5merge17h4b6f260cee8dbb44E.exit ], [ %_40.i, %bb9.i ]
  %_37 = icmp ugt i64 %count, 1
  br i1 %_37, label %bb12, label %bb17

bb19:                                             ; preds = %bb17
  %42 = add i64 %stack_len.sroa.0.1.lcssa, 1
  %_65 = lshr i64 %next_run.sroa.0.0, 1
  %43 = add nuw i64 %_65, %scan_idx.sroa.0.0
  br label %bb6

bb18:                                             ; preds = %bb17
  %_99 = and i64 %prev_run.sroa.0.1.lcssa, 1
  %_66.not = icmp eq i64 %_99, 0
  br i1 %_66.not, label %bb20, label %bb21

bb20:                                             ; preds = %bb18
  %self.i53 = or i64 %v.1, 1
  %44 = tail call range(i64 3, 64) i64 @llvm.ctlz.i64(i64 %self.i53, i1 true)
  %45 = trunc nuw nsw i64 %44 to i32
  %log.i54 = shl nuw nsw i32 %45, 1
  %limit.i55 = xor i32 %log.i54, 126
; call core::slice::sort::stable::quicksort::quicksort
  tail call void @_ZN4core5slice4sort6stable9quicksort9quicksort17h6c1ff9bca1b551deE(ptr noalias noundef nonnull align 4 %v.0, i64 noundef range(i64 0, 2305843009213693952) %v.1, ptr noalias noundef nonnull align 4 %scratch.0, i64 noundef range(i64 0, 2305843009213693952) %scratch.1, i32 noundef %limit.i55, ptr noalias noundef readonly align 4 captures(address, read_provenance) dereferenceable_or_null(4) null, ptr noalias noundef nonnull align 8 dereferenceable(8) %is_less) #24
  br label %bb21

bb21:                                             ; preds = %bb20, %bb18
  call void @llvm.lifetime.end.p0(i64 66, ptr nonnull %desired_depth_storage)
  call void @llvm.lifetime.end.p0(i64 528, ptr nonnull %run_storage)
  br label %bb22

bb22:                                             ; preds = %start, %bb21
  ret void
}

; core::slice::sort::stable::drift::sort
; Function Attrs: nonlazybind uwtable
define internal fastcc void @_ZN4core5slice4sort6stable5drift4sort17hbd75ce168a8b00beE(ptr noalias noundef nonnull align 4 %v.0, i64 noundef range(i64 0, 2305843009213693952) %v.1, ptr noalias noundef nonnull align 4 %scratch.0, i64 noundef range(i64 0, 2305843009213693952) %scratch.1, i1 noundef zeroext %eager_sort, ptr noalias noundef nonnull align 8 dereferenceable(8) %is_less) unnamed_addr #0 personality ptr @rust_eh_personality {
start:
  %desired_depth_storage = alloca [66 x i8], align 1
  %run_storage = alloca [528 x i8], align 8
  %_6 = icmp samesign ult i64 %v.1, 2
  br i1 %_6, label %bb22, label %bb2

bb2:                                              ; preds = %start
  %d = udiv i64 4611686018427387904, %v.1
  %r = urem i64 4611686018427387904, %v.1
  %_73.not = icmp ne i64 %r, 0
  %0 = zext i1 %_73.not to i64
  %scale_factor.sroa.0.0 = add nuw nsw i64 %d, %0
  %_9 = icmp samesign ult i64 %v.1, 4097
  br i1 %_9, label %bb3, label %bb4

bb4:                                              ; preds = %bb2
; call core::slice::sort::stable::drift::sqrt_approx
  %1 = tail call noundef i64 @_ZN4core5slice4sort6stable5drift11sqrt_approx17h72a4dc1ae46294f4E(i64 noundef %v.1)
  br label %bb5

bb3:                                              ; preds = %bb2
  %_1135 = lshr i64 %v.1, 1
  %v1 = sub nsw i64 %v.1, %_1135
  %_0.sroa.0.0.i36 = tail call noundef i64 @llvm.umin.i64(i64 %v1, i64 64)
  br label %bb5

bb5:                                              ; preds = %bb3, %bb4
  %min_good_run_len.sroa.0.0 = phi i64 [ %_0.sroa.0.0.i36, %bb3 ], [ %1, %bb4 ]
  call void @llvm.lifetime.start.p0(i64 528, ptr nonnull %run_storage)
  call void @llvm.lifetime.start.p0(i64 66, ptr nonnull %desired_depth_storage)
  %_13.not.i97 = icmp ugt i64 %min_good_run_len.sroa.0.0, 2
  %_13.not.i103 = icmp ugt i64 %min_good_run_len.sroa.0.0, 2
  br label %bb6

bb6:                                              ; preds = %bb19, %bb5
  %prev_run.sroa.0.0 = phi i64 [ 1, %bb5 ], [ %next_run.sroa.0.0, %bb19 ]
  %scan_idx.sroa.0.0 = phi i64 [ 0, %bb5 ], [ %36, %bb19 ]
  %stack_len.sroa.0.0 = phi i64 [ 0, %bb5 ], [ %35, %bb19 ]
  %_22 = icmp ult i64 %scan_idx.sroa.0.0, %v.1
  br i1 %_22, label %bb30, label %bb10

bb10:                                             ; preds = %bb6, %_ZN4core5slice4sort6stable5drift10create_run17hbbfd8747b9c4bcecE.exit
  %desired_depth.sroa.0.0 = phi i8 [ %18, %_ZN4core5slice4sort6stable5drift10create_run17hbbfd8747b9c4bcecE.exit ], [ 0, %bb6 ]
  %next_run.sroa.0.0 = phi i64 [ %_0.sroa.0.0.i40, %_ZN4core5slice4sort6stable5drift10create_run17hbbfd8747b9c4bcecE.exit ], [ 1, %bb6 ]
  %_3782 = icmp ugt i64 %stack_len.sroa.0.0, 1
  br i1 %_3782, label %bb12.lr.ph, label %bb17

bb12.lr.ph:                                       ; preds = %bb10
  %v_end.i = getelementptr inbounds nuw i32, ptr %v.0, i64 %scan_idx.sroa.0.0
  br label %bb12

bb30:                                             ; preds = %bb6
  %new_len = sub nuw nsw i64 %v.1, %scan_idx.sroa.0.0
  %_82 = getelementptr inbounds nuw i32, ptr %v.0, i64 %scan_idx.sroa.0.0
  %_7.not.i = icmp ult i64 %new_len, %min_good_run_len.sroa.0.0
  br i1 %_7.not.i, label %bb7.i41, label %bb1.i

bb7.i41:                                          ; preds = %_ZN4core5slice4sort6shared17find_existing_run17h947aa8c82f09aabbE.exit.i.thread100, %_ZN4core5slice4sort6shared17find_existing_run17h947aa8c82f09aabbE.exit.i.thread, %_ZN4core5slice4sort6shared17find_existing_run17h947aa8c82f09aabbE.exit.i, %bb30
  br i1 %eager_sort, label %bb16.i43, label %bb11.i42

bb1.i:                                            ; preds = %bb30
  %_4.i.i = icmp samesign ult i64 %new_len, 2
  br i1 %_4.i.i, label %bb5.i38, label %bb2.i.i

bb2.i.i:                                          ; preds = %bb1.i
  %_28.i.i = getelementptr inbounds nuw i8, ptr %_82, i64 4
  tail call void @llvm.experimental.noalias.scope.decl(metadata !745)
  tail call void @llvm.experimental.noalias.scope.decl(metadata !748)
  tail call void @llvm.experimental.noalias.scope.decl(metadata !750), !noalias !753
  tail call void @llvm.experimental.noalias.scope.decl(metadata !756), !noalias !753
  tail call void @llvm.experimental.noalias.scope.decl(metadata !758), !noalias !753
  tail call void @llvm.experimental.noalias.scope.decl(metadata !761), !noalias !753
  %_3.i.i.i61 = load i32, ptr %_28.i.i, align 4, !alias.scope !763, !noalias !764, !noundef !18
  %_4.i.i.i62 = load i32, ptr %_82, align 4, !alias.scope !765, !noalias !766, !noundef !18
  %_0.i63 = icmp slt i32 %_3.i.i.i61, %_4.i.i.i62
  %_10.i.i78.not = icmp eq i64 %new_len, 2
  br i1 %_0.i63, label %bb4.i.i.preheader, label %bb11.i.i.preheader

bb11.i.i.preheader:                               ; preds = %bb2.i.i
  br i1 %_10.i.i78.not, label %_ZN4core5slice4sort6shared17find_existing_run17h947aa8c82f09aabbE.exit.i.thread, label %bb12.i.i

bb4.i.i.preheader:                                ; preds = %bb2.i.i
  br i1 %_10.i.i78.not, label %_ZN4core5slice4sort6shared17find_existing_run17h947aa8c82f09aabbE.exit.i.thread100, label %bb5.i.i

bb12.i.i:                                         ; preds = %bb11.i.i.preheader, %bb15.i.i
  %_4.i.i.i59 = phi i32 [ %_3.i.i.i58, %bb15.i.i ], [ %_3.i.i.i61, %bb11.i.i.preheader ]
  %run_len.sroa.0.0.i.i76 = phi i64 [ %3, %bb15.i.i ], [ 2, %bb11.i.i.preheader ]
  %2 = getelementptr inbounds nuw i32, ptr %_82, i64 %run_len.sroa.0.0.i.i76
  %_3.i.i.i58 = load i32, ptr %2, align 4, !alias.scope !767, !noalias !774, !noundef !18
  %_0.i60 = icmp slt i32 %_3.i.i.i58, %_4.i.i.i59
  br i1 %_0.i60, label %_ZN4core5slice4sort6shared17find_existing_run17h947aa8c82f09aabbE.exit.i, label %bb15.i.i

bb15.i.i:                                         ; preds = %bb12.i.i
  %3 = add nuw i64 %run_len.sroa.0.0.i.i76, 1
  %exitcond.not = icmp eq i64 %3, %new_len
  br i1 %exitcond.not, label %_ZN4core5slice4sort6shared17find_existing_run17h947aa8c82f09aabbE.exit.i, label %bb12.i.i

bb5.i.i:                                          ; preds = %bb4.i.i.preheader, %bb7.i.i
  %_4.i.i.i = phi i32 [ %_3.i.i.i, %bb7.i.i ], [ %_3.i.i.i61, %bb4.i.i.preheader ]
  %run_len.sroa.0.1.i.i79 = phi i64 [ %5, %bb7.i.i ], [ 2, %bb4.i.i.preheader ]
  %4 = getelementptr inbounds nuw i32, ptr %_82, i64 %run_len.sroa.0.1.i.i79
  %_3.i.i.i = load i32, ptr %4, align 4, !alias.scope !778, !noalias !785, !noundef !18
  %_0.i = icmp slt i32 %_3.i.i.i, %_4.i.i.i
  br i1 %_0.i, label %bb7.i.i, label %_ZN4core5slice4sort6shared17find_existing_run17h947aa8c82f09aabbE.exit.i

bb7.i.i:                                          ; preds = %bb5.i.i
  %5 = add nuw i64 %run_len.sroa.0.1.i.i79, 1
  %exitcond92.not = icmp eq i64 %5, %new_len
  br i1 %exitcond92.not, label %_ZN4core5slice4sort6shared17find_existing_run17h947aa8c82f09aabbE.exit.i, label %bb5.i.i

_ZN4core5slice4sort6shared17find_existing_run17h947aa8c82f09aabbE.exit.i: ; preds = %bb15.i.i, %bb12.i.i, %bb7.i.i, %bb5.i.i
  %_0.sroa.0.0.i.i = phi i64 [ %new_len, %bb7.i.i ], [ %run_len.sroa.0.1.i.i79, %bb5.i.i ], [ %new_len, %bb15.i.i ], [ %run_len.sroa.0.0.i.i76, %bb12.i.i ]
  %_12.i = icmp samesign ule i64 %_0.sroa.0.0.i.i, %new_len
  tail call void @llvm.assume(i1 %_12.i)
  %_13.not.i = icmp ult i64 %_0.sroa.0.0.i.i, %min_good_run_len.sroa.0.0
  br i1 %_13.not.i, label %bb7.i41, label %bb3.i37

_ZN4core5slice4sort6shared17find_existing_run17h947aa8c82f09aabbE.exit.i.thread100: ; preds = %bb4.i.i.preheader
  br i1 %_13.not.i103, label %bb7.i41, label %bb5.preheader.i.i

_ZN4core5slice4sort6shared17find_existing_run17h947aa8c82f09aabbE.exit.i.thread: ; preds = %bb11.i.i.preheader
  br i1 %_13.not.i97, label %bb7.i41, label %bb5.i38

bb3.i37:                                          ; preds = %_ZN4core5slice4sort6shared17find_existing_run17h947aa8c82f09aabbE.exit.i
  br i1 %_0.i63, label %bb14.i, label %bb5.i38

bb11.i42:                                         ; preds = %bb7.i41
  %_0.sroa.0.0.i57 = tail call noundef i64 @llvm.umin.i64(i64 range(i64 0, 2305843009213693952) %new_len, i64 %min_good_run_len.sroa.0.0)
  %_36.i = shl nuw nsw i64 %_0.sroa.0.0.i57, 1
  br label %_ZN4core5slice4sort6stable5drift10create_run17hbbfd8747b9c4bcecE.exit

bb16.i43:                                         ; preds = %bb7.i41
  %_0.sroa.0.0.i56 = tail call noundef i64 @llvm.umin.i64(i64 range(i64 0, 2305843009213693952) %new_len, i64 32)
; call core::slice::sort::stable::quicksort::quicksort
  tail call void @_ZN4core5slice4sort6stable9quicksort9quicksort17hf41fb6ada53877c9E(ptr noalias noundef nonnull align 4 %_82, i64 noundef %_0.sroa.0.0.i56, ptr noalias noundef nonnull align 4 %scratch.0, i64 noundef range(i64 0, 2305843009213693952) %scratch.1, i32 noundef 0, ptr noalias noundef readonly align 4 captures(address, read_provenance) dereferenceable_or_null(4) null, ptr noalias noundef nonnull align 8 dereferenceable(8) %is_less) #24
  %_35.i = shl nuw nsw i64 %_0.sroa.0.0.i56, 1
  %_34.i = or disjoint i64 %_35.i, 1
  br label %_ZN4core5slice4sort6stable5drift10create_run17hbbfd8747b9c4bcecE.exit

bb5.i38:                                          ; preds = %bb6.i.i, %middle.block, %_ZN4core5slice4sort6shared17find_existing_run17h947aa8c82f09aabbE.exit.i.thread, %bb1.i, %bb14.i, %bb3.i37
  %_0.sroa.0.0.i.i6972 = phi i64 [ %_0.sroa.0.0.i.i, %bb3.i37 ], [ 1, %bb14.i ], [ %new_len, %bb1.i ], [ 2, %_ZN4core5slice4sort6shared17find_existing_run17h947aa8c82f09aabbE.exit.i.thread ], [ %_0.sroa.0.0.i.i98106110, %middle.block ], [ %_0.sroa.0.0.i.i98106110, %bb6.i.i ]
  %_27.i = shl nuw nsw i64 %_0.sroa.0.0.i.i6972, 1
  %_26.i = or disjoint i64 %_27.i, 1
  br label %_ZN4core5slice4sort6stable5drift10create_run17hbbfd8747b9c4bcecE.exit

bb14.i:                                           ; preds = %bb3.i37
  %half_len2.i = lshr i64 %_0.sroa.0.0.i.i, 1
  tail call void @llvm.experimental.noalias.scope.decl(metadata !789), !noalias !792
  tail call void @llvm.experimental.noalias.scope.decl(metadata !794), !noalias !792
  %_915.not.i.i = icmp samesign ult i64 %_0.sroa.0.0.i.i, 2
  br i1 %_915.not.i.i, label %bb5.i38, label %bb5.preheader.i.i

bb5.preheader.i.i:                                ; preds = %_ZN4core5slice4sort6shared17find_existing_run17h947aa8c82f09aabbE.exit.i.thread100, %bb14.i
  %half_len2.i111 = phi i64 [ %half_len2.i, %bb14.i ], [ 1, %_ZN4core5slice4sort6shared17find_existing_run17h947aa8c82f09aabbE.exit.i.thread100 ]
  %_0.sroa.0.0.i.i98106110 = phi i64 [ %_0.sroa.0.0.i.i, %bb14.i ], [ 2, %_ZN4core5slice4sort6shared17find_existing_run17h947aa8c82f09aabbE.exit.i.thread100 ]
  %end.i = getelementptr inbounds nuw i32, ptr %_82, i64 %_0.sroa.0.0.i.i98106110
  %min.iters.check = icmp samesign ult i64 %half_len2.i111, 8
  br i1 %min.iters.check, label %bb6.i.i.preheader, label %vector.ph

vector.ph:                                        ; preds = %bb5.preheader.i.i
  %n.vec = and i64 %half_len2.i111, 9223372036854775800
  br label %vector.body

vector.body:                                      ; preds = %vector.body, %vector.ph
  %index = phi i64 [ 0, %vector.ph ], [ %index.next, %vector.body ]
  %6 = xor i64 %index, -1
  %7 = getelementptr inbounds nuw i32, ptr %_82, i64 %index
  %8 = getelementptr i32, ptr %end.i, i64 %6
  %9 = getelementptr inbounds nuw i8, ptr %7, i64 16
  %wide.load = load <4 x i32>, ptr %7, align 4, !alias.scope !796, !noalias !799
  %wide.load118 = load <4 x i32>, ptr %9, align 4, !alias.scope !796, !noalias !799
  %10 = getelementptr i8, ptr %8, i64 -12
  %11 = getelementptr i8, ptr %8, i64 -28
  %wide.load119 = load <4 x i32>, ptr %10, align 4, !alias.scope !800, !noalias !801
  %reverse = shufflevector <4 x i32> %wide.load119, <4 x i32> poison, <4 x i32> <i32 3, i32 2, i32 1, i32 0>
  %wide.load120 = load <4 x i32>, ptr %11, align 4, !alias.scope !800, !noalias !801
  %reverse121 = shufflevector <4 x i32> %wide.load120, <4 x i32> poison, <4 x i32> <i32 3, i32 2, i32 1, i32 0>
  store <4 x i32> %reverse, ptr %7, align 4, !alias.scope !796, !noalias !799
  store <4 x i32> %reverse121, ptr %9, align 4, !alias.scope !796, !noalias !799
  %reverse122 = shufflevector <4 x i32> %wide.load, <4 x i32> poison, <4 x i32> <i32 3, i32 2, i32 1, i32 0>
  store <4 x i32> %reverse122, ptr %10, align 4, !alias.scope !800, !noalias !801
  %reverse123 = shufflevector <4 x i32> %wide.load118, <4 x i32> poison, <4 x i32> <i32 3, i32 2, i32 1, i32 0>
  store <4 x i32> %reverse123, ptr %11, align 4, !alias.scope !800, !noalias !801
  %index.next = add nuw i64 %index, 8
  %12 = icmp eq i64 %index.next, %n.vec
  br i1 %12, label %middle.block, label %vector.body, !llvm.loop !802

middle.block:                                     ; preds = %vector.body
  %cmp.n = icmp eq i64 %half_len2.i111, %n.vec
  br i1 %cmp.n, label %bb5.i38, label %bb6.i.i.preheader

bb6.i.i.preheader:                                ; preds = %bb5.preheader.i.i, %middle.block
  %i.sroa.0.016.i.i.ph = phi i64 [ 0, %bb5.preheader.i.i ], [ %n.vec, %middle.block ]
  br label %bb6.i.i

bb6.i.i:                                          ; preds = %bb6.i.i.preheader, %bb6.i.i
  %i.sroa.0.016.i.i = phi i64 [ %16, %bb6.i.i ], [ %i.sroa.0.016.i.i.ph, %bb6.i.i.preheader ]
  %13 = xor i64 %i.sroa.0.016.i.i, -1
  %x.i.i = getelementptr inbounds nuw i32, ptr %_82, i64 %i.sroa.0.016.i.i
  %y.i.i = getelementptr i32, ptr %end.i, i64 %13
  %14 = load i32, ptr %x.i.i, align 4, !alias.scope !796, !noalias !799, !noundef !18
  %15 = load i32, ptr %y.i.i, align 4, !alias.scope !800, !noalias !801
  store i32 %15, ptr %x.i.i, align 4, !alias.scope !796, !noalias !799
  store i32 %14, ptr %y.i.i, align 4, !alias.scope !800, !noalias !801
  %16 = add nuw nsw i64 %i.sroa.0.016.i.i, 1
  %exitcond.not.i.i = icmp eq i64 %16, %half_len2.i111
  br i1 %exitcond.not.i.i, label %bb5.i38, label %bb6.i.i, !llvm.loop !803

_ZN4core5slice4sort6stable5drift10create_run17hbbfd8747b9c4bcecE.exit: ; preds = %bb11.i42, %bb16.i43, %bb5.i38
  %_0.sroa.0.0.i40 = phi i64 [ %_26.i, %bb5.i38 ], [ %_34.i, %bb16.i43 ], [ %_36.i, %bb11.i42 ]
  %_31 = lshr i64 %prev_run.sroa.0.0, 1
  %_35 = lshr i64 %_0.sroa.0.0.i40, 1
  %factor = shl i64 %scan_idx.sroa.0.0, 1
  %x = sub i64 %factor, %_31
  %y = add i64 %_35, %factor
  %_90 = mul i64 %x, %scale_factor.sroa.0.0
  %_91 = mul i64 %y, %scale_factor.sroa.0.0
  %self4 = xor i64 %_91, %_90
  %17 = tail call range(i64 0, 65) i64 @llvm.ctlz.i64(i64 %self4, i1 false)
  %18 = trunc nuw nsw i64 %17 to i8
  br label %bb10

bb12:                                             ; preds = %bb12.lr.ph, %_ZN4core5slice4sort6stable5drift13logical_merge17h20c1c10783fa17bdE.exit
  %stack_len.sroa.0.184 = phi i64 [ %stack_len.sroa.0.0, %bb12.lr.ph ], [ %count, %_ZN4core5slice4sort6stable5drift13logical_merge17h20c1c10783fa17bdE.exit ]
  %prev_run.sroa.0.183 = phi i64 [ %prev_run.sroa.0.0, %bb12.lr.ph ], [ %_0.sroa.0.0.i, %_ZN4core5slice4sort6stable5drift13logical_merge17h20c1c10783fa17bdE.exit ]
  %count = add i64 %stack_len.sroa.0.184, -1
  %_41 = getelementptr inbounds nuw i8, ptr %desired_depth_storage, i64 %count
  %_40 = load i8, ptr %_41, align 1, !noundef !18
  %_39.not = icmp ult i8 %_40, %desired_depth.sroa.0.0
  br i1 %_39.not, label %bb17, label %bb13

bb17:                                             ; preds = %_ZN4core5slice4sort6stable5drift13logical_merge17h20c1c10783fa17bdE.exit, %bb12, %bb10
  %prev_run.sroa.0.1.lcssa = phi i64 [ %prev_run.sroa.0.0, %bb10 ], [ %prev_run.sroa.0.183, %bb12 ], [ %_0.sroa.0.0.i, %_ZN4core5slice4sort6stable5drift13logical_merge17h20c1c10783fa17bdE.exit ]
  %stack_len.sroa.0.1.lcssa = phi i64 [ %stack_len.sroa.0.0, %bb10 ], [ %stack_len.sroa.0.184, %bb12 ], [ 1, %_ZN4core5slice4sort6stable5drift13logical_merge17h20c1c10783fa17bdE.exit ]
  %_59 = getelementptr inbounds nuw i64, ptr %run_storage, i64 %stack_len.sroa.0.1.lcssa
  store i64 %prev_run.sroa.0.1.lcssa, ptr %_59, align 8
  %_61 = getelementptr inbounds nuw i8, ptr %desired_depth_storage, i64 %stack_len.sroa.0.1.lcssa
  store i8 %desired_depth.sroa.0.0, ptr %_61, align 1
  br i1 %_22, label %bb19, label %bb18

bb13:                                             ; preds = %bb12
  %_46 = getelementptr inbounds nuw i64, ptr %run_storage, i64 %count
  %left10 = load i64, ptr %_46, align 8, !noundef !18
  %_50 = lshr i64 %left10, 1
  %_51 = lshr i64 %prev_run.sroa.0.183, 1
  %merged_len = add nuw i64 %_50, %_51
  %merge_start_idx = sub i64 %scan_idx.sroa.0.0, %merged_len
  %_98 = getelementptr inbounds nuw i32, ptr %v.0, i64 %merge_start_idx
  %can_fit_in_scratch.i = icmp samesign ugt i64 %merged_len, %scratch.1
  %_22.i = and i64 %prev_run.sroa.0.183, 1
  %_10.not.i = icmp eq i64 %_22.i, 0
  %19 = or i64 %left10, %prev_run.sroa.0.183
  %20 = and i64 %19, 1
  %21 = icmp ne i64 %20, 0
  %or.cond2.i = or i1 %can_fit_in_scratch.i, %21
  br i1 %or.cond2.i, label %bb3.i, label %bb9.i

bb3.i:                                            ; preds = %bb13
  %_21.i = and i64 %left10, 1
  %_9.not.i = icmp eq i64 %_21.i, 0
  br i1 %_9.not.i, label %bb11.i, label %bb5.i

bb9.i:                                            ; preds = %bb13
  %_40.i = shl nuw nsw i64 %merged_len, 1
  br label %_ZN4core5slice4sort6stable5drift13logical_merge17h20c1c10783fa17bdE.exit

bb5.i:                                            ; preds = %bb11.i, %bb3.i
  br i1 %_10.not.i, label %bb16.i, label %bb7.i

bb11.i:                                           ; preds = %bb3.i
  %self.i = or i64 %_50, 1
  %22 = tail call range(i64 3, 64) i64 @llvm.ctlz.i64(i64 %self.i, i1 true)
  %23 = trunc nuw nsw i64 %22 to i32
  %log.i = shl nuw nsw i32 %23, 1
  %limit.i = xor i32 %log.i, 126
; call core::slice::sort::stable::quicksort::quicksort
  tail call void @_ZN4core5slice4sort6stable9quicksort9quicksort17hf41fb6ada53877c9E(ptr noalias noundef nonnull align 4 %_98, i64 noundef range(i64 0, 2305843009213693952) %_50, ptr noalias noundef nonnull align 4 %scratch.0, i64 noundef range(i64 0, 2305843009213693952) %scratch.1, i32 noundef %limit.i, ptr noalias noundef readonly align 4 captures(address, read_provenance) dereferenceable_or_null(4) null, ptr noalias noundef nonnull align 8 dereferenceable(8) %is_less) #24
  br label %bb5.i

bb7.i:                                            ; preds = %bb16.i, %bb5.i
  tail call void @llvm.experimental.noalias.scope.decl(metadata !804)
  tail call void @llvm.experimental.noalias.scope.decl(metadata !807)
  %_6.i = icmp ult i64 %left10, 2
  %_7.i = icmp ult i64 %prev_run.sroa.0.183, 2
  %or.cond.i = select i1 %_6.i, i1 true, i1 %_7.i
  br i1 %or.cond.i, label %_ZN4core5slice4sort6stable5merge5merge17ha398925cfe361572E.exit, label %bb2.i

bb2.i:                                            ; preds = %bb7.i
  %_0.sroa.0.0.i.i44 = tail call i64 @llvm.umin.i64(i64 %_51, i64 range(i64 0, -9223372036854775808) %_50)
  %_8.i = icmp samesign ult i64 %scratch.1, %_0.sroa.0.0.i.i44
  br i1 %_8.i, label %_ZN4core5slice4sort6stable5merge5merge17ha398925cfe361572E.exit, label %bb5.i45

bb5.i45:                                          ; preds = %bb2.i
  %v_mid.i = getelementptr inbounds nuw i32, ptr %_98, i64 %_50
  %left_is_shorter.not.i = icmp samesign ugt i64 %_50, %_51
  %spec.select.i = select i1 %left_is_shorter.not.i, ptr %v_mid.i, ptr %_98
  %24 = shl nuw nsw i64 %_0.sroa.0.0.i.i44, 2
  tail call void @llvm.memcpy.p0.p0.i64(ptr nonnull align 4 %scratch.0, ptr nonnull align 4 %spec.select.i, i64 %24, i1 false), !alias.scope !809
  %_22.i46 = getelementptr inbounds nuw i8, ptr %scratch.0, i64 %24
  br i1 %left_is_shorter.not.i, label %bb1.i.i, label %bb3.i.i

bb1.i.i:                                          ; preds = %bb5.i45, %bb1.i.i
  %_2110.i.i = phi ptr [ %_21.i.i49, %bb1.i.i ], [ %_22.i46, %bb5.i45 ]
  %_188.i.i = phi ptr [ %_18.i.i, %bb1.i.i ], [ %v_mid.i, %bb5.i45 ]
  %out.sroa.0.0.i.i = phi ptr [ %27, %bb1.i.i ], [ %v_end.i, %bb5.i45 ]
  %25 = getelementptr inbounds i8, ptr %_188.i.i, i64 -4
  %26 = getelementptr inbounds i8, ptr %_2110.i.i, i64 -4
  %27 = getelementptr inbounds i8, ptr %out.sroa.0.0.i.i, i64 -4
  tail call void @llvm.experimental.noalias.scope.decl(metadata !810)
  tail call void @llvm.experimental.noalias.scope.decl(metadata !813)
  tail call void @llvm.experimental.noalias.scope.decl(metadata !815)
  tail call void @llvm.experimental.noalias.scope.decl(metadata !818)
  tail call void @llvm.experimental.noalias.scope.decl(metadata !820)
  tail call void @llvm.experimental.noalias.scope.decl(metadata !823)
  %_3.i.i.i.i.i = load i32, ptr %26, align 4, !alias.scope !825, !noalias !826, !noundef !18
  %_4.i.i.i.i.i = load i32, ptr %25, align 4, !alias.scope !829, !noalias !830, !noundef !18
  %_0.i.i.i = icmp slt i32 %_3.i.i.i.i.i, %_4.i.i.i.i.i
  %28 = tail call i32 @llvm.smax.i32(i32 %_3.i.i.i.i.i, i32 %_4.i.i.i.i.i)
  store i32 %28, ptr %27, align 4, !alias.scope !804, !noalias !831
  %_20.i.i = xor i1 %_0.i.i.i, true
  %count.i.i = zext i1 %_20.i.i to i64
  %_18.i.i = getelementptr inbounds nuw i32, ptr %25, i64 %count.i.i
  %count4.i.i = zext i1 %_0.i.i.i to i64
  %_21.i.i49 = getelementptr inbounds nuw i32, ptr %26, i64 %count4.i.i
  %_23.i.i = icmp eq ptr %_18.i.i, %_98
  %_26.i.i = icmp eq ptr %_21.i.i49, %scratch.0
  %or.cond.i.i = select i1 %_23.i.i, i1 true, i1 %_26.i.i
  br i1 %or.cond.i.i, label %bb16.i48, label %bb1.i.i

bb3.i.i:                                          ; preds = %bb5.i45, %bb3.i.i
  %_2511.i.i = phi ptr [ %_25.i.i, %bb3.i.i ], [ %_98, %bb5.i45 ]
  %right.sroa.0.010.i.i = phi ptr [ %_23.i17.i, %bb3.i.i ], [ %v_mid.i, %bb5.i45 ]
  %_2059.i.i = phi ptr [ %_20.i16.i, %bb3.i.i ], [ %scratch.0, %bb5.i45 ]
  tail call void @llvm.experimental.noalias.scope.decl(metadata !832)
  tail call void @llvm.experimental.noalias.scope.decl(metadata !835)
  tail call void @llvm.experimental.noalias.scope.decl(metadata !837)
  tail call void @llvm.experimental.noalias.scope.decl(metadata !840)
  tail call void @llvm.experimental.noalias.scope.decl(metadata !842)
  tail call void @llvm.experimental.noalias.scope.decl(metadata !845)
  %_3.i.i.i.i12.i = load i32, ptr %right.sroa.0.010.i.i, align 4, !alias.scope !847, !noalias !848, !noundef !18
  %_4.i.i.i.i13.i = load i32, ptr %_2059.i.i, align 4, !alias.scope !851, !noalias !852, !noundef !18
  %_0.i.i14.i = icmp slt i32 %_3.i.i.i.i12.i, %_4.i.i.i.i13.i
  %consume_left.i.i = xor i1 %_0.i.i14.i, true
  %29 = tail call i32 @llvm.smin.i32(i32 %_3.i.i.i.i12.i, i32 %_4.i.i.i.i13.i)
  store i32 %29, ptr %_2511.i.i, align 4, !alias.scope !804, !noalias !853
  %count.i15.i = zext i1 %consume_left.i.i to i64
  %_20.i16.i = getelementptr inbounds nuw i32, ptr %_2059.i.i, i64 %count.i15.i
  %count2.i.i = zext i1 %_0.i.i14.i to i64
  %_23.i17.i = getelementptr inbounds nuw i32, ptr %right.sroa.0.010.i.i, i64 %count2.i.i
  %_25.i.i = getelementptr inbounds nuw i8, ptr %_2511.i.i, i64 4
  %_7.i.i = icmp ne ptr %_20.i16.i, %_22.i46
  %_10.i.i47 = icmp ne ptr %_23.i17.i, %v_end.i
  %or.cond.i18.i = select i1 %_7.i.i, i1 %_10.i.i47, i1 false
  br i1 %or.cond.i18.i, label %bb3.i.i, label %bb16.i48

bb16.i48:                                         ; preds = %bb3.i.i, %bb1.i.i
  %merge_state.sroa.13.0.i = phi ptr [ %_18.i.i, %bb1.i.i ], [ %_25.i.i, %bb3.i.i ]
  %merge_state.sroa.7.0.i = phi ptr [ %_21.i.i49, %bb1.i.i ], [ %_22.i46, %bb3.i.i ]
  %merge_state.sroa.0.0.i = phi ptr [ %scratch.0, %bb1.i.i ], [ %_20.i16.i, %bb3.i.i ]
  %30 = ptrtoint ptr %merge_state.sroa.7.0.i to i64
  %31 = ptrtoint ptr %merge_state.sroa.0.0.i to i64
  %32 = sub nuw i64 %30, %31
  tail call void @llvm.memcpy.p0.p0.i64(ptr nonnull align 4 %merge_state.sroa.13.0.i, ptr align 4 %merge_state.sroa.0.0.i, i64 %32, i1 false), !alias.scope !809, !noalias !854
  br label %_ZN4core5slice4sort6stable5merge5merge17ha398925cfe361572E.exit

_ZN4core5slice4sort6stable5merge5merge17ha398925cfe361572E.exit: ; preds = %bb7.i, %bb2.i, %bb16.i48
  %_39.i = shl nuw nsw i64 %merged_len, 1
  %_38.i = or disjoint i64 %_39.i, 1
  br label %_ZN4core5slice4sort6stable5drift13logical_merge17h20c1c10783fa17bdE.exit

bb16.i:                                           ; preds = %bb5.i
  %_37.i = getelementptr inbounds nuw i32, ptr %_98, i64 %_50
  %self.i50 = or i64 %_51, 1
  %33 = tail call range(i64 3, 64) i64 @llvm.ctlz.i64(i64 %self.i50, i1 true)
  %34 = trunc nuw nsw i64 %33 to i32
  %log.i51 = shl nuw nsw i32 %34, 1
  %limit.i52 = xor i32 %log.i51, 126
; call core::slice::sort::stable::quicksort::quicksort
  tail call void @_ZN4core5slice4sort6stable9quicksort9quicksort17hf41fb6ada53877c9E(ptr noalias noundef nonnull align 4 %_37.i, i64 noundef range(i64 0, 2305843009213693952) %_51, ptr noalias noundef nonnull align 4 %scratch.0, i64 noundef range(i64 0, 2305843009213693952) %scratch.1, i32 noundef %limit.i52, ptr noalias noundef readonly align 4 captures(address, read_provenance) dereferenceable_or_null(4) null, ptr noalias noundef nonnull align 8 dereferenceable(8) %is_less) #24
  br label %bb7.i

_ZN4core5slice4sort6stable5drift13logical_merge17h20c1c10783fa17bdE.exit: ; preds = %bb9.i, %_ZN4core5slice4sort6stable5merge5merge17ha398925cfe361572E.exit
  %_0.sroa.0.0.i = phi i64 [ %_38.i, %_ZN4core5slice4sort6stable5merge5merge17ha398925cfe361572E.exit ], [ %_40.i, %bb9.i ]
  %_37 = icmp ugt i64 %count, 1
  br i1 %_37, label %bb12, label %bb17

bb19:                                             ; preds = %bb17
  %35 = add i64 %stack_len.sroa.0.1.lcssa, 1
  %_65 = lshr i64 %next_run.sroa.0.0, 1
  %36 = add nuw i64 %_65, %scan_idx.sroa.0.0
  br label %bb6

bb18:                                             ; preds = %bb17
  %_99 = and i64 %prev_run.sroa.0.1.lcssa, 1
  %_66.not = icmp eq i64 %_99, 0
  br i1 %_66.not, label %bb20, label %bb21

bb20:                                             ; preds = %bb18
  %self.i53 = or i64 %v.1, 1
  %37 = tail call range(i64 3, 64) i64 @llvm.ctlz.i64(i64 %self.i53, i1 true)
  %38 = trunc nuw nsw i64 %37 to i32
  %log.i54 = shl nuw nsw i32 %38, 1
  %limit.i55 = xor i32 %log.i54, 126
; call core::slice::sort::stable::quicksort::quicksort
  tail call void @_ZN4core5slice4sort6stable9quicksort9quicksort17hf41fb6ada53877c9E(ptr noalias noundef nonnull align 4 %v.0, i64 noundef range(i64 0, 2305843009213693952) %v.1, ptr noalias noundef nonnull align 4 %scratch.0, i64 noundef range(i64 0, 2305843009213693952) %scratch.1, i32 noundef %limit.i55, ptr noalias noundef readonly align 4 captures(address, read_provenance) dereferenceable_or_null(4) null, ptr noalias noundef nonnull align 8 dereferenceable(8) %is_less) #24
  br label %bb21

bb21:                                             ; preds = %bb20, %bb18
  call void @llvm.lifetime.end.p0(i64 66, ptr nonnull %desired_depth_storage)
  call void @llvm.lifetime.end.p0(i64 528, ptr nonnull %run_storage)
  br label %bb22

bb22:                                             ; preds = %start, %bb21
  ret void
}

; core::slice::sort::stable::quicksort::quicksort
; Function Attrs: noinline nonlazybind uwtable
define void @_ZN4core5slice4sort6stable9quicksort9quicksort17h6c1ff9bca1b551deE(ptr noalias noundef nonnull align 4 %0, i64 noundef range(i64 0, 2305843009213693952) %1, ptr noalias noundef nonnull align 4 %scratch.0, i64 noundef range(i64 0, 2305843009213693952) %scratch.1, i32 noundef %2, ptr noalias noundef readonly align 4 captures(address) dereferenceable_or_null(4) %3, ptr noalias noundef align 8 dereferenceable(8) %is_less) unnamed_addr #2 personality ptr @rust_eh_personality {
start:
  %pivot_copy = alloca [4 x i8], align 4
  %_8194200 = icmp samesign ult i64 %1, 33
  br i1 %_8194200, label %bb3, label %bb5.lr.ph

bb5.lr.ph:                                        ; preds = %start, %bb28
  %v.sroa.0.0.ph204 = phi ptr [ %_54, %bb28 ], [ %0, %start ]
  %v.sroa.16.0.ph203 = phi i64 [ %_63.i67, %bb28 ], [ %1, %start ]
  %limit.sroa.0.0.ph202 = phi i32 [ %29, %bb28 ], [ %2, %start ]
  %left_ancestor_pivot.sroa.0.0.ph201 = phi ptr [ null, %bb28 ], [ %3, %start ]
  %4 = ptrtoint ptr %v.sroa.0.0.ph204 to i64
  %.not = icmp eq ptr %left_ancestor_pivot.sroa.0.0.ph201, null
  br label %bb5

bb5:                                              ; preds = %bb5.lr.ph, %"_ZN4core5slice29_$LT$impl$u20$$u5b$T$u5d$$GT$12split_at_mut17hd9cc43366b0a69c4E.exit"
  %v.sroa.16.0196 = phi i64 [ %v.sroa.16.0.ph203, %bb5.lr.ph ], [ %state.sroa.27.2.lcssa.i, %"_ZN4core5slice29_$LT$impl$u20$$u5b$T$u5d$$GT$12split_at_mut17hd9cc43366b0a69c4E.exit" ]
  %limit.sroa.0.0195 = phi i32 [ %limit.sroa.0.0.ph202, %bb5.lr.ph ], [ %29, %"_ZN4core5slice29_$LT$impl$u20$$u5b$T$u5d$$GT$12split_at_mut17hd9cc43366b0a69c4E.exit" ]
  %_11 = icmp eq i32 %limit.sroa.0.0195, 0
  br i1 %_11, label %bb6, label %bb7

bb3:                                              ; preds = %bb28, %"_ZN4core5slice29_$LT$impl$u20$$u5b$T$u5d$$GT$12split_at_mut17hd9cc43366b0a69c4E.exit", %start
  %v.sroa.0.0.ph.lcssa193 = phi ptr [ %0, %start ], [ %v.sroa.0.0.ph204, %"_ZN4core5slice29_$LT$impl$u20$$u5b$T$u5d$$GT$12split_at_mut17hd9cc43366b0a69c4E.exit" ], [ %_54, %bb28 ]
  %v.sroa.16.0.lcssa = phi i64 [ %1, %start ], [ %state.sroa.27.2.lcssa.i, %"_ZN4core5slice29_$LT$impl$u20$$u5b$T$u5d$$GT$12split_at_mut17hd9cc43366b0a69c4E.exit" ], [ %_63.i67, %bb28 ]
  call void @llvm.experimental.noalias.scope.decl(metadata !859)
  call void @llvm.experimental.noalias.scope.decl(metadata !862)
  %_5.i = icmp samesign ult i64 %v.sroa.16.0.lcssa, 2
  br i1 %_5.i, label %bb22, label %bb2.i

bb2.i:                                            ; preds = %bb3
  %_8.i = add nuw nsw i64 %v.sroa.16.0.lcssa, 16
  %_6.i = icmp samesign ult i64 %scratch.1, %_8.i
  br i1 %_6.i, label %bb3.i, label %bb4.i

bb4.i:                                            ; preds = %bb2.i
  %len_div_211.i = lshr i64 %v.sroa.16.0.lcssa, 1
  %_14.i = icmp samesign ugt i64 %v.sroa.16.0.lcssa, 15
  br i1 %_14.i, label %bb6.i, label %bb9.i

bb3.i:                                            ; preds = %bb2.i
  call void @llvm.trap()
  unreachable

bb9.i:                                            ; preds = %bb4.i
  %_22.i = icmp samesign ugt i64 %v.sroa.16.0.lcssa, 7
  br i1 %_22.i, label %bb10.i, label %bb46.i

bb6.i:                                            ; preds = %bb4.i
  %_16.i = getelementptr inbounds nuw float, ptr %scratch.0, i64 %v.sroa.16.0.lcssa
; call core::slice::sort::shared::smallsort::sort8_stable
  call fastcc void @_ZN4core5slice4sort6shared9smallsort12sort8_stable17hb77e0116e665e416E(ptr noundef nonnull align 4 %v.sroa.0.0.ph.lcssa193, ptr noundef nonnull align 4 %scratch.0, ptr noundef %_16.i)
  %_18.i = getelementptr inbounds nuw float, ptr %v.sroa.0.0.ph.lcssa193, i64 %len_div_211.i
  %_19.i = getelementptr inbounds nuw float, ptr %scratch.0, i64 %len_div_211.i
  %_20.i = getelementptr inbounds nuw i8, ptr %_16.i, i64 32
; call core::slice::sort::shared::smallsort::sort8_stable
  call fastcc void @_ZN4core5slice4sort6shared9smallsort12sort8_stable17hb77e0116e665e416E(ptr noundef %_18.i, ptr noundef %_19.i, ptr noundef %_20.i)
  br label %bb15.i

bb10.i:                                           ; preds = %bb9.i
; call core::slice::sort::shared::smallsort::sort4_stable
  call fastcc void @_ZN4core5slice4sort6shared9smallsort12sort4_stable17hff7d5c64b61890c1E(ptr noundef nonnull align 4 %v.sroa.0.0.ph.lcssa193, ptr noundef nonnull align 4 %scratch.0)
  %_27.i = getelementptr inbounds nuw float, ptr %v.sroa.0.0.ph.lcssa193, i64 %len_div_211.i
  %_28.i = getelementptr inbounds nuw float, ptr %scratch.0, i64 %len_div_211.i
; call core::slice::sort::shared::smallsort::sort4_stable
  call fastcc void @_ZN4core5slice4sort6shared9smallsort12sort4_stable17hff7d5c64b61890c1E(ptr noundef %_27.i, ptr noundef %_28.i)
  br label %bb15.i

bb46.i:                                           ; preds = %bb9.i
  %5 = load i32, ptr %v.sroa.0.0.ph.lcssa193, align 4, !alias.scope !859, !noalias !864
  store i32 %5, ptr %scratch.0, align 4, !alias.scope !862, !noalias !866
  %_31.i = getelementptr inbounds nuw float, ptr %v.sroa.0.0.ph.lcssa193, i64 %len_div_211.i
  %6 = getelementptr inbounds nuw float, ptr %scratch.0, i64 %len_div_211.i
  %7 = load i32, ptr %_31.i, align 4, !alias.scope !859, !noalias !864
  store i32 %7, ptr %6, align 4, !alias.scope !862, !noalias !866
  br label %bb15.i

bb15.i:                                           ; preds = %bb46.i, %bb10.i, %bb6.i
  %presorted_len.sroa.0.0.i = phi i64 [ 8, %bb6.i ], [ 4, %bb10.i ], [ 1, %bb46.i ]
  %8 = sub nsw i64 %v.sroa.16.0.lcssa, %len_div_211.i
  %_8030.i = icmp samesign ult i64 %presorted_len.sroa.0.0.i, %len_div_211.i
  br i1 %_8030.i, label %bb24.preheader.i, label %bb16.loopexit.i

bb16.loopexit.i:                                  ; preds = %_ZN4core5slice4sort6shared9smallsort11insert_tail17h4f7839f268585107E.exit.i, %bb15.i
  %src5.1.i = getelementptr inbounds nuw float, ptr %v.sroa.0.0.ph.lcssa193, i64 %len_div_211.i
  %dst6.1.i = getelementptr float, ptr %scratch.0, i64 %len_div_211.i
  %_8030.1.i = icmp ult i64 %presorted_len.sroa.0.0.i, %8
  br i1 %_8030.1.i, label %bb24.preheader.1.i, label %bb16.loopexit.1.i

bb24.preheader.1.i:                               ; preds = %bb16.loopexit.i
  %iter1.sroa.0.132.1.i = add nuw nsw i64 %presorted_len.sroa.0.0.i, 1
  br label %bb24.1.i

bb24.1.i:                                         ; preds = %_ZN4core5slice4sort6shared9smallsort11insert_tail17h4f7839f268585107E.exit.1.i, %bb24.preheader.1.i
  %iter1.sroa.0.134.1.i = phi i64 [ %iter1.sroa.0.1.1.i, %_ZN4core5slice4sort6shared9smallsort11insert_tail17h4f7839f268585107E.exit.1.i ], [ %iter1.sroa.0.132.1.i, %bb24.preheader.1.i ]
  %iter1.sroa.0.033.1.i = phi i64 [ %iter1.sroa.0.134.1.i, %_ZN4core5slice4sort6shared9smallsort11insert_tail17h4f7839f268585107E.exit.1.i ], [ %presorted_len.sroa.0.0.i, %bb24.preheader.1.i ]
  %_55.1.i = getelementptr inbounds nuw float, ptr %src5.1.i, i64 %iter1.sroa.0.033.1.i
  %dst7.1.i = getelementptr inbounds nuw float, ptr %dst6.1.i, i64 %iter1.sroa.0.033.1.i
  %9 = load i32, ptr %_55.1.i, align 4, !alias.scope !859, !noalias !864
  store i32 %9, ptr %dst7.1.i, align 4, !alias.scope !862, !noalias !866
  %10 = getelementptr inbounds i8, ptr %dst7.1.i, i64 -4
  %_6.i.i.i16.cast.1.i = bitcast i32 %9 to float
  %_7.i.i.i17.1.i = load float, ptr %10, align 4, !alias.scope !867, !noalias !872, !noundef !18
  %brmerge.not.i.i18.1.i = fcmp uno float %_7.i.i.i17.1.i, %_6.i.i.i16.cast.1.i
  br i1 %brmerge.not.i.i18.1.i, label %bb6.i.i.i21.i, label %"_ZN5alloc5slice29_$LT$impl$u20$$u5b$T$u5d$$GT$7sort_by28_$u7b$$u7b$closure$u7d$$u7d$17h47d2093944d38971E.exit.i19.1.i", !prof !21

"_ZN5alloc5slice29_$LT$impl$u20$$u5b$T$u5d$$GT$7sort_by28_$u7b$$u7b$closure$u7d$$u7d$17h47d2093944d38971E.exit.i19.1.i": ; preds = %bb24.1.i
  %_8.i.mux.i.i20.1.i = fcmp ogt float %_7.i.i.i17.1.i, %_6.i.i.i16.cast.1.i
  br i1 %_8.i.mux.i.i20.1.i, label %bb4.i.1.i, label %_ZN4core5slice4sort6shared9smallsort11insert_tail17h4f7839f268585107E.exit.1.i

bb4.i.1.i:                                        ; preds = %"_ZN5alloc5slice29_$LT$impl$u20$$u5b$T$u5d$$GT$7sort_by28_$u7b$$u7b$closure$u7d$$u7d$17h47d2093944d38971E.exit.i19.1.i", %bb7.i.1.i
  %.in.i.1.i = phi float [ %_7.i.i2.i.1.i, %bb7.i.1.i ], [ %_7.i.i.i17.1.i, %"_ZN5alloc5slice29_$LT$impl$u20$$u5b$T$u5d$$GT$7sort_by28_$u7b$$u7b$closure$u7d$$u7d$17h47d2093944d38971E.exit.i19.1.i" ]
  %gap_guard.sroa.5.0.i.1.i = phi ptr [ %sift.sroa.0.0.i.1.i, %bb7.i.1.i ], [ %dst7.1.i, %"_ZN5alloc5slice29_$LT$impl$u20$$u5b$T$u5d$$GT$7sort_by28_$u7b$$u7b$closure$u7d$$u7d$17h47d2093944d38971E.exit.i19.1.i" ]
  %sift.sroa.0.0.i.1.i = phi ptr [ %11, %bb7.i.1.i ], [ %10, %"_ZN5alloc5slice29_$LT$impl$u20$$u5b$T$u5d$$GT$7sort_by28_$u7b$$u7b$closure$u7d$$u7d$17h47d2093944d38971E.exit.i19.1.i" ]
  store float %.in.i.1.i, ptr %gap_guard.sroa.5.0.i.1.i, align 4, !alias.scope !862, !noalias !866
  %_18.i.1.i = icmp eq ptr %sift.sroa.0.0.i.1.i, %dst6.1.i
  br i1 %_18.i.1.i, label %bb10.i.1.i, label %bb6.i.1.i

bb6.i.1.i:                                        ; preds = %bb4.i.1.i
  %11 = getelementptr inbounds i8, ptr %sift.sroa.0.0.i.1.i, i64 -4
  %_7.i.i2.i.1.i = load float, ptr %11, align 4, !alias.scope !875, !noalias !880, !noundef !18
  %brmerge.not.i3.i.1.i = fcmp uno float %_7.i.i2.i.1.i, %_6.i.i.i16.cast.1.i
  br i1 %brmerge.not.i3.i.1.i, label %bb6.i.i5.i.i, label %bb7.i.1.i, !prof !21

bb7.i.1.i:                                        ; preds = %bb6.i.1.i
  %_8.i.mux.i4.i.1.i = fcmp ogt float %_7.i.i2.i.1.i, %_6.i.i.i16.cast.1.i
  br i1 %_8.i.mux.i4.i.1.i, label %bb4.i.1.i, label %bb10.i.1.i

bb10.i.1.i:                                       ; preds = %bb7.i.1.i, %bb4.i.1.i
  %sift.sroa.0.0.i.lcssa.1.i = phi ptr [ %sift.sroa.0.0.i.1.i, %bb7.i.1.i ], [ %dst6.1.i, %bb4.i.1.i ]
  store i32 %9, ptr %sift.sroa.0.0.i.lcssa.1.i, align 4, !alias.scope !862, !noalias !883
  br label %_ZN4core5slice4sort6shared9smallsort11insert_tail17h4f7839f268585107E.exit.1.i

_ZN4core5slice4sort6shared9smallsort11insert_tail17h4f7839f268585107E.exit.1.i: ; preds = %bb10.i.1.i, %"_ZN5alloc5slice29_$LT$impl$u20$$u5b$T$u5d$$GT$7sort_by28_$u7b$$u7b$closure$u7d$$u7d$17h47d2093944d38971E.exit.i19.1.i"
  %_80.1.i = icmp ult i64 %iter1.sroa.0.134.1.i, %8
  %_84.1.i = zext i1 %_80.1.i to i64
  %iter1.sroa.0.1.1.i = add nuw i64 %iter1.sroa.0.134.1.i, %_84.1.i
  br i1 %_80.1.i, label %bb24.1.i, label %bb16.loopexit.1.i

bb16.loopexit.1.i:                                ; preds = %_ZN4core5slice4sort6shared9smallsort11insert_tail17h4f7839f268585107E.exit.1.i, %bb16.loopexit.i
  call void @llvm.experimental.noalias.scope.decl(metadata !888)
  %count1.i.i = add nsw i64 %v.sroa.16.0.lcssa, -1
  %12 = getelementptr inbounds nuw float, ptr %v.sroa.0.0.ph.lcssa193, i64 %count1.i.i
  %13 = getelementptr inbounds nuw float, ptr %scratch.0, i64 %count1.i.i
  %14 = getelementptr i8, ptr %dst6.1.i, i64 -4
  br label %bb15.i.i

bb24.preheader.i:                                 ; preds = %bb15.i
  %iter1.sroa.0.132.i = add nuw nsw i64 %presorted_len.sroa.0.0.i, 1
  br label %bb24.i

bb16.i.i:                                         ; preds = %"_ZN5alloc5slice29_$LT$impl$u20$$u5b$T$u5d$$GT$7sort_by28_$u7b$$u7b$closure$u7d$$u7d$17h47d2093944d38971E.exit24.i.i"
  %15 = getelementptr i8, ptr %20, i64 4
  %16 = getelementptr i8, ptr %19, i64 4
  %_44.i.i = and i64 %v.sroa.16.0.lcssa, 1
  %_22.i.i = icmp eq i64 %_44.i.i, 0
  br i1 %_22.i.i, label %bb9.i.i, label %bb5.i.i

bb15.i.i:                                         ; preds = %"_ZN5alloc5slice29_$LT$impl$u20$$u5b$T$u5d$$GT$7sort_by28_$u7b$$u7b$closure$u7d$$u7d$17h47d2093944d38971E.exit24.i.i", %bb16.loopexit.1.i
  %dst.sroa.0.042.i.i = phi ptr [ %_16.i.i.i, %"_ZN5alloc5slice29_$LT$impl$u20$$u5b$T$u5d$$GT$7sort_by28_$u7b$$u7b$closure$u7d$$u7d$17h47d2093944d38971E.exit24.i.i" ], [ %v.sroa.0.0.ph.lcssa193, %bb16.loopexit.1.i ]
  %iter.sroa.0.041.i.i = phi i64 [ %_39.i.i, %"_ZN5alloc5slice29_$LT$impl$u20$$u5b$T$u5d$$GT$7sort_by28_$u7b$$u7b$closure$u7d$$u7d$17h47d2093944d38971E.exit24.i.i" ], [ 0, %bb16.loopexit.1.i ]
  %left.sroa.0.040.i.i = phi ptr [ %_14.i.i.i, %"_ZN5alloc5slice29_$LT$impl$u20$$u5b$T$u5d$$GT$7sort_by28_$u7b$$u7b$closure$u7d$$u7d$17h47d2093944d38971E.exit24.i.i" ], [ %scratch.0, %bb16.loopexit.1.i ]
  %right.sroa.0.039.i.i = phi ptr [ %_12.i.i.i, %"_ZN5alloc5slice29_$LT$impl$u20$$u5b$T$u5d$$GT$7sort_by28_$u7b$$u7b$closure$u7d$$u7d$17h47d2093944d38971E.exit24.i.i" ], [ %dst6.1.i, %bb16.loopexit.1.i ]
  %left_rev.sroa.0.038.i.i = phi ptr [ %20, %"_ZN5alloc5slice29_$LT$impl$u20$$u5b$T$u5d$$GT$7sort_by28_$u7b$$u7b$closure$u7d$$u7d$17h47d2093944d38971E.exit24.i.i" ], [ %14, %bb16.loopexit.1.i ]
  %right_rev.sroa.0.037.i.i = phi ptr [ %19, %"_ZN5alloc5slice29_$LT$impl$u20$$u5b$T$u5d$$GT$7sort_by28_$u7b$$u7b$closure$u7d$$u7d$17h47d2093944d38971E.exit24.i.i" ], [ %13, %bb16.loopexit.1.i ]
  %dst_rev.sroa.0.036.i.i = phi ptr [ %21, %"_ZN5alloc5slice29_$LT$impl$u20$$u5b$T$u5d$$GT$7sort_by28_$u7b$$u7b$closure$u7d$$u7d$17h47d2093944d38971E.exit24.i.i" ], [ %12, %bb16.loopexit.1.i ]
  %_39.i.i = add nuw nsw i64 %iter.sroa.0.041.i.i, 1
  call void @llvm.experimental.noalias.scope.decl(metadata !891)
  call void @llvm.experimental.noalias.scope.decl(metadata !894)
  call void @llvm.experimental.noalias.scope.decl(metadata !896), !noalias !899
  call void @llvm.experimental.noalias.scope.decl(metadata !902), !noalias !899
  %_6.i.i.i.i = load float, ptr %right.sroa.0.039.i.i, align 4, !alias.scope !904, !noalias !905, !noundef !18
  %_7.i.i.i.i = load float, ptr %left.sroa.0.040.i.i, align 4, !alias.scope !906, !noalias !907, !noundef !18
  %brmerge.not.i.i.i = fcmp uno float %_6.i.i.i.i, %_7.i.i.i.i
  br i1 %brmerge.not.i.i.i, label %bb6.i.i23.i.invoke.i, label %"_ZN5alloc5slice29_$LT$impl$u20$$u5b$T$u5d$$GT$7sort_by28_$u7b$$u7b$closure$u7d$$u7d$17h47d2093944d38971E.exit.i.i", !prof !21

"_ZN5alloc5slice29_$LT$impl$u20$$u5b$T$u5d$$GT$7sort_by28_$u7b$$u7b$closure$u7d$$u7d$17h47d2093944d38971E.exit.i.i": ; preds = %bb15.i.i
  %_8.i.mux.i.i.i = fcmp olt float %_6.i.i.i.i, %_7.i.i.i.i
  %..i17.i.i = select i1 %_8.i.mux.i.i.i, ptr %right.sroa.0.039.i.i, ptr %left.sroa.0.040.i.i
  %17 = load i32, ptr %..i17.i.i, align 4, !alias.scope !908, !noalias !909
  store i32 %17, ptr %dst.sroa.0.042.i.i, align 4, !alias.scope !859, !noalias !911
  call void @llvm.experimental.noalias.scope.decl(metadata !912)
  call void @llvm.experimental.noalias.scope.decl(metadata !915)
  call void @llvm.experimental.noalias.scope.decl(metadata !917), !noalias !920
  call void @llvm.experimental.noalias.scope.decl(metadata !923), !noalias !920
  %_6.i.i19.i.i = load float, ptr %right_rev.sroa.0.037.i.i, align 4, !alias.scope !925, !noalias !926, !noundef !18
  %_7.i.i20.i.i = load float, ptr %left_rev.sroa.0.038.i.i, align 4, !alias.scope !927, !noalias !928, !noundef !18
  %brmerge.not.i21.i.i = fcmp uno float %_6.i.i19.i.i, %_7.i.i20.i.i
  br i1 %brmerge.not.i21.i.i, label %bb6.i.i23.i.invoke.i, label %"_ZN5alloc5slice29_$LT$impl$u20$$u5b$T$u5d$$GT$7sort_by28_$u7b$$u7b$closure$u7d$$u7d$17h47d2093944d38971E.exit24.i.i", !prof !21

bb6.i.i23.i.invoke.i:                             ; preds = %"_ZN5alloc5slice29_$LT$impl$u20$$u5b$T$u5d$$GT$7sort_by28_$u7b$$u7b$closure$u7d$$u7d$17h47d2093944d38971E.exit.i.i", %bb15.i.i
; invoke core::option::unwrap_failed
  invoke void @_ZN4core6option13unwrap_failed17hef2534b77b89c04fE(ptr noalias noundef readonly align 8 captures(address, read_provenance) dereferenceable(24) @alloc_e233725058d574d75123974d8763f424) #21
          to label %bb6.i.i23.i.cont.i unwind label %cleanup2.i, !noalias !929

bb6.i.i23.i.cont.i:                               ; preds = %bb6.i.i23.i.invoke.i
  unreachable

"_ZN5alloc5slice29_$LT$impl$u20$$u5b$T$u5d$$GT$7sort_by28_$u7b$$u7b$closure$u7d$$u7d$17h47d2093944d38971E.exit24.i.i": ; preds = %"_ZN5alloc5slice29_$LT$impl$u20$$u5b$T$u5d$$GT$7sort_by28_$u7b$$u7b$closure$u7d$$u7d$17h47d2093944d38971E.exit.i.i"
  %_16.i.i.i = getelementptr inbounds nuw i8, ptr %dst.sroa.0.042.i.i, i64 4
  %is_l.i18.i.i = xor i1 %_8.i.mux.i.i.i, true
  %count2.i.i.i = zext i1 %is_l.i18.i.i to i64
  %_14.i.i.i = getelementptr inbounds nuw float, ptr %left.sroa.0.040.i.i, i64 %count2.i.i.i
  %count.i.i.i = zext i1 %_8.i.mux.i.i.i to i64
  %_12.i.i.i = getelementptr inbounds nuw float, ptr %right.sroa.0.039.i.i, i64 %count.i.i.i
  %_8.i.mux.i22.i.i = fcmp olt float %_6.i.i19.i.i, %_7.i.i20.i.i
  %..i.i.i = select i1 %_8.i.mux.i22.i.i, ptr %left_rev.sroa.0.038.i.i, ptr %right_rev.sroa.0.037.i.i
  %is_l.i.i.i = xor i1 %_8.i.mux.i22.i.i, true
  %18 = load i32, ptr %..i.i.i, align 4, !alias.scope !908, !noalias !930
  store i32 %18, ptr %dst_rev.sroa.0.036.i.i, align 4, !alias.scope !859, !noalias !932
  %count.neg.i.i.i = sext i1 %is_l.i.i.i to i64
  %19 = getelementptr float, ptr %right_rev.sroa.0.037.i.i, i64 %count.neg.i.i.i
  %count3.neg.i.i.i = sext i1 %_8.i.mux.i22.i.i to i64
  %20 = getelementptr float, ptr %left_rev.sroa.0.038.i.i, i64 %count3.neg.i.i.i
  %21 = getelementptr inbounds i8, ptr %dst_rev.sroa.0.036.i.i, i64 -4
  %exitcond.not.i.i = icmp eq i64 %_39.i.i, %len_div_211.i
  br i1 %exitcond.not.i.i, label %bb16.i.i, label %bb15.i.i

bb5.i.i:                                          ; preds = %bb16.i.i
  %left_nonempty.i.i = icmp ult ptr %_14.i.i.i, %15
  %left.sroa.0.0.right.sroa.0.0.i.i = select i1 %left_nonempty.i.i, ptr %_14.i.i.i, ptr %_12.i.i.i
  %22 = load i32, ptr %left.sroa.0.0.right.sroa.0.0.i.i, align 4, !alias.scope !908, !noalias !866
  store i32 %22, ptr %_16.i.i.i, align 4, !alias.scope !859, !noalias !933
  %count2.i.i = zext i1 %left_nonempty.i.i to i64
  %_26.i.i = getelementptr inbounds nuw float, ptr %_14.i.i.i, i64 %count2.i.i
  %_30.i.i = xor i1 %left_nonempty.i.i, true
  %count3.i.i = zext i1 %_30.i.i to i64
  %_28.i.i = getelementptr inbounds nuw float, ptr %_12.i.i.i, i64 %count3.i.i
  br label %bb9.i.i

bb9.i.i:                                          ; preds = %bb5.i.i, %bb16.i.i
  %right.sroa.0.1.i.i = phi ptr [ %_12.i.i.i, %bb16.i.i ], [ %_28.i.i, %bb5.i.i ]
  %left.sroa.0.1.i.i = phi ptr [ %_14.i.i.i, %bb16.i.i ], [ %_26.i.i, %bb5.i.i ]
  %_31.i.i = icmp ne ptr %left.sroa.0.1.i.i, %15
  %_32.i.i = icmp ne ptr %right.sroa.0.1.i.i, %16
  %or.cond.i.i = select i1 %_31.i.i, i1 true, i1 %_32.i.i
  br i1 %or.cond.i.i, label %bb13.i.i, label %bb22, !prof !440

bb13.i.i:                                         ; preds = %bb9.i.i
; invoke core::slice::sort::shared::smallsort::panic_on_ord_violation
  invoke void @_ZN4core5slice4sort6shared9smallsort22panic_on_ord_violation17hc77a22a2d50782cdE() #21
          to label %.noexc14.i unwind label %cleanup2.i, !noalias !929

.noexc14.i:                                       ; preds = %bb13.i.i
  unreachable

cleanup2.i:                                       ; preds = %bb13.i.i, %bb6.i.i23.i.invoke.i
  %23 = landingpad { ptr, i32 }
          cleanup
  %24 = shl nuw nsw i64 %v.sroa.16.0.lcssa, 2
  call void @llvm.memcpy.p0.p0.i64(ptr nonnull align 4 %v.sroa.0.0.ph.lcssa193, ptr nonnull align 4 %scratch.0, i64 %24, i1 false), !alias.scope !934, !noalias !935
  br label %bb31.i

bb31.i:                                           ; preds = %bb14.i.i, %cleanup2.i
  %.pn.i = phi { ptr, i32 } [ %23, %cleanup2.i ], [ %28, %bb14.i.i ]
  resume { ptr, i32 } %.pn.i

bb24.i:                                           ; preds = %_ZN4core5slice4sort6shared9smallsort11insert_tail17h4f7839f268585107E.exit.i, %bb24.preheader.i
  %iter1.sroa.0.134.i = phi i64 [ %iter1.sroa.0.1.i, %_ZN4core5slice4sort6shared9smallsort11insert_tail17h4f7839f268585107E.exit.i ], [ %iter1.sroa.0.132.i, %bb24.preheader.i ]
  %iter1.sroa.0.033.i = phi i64 [ %iter1.sroa.0.134.i, %_ZN4core5slice4sort6shared9smallsort11insert_tail17h4f7839f268585107E.exit.i ], [ %presorted_len.sroa.0.0.i, %bb24.preheader.i ]
  %_55.i = getelementptr inbounds nuw float, ptr %v.sroa.0.0.ph.lcssa193, i64 %iter1.sroa.0.033.i
  %dst7.i = getelementptr inbounds nuw float, ptr %scratch.0, i64 %iter1.sroa.0.033.i
  %25 = load i32, ptr %_55.i, align 4, !alias.scope !859, !noalias !864
  store i32 %25, ptr %dst7.i, align 4, !alias.scope !862, !noalias !866
  %26 = getelementptr inbounds i8, ptr %dst7.i, i64 -4
  %_6.i.i.i16.cast.i = bitcast i32 %25 to float
  %_7.i.i.i17.i = load float, ptr %26, align 4, !alias.scope !867, !noalias !872, !noundef !18
  %brmerge.not.i.i18.i = fcmp uno float %_7.i.i.i17.i, %_6.i.i.i16.cast.i
  br i1 %brmerge.not.i.i18.i, label %bb6.i.i.i21.i, label %"_ZN5alloc5slice29_$LT$impl$u20$$u5b$T$u5d$$GT$7sort_by28_$u7b$$u7b$closure$u7d$$u7d$17h47d2093944d38971E.exit.i19.i", !prof !21

bb6.i.i.i21.i:                                    ; preds = %bb24.i, %bb24.1.i
; call core::option::unwrap_failed
  call void @_ZN4core6option13unwrap_failed17hef2534b77b89c04fE(ptr noalias noundef readonly align 8 captures(address, read_provenance) dereferenceable(24) @alloc_e233725058d574d75123974d8763f424) #21, !noalias !929
  unreachable

"_ZN5alloc5slice29_$LT$impl$u20$$u5b$T$u5d$$GT$7sort_by28_$u7b$$u7b$closure$u7d$$u7d$17h47d2093944d38971E.exit.i19.i": ; preds = %bb24.i
  %_8.i.mux.i.i20.i = fcmp ogt float %_7.i.i.i17.i, %_6.i.i.i16.cast.i
  br i1 %_8.i.mux.i.i20.i, label %bb4.i.i, label %_ZN4core5slice4sort6shared9smallsort11insert_tail17h4f7839f268585107E.exit.i

bb4.i.i:                                          ; preds = %"_ZN5alloc5slice29_$LT$impl$u20$$u5b$T$u5d$$GT$7sort_by28_$u7b$$u7b$closure$u7d$$u7d$17h47d2093944d38971E.exit.i19.i", %bb7.i.i
  %.in.i.i = phi float [ %_7.i.i2.i.i, %bb7.i.i ], [ %_7.i.i.i17.i, %"_ZN5alloc5slice29_$LT$impl$u20$$u5b$T$u5d$$GT$7sort_by28_$u7b$$u7b$closure$u7d$$u7d$17h47d2093944d38971E.exit.i19.i" ]
  %gap_guard.sroa.5.0.i.i = phi ptr [ %sift.sroa.0.0.i.i, %bb7.i.i ], [ %dst7.i, %"_ZN5alloc5slice29_$LT$impl$u20$$u5b$T$u5d$$GT$7sort_by28_$u7b$$u7b$closure$u7d$$u7d$17h47d2093944d38971E.exit.i19.i" ]
  %sift.sroa.0.0.i.i = phi ptr [ %27, %bb7.i.i ], [ %26, %"_ZN5alloc5slice29_$LT$impl$u20$$u5b$T$u5d$$GT$7sort_by28_$u7b$$u7b$closure$u7d$$u7d$17h47d2093944d38971E.exit.i19.i" ]
  store float %.in.i.i, ptr %gap_guard.sroa.5.0.i.i, align 4, !alias.scope !862, !noalias !866
  %_18.i.i = icmp eq ptr %sift.sroa.0.0.i.i, %scratch.0
  br i1 %_18.i.i, label %bb10.i.i, label %bb6.i.i

bb6.i.i:                                          ; preds = %bb4.i.i
  %27 = getelementptr inbounds i8, ptr %sift.sroa.0.0.i.i, i64 -4
  %_7.i.i2.i.i = load float, ptr %27, align 4, !alias.scope !875, !noalias !880, !noundef !18
  %brmerge.not.i3.i.i = fcmp uno float %_7.i.i2.i.i, %_6.i.i.i16.cast.i
  br i1 %brmerge.not.i3.i.i, label %bb6.i.i5.i.i, label %bb7.i.i, !prof !21

bb6.i.i5.i.i:                                     ; preds = %bb6.i.i, %bb6.i.1.i
  %.lcssa38.i = phi i32 [ %9, %bb6.i.1.i ], [ %25, %bb6.i.i ]
  %sift.sroa.0.0.i.lcssa36.i = phi ptr [ %sift.sroa.0.0.i.1.i, %bb6.i.1.i ], [ %sift.sroa.0.0.i.i, %bb6.i.i ]
; invoke core::option::unwrap_failed
  invoke void @_ZN4core6option13unwrap_failed17hef2534b77b89c04fE(ptr noalias noundef readonly align 8 captures(address, read_provenance) dereferenceable(24) @alloc_e233725058d574d75123974d8763f424) #21
          to label %.noexc.i.i unwind label %bb14.i.i, !noalias !929

.noexc.i.i:                                       ; preds = %bb6.i.i5.i.i
  unreachable

bb7.i.i:                                          ; preds = %bb6.i.i
  %_8.i.mux.i4.i.i = fcmp ogt float %_7.i.i2.i.i, %_6.i.i.i16.cast.i
  br i1 %_8.i.mux.i4.i.i, label %bb4.i.i, label %bb10.i.i

bb10.i.i:                                         ; preds = %bb7.i.i, %bb4.i.i
  %sift.sroa.0.0.i.lcssa.i = phi ptr [ %sift.sroa.0.0.i.i, %bb7.i.i ], [ %scratch.0, %bb4.i.i ]
  store i32 %25, ptr %sift.sroa.0.0.i.lcssa.i, align 4, !alias.scope !862, !noalias !883
  br label %_ZN4core5slice4sort6shared9smallsort11insert_tail17h4f7839f268585107E.exit.i

bb14.i.i:                                         ; preds = %bb6.i.i5.i.i
  %28 = landingpad { ptr, i32 }
          cleanup
  store i32 %.lcssa38.i, ptr %sift.sroa.0.0.i.lcssa36.i, align 4, !alias.scope !862, !noalias !940
  br label %bb31.i

_ZN4core5slice4sort6shared9smallsort11insert_tail17h4f7839f268585107E.exit.i: ; preds = %bb10.i.i, %"_ZN5alloc5slice29_$LT$impl$u20$$u5b$T$u5d$$GT$7sort_by28_$u7b$$u7b$closure$u7d$$u7d$17h47d2093944d38971E.exit.i19.i"
  %_80.i = icmp ult i64 %iter1.sroa.0.134.i, %len_div_211.i
  %_84.i = zext i1 %_80.i to i64
  %iter1.sroa.0.1.i = add nuw i64 %iter1.sroa.0.134.i, %_84.i
  br i1 %_80.i, label %bb24.i, label %bb16.loopexit.i

bb7:                                              ; preds = %bb5
  %29 = add i32 %limit.sroa.0.0195, -1
  call void @llvm.experimental.noalias.scope.decl(metadata !945)
  %len_div_84.i = lshr i64 %v.sroa.16.0196, 3
  %b.idx.i = shl nuw nsw i64 %len_div_84.i, 4
  %b.i = getelementptr inbounds nuw i8, ptr %v.sroa.0.0.ph204, i64 %b.idx.i
  %c.idx.i = mul nuw nsw i64 %len_div_84.i, 28
  %c.i = getelementptr inbounds nuw i8, ptr %v.sroa.0.0.ph204, i64 %c.idx.i
  %_12.i = icmp samesign ult i64 %v.sroa.16.0196, 64
  br i1 %_12.i, label %bb3.i23, label %bb5.i

bb5.i:                                            ; preds = %bb7
; call core::slice::sort::shared::pivot::median3_rec
  %self.i = call fastcc noundef ptr @_ZN4core5slice4sort6shared5pivot11median3_rec17h6170ce92e8f2efbeE(ptr noundef nonnull readonly align 4 %v.sroa.0.0.ph204, ptr noundef readonly %b.i, ptr noundef readonly %c.i, i64 noundef %len_div_84.i)
  br label %bb10

bb3.i23:                                          ; preds = %bb7
  call void @llvm.experimental.noalias.scope.decl(metadata !948)
  call void @llvm.experimental.noalias.scope.decl(metadata !951)
  call void @llvm.experimental.noalias.scope.decl(metadata !953), !noalias !956
  call void @llvm.experimental.noalias.scope.decl(metadata !959), !noalias !956
  %_6.i.i.i = load float, ptr %v.sroa.0.0.ph204, align 4, !alias.scope !961, !noalias !962, !noundef !18
  %_7.i.i.i = load float, ptr %b.i, align 4, !alias.scope !964, !noalias !965, !noundef !18
  %brmerge.not.i.i = fcmp uno float %_6.i.i.i, %_7.i.i.i
  br i1 %brmerge.not.i.i, label %bb6.i.i.i, label %"_ZN5alloc5slice29_$LT$impl$u20$$u5b$T$u5d$$GT$7sort_by28_$u7b$$u7b$closure$u7d$$u7d$17h47d2093944d38971E.exit.i", !prof !21

bb6.i.i.i:                                        ; preds = %bb3.i23
; call core::option::unwrap_failed
  call void @_ZN4core6option13unwrap_failed17hef2534b77b89c04fE(ptr noalias noundef readonly align 8 captures(address, read_provenance) dereferenceable(24) @alloc_e233725058d574d75123974d8763f424) #21, !noalias !966
  unreachable

"_ZN5alloc5slice29_$LT$impl$u20$$u5b$T$u5d$$GT$7sort_by28_$u7b$$u7b$closure$u7d$$u7d$17h47d2093944d38971E.exit.i": ; preds = %bb3.i23
  %_8.i.mux.i.i = fcmp olt float %_6.i.i.i, %_7.i.i.i
  call void @llvm.experimental.noalias.scope.decl(metadata !967)
  call void @llvm.experimental.noalias.scope.decl(metadata !970)
  %_7.i.i6.i = load float, ptr %c.i, align 4, !alias.scope !973, !noalias !974, !noundef !18
  %brmerge.not.i7.i = fcmp uno float %_6.i.i.i, %_7.i.i6.i
  br i1 %brmerge.not.i7.i, label %bb6.i.i9.i, label %"_ZN5alloc5slice29_$LT$impl$u20$$u5b$T$u5d$$GT$7sort_by28_$u7b$$u7b$closure$u7d$$u7d$17h47d2093944d38971E.exit10.i", !prof !21

bb6.i.i9.i:                                       ; preds = %"_ZN5alloc5slice29_$LT$impl$u20$$u5b$T$u5d$$GT$7sort_by28_$u7b$$u7b$closure$u7d$$u7d$17h47d2093944d38971E.exit.i"
; call core::option::unwrap_failed
  call void @_ZN4core6option13unwrap_failed17hef2534b77b89c04fE(ptr noalias noundef readonly align 8 captures(address, read_provenance) dereferenceable(24) @alloc_e233725058d574d75123974d8763f424) #21, !noalias !977
  unreachable

"_ZN5alloc5slice29_$LT$impl$u20$$u5b$T$u5d$$GT$7sort_by28_$u7b$$u7b$closure$u7d$$u7d$17h47d2093944d38971E.exit10.i": ; preds = %"_ZN5alloc5slice29_$LT$impl$u20$$u5b$T$u5d$$GT$7sort_by28_$u7b$$u7b$closure$u7d$$u7d$17h47d2093944d38971E.exit.i"
  %_8.i.mux.i8.i = fcmp olt float %_6.i.i.i, %_7.i.i6.i
  %30 = xor i1 %_8.i.mux.i.i, %_8.i.mux.i8.i
  br i1 %30, label %bb10, label %bb3.i.i

bb3.i.i:                                          ; preds = %"_ZN5alloc5slice29_$LT$impl$u20$$u5b$T$u5d$$GT$7sort_by28_$u7b$$u7b$closure$u7d$$u7d$17h47d2093944d38971E.exit10.i"
  %brmerge.not.i13.i = fcmp uno float %_7.i.i.i, %_7.i.i6.i
  br i1 %brmerge.not.i13.i, label %bb6.i.i15.i, label %"_ZN5alloc5slice29_$LT$impl$u20$$u5b$T$u5d$$GT$7sort_by28_$u7b$$u7b$closure$u7d$$u7d$17h47d2093944d38971E.exit16.i", !prof !21

bb6.i.i15.i:                                      ; preds = %bb3.i.i
; call core::option::unwrap_failed
  call void @_ZN4core6option13unwrap_failed17hef2534b77b89c04fE(ptr noalias noundef readonly align 8 captures(address, read_provenance) dereferenceable(24) @alloc_e233725058d574d75123974d8763f424) #21, !noalias !978
  unreachable

"_ZN5alloc5slice29_$LT$impl$u20$$u5b$T$u5d$$GT$7sort_by28_$u7b$$u7b$closure$u7d$$u7d$17h47d2093944d38971E.exit16.i": ; preds = %bb3.i.i
  %_8.i.mux.i14.i = fcmp olt float %_7.i.i.i, %_7.i.i6.i
  %_12.i.i = xor i1 %_8.i.mux.i.i, %_8.i.mux.i14.i
  %c.b.i.i = select i1 %_12.i.i, ptr %c.i, ptr %b.i
  br label %bb10

bb6:                                              ; preds = %bb5
; call core::slice::sort::stable::drift::sort
  call fastcc void @_ZN4core5slice4sort6stable5drift4sort17h061b1c9959168dd3E(ptr noalias noundef nonnull align 4 %v.sroa.0.0.ph204, i64 noundef %v.sroa.16.0196, ptr noalias noundef nonnull align 4 %scratch.0, i64 noundef %scratch.1, i1 noundef zeroext true, ptr noalias noundef align 8 dereferenceable(8) %is_less)
  br label %bb22

bb10:                                             ; preds = %"_ZN5alloc5slice29_$LT$impl$u20$$u5b$T$u5d$$GT$7sort_by28_$u7b$$u7b$closure$u7d$$u7d$17h47d2093944d38971E.exit16.i", %"_ZN5alloc5slice29_$LT$impl$u20$$u5b$T$u5d$$GT$7sort_by28_$u7b$$u7b$closure$u7d$$u7d$17h47d2093944d38971E.exit10.i", %bb5.i
  %_0.sroa.0.0.i.sink.i = phi ptr [ %self.i, %bb5.i ], [ %v.sroa.0.0.ph204, %"_ZN5alloc5slice29_$LT$impl$u20$$u5b$T$u5d$$GT$7sort_by28_$u7b$$u7b$closure$u7d$$u7d$17h47d2093944d38971E.exit10.i" ], [ %c.b.i.i, %"_ZN5alloc5slice29_$LT$impl$u20$$u5b$T$u5d$$GT$7sort_by28_$u7b$$u7b$closure$u7d$$u7d$17h47d2093944d38971E.exit16.i" ]
  %31 = ptrtoint ptr %_0.sroa.0.0.i.sink.i to i64
  %32 = sub nuw i64 %31, %4
  %index.sroa.0.0.i = lshr exact i64 %32, 2
  %cond.i = icmp samesign ult i64 %index.sroa.0.0.i, %v.sroa.16.0196
  call void @llvm.assume(i1 %cond.i)
  call void @llvm.lifetime.start.p0(i64 4, ptr nonnull %pivot_copy)
  %src = getelementptr inbounds nuw i8, ptr %v.sroa.0.0.ph204, i64 %32
  %value = load float, ptr %src, align 4, !noundef !18
  store float %value, ptr %pivot_copy, align 4
  br i1 %.not, label %bb14, label %bb12

bb12:                                             ; preds = %bb10
  call void @llvm.experimental.noalias.scope.decl(metadata !985)
  call void @llvm.experimental.noalias.scope.decl(metadata !988)
  %_6.i.i = load float, ptr %left_ancestor_pivot.sroa.0.0.ph201, align 4, !alias.scope !991, !noalias !992, !noundef !18
  %brmerge.not.i = fcmp uno float %_6.i.i, %value
  br i1 %brmerge.not.i, label %bb6.i.i24, label %"_ZN5alloc5slice29_$LT$impl$u20$$u5b$T$u5d$$GT$7sort_by28_$u7b$$u7b$closure$u7d$$u7d$17h47d2093944d38971E.exit", !prof !21

bb6.i.i24:                                        ; preds = %bb12
; call core::option::unwrap_failed
  call void @_ZN4core6option13unwrap_failed17hef2534b77b89c04fE(ptr noalias noundef readonly align 8 captures(address, read_provenance) dereferenceable(24) @alloc_e233725058d574d75123974d8763f424) #21, !noalias !995
  unreachable

"_ZN5alloc5slice29_$LT$impl$u20$$u5b$T$u5d$$GT$7sort_by28_$u7b$$u7b$closure$u7d$$u7d$17h47d2093944d38971E.exit": ; preds = %bb12
  %_8.i.mux.i = fcmp olt float %_6.i.i, %value
  br i1 %_8.i.mux.i, label %bb14, label %bb17

bb14:                                             ; preds = %bb10, %"_ZN5alloc5slice29_$LT$impl$u20$$u5b$T$u5d$$GT$7sort_by28_$u7b$$u7b$closure$u7d$$u7d$17h47d2093944d38971E.exit"
  call void @llvm.experimental.noalias.scope.decl(metadata !996)
  call void @llvm.experimental.noalias.scope.decl(metadata !999)
  %_8.i25.not = icmp samesign ult i64 %scratch.1, %v.sroa.16.0196
  br i1 %_8.i25.not, label %bb31.i26, label %bb33.i, !prof !440

bb33.i:                                           ; preds = %bb14
  %_86.i = getelementptr float, ptr %scratch.0, i64 %v.sroa.16.0196
  br label %bb3.i27

bb31.i26:                                         ; preds = %bb14
  call void @llvm.trap()
  unreachable

bb3.i27:                                          ; preds = %bb23.i, %bb33.i
  %state.sroa.27.0.i = phi i64 [ 0, %bb33.i ], [ %state.sroa.27.2.lcssa.i, %bb23.i ]
  %state.sroa.9.0.i = phi ptr [ %v.sroa.0.0.ph204, %bb33.i ], [ %_9.i82.i, %bb23.i ]
  %state.sroa.43.0.i = phi ptr [ %_86.i, %bb33.i ], [ %44, %bb23.i ]
  %pivot_pos.sroa.0.0.i = phi i64 [ %index.sroa.0.0.i, %bb33.i ], [ %v.sroa.16.0196, %bb23.i ]
  %33 = call i64 @llvm.usub.sat.i64(i64 %pivot_pos.sroa.0.0.i, i64 3)
  %unroll_end.i = getelementptr inbounds nuw float, ptr %v.sroa.0.0.ph204, i64 %33
  %_19111.i = icmp ult ptr %state.sroa.9.0.i, %unroll_end.i
  br i1 %_19111.i, label %bb6.i29.preheader, label %bb16.i

bb6.i29.preheader:                                ; preds = %bb3.i27
  %_7.i.i.i31 = load float, ptr %src, align 4, !alias.scope !1001, !noalias !1006, !noundef !18
  br label %bb6.i29

bb6.i29:                                          ; preds = %bb6.i29.preheader, %"_ZN5alloc5slice29_$LT$impl$u20$$u5b$T$u5d$$GT$7sort_by28_$u7b$$u7b$closure$u7d$$u7d$17h47d2093944d38971E.exit56.i"
  %state.sroa.43.1114.i = phi ptr [ %40, %"_ZN5alloc5slice29_$LT$impl$u20$$u5b$T$u5d$$GT$7sort_by28_$u7b$$u7b$closure$u7d$$u7d$17h47d2093944d38971E.exit56.i" ], [ %state.sroa.43.0.i, %bb6.i29.preheader ]
  %state.sroa.9.1113.i = phi ptr [ %_9.i63.i, %"_ZN5alloc5slice29_$LT$impl$u20$$u5b$T$u5d$$GT$7sort_by28_$u7b$$u7b$closure$u7d$$u7d$17h47d2093944d38971E.exit56.i" ], [ %state.sroa.9.0.i, %bb6.i29.preheader ]
  %state.sroa.27.1112.i = phi i64 [ %41, %"_ZN5alloc5slice29_$LT$impl$u20$$u5b$T$u5d$$GT$7sort_by28_$u7b$$u7b$closure$u7d$$u7d$17h47d2093944d38971E.exit56.i" ], [ %state.sroa.27.0.i, %bb6.i29.preheader ]
  call void @llvm.experimental.noalias.scope.decl(metadata !1009)
  call void @llvm.experimental.noalias.scope.decl(metadata !1010)
  call void @llvm.experimental.noalias.scope.decl(metadata !1011)
  call void @llvm.experimental.noalias.scope.decl(metadata !1012)
  %_6.i.i.i30 = load float, ptr %state.sroa.9.1113.i, align 4, !alias.scope !1013, !noalias !1014, !noundef !18
  %brmerge.not.i.i32 = fcmp uno float %_6.i.i.i30, %_7.i.i.i31
  br i1 %brmerge.not.i.i32, label %bb6.i.i.i36, label %"_ZN5alloc5slice29_$LT$impl$u20$$u5b$T$u5d$$GT$7sort_by28_$u7b$$u7b$closure$u7d$$u7d$17h47d2093944d38971E.exit.i33", !prof !21

bb6.i.i.i36:                                      ; preds = %bb6.i29
; call core::option::unwrap_failed
  call void @_ZN4core6option13unwrap_failed17hef2534b77b89c04fE(ptr noalias noundef readonly align 8 captures(address, read_provenance) dereferenceable(24) @alloc_e233725058d574d75123974d8763f424) #21, !noalias !1015
  unreachable

"_ZN5alloc5slice29_$LT$impl$u20$$u5b$T$u5d$$GT$7sort_by28_$u7b$$u7b$closure$u7d$$u7d$17h47d2093944d38971E.exit.i33": ; preds = %bb6.i29
  %_8.i.mux.i.i34 = fcmp olt float %_6.i.i.i30, %_7.i.i.i31
  %34 = getelementptr inbounds i8, ptr %state.sroa.43.1114.i, i64 -4
  %dst_base.sroa.0.0.i.i = select i1 %_8.i.mux.i.i34, ptr %scratch.0, ptr %34
  %dst.i.i = getelementptr inbounds nuw float, ptr %dst_base.sroa.0.0.i.i, i64 %state.sroa.27.1112.i
  store float %_6.i.i.i30, ptr %dst.i.i, align 4, !alias.scope !999, !noalias !1016
  %_9.i.i = getelementptr inbounds nuw i8, ptr %state.sroa.9.1113.i, i64 4
  call void @llvm.experimental.noalias.scope.decl(metadata !1019)
  call void @llvm.experimental.noalias.scope.decl(metadata !1022)
  %_6.i.i25.i = load float, ptr %_9.i.i, align 4, !alias.scope !1025, !noalias !1026, !noundef !18
  %brmerge.not.i27.i = fcmp uno float %_6.i.i25.i, %_7.i.i.i31
  br i1 %brmerge.not.i27.i, label %bb6.i.i29.i, label %"_ZN5alloc5slice29_$LT$impl$u20$$u5b$T$u5d$$GT$7sort_by28_$u7b$$u7b$closure$u7d$$u7d$17h47d2093944d38971E.exit30.i", !prof !21

bb6.i.i29.i:                                      ; preds = %"_ZN5alloc5slice29_$LT$impl$u20$$u5b$T$u5d$$GT$7sort_by28_$u7b$$u7b$closure$u7d$$u7d$17h47d2093944d38971E.exit.i33"
; call core::option::unwrap_failed
  call void @_ZN4core6option13unwrap_failed17hef2534b77b89c04fE(ptr noalias noundef readonly align 8 captures(address, read_provenance) dereferenceable(24) @alloc_e233725058d574d75123974d8763f424) #21, !noalias !1029
  unreachable

"_ZN5alloc5slice29_$LT$impl$u20$$u5b$T$u5d$$GT$7sort_by28_$u7b$$u7b$closure$u7d$$u7d$17h47d2093944d38971E.exit30.i": ; preds = %"_ZN5alloc5slice29_$LT$impl$u20$$u5b$T$u5d$$GT$7sort_by28_$u7b$$u7b$closure$u7d$$u7d$17h47d2093944d38971E.exit.i33"
  %_8.i.i = zext i1 %_8.i.mux.i.i34 to i64
  %35 = add i64 %state.sroa.27.1112.i, %_8.i.i
  %_8.i.mux.i28.i = fcmp olt float %_6.i.i25.i, %_7.i.i.i31
  %36 = getelementptr inbounds i8, ptr %state.sroa.43.1114.i, i64 -8
  %dst_base.sroa.0.0.i32.i = select i1 %_8.i.mux.i28.i, ptr %scratch.0, ptr %36
  %dst.i34.i = getelementptr inbounds nuw float, ptr %dst_base.sroa.0.0.i32.i, i64 %35
  store float %_6.i.i25.i, ptr %dst.i34.i, align 4, !alias.scope !999, !noalias !1030
  %_9.i37.i = getelementptr inbounds nuw i8, ptr %state.sroa.9.1113.i, i64 8
  call void @llvm.experimental.noalias.scope.decl(metadata !1033)
  call void @llvm.experimental.noalias.scope.decl(metadata !1036)
  %_6.i.i38.i = load float, ptr %_9.i37.i, align 4, !alias.scope !1039, !noalias !1040, !noundef !18
  %brmerge.not.i40.i = fcmp uno float %_6.i.i38.i, %_7.i.i.i31
  br i1 %brmerge.not.i40.i, label %bb6.i.i42.i, label %"_ZN5alloc5slice29_$LT$impl$u20$$u5b$T$u5d$$GT$7sort_by28_$u7b$$u7b$closure$u7d$$u7d$17h47d2093944d38971E.exit43.i", !prof !21

bb6.i.i42.i:                                      ; preds = %"_ZN5alloc5slice29_$LT$impl$u20$$u5b$T$u5d$$GT$7sort_by28_$u7b$$u7b$closure$u7d$$u7d$17h47d2093944d38971E.exit30.i"
; call core::option::unwrap_failed
  call void @_ZN4core6option13unwrap_failed17hef2534b77b89c04fE(ptr noalias noundef readonly align 8 captures(address, read_provenance) dereferenceable(24) @alloc_e233725058d574d75123974d8763f424) #21, !noalias !1043
  unreachable

"_ZN5alloc5slice29_$LT$impl$u20$$u5b$T$u5d$$GT$7sort_by28_$u7b$$u7b$closure$u7d$$u7d$17h47d2093944d38971E.exit43.i": ; preds = %"_ZN5alloc5slice29_$LT$impl$u20$$u5b$T$u5d$$GT$7sort_by28_$u7b$$u7b$closure$u7d$$u7d$17h47d2093944d38971E.exit30.i"
  %_8.i36.i = zext i1 %_8.i.mux.i28.i to i64
  %37 = add i64 %35, %_8.i36.i
  %_8.i.mux.i41.i = fcmp olt float %_6.i.i38.i, %_7.i.i.i31
  %38 = getelementptr inbounds i8, ptr %state.sroa.43.1114.i, i64 -12
  %dst_base.sroa.0.0.i45.i = select i1 %_8.i.mux.i41.i, ptr %scratch.0, ptr %38
  %dst.i47.i = getelementptr inbounds nuw float, ptr %dst_base.sroa.0.0.i45.i, i64 %37
  store float %_6.i.i38.i, ptr %dst.i47.i, align 4, !alias.scope !999, !noalias !1044
  %_9.i50.i = getelementptr inbounds nuw i8, ptr %state.sroa.9.1113.i, i64 12
  call void @llvm.experimental.noalias.scope.decl(metadata !1047)
  call void @llvm.experimental.noalias.scope.decl(metadata !1050)
  %_6.i.i51.i = load float, ptr %_9.i50.i, align 4, !alias.scope !1053, !noalias !1054, !noundef !18
  %brmerge.not.i53.i = fcmp uno float %_6.i.i51.i, %_7.i.i.i31
  br i1 %brmerge.not.i53.i, label %bb6.i.i55.i, label %"_ZN5alloc5slice29_$LT$impl$u20$$u5b$T$u5d$$GT$7sort_by28_$u7b$$u7b$closure$u7d$$u7d$17h47d2093944d38971E.exit56.i", !prof !21

bb6.i.i55.i:                                      ; preds = %"_ZN5alloc5slice29_$LT$impl$u20$$u5b$T$u5d$$GT$7sort_by28_$u7b$$u7b$closure$u7d$$u7d$17h47d2093944d38971E.exit43.i"
; call core::option::unwrap_failed
  call void @_ZN4core6option13unwrap_failed17hef2534b77b89c04fE(ptr noalias noundef readonly align 8 captures(address, read_provenance) dereferenceable(24) @alloc_e233725058d574d75123974d8763f424) #21, !noalias !1057
  unreachable

"_ZN5alloc5slice29_$LT$impl$u20$$u5b$T$u5d$$GT$7sort_by28_$u7b$$u7b$closure$u7d$$u7d$17h47d2093944d38971E.exit56.i": ; preds = %"_ZN5alloc5slice29_$LT$impl$u20$$u5b$T$u5d$$GT$7sort_by28_$u7b$$u7b$closure$u7d$$u7d$17h47d2093944d38971E.exit43.i"
  %_8.i49.i = zext i1 %_8.i.mux.i41.i to i64
  %39 = add i64 %37, %_8.i49.i
  %_8.i.mux.i54.i = fcmp olt float %_6.i.i51.i, %_7.i.i.i31
  %40 = getelementptr inbounds i8, ptr %state.sroa.43.1114.i, i64 -16
  %dst_base.sroa.0.0.i58.i = select i1 %_8.i.mux.i54.i, ptr %scratch.0, ptr %40
  %dst.i60.i = getelementptr inbounds nuw float, ptr %dst_base.sroa.0.0.i58.i, i64 %39
  store float %_6.i.i51.i, ptr %dst.i60.i, align 4, !alias.scope !999, !noalias !1058
  %_8.i62.i = zext i1 %_8.i.mux.i54.i to i64
  %41 = add i64 %39, %_8.i62.i
  %_9.i63.i = getelementptr inbounds nuw i8, ptr %state.sroa.9.1113.i, i64 16
  %_19.i35 = icmp ult ptr %_9.i63.i, %unroll_end.i
  br i1 %_19.i35, label %bb6.i29, label %bb16.i

bb16.i:                                           ; preds = %"_ZN5alloc5slice29_$LT$impl$u20$$u5b$T$u5d$$GT$7sort_by28_$u7b$$u7b$closure$u7d$$u7d$17h47d2093944d38971E.exit56.i", %bb3.i27
  %state.sroa.27.1.lcssa.i = phi i64 [ %state.sroa.27.0.i, %bb3.i27 ], [ %41, %"_ZN5alloc5slice29_$LT$impl$u20$$u5b$T$u5d$$GT$7sort_by28_$u7b$$u7b$closure$u7d$$u7d$17h47d2093944d38971E.exit56.i" ]
  %state.sroa.9.1.lcssa.i = phi ptr [ %state.sroa.9.0.i, %bb3.i27 ], [ %_9.i63.i, %"_ZN5alloc5slice29_$LT$impl$u20$$u5b$T$u5d$$GT$7sort_by28_$u7b$$u7b$closure$u7d$$u7d$17h47d2093944d38971E.exit56.i" ]
  %state.sroa.43.1.lcssa.i = phi ptr [ %state.sroa.43.0.i, %bb3.i27 ], [ %40, %"_ZN5alloc5slice29_$LT$impl$u20$$u5b$T$u5d$$GT$7sort_by28_$u7b$$u7b$closure$u7d$$u7d$17h47d2093944d38971E.exit56.i" ]
  %loop_end.i = getelementptr inbounds nuw float, ptr %v.sroa.0.0.ph204, i64 %pivot_pos.sroa.0.0.i
  %_47117.i = icmp ult ptr %state.sroa.9.1.lcssa.i, %loop_end.i
  br i1 %_47117.i, label %bb18.i.preheader, label %bb21.i

bb18.i.preheader:                                 ; preds = %bb16.i
  %_7.i.i65.i = load float, ptr %src, align 4, !alias.scope !1061, !noalias !1066, !noundef !18
  br label %bb18.i

bb21.i:                                           ; preds = %"_ZN5alloc5slice29_$LT$impl$u20$$u5b$T$u5d$$GT$7sort_by28_$u7b$$u7b$closure$u7d$$u7d$17h47d2093944d38971E.exit69.i", %bb16.i
  %state.sroa.27.2.lcssa.i = phi i64 [ %state.sroa.27.1.lcssa.i, %bb16.i ], [ %43, %"_ZN5alloc5slice29_$LT$impl$u20$$u5b$T$u5d$$GT$7sort_by28_$u7b$$u7b$closure$u7d$$u7d$17h47d2093944d38971E.exit69.i" ]
  %state.sroa.9.2.lcssa.i = phi ptr [ %state.sroa.9.1.lcssa.i, %bb16.i ], [ %_9.i76.i, %"_ZN5alloc5slice29_$LT$impl$u20$$u5b$T$u5d$$GT$7sort_by28_$u7b$$u7b$closure$u7d$$u7d$17h47d2093944d38971E.exit69.i" ]
  %state.sroa.43.2.lcssa.i = phi ptr [ %state.sroa.43.1.lcssa.i, %bb16.i ], [ %42, %"_ZN5alloc5slice29_$LT$impl$u20$$u5b$T$u5d$$GT$7sort_by28_$u7b$$u7b$closure$u7d$$u7d$17h47d2093944d38971E.exit69.i" ]
  %_55.i28 = icmp eq i64 %pivot_pos.sroa.0.0.i, %v.sroa.16.0196
  br i1 %_55.i28, label %bb22.i, label %bb23.i

bb18.i:                                           ; preds = %bb18.i.preheader, %"_ZN5alloc5slice29_$LT$impl$u20$$u5b$T$u5d$$GT$7sort_by28_$u7b$$u7b$closure$u7d$$u7d$17h47d2093944d38971E.exit69.i"
  %state.sroa.43.2120.i = phi ptr [ %42, %"_ZN5alloc5slice29_$LT$impl$u20$$u5b$T$u5d$$GT$7sort_by28_$u7b$$u7b$closure$u7d$$u7d$17h47d2093944d38971E.exit69.i" ], [ %state.sroa.43.1.lcssa.i, %bb18.i.preheader ]
  %state.sroa.9.2119.i = phi ptr [ %_9.i76.i, %"_ZN5alloc5slice29_$LT$impl$u20$$u5b$T$u5d$$GT$7sort_by28_$u7b$$u7b$closure$u7d$$u7d$17h47d2093944d38971E.exit69.i" ], [ %state.sroa.9.1.lcssa.i, %bb18.i.preheader ]
  %state.sroa.27.2118.i = phi i64 [ %43, %"_ZN5alloc5slice29_$LT$impl$u20$$u5b$T$u5d$$GT$7sort_by28_$u7b$$u7b$closure$u7d$$u7d$17h47d2093944d38971E.exit69.i" ], [ %state.sroa.27.1.lcssa.i, %bb18.i.preheader ]
  call void @llvm.experimental.noalias.scope.decl(metadata !1069)
  call void @llvm.experimental.noalias.scope.decl(metadata !1070)
  call void @llvm.experimental.noalias.scope.decl(metadata !1071)
  call void @llvm.experimental.noalias.scope.decl(metadata !1072)
  %_6.i.i64.i = load float, ptr %state.sroa.9.2119.i, align 4, !alias.scope !1073, !noalias !1074, !noundef !18
  %brmerge.not.i66.i = fcmp uno float %_6.i.i64.i, %_7.i.i65.i
  br i1 %brmerge.not.i66.i, label %bb6.i.i68.i, label %"_ZN5alloc5slice29_$LT$impl$u20$$u5b$T$u5d$$GT$7sort_by28_$u7b$$u7b$closure$u7d$$u7d$17h47d2093944d38971E.exit69.i", !prof !21

bb6.i.i68.i:                                      ; preds = %bb18.i
; call core::option::unwrap_failed
  call void @_ZN4core6option13unwrap_failed17hef2534b77b89c04fE(ptr noalias noundef readonly align 8 captures(address, read_provenance) dereferenceable(24) @alloc_e233725058d574d75123974d8763f424) #21, !noalias !1075
  unreachable

"_ZN5alloc5slice29_$LT$impl$u20$$u5b$T$u5d$$GT$7sort_by28_$u7b$$u7b$closure$u7d$$u7d$17h47d2093944d38971E.exit69.i": ; preds = %bb18.i
  %_8.i.mux.i67.i = fcmp olt float %_6.i.i64.i, %_7.i.i65.i
  %42 = getelementptr inbounds i8, ptr %state.sroa.43.2120.i, i64 -4
  %dst_base.sroa.0.0.i71.i = select i1 %_8.i.mux.i67.i, ptr %scratch.0, ptr %42
  %dst.i73.i = getelementptr inbounds nuw float, ptr %dst_base.sroa.0.0.i71.i, i64 %state.sroa.27.2118.i
  store float %_6.i.i64.i, ptr %dst.i73.i, align 4, !alias.scope !999, !noalias !1076
  %_8.i75.i = zext i1 %_8.i.mux.i67.i to i64
  %43 = add i64 %state.sroa.27.2118.i, %_8.i75.i
  %_9.i76.i = getelementptr inbounds nuw i8, ptr %state.sroa.9.2119.i, i64 4
  %_47.i = icmp ult ptr %_9.i76.i, %loop_end.i
  br i1 %_47.i, label %bb18.i, label %bb21.i

bb23.i:                                           ; preds = %bb21.i
  %44 = getelementptr inbounds i8, ptr %state.sroa.43.2.lcssa.i, i64 -4
  %dst.i80.i = getelementptr inbounds nuw float, ptr %44, i64 %state.sroa.27.2.lcssa.i
  %45 = load i32, ptr %state.sroa.9.2.lcssa.i, align 4, !alias.scope !996, !noalias !1079
  store i32 %45, ptr %dst.i80.i, align 4, !alias.scope !999, !noalias !1082
  %_9.i82.i = getelementptr inbounds nuw i8, ptr %state.sroa.9.2.lcssa.i, i64 4
  br label %bb3.i27

bb22.i:                                           ; preds = %bb21.i
  %46 = shl i64 %state.sroa.27.2.lcssa.i, 2
  call void @llvm.memcpy.p0.p0.i64(ptr nonnull align 4 %v.sroa.0.0.ph204, ptr nonnull align 4 %scratch.0, i64 %46, i1 false), !alias.scope !1083
  %_63.i = sub i64 %v.sroa.16.0196, %state.sroa.27.2.lcssa.i
  %_97124.not.i = icmp eq i64 %v.sroa.16.0196, %state.sroa.27.2.lcssa.i
  br i1 %_97124.not.i, label %bb16, label %bb42.lr.ph.i

bb42.lr.ph.i:                                     ; preds = %bb22.i
  %47 = getelementptr float, ptr %v.sroa.0.0.ph204, i64 %state.sroa.27.2.lcssa.i
  %min.iters.check506 = icmp ult i64 %_63.i, 8
  br i1 %min.iters.check506, label %bb42.i.preheader, label %vector.ph507

vector.ph507:                                     ; preds = %bb42.lr.ph.i
  %n.vec509 = and i64 %_63.i, -8
  br label %vector.body510

vector.body510:                                   ; preds = %vector.body510, %vector.ph507
  %index511 = phi i64 [ 0, %vector.ph507 ], [ %index.next516, %vector.body510 ]
  %48 = getelementptr float, ptr %47, i64 %index511
  %49 = xor i64 %index511, -1
  %50 = getelementptr float, ptr %_86.i, i64 %49
  %51 = getelementptr i8, ptr %50, i64 -12
  %52 = getelementptr i8, ptr %50, i64 -28
  %wide.load512 = load <4 x i32>, ptr %51, align 4, !alias.scope !999, !noalias !996
  %reverse513 = shufflevector <4 x i32> %wide.load512, <4 x i32> poison, <4 x i32> <i32 3, i32 2, i32 1, i32 0>
  %wide.load514 = load <4 x i32>, ptr %52, align 4, !alias.scope !999, !noalias !996
  %reverse515 = shufflevector <4 x i32> %wide.load514, <4 x i32> poison, <4 x i32> <i32 3, i32 2, i32 1, i32 0>
  %53 = getelementptr i8, ptr %48, i64 16
  store <4 x i32> %reverse513, ptr %48, align 4, !alias.scope !996, !noalias !999
  store <4 x i32> %reverse515, ptr %53, align 4, !alias.scope !996, !noalias !999
  %index.next516 = add nuw i64 %index511, 8
  %54 = icmp eq i64 %index.next516, %n.vec509
  br i1 %54, label %middle.block517, label %vector.body510, !llvm.loop !1084

middle.block517:                                  ; preds = %vector.body510
  %cmp.n518 = icmp eq i64 %_63.i, %n.vec509
  br i1 %cmp.n518, label %bb16, label %bb42.i.preheader

bb42.i.preheader:                                 ; preds = %bb42.lr.ph.i, %middle.block517
  %iter.sroa.0.0125.i.ph = phi i64 [ 0, %bb42.lr.ph.i ], [ %n.vec509, %middle.block517 ]
  br label %bb42.i

bb42.i:                                           ; preds = %bb42.i.preheader, %bb42.i
  %iter.sroa.0.0125.i = phi i64 [ %55, %bb42.i ], [ %iter.sroa.0.0125.i.ph, %bb42.i.preheader ]
  %55 = add nuw i64 %iter.sroa.0.0125.i, 1
  %56 = getelementptr float, ptr %47, i64 %iter.sroa.0.0125.i
  %57 = xor i64 %iter.sroa.0.0125.i, -1
  %58 = getelementptr float, ptr %_86.i, i64 %57
  %59 = load i32, ptr %58, align 4, !alias.scope !999, !noalias !996
  store i32 %59, ptr %56, align 4, !alias.scope !996, !noalias !999
  %exitcond.not.i = icmp eq i64 %55, %_63.i
  br i1 %exitcond.not.i, label %bb16, label %bb42.i, !llvm.loop !1085

bb16:                                             ; preds = %bb42.i, %middle.block517, %bb22.i
  %60 = icmp eq i64 %state.sroa.27.2.lcssa.i, 0
  br i1 %60, label %bb17, label %bb19

bb19:                                             ; preds = %bb16
  %_6.not.i = icmp ugt i64 %state.sroa.27.2.lcssa.i, %v.sroa.16.0196
  br i1 %_6.not.i, label %bb3.i37, label %"_ZN4core5slice29_$LT$impl$u20$$u5b$T$u5d$$GT$12split_at_mut17hd9cc43366b0a69c4E.exit", !prof !1086

bb3.i37:                                          ; preds = %bb19
; call core::panicking::panic_fmt
  call void @_ZN4core9panicking9panic_fmt17ha4414e4328fe24a0E(ptr noundef nonnull @alloc_d1084648e479974e70c9329824bf76f9, ptr noundef nonnull inttoptr (i64 19 to ptr), ptr noalias noundef nonnull readonly align 8 captures(address, read_provenance) dereferenceable(24) @alloc_58d434a1e795f965ef82c8e9c5db822a) #21, !noalias !1087
  unreachable

"_ZN4core5slice29_$LT$impl$u20$$u5b$T$u5d$$GT$12split_at_mut17hd9cc43366b0a69c4E.exit": ; preds = %bb19
  %61 = getelementptr inbounds nuw float, ptr %v.sroa.0.0.ph204, i64 %state.sroa.27.2.lcssa.i
; call core::slice::sort::stable::quicksort::quicksort
  call void @_ZN4core5slice4sort6stable9quicksort9quicksort17h6c1ff9bca1b551deE(ptr noalias noundef nonnull align 4 %61, i64 noundef %_63.i, ptr noalias noundef nonnull align 4 %scratch.0, i64 noundef %scratch.1, i32 noundef %29, ptr noalias noundef nonnull readonly align 4 captures(address, read_provenance) dereferenceable_or_null(4) %pivot_copy, ptr noalias noundef nonnull align 8 dereferenceable(8) %is_less) #24
  call void @llvm.lifetime.end.p0(i64 4, ptr nonnull %pivot_copy)
  %_8 = icmp ult i64 %state.sroa.27.2.lcssa.i, 33
  br i1 %_8, label %bb3, label %bb5

bb17:                                             ; preds = %"_ZN5alloc5slice29_$LT$impl$u20$$u5b$T$u5d$$GT$7sort_by28_$u7b$$u7b$closure$u7d$$u7d$17h47d2093944d38971E.exit", %bb16
  call void @llvm.experimental.noalias.scope.decl(metadata !1091)
  call void @llvm.experimental.noalias.scope.decl(metadata !1094)
  %_8.i38.not = icmp samesign ult i64 %scratch.1, %v.sroa.16.0196
  br i1 %_8.i38.not, label %bb31.i41, label %bb33.i42, !prof !440

bb33.i42:                                         ; preds = %bb17
  %_86.i44 = getelementptr float, ptr %scratch.0, i64 %v.sroa.16.0196
  br label %bb3.i45

bb31.i41:                                         ; preds = %bb17
  call void @llvm.trap()
  unreachable

bb3.i45:                                          ; preds = %bb23.i63, %bb33.i42
  %state.sroa.27.0.i46 = phi i64 [ 0, %bb33.i42 ], [ %75, %bb23.i63 ]
  %state.sroa.9.0.i47 = phi ptr [ %v.sroa.0.0.ph204, %bb33.i42 ], [ %_9.i82.i65, %bb23.i63 ]
  %state.sroa.43.0.i48 = phi ptr [ %_86.i44, %bb33.i42 ], [ %73, %bb23.i63 ]
  %pivot_pos.sroa.0.0.i49 = phi i64 [ %index.sroa.0.0.i, %bb33.i42 ], [ %v.sroa.16.0196, %bb23.i63 ]
  %62 = call i64 @llvm.usub.sat.i64(i64 %pivot_pos.sroa.0.0.i49, i64 3)
  %unroll_end.i50 = getelementptr inbounds nuw float, ptr %v.sroa.0.0.ph204, i64 %62
  %_19111.i51 = icmp ult ptr %state.sroa.9.0.i47, %unroll_end.i50
  br i1 %_19111.i51, label %bb6.i82.preheader, label %bb16.i52

bb6.i82.preheader:                                ; preds = %bb3.i45
  %_6.i.i.i.i86 = load float, ptr %src, align 4, !alias.scope !1096, !noalias !1103, !noundef !18
  br label %bb6.i82

bb6.i82:                                          ; preds = %bb6.i82.preheader, %"_ZN4core5slice4sort6stable9quicksort9quicksort28_$u7b$$u7b$closure$u7d$$u7d$17hfb79a77bb13a9fcfE.exit56.i"
  %state.sroa.43.1114.i83 = phi ptr [ %69, %"_ZN4core5slice4sort6stable9quicksort9quicksort28_$u7b$$u7b$closure$u7d$$u7d$17hfb79a77bb13a9fcfE.exit56.i" ], [ %state.sroa.43.0.i48, %bb6.i82.preheader ]
  %state.sroa.9.1113.i84 = phi ptr [ %_9.i63.i105, %"_ZN4core5slice4sort6stable9quicksort9quicksort28_$u7b$$u7b$closure$u7d$$u7d$17hfb79a77bb13a9fcfE.exit56.i" ], [ %state.sroa.9.0.i47, %bb6.i82.preheader ]
  %state.sroa.27.1112.i85 = phi i64 [ %70, %"_ZN4core5slice4sort6stable9quicksort9quicksort28_$u7b$$u7b$closure$u7d$$u7d$17hfb79a77bb13a9fcfE.exit56.i" ], [ %state.sroa.27.0.i46, %bb6.i82.preheader ]
  call void @llvm.experimental.noalias.scope.decl(metadata !1107)
  call void @llvm.experimental.noalias.scope.decl(metadata !1108)
  call void @llvm.experimental.noalias.scope.decl(metadata !1109)
  call void @llvm.experimental.noalias.scope.decl(metadata !1110)
  call void @llvm.experimental.noalias.scope.decl(metadata !1111)
  call void @llvm.experimental.noalias.scope.decl(metadata !1112)
  %_7.i.i.i.i87 = load float, ptr %state.sroa.9.1113.i84, align 4, !alias.scope !1113, !noalias !1114, !noundef !18
  %brmerge.not.i.i.i88 = fcmp uno float %_6.i.i.i.i86, %_7.i.i.i.i87
  br i1 %brmerge.not.i.i.i88, label %bb6.i.i.i.i, label %"_ZN4core5slice4sort6stable9quicksort9quicksort28_$u7b$$u7b$closure$u7d$$u7d$17hfb79a77bb13a9fcfE.exit.i", !prof !21

bb6.i.i.i.i:                                      ; preds = %bb6.i82
; call core::option::unwrap_failed
  call void @_ZN4core6option13unwrap_failed17hef2534b77b89c04fE(ptr noalias noundef readonly align 8 captures(address, read_provenance) dereferenceable(24) @alloc_e233725058d574d75123974d8763f424) #21, !noalias !1115
  unreachable

"_ZN4core5slice4sort6stable9quicksort9quicksort28_$u7b$$u7b$closure$u7d$$u7d$17hfb79a77bb13a9fcfE.exit.i": ; preds = %bb6.i82
  %_8.i.mux.i.i.i89 = fcmp uge float %_6.i.i.i.i86, %_7.i.i.i.i87
  %63 = getelementptr inbounds i8, ptr %state.sroa.43.1114.i83, i64 -4
  %dst_base.sroa.0.0.i.i90 = select i1 %_8.i.mux.i.i.i89, ptr %scratch.0, ptr %63
  %dst.i.i91 = getelementptr inbounds nuw float, ptr %dst_base.sroa.0.0.i.i90, i64 %state.sroa.27.1112.i85
  store float %_7.i.i.i.i87, ptr %dst.i.i91, align 4, !alias.scope !1094, !noalias !1116
  %_9.i.i92 = getelementptr inbounds nuw i8, ptr %state.sroa.9.1113.i84, i64 4
  call void @llvm.experimental.noalias.scope.decl(metadata !1119)
  call void @llvm.experimental.noalias.scope.decl(metadata !1122)
  call void @llvm.experimental.noalias.scope.decl(metadata !1125)
  %_7.i.i.i26.i = load float, ptr %_9.i.i92, align 4, !alias.scope !1128, !noalias !1129, !noundef !18
  %brmerge.not.i.i27.i = fcmp uno float %_6.i.i.i.i86, %_7.i.i.i26.i
  br i1 %brmerge.not.i.i27.i, label %bb6.i.i.i29.i, label %"_ZN4core5slice4sort6stable9quicksort9quicksort28_$u7b$$u7b$closure$u7d$$u7d$17hfb79a77bb13a9fcfE.exit30.i", !prof !21

bb6.i.i.i29.i:                                    ; preds = %"_ZN4core5slice4sort6stable9quicksort9quicksort28_$u7b$$u7b$closure$u7d$$u7d$17hfb79a77bb13a9fcfE.exit.i"
; call core::option::unwrap_failed
  call void @_ZN4core6option13unwrap_failed17hef2534b77b89c04fE(ptr noalias noundef readonly align 8 captures(address, read_provenance) dereferenceable(24) @alloc_e233725058d574d75123974d8763f424) #21, !noalias !1133
  unreachable

"_ZN4core5slice4sort6stable9quicksort9quicksort28_$u7b$$u7b$closure$u7d$$u7d$17hfb79a77bb13a9fcfE.exit30.i": ; preds = %"_ZN4core5slice4sort6stable9quicksort9quicksort28_$u7b$$u7b$closure$u7d$$u7d$17hfb79a77bb13a9fcfE.exit.i"
  %_8.i.i93 = zext i1 %_8.i.mux.i.i.i89 to i64
  %64 = add i64 %state.sroa.27.1112.i85, %_8.i.i93
  %_8.i.mux.i.i28.i = fcmp uge float %_6.i.i.i.i86, %_7.i.i.i26.i
  %65 = getelementptr inbounds i8, ptr %state.sroa.43.1114.i83, i64 -8
  %dst_base.sroa.0.0.i32.i94 = select i1 %_8.i.mux.i.i28.i, ptr %scratch.0, ptr %65
  %dst.i34.i95 = getelementptr inbounds nuw float, ptr %dst_base.sroa.0.0.i32.i94, i64 %64
  store float %_7.i.i.i26.i, ptr %dst.i34.i95, align 4, !alias.scope !1094, !noalias !1134
  %_9.i37.i96 = getelementptr inbounds nuw i8, ptr %state.sroa.9.1113.i84, i64 8
  call void @llvm.experimental.noalias.scope.decl(metadata !1137)
  call void @llvm.experimental.noalias.scope.decl(metadata !1140)
  call void @llvm.experimental.noalias.scope.decl(metadata !1143)
  %_7.i.i.i39.i = load float, ptr %_9.i37.i96, align 4, !alias.scope !1146, !noalias !1147, !noundef !18
  %brmerge.not.i.i40.i = fcmp uno float %_6.i.i.i.i86, %_7.i.i.i39.i
  br i1 %brmerge.not.i.i40.i, label %bb6.i.i.i42.i, label %"_ZN4core5slice4sort6stable9quicksort9quicksort28_$u7b$$u7b$closure$u7d$$u7d$17hfb79a77bb13a9fcfE.exit43.i", !prof !21

bb6.i.i.i42.i:                                    ; preds = %"_ZN4core5slice4sort6stable9quicksort9quicksort28_$u7b$$u7b$closure$u7d$$u7d$17hfb79a77bb13a9fcfE.exit30.i"
; call core::option::unwrap_failed
  call void @_ZN4core6option13unwrap_failed17hef2534b77b89c04fE(ptr noalias noundef readonly align 8 captures(address, read_provenance) dereferenceable(24) @alloc_e233725058d574d75123974d8763f424) #21, !noalias !1151
  unreachable

"_ZN4core5slice4sort6stable9quicksort9quicksort28_$u7b$$u7b$closure$u7d$$u7d$17hfb79a77bb13a9fcfE.exit43.i": ; preds = %"_ZN4core5slice4sort6stable9quicksort9quicksort28_$u7b$$u7b$closure$u7d$$u7d$17hfb79a77bb13a9fcfE.exit30.i"
  %_8.i36.i97 = zext i1 %_8.i.mux.i.i28.i to i64
  %66 = add i64 %64, %_8.i36.i97
  %_8.i.mux.i.i41.i = fcmp uge float %_6.i.i.i.i86, %_7.i.i.i39.i
  %67 = getelementptr inbounds i8, ptr %state.sroa.43.1114.i83, i64 -12
  %dst_base.sroa.0.0.i45.i98 = select i1 %_8.i.mux.i.i41.i, ptr %scratch.0, ptr %67
  %dst.i47.i99 = getelementptr inbounds nuw float, ptr %dst_base.sroa.0.0.i45.i98, i64 %66
  store float %_7.i.i.i39.i, ptr %dst.i47.i99, align 4, !alias.scope !1094, !noalias !1152
  %_9.i50.i100 = getelementptr inbounds nuw i8, ptr %state.sroa.9.1113.i84, i64 12
  call void @llvm.experimental.noalias.scope.decl(metadata !1155)
  call void @llvm.experimental.noalias.scope.decl(metadata !1158)
  call void @llvm.experimental.noalias.scope.decl(metadata !1161)
  %_7.i.i.i52.i = load float, ptr %_9.i50.i100, align 4, !alias.scope !1164, !noalias !1165, !noundef !18
  %brmerge.not.i.i53.i = fcmp uno float %_6.i.i.i.i86, %_7.i.i.i52.i
  br i1 %brmerge.not.i.i53.i, label %bb6.i.i.i55.i, label %"_ZN4core5slice4sort6stable9quicksort9quicksort28_$u7b$$u7b$closure$u7d$$u7d$17hfb79a77bb13a9fcfE.exit56.i", !prof !21

bb6.i.i.i55.i:                                    ; preds = %"_ZN4core5slice4sort6stable9quicksort9quicksort28_$u7b$$u7b$closure$u7d$$u7d$17hfb79a77bb13a9fcfE.exit43.i"
; call core::option::unwrap_failed
  call void @_ZN4core6option13unwrap_failed17hef2534b77b89c04fE(ptr noalias noundef readonly align 8 captures(address, read_provenance) dereferenceable(24) @alloc_e233725058d574d75123974d8763f424) #21, !noalias !1169
  unreachable

"_ZN4core5slice4sort6stable9quicksort9quicksort28_$u7b$$u7b$closure$u7d$$u7d$17hfb79a77bb13a9fcfE.exit56.i": ; preds = %"_ZN4core5slice4sort6stable9quicksort9quicksort28_$u7b$$u7b$closure$u7d$$u7d$17hfb79a77bb13a9fcfE.exit43.i"
  %_8.i49.i101 = zext i1 %_8.i.mux.i.i41.i to i64
  %68 = add i64 %66, %_8.i49.i101
  %_8.i.mux.i.i54.i = fcmp uge float %_6.i.i.i.i86, %_7.i.i.i52.i
  %69 = getelementptr inbounds i8, ptr %state.sroa.43.1114.i83, i64 -16
  %dst_base.sroa.0.0.i58.i102 = select i1 %_8.i.mux.i.i54.i, ptr %scratch.0, ptr %69
  %dst.i60.i103 = getelementptr inbounds nuw float, ptr %dst_base.sroa.0.0.i58.i102, i64 %68
  store float %_7.i.i.i52.i, ptr %dst.i60.i103, align 4, !alias.scope !1094, !noalias !1170
  %_8.i62.i104 = zext i1 %_8.i.mux.i.i54.i to i64
  %70 = add i64 %68, %_8.i62.i104
  %_9.i63.i105 = getelementptr inbounds nuw i8, ptr %state.sroa.9.1113.i84, i64 16
  %_19.i106 = icmp ult ptr %_9.i63.i105, %unroll_end.i50
  br i1 %_19.i106, label %bb6.i82, label %bb16.i52

bb16.i52:                                         ; preds = %"_ZN4core5slice4sort6stable9quicksort9quicksort28_$u7b$$u7b$closure$u7d$$u7d$17hfb79a77bb13a9fcfE.exit56.i", %bb3.i45
  %state.sroa.27.1.lcssa.i53 = phi i64 [ %state.sroa.27.0.i46, %bb3.i45 ], [ %70, %"_ZN4core5slice4sort6stable9quicksort9quicksort28_$u7b$$u7b$closure$u7d$$u7d$17hfb79a77bb13a9fcfE.exit56.i" ]
  %state.sroa.9.1.lcssa.i54 = phi ptr [ %state.sroa.9.0.i47, %bb3.i45 ], [ %_9.i63.i105, %"_ZN4core5slice4sort6stable9quicksort9quicksort28_$u7b$$u7b$closure$u7d$$u7d$17hfb79a77bb13a9fcfE.exit56.i" ]
  %state.sroa.43.1.lcssa.i55 = phi ptr [ %state.sroa.43.0.i48, %bb3.i45 ], [ %69, %"_ZN4core5slice4sort6stable9quicksort9quicksort28_$u7b$$u7b$closure$u7d$$u7d$17hfb79a77bb13a9fcfE.exit56.i" ]
  %loop_end.i56 = getelementptr inbounds nuw float, ptr %v.sroa.0.0.ph204, i64 %pivot_pos.sroa.0.0.i49
  %_47117.i57 = icmp ult ptr %state.sroa.9.1.lcssa.i54, %loop_end.i56
  br i1 %_47117.i57, label %bb18.i73.preheader, label %bb21.i58

bb18.i73.preheader:                               ; preds = %bb16.i52
  %_6.i.i.i64.i = load float, ptr %src, align 4, !alias.scope !1173, !noalias !1180, !noundef !18
  br label %bb18.i73

bb21.i58:                                         ; preds = %"_ZN4core5slice4sort6stable9quicksort9quicksort28_$u7b$$u7b$closure$u7d$$u7d$17hfb79a77bb13a9fcfE.exit69.i", %bb16.i52
  %state.sroa.27.2.lcssa.i59 = phi i64 [ %state.sroa.27.1.lcssa.i53, %bb16.i52 ], [ %72, %"_ZN4core5slice4sort6stable9quicksort9quicksort28_$u7b$$u7b$closure$u7d$$u7d$17hfb79a77bb13a9fcfE.exit69.i" ]
  %state.sroa.9.2.lcssa.i60 = phi ptr [ %state.sroa.9.1.lcssa.i54, %bb16.i52 ], [ %_9.i76.i80, %"_ZN4core5slice4sort6stable9quicksort9quicksort28_$u7b$$u7b$closure$u7d$$u7d$17hfb79a77bb13a9fcfE.exit69.i" ]
  %state.sroa.43.2.lcssa.i61 = phi ptr [ %state.sroa.43.1.lcssa.i55, %bb16.i52 ], [ %71, %"_ZN4core5slice4sort6stable9quicksort9quicksort28_$u7b$$u7b$closure$u7d$$u7d$17hfb79a77bb13a9fcfE.exit69.i" ]
  %_55.i62 = icmp eq i64 %pivot_pos.sroa.0.0.i49, %v.sroa.16.0196
  br i1 %_55.i62, label %bb22.i66, label %bb23.i63

bb18.i73:                                         ; preds = %bb18.i73.preheader, %"_ZN4core5slice4sort6stable9quicksort9quicksort28_$u7b$$u7b$closure$u7d$$u7d$17hfb79a77bb13a9fcfE.exit69.i"
  %state.sroa.43.2120.i74 = phi ptr [ %71, %"_ZN4core5slice4sort6stable9quicksort9quicksort28_$u7b$$u7b$closure$u7d$$u7d$17hfb79a77bb13a9fcfE.exit69.i" ], [ %state.sroa.43.1.lcssa.i55, %bb18.i73.preheader ]
  %state.sroa.9.2119.i75 = phi ptr [ %_9.i76.i80, %"_ZN4core5slice4sort6stable9quicksort9quicksort28_$u7b$$u7b$closure$u7d$$u7d$17hfb79a77bb13a9fcfE.exit69.i" ], [ %state.sroa.9.1.lcssa.i54, %bb18.i73.preheader ]
  %state.sroa.27.2118.i76 = phi i64 [ %72, %"_ZN4core5slice4sort6stable9quicksort9quicksort28_$u7b$$u7b$closure$u7d$$u7d$17hfb79a77bb13a9fcfE.exit69.i" ], [ %state.sroa.27.1.lcssa.i53, %bb18.i73.preheader ]
  call void @llvm.experimental.noalias.scope.decl(metadata !1184)
  call void @llvm.experimental.noalias.scope.decl(metadata !1185)
  call void @llvm.experimental.noalias.scope.decl(metadata !1186)
  call void @llvm.experimental.noalias.scope.decl(metadata !1187)
  call void @llvm.experimental.noalias.scope.decl(metadata !1188)
  call void @llvm.experimental.noalias.scope.decl(metadata !1189)
  %_7.i.i.i65.i = load float, ptr %state.sroa.9.2119.i75, align 4, !alias.scope !1190, !noalias !1191, !noundef !18
  %brmerge.not.i.i66.i = fcmp uno float %_6.i.i.i64.i, %_7.i.i.i65.i
  br i1 %brmerge.not.i.i66.i, label %bb6.i.i.i68.i, label %"_ZN4core5slice4sort6stable9quicksort9quicksort28_$u7b$$u7b$closure$u7d$$u7d$17hfb79a77bb13a9fcfE.exit69.i", !prof !21

bb6.i.i.i68.i:                                    ; preds = %bb18.i73
; call core::option::unwrap_failed
  call void @_ZN4core6option13unwrap_failed17hef2534b77b89c04fE(ptr noalias noundef readonly align 8 captures(address, read_provenance) dereferenceable(24) @alloc_e233725058d574d75123974d8763f424) #21, !noalias !1192
  unreachable

"_ZN4core5slice4sort6stable9quicksort9quicksort28_$u7b$$u7b$closure$u7d$$u7d$17hfb79a77bb13a9fcfE.exit69.i": ; preds = %bb18.i73
  %_8.i.mux.i.i67.i = fcmp uge float %_6.i.i.i64.i, %_7.i.i.i65.i
  %71 = getelementptr inbounds i8, ptr %state.sroa.43.2120.i74, i64 -4
  %dst_base.sroa.0.0.i71.i77 = select i1 %_8.i.mux.i.i67.i, ptr %scratch.0, ptr %71
  %dst.i73.i78 = getelementptr inbounds nuw float, ptr %dst_base.sroa.0.0.i71.i77, i64 %state.sroa.27.2118.i76
  store float %_7.i.i.i65.i, ptr %dst.i73.i78, align 4, !alias.scope !1094, !noalias !1193
  %_8.i75.i79 = zext i1 %_8.i.mux.i.i67.i to i64
  %72 = add i64 %state.sroa.27.2118.i76, %_8.i75.i79
  %_9.i76.i80 = getelementptr inbounds nuw i8, ptr %state.sroa.9.2119.i75, i64 4
  %_47.i81 = icmp ult ptr %_9.i76.i80, %loop_end.i56
  br i1 %_47.i81, label %bb18.i73, label %bb21.i58

bb23.i63:                                         ; preds = %bb21.i58
  %73 = getelementptr inbounds i8, ptr %state.sroa.43.2.lcssa.i61, i64 -4
  %dst.i80.i64 = getelementptr inbounds nuw float, ptr %scratch.0, i64 %state.sroa.27.2.lcssa.i59
  %74 = load i32, ptr %state.sroa.9.2.lcssa.i60, align 4, !alias.scope !1091, !noalias !1196
  store i32 %74, ptr %dst.i80.i64, align 4, !alias.scope !1094, !noalias !1199
  %75 = add i64 %state.sroa.27.2.lcssa.i59, 1
  %_9.i82.i65 = getelementptr inbounds nuw i8, ptr %state.sroa.9.2.lcssa.i60, i64 4
  br label %bb3.i45

bb22.i66:                                         ; preds = %bb21.i58
  %76 = shl i64 %state.sroa.27.2.lcssa.i59, 2
  call void @llvm.memcpy.p0.p0.i64(ptr nonnull align 4 %v.sroa.0.0.ph204, ptr nonnull align 4 %scratch.0, i64 %76, i1 false), !alias.scope !1200
  %_63.i67 = sub i64 %v.sroa.16.0196, %state.sroa.27.2.lcssa.i59
  %_97124.not.i68 = icmp eq i64 %v.sroa.16.0196, %state.sroa.27.2.lcssa.i59
  br i1 %_97124.not.i68, label %bb3.thread, label %bb42.lr.ph.i69

bb42.lr.ph.i69:                                   ; preds = %bb22.i66
  %77 = getelementptr float, ptr %v.sroa.0.0.ph204, i64 %state.sroa.27.2.lcssa.i59
  %min.iters.check = icmp ult i64 %_63.i67, 8
  br i1 %min.iters.check, label %bb42.i70.preheader, label %vector.ph

vector.ph:                                        ; preds = %bb42.lr.ph.i69
  %n.vec = and i64 %_63.i67, -8
  br label %vector.body

vector.body:                                      ; preds = %vector.body, %vector.ph
  %index = phi i64 [ 0, %vector.ph ], [ %index.next, %vector.body ]
  %78 = getelementptr float, ptr %77, i64 %index
  %79 = xor i64 %index, -1
  %80 = getelementptr float, ptr %_86.i44, i64 %79
  %81 = getelementptr i8, ptr %80, i64 -12
  %82 = getelementptr i8, ptr %80, i64 -28
  %wide.load = load <4 x i32>, ptr %81, align 4, !alias.scope !1094, !noalias !1091
  %reverse = shufflevector <4 x i32> %wide.load, <4 x i32> poison, <4 x i32> <i32 3, i32 2, i32 1, i32 0>
  %wide.load503 = load <4 x i32>, ptr %82, align 4, !alias.scope !1094, !noalias !1091
  %reverse504 = shufflevector <4 x i32> %wide.load503, <4 x i32> poison, <4 x i32> <i32 3, i32 2, i32 1, i32 0>
  %83 = getelementptr i8, ptr %78, i64 16
  store <4 x i32> %reverse, ptr %78, align 4, !alias.scope !1091, !noalias !1094
  store <4 x i32> %reverse504, ptr %83, align 4, !alias.scope !1091, !noalias !1094
  %index.next = add nuw i64 %index, 8
  %84 = icmp eq i64 %index.next, %n.vec
  br i1 %84, label %middle.block, label %vector.body, !llvm.loop !1201

middle.block:                                     ; preds = %vector.body
  %cmp.n = icmp eq i64 %_63.i67, %n.vec
  br i1 %cmp.n, label %_ZN4core5slice4sort6stable9quicksort16stable_partition17h29d7ff4c78c44930E.exit, label %bb42.i70.preheader

bb42.i70.preheader:                               ; preds = %bb42.lr.ph.i69, %middle.block
  %iter.sroa.0.0125.i71.ph = phi i64 [ 0, %bb42.lr.ph.i69 ], [ %n.vec, %middle.block ]
  br label %bb42.i70

bb42.i70:                                         ; preds = %bb42.i70.preheader, %bb42.i70
  %iter.sroa.0.0125.i71 = phi i64 [ %85, %bb42.i70 ], [ %iter.sroa.0.0125.i71.ph, %bb42.i70.preheader ]
  %85 = add nuw i64 %iter.sroa.0.0125.i71, 1
  %86 = getelementptr float, ptr %77, i64 %iter.sroa.0.0125.i71
  %87 = xor i64 %iter.sroa.0.0125.i71, -1
  %88 = getelementptr float, ptr %_86.i44, i64 %87
  %89 = load i32, ptr %88, align 4, !alias.scope !1094, !noalias !1091
  store i32 %89, ptr %86, align 4, !alias.scope !1091, !noalias !1094
  %exitcond.not.i72 = icmp eq i64 %85, %_63.i67
  br i1 %exitcond.not.i72, label %_ZN4core5slice4sort6stable9quicksort16stable_partition17h29d7ff4c78c44930E.exit, label %bb42.i70, !llvm.loop !1202

_ZN4core5slice4sort6stable9quicksort16stable_partition17h29d7ff4c78c44930E.exit: ; preds = %bb42.i70, %middle.block
  %_47 = icmp ugt i64 %state.sroa.27.2.lcssa.i59, %v.sroa.16.0196
  br i1 %_47, label %bb27, label %bb28, !prof !1086

bb3.thread:                                       ; preds = %bb22.i66
  call void @llvm.lifetime.end.p0(i64 4, ptr nonnull %pivot_copy)
  br label %bb22

bb28:                                             ; preds = %_ZN4core5slice4sort6stable9quicksort16stable_partition17h29d7ff4c78c44930E.exit
  %_54 = getelementptr inbounds nuw float, ptr %v.sroa.0.0.ph204, i64 %state.sroa.27.2.lcssa.i59
  call void @llvm.lifetime.end.p0(i64 4, ptr nonnull %pivot_copy)
  %_8194 = icmp ult i64 %_63.i67, 33
  br i1 %_8194, label %bb3, label %bb5.lr.ph

bb27:                                             ; preds = %_ZN4core5slice4sort6stable9quicksort16stable_partition17h29d7ff4c78c44930E.exit
; call core::slice::index::slice_index_fail
  call void @_ZN4core5slice5index16slice_index_fail17h62807bcaa490c9c1E(i64 noundef %state.sroa.27.2.lcssa.i59, i64 noundef %v.sroa.16.0196, i64 noundef %v.sroa.16.0196, ptr noalias noundef readonly align 8 captures(address, read_provenance) dereferenceable(24) @alloc_0766b232215672ee1bd2195fdb153938) #21
  unreachable

bb22:                                             ; preds = %bb3.thread, %bb9.i.i, %bb3, %bb6
  ret void
}

; core::slice::sort::stable::quicksort::quicksort
; Function Attrs: noinline nonlazybind uwtable
define void @_ZN4core5slice4sort6stable9quicksort9quicksort17hf41fb6ada53877c9E(ptr noalias noundef nonnull align 4 %0, i64 noundef range(i64 0, 2305843009213693952) %1, ptr noalias noundef nonnull align 4 %scratch.0, i64 noundef range(i64 0, 2305843009213693952) %scratch.1, i32 noundef %2, ptr noalias noundef readonly align 4 captures(address) dereferenceable_or_null(4) %3, ptr noalias noundef align 8 dereferenceable(8) %is_less) unnamed_addr #2 personality ptr @rust_eh_personality {
start:
  %pivot_copy = alloca [4 x i8], align 4
  %_8130136 = icmp samesign ult i64 %1, 33
  br i1 %_8130136, label %bb3, label %bb5.lr.ph

bb5.lr.ph:                                        ; preds = %start, %bb28
  %v.sroa.0.0.ph140 = phi ptr [ %_54, %bb28 ], [ %0, %start ]
  %v.sroa.16.0.ph139 = phi i64 [ %_63.i63, %bb28 ], [ %1, %start ]
  %limit.sroa.0.0.ph138 = phi i32 [ %48, %bb28 ], [ %2, %start ]
  %left_ancestor_pivot.sroa.0.0.ph137 = phi ptr [ null, %bb28 ], [ %3, %start ]
  %4 = ptrtoint ptr %v.sroa.0.0.ph140 to i64
  %.not = icmp eq ptr %left_ancestor_pivot.sroa.0.0.ph137, null
  br label %bb5

bb5:                                              ; preds = %bb5.lr.ph, %"_ZN4core5slice29_$LT$impl$u20$$u5b$T$u5d$$GT$12split_at_mut17h77ab04c1f2f49d7cE.exit"
  %v.sroa.16.0132 = phi i64 [ %v.sroa.16.0.ph139, %bb5.lr.ph ], [ %state.sroa.27.2.lcssa.i, %"_ZN4core5slice29_$LT$impl$u20$$u5b$T$u5d$$GT$12split_at_mut17h77ab04c1f2f49d7cE.exit" ]
  %limit.sroa.0.0131 = phi i32 [ %limit.sroa.0.0.ph138, %bb5.lr.ph ], [ %48, %"_ZN4core5slice29_$LT$impl$u20$$u5b$T$u5d$$GT$12split_at_mut17h77ab04c1f2f49d7cE.exit" ]
  %_11 = icmp eq i32 %limit.sroa.0.0131, 0
  br i1 %_11, label %bb6, label %bb7

bb3:                                              ; preds = %bb28, %"_ZN4core5slice29_$LT$impl$u20$$u5b$T$u5d$$GT$12split_at_mut17h77ab04c1f2f49d7cE.exit", %start
  %v.sroa.0.0.ph.lcssa129 = phi ptr [ %0, %start ], [ %v.sroa.0.0.ph140, %"_ZN4core5slice29_$LT$impl$u20$$u5b$T$u5d$$GT$12split_at_mut17h77ab04c1f2f49d7cE.exit" ], [ %_54, %bb28 ]
  %v.sroa.16.0.lcssa = phi i64 [ %1, %start ], [ %state.sroa.27.2.lcssa.i, %"_ZN4core5slice29_$LT$impl$u20$$u5b$T$u5d$$GT$12split_at_mut17h77ab04c1f2f49d7cE.exit" ], [ %_63.i63, %bb28 ]
  call void @llvm.experimental.noalias.scope.decl(metadata !1203)
  call void @llvm.experimental.noalias.scope.decl(metadata !1206)
  %_5.i = icmp samesign ult i64 %v.sroa.16.0.lcssa, 2
  br i1 %_5.i, label %bb22, label %bb2.i

bb2.i:                                            ; preds = %bb3
  %_8.i = add nuw nsw i64 %v.sroa.16.0.lcssa, 16
  %_6.i = icmp samesign ult i64 %scratch.1, %_8.i
  br i1 %_6.i, label %bb3.i, label %bb4.i

bb4.i:                                            ; preds = %bb2.i
  %len_div_211.i = lshr i64 %v.sroa.16.0.lcssa, 1
  %_14.i = icmp samesign ugt i64 %v.sroa.16.0.lcssa, 15
  br i1 %_14.i, label %bb6.i, label %bb9.i

bb3.i:                                            ; preds = %bb2.i
  call void @llvm.trap()
  unreachable

bb9.i:                                            ; preds = %bb4.i
  %_22.i = icmp samesign ugt i64 %v.sroa.16.0.lcssa, 7
  br i1 %_22.i, label %bb10.i, label %bb46.i

bb6.i:                                            ; preds = %bb4.i
  %_16.i = getelementptr inbounds nuw i32, ptr %scratch.0, i64 %v.sroa.16.0.lcssa
; call core::slice::sort::shared::smallsort::sort8_stable
  call fastcc void @_ZN4core5slice4sort6shared9smallsort12sort8_stable17h191e2cd2a4055331E(ptr noundef nonnull align 4 %v.sroa.0.0.ph.lcssa129, ptr noundef nonnull align 4 %scratch.0, ptr noundef %_16.i)
  %_18.i = getelementptr inbounds nuw i32, ptr %v.sroa.0.0.ph.lcssa129, i64 %len_div_211.i
  %_19.i = getelementptr inbounds nuw i32, ptr %scratch.0, i64 %len_div_211.i
  %_20.i = getelementptr inbounds nuw i8, ptr %_16.i, i64 32
; call core::slice::sort::shared::smallsort::sort8_stable
  call fastcc void @_ZN4core5slice4sort6shared9smallsort12sort8_stable17h191e2cd2a4055331E(ptr noundef %_18.i, ptr noundef %_19.i, ptr noundef %_20.i)
  br label %bb15.i

bb10.i:                                           ; preds = %bb9.i
  %_7.i.i = getelementptr inbounds nuw i8, ptr %v.sroa.0.0.ph.lcssa129, i64 4
  call void @llvm.experimental.noalias.scope.decl(metadata !1208)
  call void @llvm.experimental.noalias.scope.decl(metadata !1211)
  call void @llvm.experimental.noalias.scope.decl(metadata !1213)
  call void @llvm.experimental.noalias.scope.decl(metadata !1216)
  call void @llvm.experimental.noalias.scope.decl(metadata !1218)
  call void @llvm.experimental.noalias.scope.decl(metadata !1221)
  %_3.i.i.i.i.i = load i32, ptr %_7.i.i, align 4, !alias.scope !1223, !noalias !1224, !noundef !18
  %_4.i.i.i.i.i = load i32, ptr %v.sroa.0.0.ph.lcssa129, align 4, !alias.scope !1226, !noalias !1227, !noundef !18
  %_0.i.i.i = icmp slt i32 %_3.i.i.i.i.i, %_4.i.i.i.i.i
  %_12.i.i = getelementptr inbounds nuw i8, ptr %v.sroa.0.0.ph.lcssa129, i64 12
  %_14.i.i = getelementptr inbounds nuw i8, ptr %v.sroa.0.0.ph.lcssa129, i64 8
  call void @llvm.experimental.noalias.scope.decl(metadata !1228)
  call void @llvm.experimental.noalias.scope.decl(metadata !1231)
  call void @llvm.experimental.noalias.scope.decl(metadata !1233)
  call void @llvm.experimental.noalias.scope.decl(metadata !1236)
  call void @llvm.experimental.noalias.scope.decl(metadata !1238)
  call void @llvm.experimental.noalias.scope.decl(metadata !1241)
  %_3.i.i.i7.i.i = load i32, ptr %_12.i.i, align 4, !alias.scope !1243, !noalias !1244, !noundef !18
  %_4.i.i.i8.i.i = load i32, ptr %_14.i.i, align 4, !alias.scope !1245, !noalias !1246, !noundef !18
  %_0.i9.i.i = icmp slt i32 %_3.i.i.i7.i.i, %_4.i.i.i8.i.i
  %count.i.i = zext i1 %_0.i.i.i to i64
  %a.i.i = getelementptr inbounds nuw i32, ptr %v.sroa.0.0.ph.lcssa129, i64 %count.i.i
  %_19.i.i = xor i1 %_0.i.i.i, true
  %count2.i.i = zext i1 %_19.i.i to i64
  %b.i.i = getelementptr inbounds nuw i32, ptr %v.sroa.0.0.ph.lcssa129, i64 %count2.i.i
  %count3.i.i = select i1 %_0.i9.i.i, i64 3, i64 2
  %c.i.i = getelementptr inbounds nuw i32, ptr %v.sroa.0.0.ph.lcssa129, i64 %count3.i.i
  %count4.i.i = select i1 %_0.i9.i.i, i64 2, i64 3
  %d.i.i = getelementptr inbounds nuw i32, ptr %v.sroa.0.0.ph.lcssa129, i64 %count4.i.i
  call void @llvm.experimental.noalias.scope.decl(metadata !1247)
  call void @llvm.experimental.noalias.scope.decl(metadata !1250)
  call void @llvm.experimental.noalias.scope.decl(metadata !1252)
  call void @llvm.experimental.noalias.scope.decl(metadata !1255)
  call void @llvm.experimental.noalias.scope.decl(metadata !1257)
  call void @llvm.experimental.noalias.scope.decl(metadata !1260)
  %_3.i.i.i10.i.i = load i32, ptr %c.i.i, align 4, !alias.scope !1262, !noalias !1263, !noundef !18
  %_4.i.i.i11.i.i = load i32, ptr %a.i.i, align 4, !alias.scope !1264, !noalias !1265, !noundef !18
  %_0.i12.i.i = icmp slt i32 %_3.i.i.i10.i.i, %_4.i.i.i11.i.i
  call void @llvm.experimental.noalias.scope.decl(metadata !1266)
  call void @llvm.experimental.noalias.scope.decl(metadata !1269)
  call void @llvm.experimental.noalias.scope.decl(metadata !1271)
  call void @llvm.experimental.noalias.scope.decl(metadata !1274)
  call void @llvm.experimental.noalias.scope.decl(metadata !1276)
  call void @llvm.experimental.noalias.scope.decl(metadata !1279)
  %_3.i.i.i13.i.i = load i32, ptr %d.i.i, align 4, !alias.scope !1281, !noalias !1282, !noundef !18
  %_4.i.i.i14.i.i = load i32, ptr %b.i.i, align 4, !alias.scope !1283, !noalias !1284, !noundef !18
  %_0.i15.i.i = icmp slt i32 %_3.i.i.i13.i.i, %_4.i.i.i14.i.i
  %5 = call i32 @llvm.smin.i32(i32 %_3.i.i.i10.i.i, i32 %_4.i.i.i11.i.i)
  %6 = select i1 %_0.i15.i.i, ptr %c.i.i, ptr %b.i.i, !unpredictable !18
  %7 = select i1 %_0.i12.i.i, ptr %a.i.i, ptr %6, !unpredictable !18
  %8 = select i1 %_0.i12.i.i, ptr %b.i.i, ptr %c.i.i, !unpredictable !18
  %9 = select i1 %_0.i15.i.i, ptr %d.i.i, ptr %8, !unpredictable !18
  call void @llvm.experimental.noalias.scope.decl(metadata !1285)
  call void @llvm.experimental.noalias.scope.decl(metadata !1288)
  call void @llvm.experimental.noalias.scope.decl(metadata !1290)
  call void @llvm.experimental.noalias.scope.decl(metadata !1293)
  call void @llvm.experimental.noalias.scope.decl(metadata !1295)
  call void @llvm.experimental.noalias.scope.decl(metadata !1298)
  %_3.i.i.i16.i.i = load i32, ptr %9, align 4, !alias.scope !1300, !noalias !1301, !noundef !18
  %_4.i.i.i17.i.i = load i32, ptr %7, align 4, !alias.scope !1302, !noalias !1303, !noundef !18
  store i32 %5, ptr %scratch.0, align 4, !alias.scope !1206, !noalias !1304
  %dst5.i.i = getelementptr inbounds nuw i8, ptr %scratch.0, i64 4
  %10 = call i32 @llvm.smin.i32(i32 %_3.i.i.i16.i.i, i32 %_4.i.i.i17.i.i)
  store i32 %10, ptr %dst5.i.i, align 4, !alias.scope !1206, !noalias !1304
  %dst6.i.i = getelementptr inbounds nuw i8, ptr %scratch.0, i64 8
  %11 = call i32 @llvm.smax.i32(i32 %_3.i.i.i16.i.i, i32 %_4.i.i.i17.i.i)
  store i32 %11, ptr %dst6.i.i, align 4, !alias.scope !1206, !noalias !1304
  %12 = getelementptr inbounds nuw i8, ptr %scratch.0, i64 12
  %13 = call i32 @llvm.smax.i32(i32 %_3.i.i.i13.i.i, i32 %_4.i.i.i14.i.i)
  store i32 %13, ptr %12, align 4, !alias.scope !1206, !noalias !1304
  %_27.i = getelementptr inbounds nuw i32, ptr %v.sroa.0.0.ph.lcssa129, i64 %len_div_211.i
  %_28.i = getelementptr inbounds nuw i32, ptr %scratch.0, i64 %len_div_211.i
  %_7.i13.i = getelementptr inbounds nuw i8, ptr %_27.i, i64 4
  call void @llvm.experimental.noalias.scope.decl(metadata !1305)
  call void @llvm.experimental.noalias.scope.decl(metadata !1308)
  call void @llvm.experimental.noalias.scope.decl(metadata !1310)
  call void @llvm.experimental.noalias.scope.decl(metadata !1313)
  call void @llvm.experimental.noalias.scope.decl(metadata !1315)
  call void @llvm.experimental.noalias.scope.decl(metadata !1318)
  %_3.i.i.i.i14.i = load i32, ptr %_7.i13.i, align 4, !alias.scope !1320, !noalias !1321, !noundef !18
  %_4.i.i.i.i15.i = load i32, ptr %_27.i, align 4, !alias.scope !1322, !noalias !1323, !noundef !18
  %_0.i.i16.i = icmp slt i32 %_3.i.i.i.i14.i, %_4.i.i.i.i15.i
  %_12.i17.i = getelementptr inbounds nuw i8, ptr %_27.i, i64 12
  %_14.i18.i = getelementptr inbounds nuw i8, ptr %_27.i, i64 8
  call void @llvm.experimental.noalias.scope.decl(metadata !1324)
  call void @llvm.experimental.noalias.scope.decl(metadata !1327)
  call void @llvm.experimental.noalias.scope.decl(metadata !1329)
  call void @llvm.experimental.noalias.scope.decl(metadata !1332)
  call void @llvm.experimental.noalias.scope.decl(metadata !1334)
  call void @llvm.experimental.noalias.scope.decl(metadata !1337)
  %_3.i.i.i7.i19.i = load i32, ptr %_12.i17.i, align 4, !alias.scope !1339, !noalias !1340, !noundef !18
  %_4.i.i.i8.i20.i = load i32, ptr %_14.i18.i, align 4, !alias.scope !1341, !noalias !1342, !noundef !18
  %_0.i9.i21.i = icmp slt i32 %_3.i.i.i7.i19.i, %_4.i.i.i8.i20.i
  %count.i22.i = zext i1 %_0.i.i16.i to i64
  %a.i23.i = getelementptr inbounds nuw i32, ptr %_27.i, i64 %count.i22.i
  %_19.i24.i = xor i1 %_0.i.i16.i, true
  %count2.i25.i = zext i1 %_19.i24.i to i64
  %b.i26.i = getelementptr inbounds nuw i32, ptr %_27.i, i64 %count2.i25.i
  %count3.i27.i = select i1 %_0.i9.i21.i, i64 3, i64 2
  %c.i28.i = getelementptr inbounds nuw i32, ptr %_27.i, i64 %count3.i27.i
  %count4.i29.i = select i1 %_0.i9.i21.i, i64 2, i64 3
  %d.i30.i = getelementptr inbounds nuw i32, ptr %_27.i, i64 %count4.i29.i
  call void @llvm.experimental.noalias.scope.decl(metadata !1343)
  call void @llvm.experimental.noalias.scope.decl(metadata !1346)
  call void @llvm.experimental.noalias.scope.decl(metadata !1348)
  call void @llvm.experimental.noalias.scope.decl(metadata !1351)
  call void @llvm.experimental.noalias.scope.decl(metadata !1353)
  call void @llvm.experimental.noalias.scope.decl(metadata !1356)
  %_3.i.i.i10.i31.i = load i32, ptr %c.i28.i, align 4, !alias.scope !1358, !noalias !1359, !noundef !18
  %_4.i.i.i11.i32.i = load i32, ptr %a.i23.i, align 4, !alias.scope !1360, !noalias !1361, !noundef !18
  %_0.i12.i33.i = icmp slt i32 %_3.i.i.i10.i31.i, %_4.i.i.i11.i32.i
  call void @llvm.experimental.noalias.scope.decl(metadata !1362)
  call void @llvm.experimental.noalias.scope.decl(metadata !1365)
  call void @llvm.experimental.noalias.scope.decl(metadata !1367)
  call void @llvm.experimental.noalias.scope.decl(metadata !1370)
  call void @llvm.experimental.noalias.scope.decl(metadata !1372)
  call void @llvm.experimental.noalias.scope.decl(metadata !1375)
  %_3.i.i.i13.i34.i = load i32, ptr %d.i30.i, align 4, !alias.scope !1377, !noalias !1378, !noundef !18
  %_4.i.i.i14.i35.i = load i32, ptr %b.i26.i, align 4, !alias.scope !1379, !noalias !1380, !noundef !18
  %_0.i15.i36.i = icmp slt i32 %_3.i.i.i13.i34.i, %_4.i.i.i14.i35.i
  %14 = call i32 @llvm.smin.i32(i32 %_3.i.i.i10.i31.i, i32 %_4.i.i.i11.i32.i)
  %15 = select i1 %_0.i15.i36.i, ptr %c.i28.i, ptr %b.i26.i, !unpredictable !18
  %16 = select i1 %_0.i12.i33.i, ptr %a.i23.i, ptr %15, !unpredictable !18
  %17 = select i1 %_0.i12.i33.i, ptr %b.i26.i, ptr %c.i28.i, !unpredictable !18
  %18 = select i1 %_0.i15.i36.i, ptr %d.i30.i, ptr %17, !unpredictable !18
  call void @llvm.experimental.noalias.scope.decl(metadata !1381)
  call void @llvm.experimental.noalias.scope.decl(metadata !1384)
  call void @llvm.experimental.noalias.scope.decl(metadata !1386)
  call void @llvm.experimental.noalias.scope.decl(metadata !1389)
  call void @llvm.experimental.noalias.scope.decl(metadata !1391)
  call void @llvm.experimental.noalias.scope.decl(metadata !1394)
  %_3.i.i.i16.i37.i = load i32, ptr %18, align 4, !alias.scope !1396, !noalias !1397, !noundef !18
  %_4.i.i.i17.i38.i = load i32, ptr %16, align 4, !alias.scope !1398, !noalias !1399, !noundef !18
  store i32 %14, ptr %_28.i, align 4, !alias.scope !1206, !noalias !1304
  %dst5.i40.i = getelementptr inbounds nuw i8, ptr %_28.i, i64 4
  %19 = call i32 @llvm.smin.i32(i32 %_3.i.i.i16.i37.i, i32 %_4.i.i.i17.i38.i)
  store i32 %19, ptr %dst5.i40.i, align 4, !alias.scope !1206, !noalias !1304
  %dst6.i43.i = getelementptr inbounds nuw i8, ptr %_28.i, i64 8
  %20 = call i32 @llvm.smax.i32(i32 %_3.i.i.i16.i37.i, i32 %_4.i.i.i17.i38.i)
  store i32 %20, ptr %dst6.i43.i, align 4, !alias.scope !1206, !noalias !1304
  %21 = getelementptr inbounds nuw i8, ptr %_28.i, i64 12
  %22 = call i32 @llvm.smax.i32(i32 %_3.i.i.i13.i34.i, i32 %_4.i.i.i14.i35.i)
  store i32 %22, ptr %21, align 4, !alias.scope !1206, !noalias !1304
  br label %bb15.i

bb46.i:                                           ; preds = %bb9.i
  %23 = load i32, ptr %v.sroa.0.0.ph.lcssa129, align 4, !alias.scope !1203, !noalias !1400
  store i32 %23, ptr %scratch.0, align 4, !alias.scope !1206, !noalias !1304
  %_31.i = getelementptr inbounds nuw i32, ptr %v.sroa.0.0.ph.lcssa129, i64 %len_div_211.i
  %24 = getelementptr inbounds nuw i32, ptr %scratch.0, i64 %len_div_211.i
  %25 = load i32, ptr %_31.i, align 4, !alias.scope !1203, !noalias !1400
  store i32 %25, ptr %24, align 4, !alias.scope !1206, !noalias !1304
  br label %bb15.i

bb15.i:                                           ; preds = %bb46.i, %bb10.i, %bb6.i
  %presorted_len.sroa.0.0.i = phi i64 [ 8, %bb6.i ], [ 4, %bb10.i ], [ 1, %bb46.i ]
  %26 = sub nsw i64 %v.sroa.16.0.lcssa, %len_div_211.i
  %_8061.i = icmp samesign ult i64 %presorted_len.sroa.0.0.i, %len_div_211.i
  br i1 %_8061.i, label %bb24.preheader.i, label %bb16.loopexit.i

bb16.loopexit.i:                                  ; preds = %_ZN4core5slice4sort6shared9smallsort11insert_tail17h56ae50ec7dbaf211E.exit.i, %bb15.i
  %src5.1.i = getelementptr inbounds nuw i32, ptr %v.sroa.0.0.ph.lcssa129, i64 %len_div_211.i
  %dst6.1.i = getelementptr i32, ptr %scratch.0, i64 %len_div_211.i
  %_8061.1.i = icmp ult i64 %presorted_len.sroa.0.0.i, %26
  br i1 %_8061.1.i, label %bb24.preheader.1.i, label %bb16.loopexit.1.i

bb24.preheader.1.i:                               ; preds = %bb16.loopexit.i
  %iter1.sroa.0.163.1.i = add nuw nsw i64 %presorted_len.sroa.0.0.i, 1
  br label %bb24.1.i

bb24.1.i:                                         ; preds = %_ZN4core5slice4sort6shared9smallsort11insert_tail17h56ae50ec7dbaf211E.exit.1.i, %bb24.preheader.1.i
  %iter1.sroa.0.165.1.i = phi i64 [ %iter1.sroa.0.1.1.i, %_ZN4core5slice4sort6shared9smallsort11insert_tail17h56ae50ec7dbaf211E.exit.1.i ], [ %iter1.sroa.0.163.1.i, %bb24.preheader.1.i ]
  %iter1.sroa.0.064.1.i = phi i64 [ %iter1.sroa.0.165.1.i, %_ZN4core5slice4sort6shared9smallsort11insert_tail17h56ae50ec7dbaf211E.exit.1.i ], [ %presorted_len.sroa.0.0.i, %bb24.preheader.1.i ]
  %_55.1.i = getelementptr inbounds nuw i32, ptr %src5.1.i, i64 %iter1.sroa.0.064.1.i
  %dst7.1.i = getelementptr inbounds nuw i32, ptr %dst6.1.i, i64 %iter1.sroa.0.064.1.i
  %27 = load i32, ptr %_55.1.i, align 4, !alias.scope !1203, !noalias !1400
  store i32 %27, ptr %dst7.1.i, align 4, !alias.scope !1206, !noalias !1304
  %28 = getelementptr inbounds i8, ptr %dst7.1.i, i64 -4
  %_4.i.i.i.i55.1.i = load i32, ptr %28, align 4, !alias.scope !1401, !noalias !1408, !noundef !18
  %_0.i.i56.1.i = icmp slt i32 %27, %_4.i.i.i.i55.1.i
  br i1 %_0.i.i56.1.i, label %bb4.i.1.i, label %_ZN4core5slice4sort6shared9smallsort11insert_tail17h56ae50ec7dbaf211E.exit.1.i

bb4.i.1.i:                                        ; preds = %bb24.1.i, %bb7.i.1.i
  %29 = phi i32 [ %_4.i.i.i2.i.1.i, %bb7.i.1.i ], [ %_4.i.i.i.i55.1.i, %bb24.1.i ]
  %gap_guard.sroa.5.0.i.1.i = phi ptr [ %sift.sroa.0.0.i.1.i, %bb7.i.1.i ], [ %dst7.1.i, %bb24.1.i ]
  %sift.sroa.0.0.i.1.i = phi ptr [ %30, %bb7.i.1.i ], [ %28, %bb24.1.i ]
  store i32 %29, ptr %gap_guard.sroa.5.0.i.1.i, align 4, !alias.scope !1206, !noalias !1304
  %_18.i.1.i = icmp eq ptr %sift.sroa.0.0.i.1.i, %dst6.1.i
  br i1 %_18.i.1.i, label %bb10.i.1.i, label %bb7.i.1.i

bb7.i.1.i:                                        ; preds = %bb4.i.1.i
  %30 = getelementptr inbounds i8, ptr %sift.sroa.0.0.i.1.i, i64 -4
  %_4.i.i.i2.i.1.i = load i32, ptr %30, align 4, !alias.scope !1412, !noalias !1419, !noundef !18
  %_0.i3.i.1.i = icmp slt i32 %27, %_4.i.i.i2.i.1.i
  br i1 %_0.i3.i.1.i, label %bb4.i.1.i, label %bb10.i.1.i

bb10.i.1.i:                                       ; preds = %bb7.i.1.i, %bb4.i.1.i
  %sift.sroa.0.0.i.lcssa.1.i = phi ptr [ %sift.sroa.0.0.i.1.i, %bb7.i.1.i ], [ %dst6.1.i, %bb4.i.1.i ]
  store i32 %27, ptr %sift.sroa.0.0.i.lcssa.1.i, align 4, !alias.scope !1206, !noalias !1423
  br label %_ZN4core5slice4sort6shared9smallsort11insert_tail17h56ae50ec7dbaf211E.exit.1.i

_ZN4core5slice4sort6shared9smallsort11insert_tail17h56ae50ec7dbaf211E.exit.1.i: ; preds = %bb10.i.1.i, %bb24.1.i
  %_80.1.i = icmp ult i64 %iter1.sroa.0.165.1.i, %26
  %_84.1.i = zext i1 %_80.1.i to i64
  %iter1.sroa.0.1.1.i = add nuw i64 %iter1.sroa.0.165.1.i, %_84.1.i
  br i1 %_80.1.i, label %bb24.1.i, label %bb16.loopexit.1.i

bb16.loopexit.1.i:                                ; preds = %_ZN4core5slice4sort6shared9smallsort11insert_tail17h56ae50ec7dbaf211E.exit.1.i, %bb16.loopexit.i
  call void @llvm.experimental.noalias.scope.decl(metadata !1428)
  %count1.i.i = add nsw i64 %v.sroa.16.0.lcssa, -1
  %31 = getelementptr inbounds nuw i32, ptr %v.sroa.0.0.ph.lcssa129, i64 %count1.i.i
  %32 = getelementptr inbounds nuw i32, ptr %scratch.0, i64 %count1.i.i
  %33 = getelementptr i8, ptr %dst6.1.i, i64 -4
  br label %bb15.i.i

bb24.preheader.i:                                 ; preds = %bb15.i
  %iter1.sroa.0.163.i = add nuw nsw i64 %presorted_len.sroa.0.0.i, 1
  br label %bb24.i

bb16.i.i:                                         ; preds = %bb15.i.i
  %34 = getelementptr i8, ptr %39, i64 4
  %35 = getelementptr i8, ptr %38, i64 4
  %_44.i.i = and i64 %v.sroa.16.0.lcssa, 1
  %_22.i.i = icmp eq i64 %_44.i.i, 0
  br i1 %_22.i.i, label %bb9.i.i, label %bb5.i.i

bb15.i.i:                                         ; preds = %bb15.i.i, %bb16.loopexit.1.i
  %dst.sroa.0.029.i.i = phi ptr [ %_16.i.i.i, %bb15.i.i ], [ %v.sroa.0.0.ph.lcssa129, %bb16.loopexit.1.i ]
  %iter.sroa.0.028.i.i = phi i64 [ %_39.i.i, %bb15.i.i ], [ 0, %bb16.loopexit.1.i ]
  %left.sroa.0.027.i.i = phi ptr [ %_14.i.i.i, %bb15.i.i ], [ %scratch.0, %bb16.loopexit.1.i ]
  %right.sroa.0.026.i.i = phi ptr [ %_12.i.i.i, %bb15.i.i ], [ %dst6.1.i, %bb16.loopexit.1.i ]
  %left_rev.sroa.0.025.i.i = phi ptr [ %39, %bb15.i.i ], [ %33, %bb16.loopexit.1.i ]
  %right_rev.sroa.0.024.i.i = phi ptr [ %38, %bb15.i.i ], [ %32, %bb16.loopexit.1.i ]
  %dst_rev.sroa.0.023.i.i = phi ptr [ %40, %bb15.i.i ], [ %31, %bb16.loopexit.1.i ]
  %_39.i.i = add nuw nsw i64 %iter.sroa.0.028.i.i, 1
  call void @llvm.experimental.noalias.scope.decl(metadata !1431)
  call void @llvm.experimental.noalias.scope.decl(metadata !1434)
  call void @llvm.experimental.noalias.scope.decl(metadata !1436), !noalias !1439
  call void @llvm.experimental.noalias.scope.decl(metadata !1442), !noalias !1439
  call void @llvm.experimental.noalias.scope.decl(metadata !1444), !noalias !1439
  call void @llvm.experimental.noalias.scope.decl(metadata !1447), !noalias !1439
  %_3.i.i.i.i48.i = load i32, ptr %right.sroa.0.026.i.i, align 4, !alias.scope !1449, !noalias !1450, !noundef !18
  %_4.i.i.i.i49.i = load i32, ptr %left.sroa.0.027.i.i, align 4, !alias.scope !1451, !noalias !1452, !noundef !18
  %_0.i.i50.i = icmp slt i32 %_3.i.i.i.i48.i, %_4.i.i.i.i49.i
  %is_l.i18.i.i = xor i1 %_0.i.i50.i, true
  %36 = call i32 @llvm.smin.i32(i32 %_3.i.i.i.i48.i, i32 %_4.i.i.i.i49.i)
  store i32 %36, ptr %dst.sroa.0.029.i.i, align 4, !alias.scope !1203, !noalias !1453
  %count.i.i.i = zext i1 %_0.i.i50.i to i64
  %_12.i.i.i = getelementptr inbounds nuw i32, ptr %right.sroa.0.026.i.i, i64 %count.i.i.i
  %count2.i.i.i = zext i1 %is_l.i18.i.i to i64
  %_14.i.i.i = getelementptr inbounds nuw i32, ptr %left.sroa.0.027.i.i, i64 %count2.i.i.i
  %_16.i.i.i = getelementptr inbounds nuw i8, ptr %dst.sroa.0.029.i.i, i64 4
  call void @llvm.experimental.noalias.scope.decl(metadata !1455)
  call void @llvm.experimental.noalias.scope.decl(metadata !1458)
  call void @llvm.experimental.noalias.scope.decl(metadata !1460), !noalias !1463
  call void @llvm.experimental.noalias.scope.decl(metadata !1466), !noalias !1463
  call void @llvm.experimental.noalias.scope.decl(metadata !1468), !noalias !1463
  call void @llvm.experimental.noalias.scope.decl(metadata !1471), !noalias !1463
  %_3.i.i.i19.i.i = load i32, ptr %right_rev.sroa.0.024.i.i, align 4, !alias.scope !1473, !noalias !1474, !noundef !18
  %_4.i.i.i20.i.i = load i32, ptr %left_rev.sroa.0.025.i.i, align 4, !alias.scope !1475, !noalias !1476, !noundef !18
  %_0.i21.i.i = icmp slt i32 %_3.i.i.i19.i.i, %_4.i.i.i20.i.i
  %is_l.i.i.i = xor i1 %_0.i21.i.i, true
  %37 = call i32 @llvm.smax.i32(i32 %_3.i.i.i19.i.i, i32 %_4.i.i.i20.i.i)
  store i32 %37, ptr %dst_rev.sroa.0.023.i.i, align 4, !alias.scope !1203, !noalias !1477
  %count.neg.i.i.i = sext i1 %is_l.i.i.i to i64
  %38 = getelementptr i32, ptr %right_rev.sroa.0.024.i.i, i64 %count.neg.i.i.i
  %count3.neg.i.i.i = sext i1 %_0.i21.i.i to i64
  %39 = getelementptr i32, ptr %left_rev.sroa.0.025.i.i, i64 %count3.neg.i.i.i
  %40 = getelementptr inbounds i8, ptr %dst_rev.sroa.0.023.i.i, i64 -4
  %exitcond.not.i.i = icmp eq i64 %_39.i.i, %len_div_211.i
  br i1 %exitcond.not.i.i, label %bb16.i.i, label %bb15.i.i

bb5.i.i:                                          ; preds = %bb16.i.i
  %left_nonempty.i.i = icmp ult ptr %_14.i.i.i, %34
  %left.sroa.0.0.right.sroa.0.0.i.i = select i1 %left_nonempty.i.i, ptr %_14.i.i.i, ptr %_12.i.i.i
  %41 = load i32, ptr %left.sroa.0.0.right.sroa.0.0.i.i, align 4, !alias.scope !1479, !noalias !1304
  store i32 %41, ptr %_16.i.i.i, align 4, !alias.scope !1203, !noalias !1480
  %count2.i51.i = zext i1 %left_nonempty.i.i to i64
  %_26.i.i = getelementptr inbounds nuw i32, ptr %_14.i.i.i, i64 %count2.i51.i
  %_30.i.i = xor i1 %left_nonempty.i.i, true
  %count3.i52.i = zext i1 %_30.i.i to i64
  %_28.i.i = getelementptr inbounds nuw i32, ptr %_12.i.i.i, i64 %count3.i52.i
  br label %bb9.i.i

bb9.i.i:                                          ; preds = %bb5.i.i, %bb16.i.i
  %right.sroa.0.1.i.i = phi ptr [ %_12.i.i.i, %bb16.i.i ], [ %_28.i.i, %bb5.i.i ]
  %left.sroa.0.1.i.i = phi ptr [ %_14.i.i.i, %bb16.i.i ], [ %_26.i.i, %bb5.i.i ]
  %_31.i.i = icmp ne ptr %left.sroa.0.1.i.i, %34
  %_32.i.i = icmp ne ptr %right.sroa.0.1.i.i, %35
  %or.cond.i.i = select i1 %_31.i.i, i1 true, i1 %_32.i.i
  br i1 %or.cond.i.i, label %bb13.i.i, label %bb22, !prof !440

bb13.i.i:                                         ; preds = %bb9.i.i
; invoke core::slice::sort::shared::smallsort::panic_on_ord_violation
  invoke void @_ZN4core5slice4sort6shared9smallsort22panic_on_ord_violation17hc77a22a2d50782cdE() #21
          to label %.noexc.i unwind label %cleanup2.i, !noalias !1481

.noexc.i:                                         ; preds = %bb13.i.i
  unreachable

cleanup2.i:                                       ; preds = %bb13.i.i
  %42 = landingpad { ptr, i32 }
          cleanup
  %43 = shl nuw nsw i64 %v.sroa.16.0.lcssa, 2
  call void @llvm.memcpy.p0.p0.i64(ptr nonnull align 4 %v.sroa.0.0.ph.lcssa129, ptr nonnull align 4 %scratch.0, i64 %43, i1 false), !alias.scope !1482, !noalias !1483
  resume { ptr, i32 } %42

bb24.i:                                           ; preds = %_ZN4core5slice4sort6shared9smallsort11insert_tail17h56ae50ec7dbaf211E.exit.i, %bb24.preheader.i
  %iter1.sroa.0.165.i = phi i64 [ %iter1.sroa.0.1.i, %_ZN4core5slice4sort6shared9smallsort11insert_tail17h56ae50ec7dbaf211E.exit.i ], [ %iter1.sroa.0.163.i, %bb24.preheader.i ]
  %iter1.sroa.0.064.i = phi i64 [ %iter1.sroa.0.165.i, %_ZN4core5slice4sort6shared9smallsort11insert_tail17h56ae50ec7dbaf211E.exit.i ], [ %presorted_len.sroa.0.0.i, %bb24.preheader.i ]
  %_55.i = getelementptr inbounds nuw i32, ptr %v.sroa.0.0.ph.lcssa129, i64 %iter1.sroa.0.064.i
  %dst7.i = getelementptr inbounds nuw i32, ptr %scratch.0, i64 %iter1.sroa.0.064.i
  %44 = load i32, ptr %_55.i, align 4, !alias.scope !1203, !noalias !1400
  store i32 %44, ptr %dst7.i, align 4, !alias.scope !1206, !noalias !1304
  %45 = getelementptr inbounds i8, ptr %dst7.i, i64 -4
  %_4.i.i.i.i55.i = load i32, ptr %45, align 4, !alias.scope !1401, !noalias !1408, !noundef !18
  %_0.i.i56.i = icmp slt i32 %44, %_4.i.i.i.i55.i
  br i1 %_0.i.i56.i, label %bb4.i.i, label %_ZN4core5slice4sort6shared9smallsort11insert_tail17h56ae50ec7dbaf211E.exit.i

bb4.i.i:                                          ; preds = %bb24.i, %bb7.i.i
  %46 = phi i32 [ %_4.i.i.i2.i.i, %bb7.i.i ], [ %_4.i.i.i.i55.i, %bb24.i ]
  %gap_guard.sroa.5.0.i.i = phi ptr [ %sift.sroa.0.0.i.i, %bb7.i.i ], [ %dst7.i, %bb24.i ]
  %sift.sroa.0.0.i.i = phi ptr [ %47, %bb7.i.i ], [ %45, %bb24.i ]
  store i32 %46, ptr %gap_guard.sroa.5.0.i.i, align 4, !alias.scope !1206, !noalias !1304
  %_18.i.i = icmp eq ptr %sift.sroa.0.0.i.i, %scratch.0
  br i1 %_18.i.i, label %bb10.i.i, label %bb7.i.i

bb7.i.i:                                          ; preds = %bb4.i.i
  %47 = getelementptr inbounds i8, ptr %sift.sroa.0.0.i.i, i64 -4
  %_4.i.i.i2.i.i = load i32, ptr %47, align 4, !alias.scope !1412, !noalias !1419, !noundef !18
  %_0.i3.i.i = icmp slt i32 %44, %_4.i.i.i2.i.i
  br i1 %_0.i3.i.i, label %bb4.i.i, label %bb10.i.i

bb10.i.i:                                         ; preds = %bb7.i.i, %bb4.i.i
  %sift.sroa.0.0.i.lcssa.i = phi ptr [ %sift.sroa.0.0.i.i, %bb7.i.i ], [ %scratch.0, %bb4.i.i ]
  store i32 %44, ptr %sift.sroa.0.0.i.lcssa.i, align 4, !alias.scope !1206, !noalias !1423
  br label %_ZN4core5slice4sort6shared9smallsort11insert_tail17h56ae50ec7dbaf211E.exit.i

_ZN4core5slice4sort6shared9smallsort11insert_tail17h56ae50ec7dbaf211E.exit.i: ; preds = %bb10.i.i, %bb24.i
  %_80.i = icmp ult i64 %iter1.sroa.0.165.i, %len_div_211.i
  %_84.i = zext i1 %_80.i to i64
  %iter1.sroa.0.1.i = add nuw i64 %iter1.sroa.0.165.i, %_84.i
  br i1 %_80.i, label %bb24.i, label %bb16.loopexit.i

bb7:                                              ; preds = %bb5
  %48 = add i32 %limit.sroa.0.0131, -1
  %len_div_84.i = lshr i64 %v.sroa.16.0132, 3
  %b.idx.i = shl nuw nsw i64 %len_div_84.i, 4
  %b.i = getelementptr inbounds nuw i8, ptr %v.sroa.0.0.ph140, i64 %b.idx.i
  %c.idx.i = mul nuw nsw i64 %len_div_84.i, 28
  %c.i = getelementptr inbounds nuw i8, ptr %v.sroa.0.0.ph140, i64 %c.idx.i
  %_12.i = icmp samesign ult i64 %v.sroa.16.0132, 64
  br i1 %_12.i, label %bb3.i23, label %bb5.i

bb5.i:                                            ; preds = %bb7
; call core::slice::sort::shared::pivot::median3_rec
  %self.i = call fastcc noundef ptr @_ZN4core5slice4sort6shared5pivot11median3_rec17h63df4c18b3244a7aE(ptr noundef nonnull readonly align 4 %v.sroa.0.0.ph140, ptr noundef readonly %b.i, ptr noundef readonly %c.i, i64 noundef %len_div_84.i)
  br label %bb10

bb3.i23:                                          ; preds = %bb7
  call void @llvm.experimental.noalias.scope.decl(metadata !1488)
  call void @llvm.experimental.noalias.scope.decl(metadata !1491)
  call void @llvm.experimental.noalias.scope.decl(metadata !1493), !noalias !1496
  call void @llvm.experimental.noalias.scope.decl(metadata !1499), !noalias !1496
  call void @llvm.experimental.noalias.scope.decl(metadata !1501), !noalias !1496
  call void @llvm.experimental.noalias.scope.decl(metadata !1504), !noalias !1496
  %_3.i.i.i.i = load i32, ptr %v.sroa.0.0.ph140, align 4, !alias.scope !1506, !noalias !1509, !noundef !18
  %_4.i.i.i.i = load i32, ptr %b.i, align 4, !alias.scope !1511, !noalias !1512, !noundef !18
  %_0.i.i = icmp slt i32 %_3.i.i.i.i, %_4.i.i.i.i
  %_4.i.i.i6.i = load i32, ptr %c.i, align 4, !alias.scope !1513, !noalias !1520, !noundef !18
  %_0.i7.i = icmp slt i32 %_3.i.i.i.i, %_4.i.i.i6.i
  %49 = xor i1 %_0.i.i, %_0.i7.i
  %_0.i10.i = icmp slt i32 %_4.i.i.i.i, %_4.i.i.i6.i
  %_12.i.i24 = xor i1 %_0.i.i, %_0.i10.i
  %c.b.i.i = select i1 %_12.i.i24, ptr %c.i, ptr %b.i
  %_0.sroa.0.0.i.i = select i1 %49, ptr %v.sroa.0.0.ph140, ptr %c.b.i.i
  br label %bb10

bb6:                                              ; preds = %bb5
; call core::slice::sort::stable::drift::sort
  call fastcc void @_ZN4core5slice4sort6stable5drift4sort17hbd75ce168a8b00beE(ptr noalias noundef nonnull align 4 %v.sroa.0.0.ph140, i64 noundef %v.sroa.16.0132, ptr noalias noundef nonnull align 4 %scratch.0, i64 noundef %scratch.1, i1 noundef zeroext true, ptr noalias noundef align 8 dereferenceable(8) %is_less)
  br label %bb22

bb10:                                             ; preds = %bb3.i23, %bb5.i
  %_0.sroa.0.0.i.sink.i = phi ptr [ %_0.sroa.0.0.i.i, %bb3.i23 ], [ %self.i, %bb5.i ]
  %50 = ptrtoint ptr %_0.sroa.0.0.i.sink.i to i64
  %51 = sub nuw i64 %50, %4
  %index.sroa.0.0.i = lshr exact i64 %51, 2
  %cond.i = icmp samesign ult i64 %index.sroa.0.0.i, %v.sroa.16.0132
  call void @llvm.assume(i1 %cond.i)
  call void @llvm.lifetime.start.p0(i64 4, ptr nonnull %pivot_copy)
  %src = getelementptr inbounds nuw i8, ptr %v.sroa.0.0.ph140, i64 %51
  %value = load i32, ptr %src, align 4, !noundef !18
  store i32 %value, ptr %pivot_copy, align 4
  br i1 %.not, label %bb14, label %bb12

bb12:                                             ; preds = %bb10
  %_3.i.i.i = load i32, ptr %left_ancestor_pivot.sroa.0.0.ph137, align 4, !alias.scope !1524, !noalias !1531, !noundef !18
  %_0.i = icmp slt i32 %_3.i.i.i, %value
  br i1 %_0.i, label %bb14, label %bb17

bb14:                                             ; preds = %bb10, %bb12
  call void @llvm.experimental.noalias.scope.decl(metadata !1535)
  call void @llvm.experimental.noalias.scope.decl(metadata !1538)
  %_8.i25.not = icmp samesign ult i64 %scratch.1, %v.sroa.16.0132
  br i1 %_8.i25.not, label %bb31.i, label %bb33.i, !prof !440

bb33.i:                                           ; preds = %bb14
  %_86.i = getelementptr i32, ptr %scratch.0, i64 %v.sroa.16.0132
  br label %bb3.i26

bb31.i:                                           ; preds = %bb14
  call void @llvm.trap()
  unreachable

bb3.i26:                                          ; preds = %bb23.i, %bb33.i
  %state.sroa.27.0.i = phi i64 [ 0, %bb33.i ], [ %state.sroa.27.2.lcssa.i, %bb23.i ]
  %state.sroa.9.0.i = phi ptr [ %v.sroa.0.0.ph140, %bb33.i ], [ %_9.i70.i, %bb23.i ]
  %state.sroa.43.0.i = phi ptr [ %_86.i, %bb33.i ], [ %63, %bb23.i ]
  %pivot_pos.sroa.0.0.i = phi i64 [ %index.sroa.0.0.i, %bb33.i ], [ %v.sroa.16.0132, %bb23.i ]
  %52 = call i64 @llvm.usub.sat.i64(i64 %pivot_pos.sroa.0.0.i, i64 3)
  %unroll_end.i = getelementptr inbounds nuw i32, ptr %v.sroa.0.0.ph140, i64 %52
  %_1984.i = icmp ult ptr %state.sroa.9.0.i, %unroll_end.i
  br i1 %_1984.i, label %bb6.i28.preheader, label %bb16.i

bb6.i28.preheader:                                ; preds = %bb3.i26
  %_4.i.i.i.i30 = load i32, ptr %src, align 4, !alias.scope !1540, !noalias !1547, !noundef !18
  br label %bb6.i28

bb6.i28:                                          ; preds = %bb6.i28.preheader, %bb6.i28
  %state.sroa.43.187.i = phi ptr [ %59, %bb6.i28 ], [ %state.sroa.43.0.i, %bb6.i28.preheader ]
  %state.sroa.9.186.i = phi ptr [ %_9.i54.i, %bb6.i28 ], [ %state.sroa.9.0.i, %bb6.i28.preheader ]
  %state.sroa.27.185.i = phi i64 [ %60, %bb6.i28 ], [ %state.sroa.27.0.i, %bb6.i28.preheader ]
  call void @llvm.experimental.noalias.scope.decl(metadata !1551)
  call void @llvm.experimental.noalias.scope.decl(metadata !1552)
  call void @llvm.experimental.noalias.scope.decl(metadata !1553)
  call void @llvm.experimental.noalias.scope.decl(metadata !1554)
  call void @llvm.experimental.noalias.scope.decl(metadata !1555)
  call void @llvm.experimental.noalias.scope.decl(metadata !1556)
  %_3.i.i.i.i29 = load i32, ptr %state.sroa.9.186.i, align 4, !alias.scope !1557, !noalias !1558, !noundef !18
  %_0.i.i31 = icmp slt i32 %_3.i.i.i.i29, %_4.i.i.i.i30
  %53 = getelementptr inbounds i8, ptr %state.sroa.43.187.i, i64 -4
  %dst_base.sroa.0.0.i.i = select i1 %_0.i.i31, ptr %scratch.0, ptr %53
  %dst.i.i = getelementptr inbounds nuw i32, ptr %dst_base.sroa.0.0.i.i, i64 %state.sroa.27.185.i
  store i32 %_3.i.i.i.i29, ptr %dst.i.i, align 4, !alias.scope !1538, !noalias !1559
  %_8.i.i = zext i1 %_0.i.i31 to i64
  %54 = add i64 %state.sroa.27.185.i, %_8.i.i
  %_9.i.i = getelementptr inbounds nuw i8, ptr %state.sroa.9.186.i, i64 4
  %_3.i.i.i25.i = load i32, ptr %_9.i.i, align 4, !alias.scope !1562, !noalias !1569, !noundef !18
  %_0.i27.i = icmp slt i32 %_3.i.i.i25.i, %_4.i.i.i.i30
  %55 = getelementptr inbounds i8, ptr %state.sroa.43.187.i, i64 -8
  %dst_base.sroa.0.0.i29.i = select i1 %_0.i27.i, ptr %scratch.0, ptr %55
  %dst.i31.i = getelementptr inbounds nuw i32, ptr %dst_base.sroa.0.0.i29.i, i64 %54
  store i32 %_3.i.i.i25.i, ptr %dst.i31.i, align 4, !alias.scope !1538, !noalias !1573
  %_8.i33.i = zext i1 %_0.i27.i to i64
  %56 = add i64 %54, %_8.i33.i
  %_9.i34.i = getelementptr inbounds nuw i8, ptr %state.sroa.9.186.i, i64 8
  %_3.i.i.i35.i = load i32, ptr %_9.i34.i, align 4, !alias.scope !1576, !noalias !1583, !noundef !18
  %_0.i37.i = icmp slt i32 %_3.i.i.i35.i, %_4.i.i.i.i30
  %57 = getelementptr inbounds i8, ptr %state.sroa.43.187.i, i64 -12
  %dst_base.sroa.0.0.i39.i = select i1 %_0.i37.i, ptr %scratch.0, ptr %57
  %dst.i41.i = getelementptr inbounds nuw i32, ptr %dst_base.sroa.0.0.i39.i, i64 %56
  store i32 %_3.i.i.i35.i, ptr %dst.i41.i, align 4, !alias.scope !1538, !noalias !1587
  %_8.i43.i = zext i1 %_0.i37.i to i64
  %58 = add i64 %56, %_8.i43.i
  %_9.i44.i = getelementptr inbounds nuw i8, ptr %state.sroa.9.186.i, i64 12
  %_3.i.i.i45.i = load i32, ptr %_9.i44.i, align 4, !alias.scope !1590, !noalias !1597, !noundef !18
  %_0.i47.i = icmp slt i32 %_3.i.i.i45.i, %_4.i.i.i.i30
  %59 = getelementptr inbounds i8, ptr %state.sroa.43.187.i, i64 -16
  %dst_base.sroa.0.0.i49.i = select i1 %_0.i47.i, ptr %scratch.0, ptr %59
  %dst.i51.i = getelementptr inbounds nuw i32, ptr %dst_base.sroa.0.0.i49.i, i64 %58
  store i32 %_3.i.i.i45.i, ptr %dst.i51.i, align 4, !alias.scope !1538, !noalias !1601
  %_8.i53.i = zext i1 %_0.i47.i to i64
  %60 = add i64 %58, %_8.i53.i
  %_9.i54.i = getelementptr inbounds nuw i8, ptr %state.sroa.9.186.i, i64 16
  %_19.i32 = icmp ult ptr %_9.i54.i, %unroll_end.i
  br i1 %_19.i32, label %bb6.i28, label %bb16.i

bb16.i:                                           ; preds = %bb6.i28, %bb3.i26
  %state.sroa.27.1.lcssa.i = phi i64 [ %state.sroa.27.0.i, %bb3.i26 ], [ %60, %bb6.i28 ]
  %state.sroa.9.1.lcssa.i = phi ptr [ %state.sroa.9.0.i, %bb3.i26 ], [ %_9.i54.i, %bb6.i28 ]
  %state.sroa.43.1.lcssa.i = phi ptr [ %state.sroa.43.0.i, %bb3.i26 ], [ %59, %bb6.i28 ]
  %loop_end.i = getelementptr inbounds nuw i32, ptr %v.sroa.0.0.ph140, i64 %pivot_pos.sroa.0.0.i
  %_4790.i = icmp ult ptr %state.sroa.9.1.lcssa.i, %loop_end.i
  br i1 %_4790.i, label %bb18.i.preheader, label %bb21.i

bb18.i.preheader:                                 ; preds = %bb16.i
  %_4.i.i.i56.i = load i32, ptr %src, align 4, !alias.scope !1604, !noalias !1611, !noundef !18
  br label %bb18.i

bb21.i:                                           ; preds = %bb18.i, %bb16.i
  %state.sroa.27.2.lcssa.i = phi i64 [ %state.sroa.27.1.lcssa.i, %bb16.i ], [ %62, %bb18.i ]
  %state.sroa.9.2.lcssa.i = phi ptr [ %state.sroa.9.1.lcssa.i, %bb16.i ], [ %_9.i64.i, %bb18.i ]
  %state.sroa.43.2.lcssa.i = phi ptr [ %state.sroa.43.1.lcssa.i, %bb16.i ], [ %61, %bb18.i ]
  %_55.i27 = icmp eq i64 %pivot_pos.sroa.0.0.i, %v.sroa.16.0132
  br i1 %_55.i27, label %bb22.i, label %bb23.i

bb18.i:                                           ; preds = %bb18.i.preheader, %bb18.i
  %state.sroa.43.293.i = phi ptr [ %61, %bb18.i ], [ %state.sroa.43.1.lcssa.i, %bb18.i.preheader ]
  %state.sroa.9.292.i = phi ptr [ %_9.i64.i, %bb18.i ], [ %state.sroa.9.1.lcssa.i, %bb18.i.preheader ]
  %state.sroa.27.291.i = phi i64 [ %62, %bb18.i ], [ %state.sroa.27.1.lcssa.i, %bb18.i.preheader ]
  call void @llvm.experimental.noalias.scope.decl(metadata !1615)
  call void @llvm.experimental.noalias.scope.decl(metadata !1616)
  call void @llvm.experimental.noalias.scope.decl(metadata !1617)
  call void @llvm.experimental.noalias.scope.decl(metadata !1618)
  call void @llvm.experimental.noalias.scope.decl(metadata !1619)
  call void @llvm.experimental.noalias.scope.decl(metadata !1620)
  %_3.i.i.i55.i = load i32, ptr %state.sroa.9.292.i, align 4, !alias.scope !1621, !noalias !1622, !noundef !18
  %_0.i57.i = icmp slt i32 %_3.i.i.i55.i, %_4.i.i.i56.i
  %61 = getelementptr inbounds i8, ptr %state.sroa.43.293.i, i64 -4
  %dst_base.sroa.0.0.i59.i = select i1 %_0.i57.i, ptr %scratch.0, ptr %61
  %dst.i61.i = getelementptr inbounds nuw i32, ptr %dst_base.sroa.0.0.i59.i, i64 %state.sroa.27.291.i
  store i32 %_3.i.i.i55.i, ptr %dst.i61.i, align 4, !alias.scope !1538, !noalias !1623
  %_8.i63.i = zext i1 %_0.i57.i to i64
  %62 = add i64 %state.sroa.27.291.i, %_8.i63.i
  %_9.i64.i = getelementptr inbounds nuw i8, ptr %state.sroa.9.292.i, i64 4
  %_47.i = icmp ult ptr %_9.i64.i, %loop_end.i
  br i1 %_47.i, label %bb18.i, label %bb21.i

bb23.i:                                           ; preds = %bb21.i
  %63 = getelementptr inbounds i8, ptr %state.sroa.43.2.lcssa.i, i64 -4
  %dst.i68.i = getelementptr inbounds nuw i32, ptr %63, i64 %state.sroa.27.2.lcssa.i
  %64 = load i32, ptr %state.sroa.9.2.lcssa.i, align 4, !alias.scope !1535, !noalias !1626
  store i32 %64, ptr %dst.i68.i, align 4, !alias.scope !1538, !noalias !1629
  %_9.i70.i = getelementptr inbounds nuw i8, ptr %state.sroa.9.2.lcssa.i, i64 4
  br label %bb3.i26

bb22.i:                                           ; preds = %bb21.i
  %65 = shl i64 %state.sroa.27.2.lcssa.i, 2
  call void @llvm.memcpy.p0.p0.i64(ptr nonnull align 4 %v.sroa.0.0.ph140, ptr nonnull align 4 %scratch.0, i64 %65, i1 false), !alias.scope !1630
  %_63.i = sub i64 %v.sroa.16.0132, %state.sroa.27.2.lcssa.i
  %_9797.not.i = icmp eq i64 %v.sroa.16.0132, %state.sroa.27.2.lcssa.i
  br i1 %_9797.not.i, label %bb16, label %bb42.lr.ph.i

bb42.lr.ph.i:                                     ; preds = %bb22.i
  %66 = getelementptr i32, ptr %v.sroa.0.0.ph140, i64 %state.sroa.27.2.lcssa.i
  %min.iters.check265 = icmp ult i64 %_63.i, 8
  br i1 %min.iters.check265, label %bb42.i.preheader, label %vector.ph266

vector.ph266:                                     ; preds = %bb42.lr.ph.i
  %n.vec268 = and i64 %_63.i, -8
  br label %vector.body269

vector.body269:                                   ; preds = %vector.body269, %vector.ph266
  %index270 = phi i64 [ 0, %vector.ph266 ], [ %index.next275, %vector.body269 ]
  %67 = getelementptr i32, ptr %66, i64 %index270
  %68 = xor i64 %index270, -1
  %69 = getelementptr i32, ptr %_86.i, i64 %68
  %70 = getelementptr i8, ptr %69, i64 -12
  %71 = getelementptr i8, ptr %69, i64 -28
  %wide.load271 = load <4 x i32>, ptr %70, align 4, !alias.scope !1538, !noalias !1535
  %reverse272 = shufflevector <4 x i32> %wide.load271, <4 x i32> poison, <4 x i32> <i32 3, i32 2, i32 1, i32 0>
  %wide.load273 = load <4 x i32>, ptr %71, align 4, !alias.scope !1538, !noalias !1535
  %reverse274 = shufflevector <4 x i32> %wide.load273, <4 x i32> poison, <4 x i32> <i32 3, i32 2, i32 1, i32 0>
  %72 = getelementptr i8, ptr %67, i64 16
  store <4 x i32> %reverse272, ptr %67, align 4, !alias.scope !1535, !noalias !1538
  store <4 x i32> %reverse274, ptr %72, align 4, !alias.scope !1535, !noalias !1538
  %index.next275 = add nuw i64 %index270, 8
  %73 = icmp eq i64 %index.next275, %n.vec268
  br i1 %73, label %middle.block276, label %vector.body269, !llvm.loop !1631

middle.block276:                                  ; preds = %vector.body269
  %cmp.n277 = icmp eq i64 %_63.i, %n.vec268
  br i1 %cmp.n277, label %bb16, label %bb42.i.preheader

bb42.i.preheader:                                 ; preds = %bb42.lr.ph.i, %middle.block276
  %iter.sroa.0.098.i.ph = phi i64 [ 0, %bb42.lr.ph.i ], [ %n.vec268, %middle.block276 ]
  br label %bb42.i

bb42.i:                                           ; preds = %bb42.i.preheader, %bb42.i
  %iter.sroa.0.098.i = phi i64 [ %74, %bb42.i ], [ %iter.sroa.0.098.i.ph, %bb42.i.preheader ]
  %74 = add nuw i64 %iter.sroa.0.098.i, 1
  %75 = getelementptr i32, ptr %66, i64 %iter.sroa.0.098.i
  %76 = xor i64 %iter.sroa.0.098.i, -1
  %77 = getelementptr i32, ptr %_86.i, i64 %76
  %78 = load i32, ptr %77, align 4, !alias.scope !1538, !noalias !1535
  store i32 %78, ptr %75, align 4, !alias.scope !1535, !noalias !1538
  %exitcond.not.i = icmp eq i64 %74, %_63.i
  br i1 %exitcond.not.i, label %bb16, label %bb42.i, !llvm.loop !1632

bb16:                                             ; preds = %bb42.i, %middle.block276, %bb22.i
  %79 = icmp eq i64 %state.sroa.27.2.lcssa.i, 0
  br i1 %79, label %bb17, label %bb19

bb19:                                             ; preds = %bb16
  %_6.not.i = icmp ugt i64 %state.sroa.27.2.lcssa.i, %v.sroa.16.0132
  br i1 %_6.not.i, label %bb3.i33, label %"_ZN4core5slice29_$LT$impl$u20$$u5b$T$u5d$$GT$12split_at_mut17h77ab04c1f2f49d7cE.exit", !prof !1086

bb3.i33:                                          ; preds = %bb19
; call core::panicking::panic_fmt
  call void @_ZN4core9panicking9panic_fmt17ha4414e4328fe24a0E(ptr noundef nonnull @alloc_d1084648e479974e70c9329824bf76f9, ptr noundef nonnull inttoptr (i64 19 to ptr), ptr noalias noundef nonnull readonly align 8 captures(address, read_provenance) dereferenceable(24) @alloc_58d434a1e795f965ef82c8e9c5db822a) #21, !noalias !1633
  unreachable

"_ZN4core5slice29_$LT$impl$u20$$u5b$T$u5d$$GT$12split_at_mut17h77ab04c1f2f49d7cE.exit": ; preds = %bb19
  %80 = getelementptr inbounds nuw i32, ptr %v.sroa.0.0.ph140, i64 %state.sroa.27.2.lcssa.i
; call core::slice::sort::stable::quicksort::quicksort
  call void @_ZN4core5slice4sort6stable9quicksort9quicksort17hf41fb6ada53877c9E(ptr noalias noundef nonnull align 4 %80, i64 noundef %_63.i, ptr noalias noundef nonnull align 4 %scratch.0, i64 noundef %scratch.1, i32 noundef %48, ptr noalias noundef nonnull readonly align 4 captures(address, read_provenance) dereferenceable_or_null(4) %pivot_copy, ptr noalias noundef nonnull align 8 dereferenceable(8) %is_less) #24
  call void @llvm.lifetime.end.p0(i64 4, ptr nonnull %pivot_copy)
  %_8 = icmp ult i64 %state.sroa.27.2.lcssa.i, 33
  br i1 %_8, label %bb3, label %bb5

bb17:                                             ; preds = %bb12, %bb16
  call void @llvm.experimental.noalias.scope.decl(metadata !1637)
  call void @llvm.experimental.noalias.scope.decl(metadata !1640)
  %_8.i34.not = icmp samesign ult i64 %scratch.1, %v.sroa.16.0132
  br i1 %_8.i34.not, label %bb31.i37, label %bb33.i38, !prof !440

bb33.i38:                                         ; preds = %bb17
  %_86.i40 = getelementptr i32, ptr %scratch.0, i64 %v.sroa.16.0132
  br label %bb3.i41

bb31.i37:                                         ; preds = %bb17
  call void @llvm.trap()
  unreachable

bb3.i41:                                          ; preds = %bb23.i59, %bb33.i38
  %state.sroa.27.0.i42 = phi i64 [ 0, %bb33.i38 ], [ %94, %bb23.i59 ]
  %state.sroa.9.0.i43 = phi ptr [ %v.sroa.0.0.ph140, %bb33.i38 ], [ %_9.i70.i61, %bb23.i59 ]
  %state.sroa.43.0.i44 = phi ptr [ %_86.i40, %bb33.i38 ], [ %92, %bb23.i59 ]
  %pivot_pos.sroa.0.0.i45 = phi i64 [ %index.sroa.0.0.i, %bb33.i38 ], [ %v.sroa.16.0132, %bb23.i59 ]
  %81 = call i64 @llvm.usub.sat.i64(i64 %pivot_pos.sroa.0.0.i45, i64 3)
  %unroll_end.i46 = getelementptr inbounds nuw i32, ptr %v.sroa.0.0.ph140, i64 %81
  %_1984.i47 = icmp ult ptr %state.sroa.9.0.i43, %unroll_end.i46
  br i1 %_1984.i47, label %bb6.i78.preheader, label %bb16.i48

bb6.i78.preheader:                                ; preds = %bb3.i41
  %_3.i.i.i.i.i82 = load i32, ptr %src, align 4, !alias.scope !1642, !noalias !1651, !noundef !18
  br label %bb6.i78

bb6.i78:                                          ; preds = %bb6.i78.preheader, %bb6.i78
