; ModuleID = 'MINIMUM_SUM_TWO_NUMBERS_FORMED_DIGITS_ARRAY_2_emit.f9c3e781f65897f9-cgu.0'
source_filename = "MINIMUM_SUM_TWO_NUMBERS_FORMED_DIGITS_ARRAY_2_emit.f9c3e781f65897f9-cgu.0"
target datalayout = "e-m:e-p270:32:32-p271:32:32-p272:64:64-i64:64-i128:128-f80:128-n8:16:32:64-S128"
target triple = "x86_64-unknown-linux-gnu"

@alloc_d1084648e479974e70c9329824bf76f9 = private unnamed_addr constant [9 x i8] c"mid > len", align 1
@alloc_e8e5fd9f509afcb950667480b3e3e42a = private unnamed_addr constant [126 x i8] c"/root/.rustup/toolchains/stable-x86_64-unknown-linux-gnu/lib/rustlib/src/rust/library/core/src/slice/sort/stable/quicksort.rs\00", align 1
@alloc_58d434a1e795f965ef82c8e9c5db822a = private unnamed_addr constant <{ ptr, [16 x i8] }> <{ ptr @alloc_e8e5fd9f509afcb950667480b3e3e42a, [16 x i8] c"}\00\00\00\00\00\00\00J\00\00\00\1F\00\00\00" }>, align 8
@alloc_0766b232215672ee1bd2195fdb153938 = private unnamed_addr constant <{ ptr, [16 x i8] }> <{ ptr @alloc_e8e5fd9f509afcb950667480b3e3e42a, [16 x i8] c"}\00\00\00\00\00\00\00D\00\00\00\17\00\00\00" }>, align 8
@alloc_ebfd97a6bc3eb2050fcd762bf8c3e140 = private unnamed_addr constant [143 x i8] c"/root/es/vert/vert/rust_funcs/c_transcoder/MINIMUM_SUM_TWO_NUMBERS_FORMED_DIGITS_ARRAY_2/MINIMUM_SUM_TWO_NUMBERS_FORMED_DIGITS_ARRAY_2_emit.rs\00", align 1
@alloc_7b93abd3670b3023ebceb126cbccd1b4 = private unnamed_addr constant <{ ptr, [16 x i8] }> <{ ptr @alloc_ebfd97a6bc3eb2050fcd762bf8c3e140, [16 x i8] c"\8E\00\00\00\00\00\00\00\1E\00\00\00 \00\00\00" }>, align 8
@alloc_2b648ac720853773226d2adc6c4e4ae0 = private unnamed_addr constant <{ ptr, [16 x i8] }> <{ ptr @alloc_ebfd97a6bc3eb2050fcd762bf8c3e140, [16 x i8] c"\8E\00\00\00\00\00\00\00\1C\00\00\00 \00\00\00" }>, align 8

; core::slice::sort::shared::pivot::median3_rec
; Function Attrs: nofree nosync nounwind nonlazybind memory(read, inaccessiblemem: readwrite) uwtable
define internal fastcc noundef nonnull ptr @_ZN4core5slice4sort6shared5pivot11median3_rec17h4d95b87202d87658E(ptr noundef nonnull %0, ptr noundef nonnull %1, ptr noundef nonnull %2, i64 noundef range(i64 0, 288230376151711744) %n) unnamed_addr #0 {
start:
  %_6 = icmp samesign ugt i64 %n, 7
  br i1 %_6, label %bb1, label %bb6

bb1:                                              ; preds = %start
  %n84 = lshr i64 %n, 3
  %count = shl nuw nsw i64 %n84, 2
  %_10 = getelementptr inbounds nuw i32, ptr %0, i64 %count
  %count1 = mul nuw nsw i64 %n84, 7
  %_13 = getelementptr inbounds nuw i32, ptr %0, i64 %count1
; call core::slice::sort::shared::pivot::median3_rec
  %3 = tail call fastcc noundef ptr @_ZN4core5slice4sort6shared5pivot11median3_rec17h4d95b87202d87658E(ptr noundef %0, ptr noundef %_10, ptr noundef %_13, i64 noundef %n84)
  %_16 = getelementptr inbounds nuw i32, ptr %1, i64 %count
  %_18 = getelementptr inbounds nuw i32, ptr %1, i64 %count1
; call core::slice::sort::shared::pivot::median3_rec
  %4 = tail call fastcc noundef ptr @_ZN4core5slice4sort6shared5pivot11median3_rec17h4d95b87202d87658E(ptr noundef %1, ptr noundef %_16, ptr noundef %_18, i64 noundef %n84)
  %_20 = getelementptr inbounds nuw i32, ptr %2, i64 %count
  %_22 = getelementptr inbounds nuw i32, ptr %2, i64 %count1
; call core::slice::sort::shared::pivot::median3_rec
  %5 = tail call fastcc noundef ptr @_ZN4core5slice4sort6shared5pivot11median3_rec17h4d95b87202d87658E(ptr noundef %2, ptr noundef %_20, ptr noundef %_22, i64 noundef %n84)
  br label %bb6

bb6:                                              ; preds = %start, %bb1
  %c.sroa.0.0 = phi ptr [ %5, %bb1 ], [ %2, %start ]
  %b.sroa.0.0 = phi ptr [ %4, %bb1 ], [ %1, %start ]
  %a.sroa.0.0 = phi ptr [ %3, %bb1 ], [ %0, %start ]
  tail call void @llvm.experimental.noalias.scope.decl(metadata !3)
  tail call void @llvm.experimental.noalias.scope.decl(metadata !6)
  tail call void @llvm.experimental.noalias.scope.decl(metadata !8), !noalias !11
  tail call void @llvm.experimental.noalias.scope.decl(metadata !14), !noalias !11
  tail call void @llvm.experimental.noalias.scope.decl(metadata !16), !noalias !11
  tail call void @llvm.experimental.noalias.scope.decl(metadata !19), !noalias !11
  %_3.i.i.i = load i32, ptr %a.sroa.0.0, align 4, !alias.scope !21, !noalias !22, !noundef !23
  %_4.i.i.i = load i32, ptr %b.sroa.0.0, align 4, !alias.scope !24, !noalias !25, !noundef !23
  %_0.i = icmp slt i32 %_3.i.i.i, %_4.i.i.i
  %_4.i.i.i6 = load i32, ptr %c.sroa.0.0, align 4, !alias.scope !26, !noalias !33, !noundef !23
  %_0.i7 = icmp slt i32 %_3.i.i.i, %_4.i.i.i6
  %6 = xor i1 %_0.i, %_0.i7
  %_0.i10 = icmp slt i32 %_4.i.i.i, %_4.i.i.i6
  %_12.i = xor i1 %_0.i, %_0.i10
  %c.b.i = select i1 %_12.i, ptr %c.sroa.0.0, ptr %b.sroa.0.0
  %_0.sroa.0.0.i = select i1 %6, ptr %a.sroa.0.0, ptr %c.b.i
  ret ptr %_0.sroa.0.0.i
}

; core::slice::sort::shared::pivot::median3_rec
; Function Attrs: nofree nosync nounwind nonlazybind memory(read, inaccessiblemem: readwrite) uwtable
define internal fastcc noundef nonnull ptr @_ZN4core5slice4sort6shared5pivot11median3_rec17haea3e81d8d8e5ec6E(ptr noundef nonnull %0, ptr noundef nonnull %1, ptr noundef nonnull %2, i64 noundef range(i64 0, 288230376151711744) %n) unnamed_addr #0 {
start:
  %_6 = icmp samesign ugt i64 %n, 7
  br i1 %_6, label %bb1, label %bb6

bb1:                                              ; preds = %start
  %n84 = lshr i64 %n, 3
  %count = shl nuw nsw i64 %n84, 2
  %_10 = getelementptr inbounds nuw i32, ptr %0, i64 %count
  %count1 = mul nuw nsw i64 %n84, 7
  %_13 = getelementptr inbounds nuw i32, ptr %0, i64 %count1
; call core::slice::sort::shared::pivot::median3_rec
  %3 = tail call fastcc noundef ptr @_ZN4core5slice4sort6shared5pivot11median3_rec17haea3e81d8d8e5ec6E(ptr noundef %0, ptr noundef %_10, ptr noundef %_13, i64 noundef %n84)
  %_16 = getelementptr inbounds nuw i32, ptr %1, i64 %count
  %_18 = getelementptr inbounds nuw i32, ptr %1, i64 %count1
; call core::slice::sort::shared::pivot::median3_rec
  %4 = tail call fastcc noundef ptr @_ZN4core5slice4sort6shared5pivot11median3_rec17haea3e81d8d8e5ec6E(ptr noundef %1, ptr noundef %_16, ptr noundef %_18, i64 noundef %n84)
  %_20 = getelementptr inbounds nuw i32, ptr %2, i64 %count
  %_22 = getelementptr inbounds nuw i32, ptr %2, i64 %count1
; call core::slice::sort::shared::pivot::median3_rec
  %5 = tail call fastcc noundef ptr @_ZN4core5slice4sort6shared5pivot11median3_rec17haea3e81d8d8e5ec6E(ptr noundef %2, ptr noundef %_20, ptr noundef %_22, i64 noundef %n84)
  br label %bb6

bb6:                                              ; preds = %start, %bb1
  %c.sroa.0.0 = phi ptr [ %5, %bb1 ], [ %2, %start ]
  %b.sroa.0.0 = phi ptr [ %4, %bb1 ], [ %1, %start ]
  %a.sroa.0.0 = phi ptr [ %3, %bb1 ], [ %0, %start ]
  tail call void @llvm.experimental.noalias.scope.decl(metadata !37)
  tail call void @llvm.experimental.noalias.scope.decl(metadata !40)
  tail call void @llvm.experimental.noalias.scope.decl(metadata !42), !noalias !45
  tail call void @llvm.experimental.noalias.scope.decl(metadata !48), !noalias !45
  %_4.i.i = load i32, ptr %a.sroa.0.0, align 4, !alias.scope !50, !noalias !51, !noundef !23
  %_5.i.i = load i32, ptr %b.sroa.0.0, align 4, !alias.scope !52, !noalias !53, !noundef !23
  %_0.i = icmp slt i32 %_4.i.i, %_5.i.i
  %_5.i.i6 = load i32, ptr %c.sroa.0.0, align 4, !alias.scope !54, !noalias !59, !noundef !23
  %_0.i7 = icmp slt i32 %_4.i.i, %_5.i.i6
  %6 = xor i1 %_0.i, %_0.i7
  %_0.i10 = icmp slt i32 %_5.i.i, %_5.i.i6
  %_12.i = xor i1 %_0.i, %_0.i10
  %c.b.i = select i1 %_12.i, ptr %c.sroa.0.0, ptr %b.sroa.0.0
  %_0.sroa.0.0.i = select i1 %6, ptr %a.sroa.0.0, ptr %c.b.i
  ret ptr %_0.sroa.0.0.i
}

; core::slice::sort::shared::smallsort::sort8_stable
; Function Attrs: nonlazybind uwtable
define internal fastcc void @_ZN4core5slice4sort6shared9smallsort12sort8_stable17h4c24201ae3c8461bE(ptr noundef nonnull readonly captures(none) %v_base, ptr noundef nonnull writeonly captures(none) initializes((0, 32)) %dst, ptr noundef nonnull captures(address) initializes((0, 32)) %scratch_base) unnamed_addr #1 personality ptr @rust_eh_personality {
start:
  %_7.i = getelementptr inbounds nuw i8, ptr %v_base, i64 4
  tail call void @llvm.experimental.noalias.scope.decl(metadata !62)
  tail call void @llvm.experimental.noalias.scope.decl(metadata !65)
  tail call void @llvm.experimental.noalias.scope.decl(metadata !67)
  tail call void @llvm.experimental.noalias.scope.decl(metadata !70)
  tail call void @llvm.experimental.noalias.scope.decl(metadata !72)
  tail call void @llvm.experimental.noalias.scope.decl(metadata !75)
  %_3.i.i.i.i = load i32, ptr %_7.i, align 4, !alias.scope !77, !noalias !78, !noundef !23
  %_4.i.i.i.i = load i32, ptr %v_base, align 4, !alias.scope !78, !noalias !77, !noundef !23
  %_0.i.i = icmp slt i32 %_3.i.i.i.i, %_4.i.i.i.i
  %_12.i = getelementptr inbounds nuw i8, ptr %v_base, i64 12
  %_14.i = getelementptr inbounds nuw i8, ptr %v_base, i64 8
  tail call void @llvm.experimental.noalias.scope.decl(metadata !79)
  tail call void @llvm.experimental.noalias.scope.decl(metadata !82)
  tail call void @llvm.experimental.noalias.scope.decl(metadata !84)
  tail call void @llvm.experimental.noalias.scope.decl(metadata !87)
  tail call void @llvm.experimental.noalias.scope.decl(metadata !89)
  tail call void @llvm.experimental.noalias.scope.decl(metadata !92)
  %_3.i.i.i7.i = load i32, ptr %_12.i, align 4, !alias.scope !94, !noalias !95, !noundef !23
  %_4.i.i.i8.i = load i32, ptr %_14.i, align 4, !alias.scope !95, !noalias !94, !noundef !23
  %_0.i9.i = icmp slt i32 %_3.i.i.i7.i, %_4.i.i.i8.i
  %count.i = zext i1 %_0.i.i to i64
  %a.i = getelementptr inbounds nuw i32, ptr %v_base, i64 %count.i
  %_19.i = xor i1 %_0.i.i, true
  %count2.i = zext i1 %_19.i to i64
  %b.i = getelementptr inbounds nuw i32, ptr %v_base, i64 %count2.i
  %count3.i = select i1 %_0.i9.i, i64 3, i64 2
  %c.i = getelementptr inbounds nuw i32, ptr %v_base, i64 %count3.i
  %count4.i = select i1 %_0.i9.i, i64 2, i64 3
  %d.i = getelementptr inbounds nuw i32, ptr %v_base, i64 %count4.i
  tail call void @llvm.experimental.noalias.scope.decl(metadata !96)
  tail call void @llvm.experimental.noalias.scope.decl(metadata !99)
  tail call void @llvm.experimental.noalias.scope.decl(metadata !101)
  tail call void @llvm.experimental.noalias.scope.decl(metadata !104)
  tail call void @llvm.experimental.noalias.scope.decl(metadata !106)
  tail call void @llvm.experimental.noalias.scope.decl(metadata !109)
  %_3.i.i.i10.i = load i32, ptr %c.i, align 4, !alias.scope !111, !noalias !112, !noundef !23
  %_4.i.i.i11.i = load i32, ptr %a.i, align 4, !alias.scope !112, !noalias !111, !noundef !23
  %_0.i12.i = icmp slt i32 %_3.i.i.i10.i, %_4.i.i.i11.i
  tail call void @llvm.experimental.noalias.scope.decl(metadata !113)
  tail call void @llvm.experimental.noalias.scope.decl(metadata !116)
  tail call void @llvm.experimental.noalias.scope.decl(metadata !118)
  tail call void @llvm.experimental.noalias.scope.decl(metadata !121)
  tail call void @llvm.experimental.noalias.scope.decl(metadata !123)
  tail call void @llvm.experimental.noalias.scope.decl(metadata !126)
  %_3.i.i.i13.i = load i32, ptr %d.i, align 4, !alias.scope !128, !noalias !129, !noundef !23
  %_4.i.i.i14.i = load i32, ptr %b.i, align 4, !alias.scope !129, !noalias !128, !noundef !23
  %_0.i15.i = icmp slt i32 %_3.i.i.i13.i, %_4.i.i.i14.i
  %0 = tail call i32 @llvm.smin.i32(i32 %_3.i.i.i10.i, i32 %_4.i.i.i11.i)
  %1 = select i1 %_0.i15.i, ptr %c.i, ptr %b.i, !unpredictable !23
  %2 = select i1 %_0.i12.i, ptr %a.i, ptr %1, !unpredictable !23
  %3 = select i1 %_0.i12.i, ptr %b.i, ptr %c.i, !unpredictable !23
  %4 = select i1 %_0.i15.i, ptr %d.i, ptr %3, !unpredictable !23
  tail call void @llvm.experimental.noalias.scope.decl(metadata !130)
  tail call void @llvm.experimental.noalias.scope.decl(metadata !133)
  tail call void @llvm.experimental.noalias.scope.decl(metadata !135)
  tail call void @llvm.experimental.noalias.scope.decl(metadata !138)
  tail call void @llvm.experimental.noalias.scope.decl(metadata !140)
  tail call void @llvm.experimental.noalias.scope.decl(metadata !143)
  %_3.i.i.i16.i = load i32, ptr %4, align 4, !alias.scope !145, !noalias !146, !noundef !23
  %_4.i.i.i17.i = load i32, ptr %2, align 4, !alias.scope !146, !noalias !145, !noundef !23
  %_0.i18.i = icmp slt i32 %_3.i.i.i16.i, %_4.i.i.i17.i
  store i32 %0, ptr %scratch_base, align 4
  %dst5.i = getelementptr inbounds nuw i8, ptr %scratch_base, i64 4
  %.val.i = load i32, ptr %4, align 4
  %.val19.i = load i32, ptr %2, align 4
  %5 = select i1 %_0.i18.i, i32 %.val.i, i32 %.val19.i
  store i32 %5, ptr %dst5.i, align 4
  %dst6.i = getelementptr inbounds nuw i8, ptr %scratch_base, i64 8
  %.val20.i = load i32, ptr %2, align 4
  %.val21.i = load i32, ptr %4, align 4
  %6 = select i1 %_0.i18.i, i32 %.val20.i, i32 %.val21.i
  store i32 %6, ptr %dst6.i, align 4
  %7 = getelementptr i8, ptr %scratch_base, i64 12
  %b.val.i = load i32, ptr %b.i, align 4
  %d.val.i = load i32, ptr %d.i, align 4
  %8 = select i1 %_0.i15.i, i32 %b.val.i, i32 %d.val.i
  store i32 %8, ptr %7, align 4
  %_9 = getelementptr inbounds nuw i8, ptr %v_base, i64 16
  %_10 = getelementptr i8, ptr %scratch_base, i64 16
  %_7.i1 = getelementptr inbounds nuw i8, ptr %v_base, i64 20
  tail call void @llvm.experimental.noalias.scope.decl(metadata !147)
  tail call void @llvm.experimental.noalias.scope.decl(metadata !150)
  tail call void @llvm.experimental.noalias.scope.decl(metadata !152)
  tail call void @llvm.experimental.noalias.scope.decl(metadata !155)
  tail call void @llvm.experimental.noalias.scope.decl(metadata !157)
  tail call void @llvm.experimental.noalias.scope.decl(metadata !160)
  %_3.i.i.i.i2 = load i32, ptr %_7.i1, align 4, !alias.scope !162, !noalias !163, !noundef !23
  %_4.i.i.i.i3 = load i32, ptr %_9, align 4, !alias.scope !163, !noalias !162, !noundef !23
  %_0.i.i4 = icmp slt i32 %_3.i.i.i.i2, %_4.i.i.i.i3
  %_12.i5 = getelementptr inbounds nuw i8, ptr %v_base, i64 28
  %_14.i6 = getelementptr inbounds nuw i8, ptr %v_base, i64 24
  tail call void @llvm.experimental.noalias.scope.decl(metadata !164)
  tail call void @llvm.experimental.noalias.scope.decl(metadata !167)
  tail call void @llvm.experimental.noalias.scope.decl(metadata !169)
  tail call void @llvm.experimental.noalias.scope.decl(metadata !172)
  tail call void @llvm.experimental.noalias.scope.decl(metadata !174)
  tail call void @llvm.experimental.noalias.scope.decl(metadata !177)
  %_3.i.i.i7.i7 = load i32, ptr %_12.i5, align 4, !alias.scope !179, !noalias !180, !noundef !23
  %_4.i.i.i8.i8 = load i32, ptr %_14.i6, align 4, !alias.scope !180, !noalias !179, !noundef !23
  %_0.i9.i9 = icmp slt i32 %_3.i.i.i7.i7, %_4.i.i.i8.i8
  %count.i10 = zext i1 %_0.i.i4 to i64
  %a.i11 = getelementptr inbounds nuw i32, ptr %_9, i64 %count.i10
  %_19.i12 = xor i1 %_0.i.i4, true
  %count2.i13 = zext i1 %_19.i12 to i64
  %b.i14 = getelementptr inbounds nuw i32, ptr %_9, i64 %count2.i13
  %count3.i15 = select i1 %_0.i9.i9, i64 3, i64 2
  %c.i16 = getelementptr inbounds nuw i32, ptr %_9, i64 %count3.i15
  %count4.i17 = select i1 %_0.i9.i9, i64 2, i64 3
  %d.i18 = getelementptr inbounds nuw i32, ptr %_9, i64 %count4.i17
  tail call void @llvm.experimental.noalias.scope.decl(metadata !181)
  tail call void @llvm.experimental.noalias.scope.decl(metadata !184)
  tail call void @llvm.experimental.noalias.scope.decl(metadata !186)
  tail call void @llvm.experimental.noalias.scope.decl(metadata !189)
  tail call void @llvm.experimental.noalias.scope.decl(metadata !191)
  tail call void @llvm.experimental.noalias.scope.decl(metadata !194)
  %_3.i.i.i10.i19 = load i32, ptr %c.i16, align 4, !alias.scope !196, !noalias !197, !noundef !23
  %_4.i.i.i11.i20 = load i32, ptr %a.i11, align 4, !alias.scope !197, !noalias !196, !noundef !23
  %_0.i12.i21 = icmp slt i32 %_3.i.i.i10.i19, %_4.i.i.i11.i20
  tail call void @llvm.experimental.noalias.scope.decl(metadata !198)
  tail call void @llvm.experimental.noalias.scope.decl(metadata !201)
  tail call void @llvm.experimental.noalias.scope.decl(metadata !203)
  tail call void @llvm.experimental.noalias.scope.decl(metadata !206)
  tail call void @llvm.experimental.noalias.scope.decl(metadata !208)
  tail call void @llvm.experimental.noalias.scope.decl(metadata !211)
  %_3.i.i.i13.i22 = load i32, ptr %d.i18, align 4, !alias.scope !213, !noalias !214, !noundef !23
  %_4.i.i.i14.i23 = load i32, ptr %b.i14, align 4, !alias.scope !214, !noalias !213, !noundef !23
  %_0.i15.i24 = icmp slt i32 %_3.i.i.i13.i22, %_4.i.i.i14.i23
  %9 = tail call i32 @llvm.smin.i32(i32 %_3.i.i.i10.i19, i32 %_4.i.i.i11.i20)
  %10 = select i1 %_0.i15.i24, ptr %c.i16, ptr %b.i14, !unpredictable !23
  %11 = select i1 %_0.i12.i21, ptr %a.i11, ptr %10, !unpredictable !23
  %12 = select i1 %_0.i12.i21, ptr %b.i14, ptr %c.i16, !unpredictable !23
  %13 = select i1 %_0.i15.i24, ptr %d.i18, ptr %12, !unpredictable !23
  tail call void @llvm.experimental.noalias.scope.decl(metadata !215)
  tail call void @llvm.experimental.noalias.scope.decl(metadata !218)
  tail call void @llvm.experimental.noalias.scope.decl(metadata !220)
  tail call void @llvm.experimental.noalias.scope.decl(metadata !223)
  tail call void @llvm.experimental.noalias.scope.decl(metadata !225)
  tail call void @llvm.experimental.noalias.scope.decl(metadata !228)
  %_3.i.i.i16.i25 = load i32, ptr %13, align 4, !alias.scope !230, !noalias !231, !noundef !23
  %_4.i.i.i17.i26 = load i32, ptr %11, align 4, !alias.scope !231, !noalias !230, !noundef !23
  %_0.i18.i27 = icmp slt i32 %_3.i.i.i16.i25, %_4.i.i.i17.i26
  store i32 %9, ptr %_10, align 4
  %dst5.i28 = getelementptr i8, ptr %scratch_base, i64 20
  %.val.i29 = load i32, ptr %13, align 4
  %.val19.i30 = load i32, ptr %11, align 4
  %14 = select i1 %_0.i18.i27, i32 %.val.i29, i32 %.val19.i30
  store i32 %14, ptr %dst5.i28, align 4
  %dst6.i31 = getelementptr i8, ptr %scratch_base, i64 24
  %.val20.i32 = load i32, ptr %11, align 4
  %.val21.i33 = load i32, ptr %13, align 4
  %15 = select i1 %_0.i18.i27, i32 %.val20.i32, i32 %.val21.i33
  store i32 %15, ptr %dst6.i31, align 4
  %16 = getelementptr i8, ptr %scratch_base, i64 28
  %b.val.i34 = load i32, ptr %b.i14, align 4
  %d.val.i35 = load i32, ptr %d.i18, align 4
  %17 = select i1 %_0.i15.i24, i32 %b.val.i34, i32 %d.val.i35
  store i32 %17, ptr %16, align 4
  tail call void @llvm.experimental.noalias.scope.decl(metadata !232)
  %18 = getelementptr inbounds nuw i8, ptr %dst, i64 28
  %_4.i.i.i.i37 = load i32, ptr %scratch_base, align 4, !alias.scope !235, !noalias !242, !noundef !23
  %_0.i.i38 = icmp slt i32 %9, %_4.i.i.i.i37
  %is_l.i18.i = xor i1 %_0.i.i38, true
  %19 = tail call i32 @llvm.smin.i32(i32 %9, i32 %_4.i.i.i.i37)
  store i32 %19, ptr %dst, align 4, !noalias !248
  %count.i.i = zext i1 %_0.i.i38 to i64
  %_12.i.i = getelementptr inbounds nuw i32, ptr %_10, i64 %count.i.i
  %count2.i.i = zext i1 %is_l.i18.i to i64
  %_14.i.i = getelementptr inbounds nuw i32, ptr %scratch_base, i64 %count2.i.i
  %_16.i.i = getelementptr inbounds nuw i8, ptr %dst, i64 4
  %_4.i.i.i20.i = load i32, ptr %7, align 4, !alias.scope !250, !noalias !257, !noundef !23
  %_0.i21.i = icmp slt i32 %17, %_4.i.i.i20.i
  %is_l.i.i = xor i1 %_0.i21.i, true
  %20 = tail call i32 @llvm.smax.i32(i32 %17, i32 %_4.i.i.i20.i)
  store i32 %20, ptr %18, align 4, !noalias !263
  %count.neg.i.i = sext i1 %is_l.i.i to i64
  %21 = getelementptr i32, ptr %16, i64 %count.neg.i.i
  %count3.neg.i.i = sext i1 %_0.i21.i to i64
  %22 = getelementptr i32, ptr %7, i64 %count3.neg.i.i
  %23 = getelementptr inbounds nuw i8, ptr %dst, i64 24
  tail call void @llvm.experimental.noalias.scope.decl(metadata !265)
  tail call void @llvm.experimental.noalias.scope.decl(metadata !267)
  tail call void @llvm.experimental.noalias.scope.decl(metadata !269), !noalias !271
  tail call void @llvm.experimental.noalias.scope.decl(metadata !272), !noalias !271
  tail call void @llvm.experimental.noalias.scope.decl(metadata !274), !noalias !271
  tail call void @llvm.experimental.noalias.scope.decl(metadata !276), !noalias !271
  %_3.i.i.i.i36.1 = load i32, ptr %_12.i.i, align 4, !alias.scope !278, !noalias !279, !noundef !23
  %_4.i.i.i.i37.1 = load i32, ptr %_14.i.i, align 4, !alias.scope !280, !noalias !281, !noundef !23
  %_0.i.i38.1 = icmp slt i32 %_3.i.i.i.i36.1, %_4.i.i.i.i37.1
  %is_l.i18.i.1 = xor i1 %_0.i.i38.1, true
  %24 = tail call i32 @llvm.smin.i32(i32 %_3.i.i.i.i36.1, i32 %_4.i.i.i.i37.1)
  store i32 %24, ptr %_16.i.i, align 4, !noalias !248
  %count.i.i.1 = zext i1 %_0.i.i38.1 to i64
  %_12.i.i.1 = getelementptr inbounds nuw i32, ptr %_12.i.i, i64 %count.i.i.1
  %count2.i.i.1 = zext i1 %is_l.i18.i.1 to i64
  %_14.i.i.1 = getelementptr inbounds nuw i32, ptr %_14.i.i, i64 %count2.i.i.1
  %_16.i.i.1 = getelementptr inbounds nuw i8, ptr %dst, i64 8
  tail call void @llvm.experimental.noalias.scope.decl(metadata !282)
  tail call void @llvm.experimental.noalias.scope.decl(metadata !284)
  tail call void @llvm.experimental.noalias.scope.decl(metadata !286), !noalias !288
  tail call void @llvm.experimental.noalias.scope.decl(metadata !289), !noalias !288
  tail call void @llvm.experimental.noalias.scope.decl(metadata !291), !noalias !288
  tail call void @llvm.experimental.noalias.scope.decl(metadata !293), !noalias !288
  %_3.i.i.i19.i.1 = load i32, ptr %21, align 4, !alias.scope !295, !noalias !296, !noundef !23
  %_4.i.i.i20.i.1 = load i32, ptr %22, align 4, !alias.scope !297, !noalias !298, !noundef !23
  %_0.i21.i.1 = icmp slt i32 %_3.i.i.i19.i.1, %_4.i.i.i20.i.1
  %is_l.i.i.1 = xor i1 %_0.i21.i.1, true
  %25 = tail call i32 @llvm.smax.i32(i32 %_3.i.i.i19.i.1, i32 %_4.i.i.i20.i.1)
  store i32 %25, ptr %23, align 4, !noalias !263
  %count.neg.i.i.1 = sext i1 %is_l.i.i.1 to i64
  %26 = getelementptr i32, ptr %21, i64 %count.neg.i.i.1
  %count3.neg.i.i.1 = sext i1 %_0.i21.i.1 to i64
  %27 = getelementptr i32, ptr %22, i64 %count3.neg.i.i.1
  %28 = getelementptr inbounds nuw i8, ptr %dst, i64 20
  tail call void @llvm.experimental.noalias.scope.decl(metadata !299)
  tail call void @llvm.experimental.noalias.scope.decl(metadata !301)
  tail call void @llvm.experimental.noalias.scope.decl(metadata !303), !noalias !271
  tail call void @llvm.experimental.noalias.scope.decl(metadata !305), !noalias !271
  tail call void @llvm.experimental.noalias.scope.decl(metadata !307), !noalias !271
  tail call void @llvm.experimental.noalias.scope.decl(metadata !309), !noalias !271
  %_3.i.i.i.i36.2 = load i32, ptr %_12.i.i.1, align 4, !alias.scope !311, !noalias !312, !noundef !23
  %_4.i.i.i.i37.2 = load i32, ptr %_14.i.i.1, align 4, !alias.scope !313, !noalias !314, !noundef !23
  %_0.i.i38.2 = icmp slt i32 %_3.i.i.i.i36.2, %_4.i.i.i.i37.2
  %is_l.i18.i.2 = xor i1 %_0.i.i38.2, true
  %29 = tail call i32 @llvm.smin.i32(i32 %_3.i.i.i.i36.2, i32 %_4.i.i.i.i37.2)
  store i32 %29, ptr %_16.i.i.1, align 4, !noalias !248
  %count.i.i.2 = zext i1 %_0.i.i38.2 to i64
  %_12.i.i.2 = getelementptr inbounds nuw i32, ptr %_12.i.i.1, i64 %count.i.i.2
  %count2.i.i.2 = zext i1 %is_l.i18.i.2 to i64
  %_14.i.i.2 = getelementptr inbounds nuw i32, ptr %_14.i.i.1, i64 %count2.i.i.2
  %_16.i.i.2 = getelementptr inbounds nuw i8, ptr %dst, i64 12
  tail call void @llvm.experimental.noalias.scope.decl(metadata !315)
  tail call void @llvm.experimental.noalias.scope.decl(metadata !317)
  tail call void @llvm.experimental.noalias.scope.decl(metadata !319), !noalias !288
  tail call void @llvm.experimental.noalias.scope.decl(metadata !321), !noalias !288
  tail call void @llvm.experimental.noalias.scope.decl(metadata !323), !noalias !288
  tail call void @llvm.experimental.noalias.scope.decl(metadata !325), !noalias !288
  %_3.i.i.i19.i.2 = load i32, ptr %26, align 4, !alias.scope !327, !noalias !328, !noundef !23
  %_4.i.i.i20.i.2 = load i32, ptr %27, align 4, !alias.scope !329, !noalias !330, !noundef !23
  %_0.i21.i.2 = icmp slt i32 %_3.i.i.i19.i.2, %_4.i.i.i20.i.2
  %is_l.i.i.2 = xor i1 %_0.i21.i.2, true
  %30 = tail call i32 @llvm.smax.i32(i32 %_3.i.i.i19.i.2, i32 %_4.i.i.i20.i.2)
  store i32 %30, ptr %28, align 4, !noalias !263
  %count.neg.i.i.2 = sext i1 %is_l.i.i.2 to i64
  %31 = getelementptr i32, ptr %26, i64 %count.neg.i.i.2
  %count3.neg.i.i.2 = sext i1 %_0.i21.i.2 to i64
  %32 = getelementptr i32, ptr %27, i64 %count3.neg.i.i.2
  %33 = getelementptr inbounds nuw i8, ptr %dst, i64 16
  tail call void @llvm.experimental.noalias.scope.decl(metadata !331)
  tail call void @llvm.experimental.noalias.scope.decl(metadata !333)
  tail call void @llvm.experimental.noalias.scope.decl(metadata !335), !noalias !271
  tail call void @llvm.experimental.noalias.scope.decl(metadata !337), !noalias !271
  tail call void @llvm.experimental.noalias.scope.decl(metadata !339), !noalias !271
  tail call void @llvm.experimental.noalias.scope.decl(metadata !341), !noalias !271
  %_3.i.i.i.i36.3 = load i32, ptr %_12.i.i.2, align 4, !alias.scope !343, !noalias !344, !noundef !23
  %_4.i.i.i.i37.3 = load i32, ptr %_14.i.i.2, align 4, !alias.scope !345, !noalias !346, !noundef !23
  %_0.i.i38.3 = icmp slt i32 %_3.i.i.i.i36.3, %_4.i.i.i.i37.3
  %is_l.i18.i.3 = xor i1 %_0.i.i38.3, true
  %34 = tail call i32 @llvm.smin.i32(i32 %_3.i.i.i.i36.3, i32 %_4.i.i.i.i37.3)
  store i32 %34, ptr %_16.i.i.2, align 4, !noalias !248
  %count.i.i.3 = zext i1 %_0.i.i38.3 to i64
  %_12.i.i.3 = getelementptr inbounds nuw i32, ptr %_12.i.i.2, i64 %count.i.i.3
  %count2.i.i.3 = zext i1 %is_l.i18.i.3 to i64
  %_14.i.i.3 = getelementptr inbounds nuw i32, ptr %_14.i.i.2, i64 %count2.i.i.3
  tail call void @llvm.experimental.noalias.scope.decl(metadata !347)
  tail call void @llvm.experimental.noalias.scope.decl(metadata !349)
  tail call void @llvm.experimental.noalias.scope.decl(metadata !351), !noalias !288
  tail call void @llvm.experimental.noalias.scope.decl(metadata !353), !noalias !288
  tail call void @llvm.experimental.noalias.scope.decl(metadata !355), !noalias !288
  tail call void @llvm.experimental.noalias.scope.decl(metadata !357), !noalias !288
  %_3.i.i.i19.i.3 = load i32, ptr %31, align 4, !alias.scope !359, !noalias !360, !noundef !23
  %_4.i.i.i20.i.3 = load i32, ptr %32, align 4, !alias.scope !361, !noalias !362, !noundef !23
  %_0.i21.i.3 = icmp slt i32 %_3.i.i.i19.i.3, %_4.i.i.i20.i.3
  %is_l.i.i.3 = xor i1 %_0.i21.i.3, true
  %35 = tail call i32 @llvm.smax.i32(i32 %_3.i.i.i19.i.3, i32 %_4.i.i.i20.i.3)
  store i32 %35, ptr %33, align 4, !noalias !263
  %count.neg.i.i.3 = sext i1 %is_l.i.i.3 to i64
  %36 = getelementptr i32, ptr %31, i64 %count.neg.i.i.3
  %count3.neg.i.i.3 = sext i1 %_0.i21.i.3 to i64
  %37 = getelementptr i32, ptr %32, i64 %count3.neg.i.i.3
  %38 = getelementptr i8, ptr %37, i64 4
  %39 = getelementptr i8, ptr %36, i64 4
  %_31.i = icmp ne ptr %_14.i.i.3, %38
  %_32.i = icmp ne ptr %_12.i.i.3, %39
  %or.cond.i = select i1 %_31.i, i1 true, i1 %_32.i
  br i1 %or.cond.i, label %bb13.i, label %_ZN4core5slice4sort6shared9smallsort19bidirectional_merge17h224456c3ba9b3ab5E.exit, !prof !363

bb13.i:                                           ; preds = %start
; call core::slice::sort::shared::smallsort::panic_on_ord_violation
  tail call void @_ZN4core5slice4sort6shared9smallsort22panic_on_ord_violation17hc77a22a2d50782cdE() #18, !noalias !232
  unreachable

_ZN4core5slice4sort6shared9smallsort19bidirectional_merge17h224456c3ba9b3ab5E.exit: ; preds = %start
  ret void
}

; core::slice::sort::shared::smallsort::sort8_stable
; Function Attrs: nonlazybind uwtable
define internal fastcc void @_ZN4core5slice4sort6shared9smallsort12sort8_stable17hefed4dcb5b376924E(ptr noundef nonnull readonly captures(none) %v_base, ptr noundef nonnull writeonly captures(none) initializes((0, 32)) %dst, ptr noundef nonnull captures(address) initializes((0, 32)) %scratch_base) unnamed_addr #1 personality ptr @rust_eh_personality {
start:
  %_7.i = getelementptr inbounds nuw i8, ptr %v_base, i64 4
  tail call void @llvm.experimental.noalias.scope.decl(metadata !364)
  tail call void @llvm.experimental.noalias.scope.decl(metadata !367)
  tail call void @llvm.experimental.noalias.scope.decl(metadata !369)
  tail call void @llvm.experimental.noalias.scope.decl(metadata !372)
  %_4.i.i.i = load i32, ptr %_7.i, align 4, !alias.scope !374, !noalias !375, !noundef !23
  %_5.i.i.i = load i32, ptr %v_base, align 4, !alias.scope !375, !noalias !374, !noundef !23
  %_0.i.i = icmp slt i32 %_4.i.i.i, %_5.i.i.i
  %_12.i = getelementptr inbounds nuw i8, ptr %v_base, i64 12
  %_14.i = getelementptr inbounds nuw i8, ptr %v_base, i64 8
  tail call void @llvm.experimental.noalias.scope.decl(metadata !376)
  tail call void @llvm.experimental.noalias.scope.decl(metadata !379)
  tail call void @llvm.experimental.noalias.scope.decl(metadata !381)
  tail call void @llvm.experimental.noalias.scope.decl(metadata !384)
  %_4.i.i7.i = load i32, ptr %_12.i, align 4, !alias.scope !386, !noalias !387, !noundef !23
  %_5.i.i8.i = load i32, ptr %_14.i, align 4, !alias.scope !387, !noalias !386, !noundef !23
  %_0.i9.i = icmp slt i32 %_4.i.i7.i, %_5.i.i8.i
  %count.i = zext i1 %_0.i.i to i64
  %a.i = getelementptr inbounds nuw i32, ptr %v_base, i64 %count.i
  %_19.i = xor i1 %_0.i.i, true
  %count2.i = zext i1 %_19.i to i64
  %b.i = getelementptr inbounds nuw i32, ptr %v_base, i64 %count2.i
  %count3.i = select i1 %_0.i9.i, i64 3, i64 2
  %c.i = getelementptr inbounds nuw i32, ptr %v_base, i64 %count3.i
  %count4.i = select i1 %_0.i9.i, i64 2, i64 3
  %d.i = getelementptr inbounds nuw i32, ptr %v_base, i64 %count4.i
  tail call void @llvm.experimental.noalias.scope.decl(metadata !388)
  tail call void @llvm.experimental.noalias.scope.decl(metadata !391)
  tail call void @llvm.experimental.noalias.scope.decl(metadata !393)
  tail call void @llvm.experimental.noalias.scope.decl(metadata !396)
  %_4.i.i10.i = load i32, ptr %c.i, align 4, !alias.scope !398, !noalias !399, !noundef !23
  %_5.i.i11.i = load i32, ptr %a.i, align 4, !alias.scope !399, !noalias !398, !noundef !23
  %_0.i12.i = icmp slt i32 %_4.i.i10.i, %_5.i.i11.i
  tail call void @llvm.experimental.noalias.scope.decl(metadata !400)
  tail call void @llvm.experimental.noalias.scope.decl(metadata !403)
  tail call void @llvm.experimental.noalias.scope.decl(metadata !405)
  tail call void @llvm.experimental.noalias.scope.decl(metadata !408)
  %_4.i.i13.i = load i32, ptr %d.i, align 4, !alias.scope !410, !noalias !411, !noundef !23
  %_5.i.i14.i = load i32, ptr %b.i, align 4, !alias.scope !411, !noalias !410, !noundef !23
  %_0.i15.i = icmp slt i32 %_4.i.i13.i, %_5.i.i14.i
  %0 = tail call i32 @llvm.smin.i32(i32 %_4.i.i10.i, i32 %_5.i.i11.i)
  %1 = select i1 %_0.i15.i, ptr %c.i, ptr %b.i, !unpredictable !23
  %2 = select i1 %_0.i12.i, ptr %a.i, ptr %1, !unpredictable !23
  %3 = select i1 %_0.i12.i, ptr %b.i, ptr %c.i, !unpredictable !23
  %4 = select i1 %_0.i15.i, ptr %d.i, ptr %3, !unpredictable !23
  tail call void @llvm.experimental.noalias.scope.decl(metadata !412)
  tail call void @llvm.experimental.noalias.scope.decl(metadata !415)
  tail call void @llvm.experimental.noalias.scope.decl(metadata !417)
  tail call void @llvm.experimental.noalias.scope.decl(metadata !420)
  %_4.i.i16.i = load i32, ptr %4, align 4, !alias.scope !422, !noalias !423, !noundef !23
  %_5.i.i17.i = load i32, ptr %2, align 4, !alias.scope !423, !noalias !422, !noundef !23
  %_0.i18.i = icmp slt i32 %_4.i.i16.i, %_5.i.i17.i
  store i32 %0, ptr %scratch_base, align 4
  %dst5.i = getelementptr inbounds nuw i8, ptr %scratch_base, i64 4
  %.val.i = load i32, ptr %4, align 4
  %.val19.i = load i32, ptr %2, align 4
  %5 = select i1 %_0.i18.i, i32 %.val.i, i32 %.val19.i
  store i32 %5, ptr %dst5.i, align 4
  %dst6.i = getelementptr inbounds nuw i8, ptr %scratch_base, i64 8
  %.val20.i = load i32, ptr %2, align 4
  %.val21.i = load i32, ptr %4, align 4
  %6 = select i1 %_0.i18.i, i32 %.val20.i, i32 %.val21.i
  store i32 %6, ptr %dst6.i, align 4
  %7 = getelementptr i8, ptr %scratch_base, i64 12
  %b.val.i = load i32, ptr %b.i, align 4
  %d.val.i = load i32, ptr %d.i, align 4
  %8 = select i1 %_0.i15.i, i32 %b.val.i, i32 %d.val.i
  store i32 %8, ptr %7, align 4
  %_9 = getelementptr inbounds nuw i8, ptr %v_base, i64 16
  %_10 = getelementptr i8, ptr %scratch_base, i64 16
  %_7.i1 = getelementptr inbounds nuw i8, ptr %v_base, i64 20
  tail call void @llvm.experimental.noalias.scope.decl(metadata !424)
  tail call void @llvm.experimental.noalias.scope.decl(metadata !427)
  tail call void @llvm.experimental.noalias.scope.decl(metadata !429)
  tail call void @llvm.experimental.noalias.scope.decl(metadata !432)
  %_4.i.i.i2 = load i32, ptr %_7.i1, align 4, !alias.scope !434, !noalias !435, !noundef !23
  %_5.i.i.i3 = load i32, ptr %_9, align 4, !alias.scope !435, !noalias !434, !noundef !23
  %_0.i.i4 = icmp slt i32 %_4.i.i.i2, %_5.i.i.i3
  %_12.i5 = getelementptr inbounds nuw i8, ptr %v_base, i64 28
  %_14.i6 = getelementptr inbounds nuw i8, ptr %v_base, i64 24
  tail call void @llvm.experimental.noalias.scope.decl(metadata !436)
  tail call void @llvm.experimental.noalias.scope.decl(metadata !439)
  tail call void @llvm.experimental.noalias.scope.decl(metadata !441)
  tail call void @llvm.experimental.noalias.scope.decl(metadata !444)
  %_4.i.i7.i7 = load i32, ptr %_12.i5, align 4, !alias.scope !446, !noalias !447, !noundef !23
  %_5.i.i8.i8 = load i32, ptr %_14.i6, align 4, !alias.scope !447, !noalias !446, !noundef !23
  %_0.i9.i9 = icmp slt i32 %_4.i.i7.i7, %_5.i.i8.i8
  %count.i10 = zext i1 %_0.i.i4 to i64
  %a.i11 = getelementptr inbounds nuw i32, ptr %_9, i64 %count.i10
  %_19.i12 = xor i1 %_0.i.i4, true
  %count2.i13 = zext i1 %_19.i12 to i64
  %b.i14 = getelementptr inbounds nuw i32, ptr %_9, i64 %count2.i13
  %count3.i15 = select i1 %_0.i9.i9, i64 3, i64 2
  %c.i16 = getelementptr inbounds nuw i32, ptr %_9, i64 %count3.i15
  %count4.i17 = select i1 %_0.i9.i9, i64 2, i64 3
  %d.i18 = getelementptr inbounds nuw i32, ptr %_9, i64 %count4.i17
  tail call void @llvm.experimental.noalias.scope.decl(metadata !448)
  tail call void @llvm.experimental.noalias.scope.decl(metadata !451)
  tail call void @llvm.experimental.noalias.scope.decl(metadata !453)
  tail call void @llvm.experimental.noalias.scope.decl(metadata !456)
  %_4.i.i10.i19 = load i32, ptr %c.i16, align 4, !alias.scope !458, !noalias !459, !noundef !23
  %_5.i.i11.i20 = load i32, ptr %a.i11, align 4, !alias.scope !459, !noalias !458, !noundef !23
  %_0.i12.i21 = icmp slt i32 %_4.i.i10.i19, %_5.i.i11.i20
  tail call void @llvm.experimental.noalias.scope.decl(metadata !460)
  tail call void @llvm.experimental.noalias.scope.decl(metadata !463)
  tail call void @llvm.experimental.noalias.scope.decl(metadata !465)
  tail call void @llvm.experimental.noalias.scope.decl(metadata !468)
  %_4.i.i13.i22 = load i32, ptr %d.i18, align 4, !alias.scope !470, !noalias !471, !noundef !23
  %_5.i.i14.i23 = load i32, ptr %b.i14, align 4, !alias.scope !471, !noalias !470, !noundef !23
  %_0.i15.i24 = icmp slt i32 %_4.i.i13.i22, %_5.i.i14.i23
  %9 = tail call i32 @llvm.smin.i32(i32 %_4.i.i10.i19, i32 %_5.i.i11.i20)
  %10 = select i1 %_0.i15.i24, ptr %c.i16, ptr %b.i14, !unpredictable !23
  %11 = select i1 %_0.i12.i21, ptr %a.i11, ptr %10, !unpredictable !23
  %12 = select i1 %_0.i12.i21, ptr %b.i14, ptr %c.i16, !unpredictable !23
  %13 = select i1 %_0.i15.i24, ptr %d.i18, ptr %12, !unpredictable !23
  tail call void @llvm.experimental.noalias.scope.decl(metadata !472)
  tail call void @llvm.experimental.noalias.scope.decl(metadata !475)
  tail call void @llvm.experimental.noalias.scope.decl(metadata !477)
  tail call void @llvm.experimental.noalias.scope.decl(metadata !480)
  %_4.i.i16.i25 = load i32, ptr %13, align 4, !alias.scope !482, !noalias !483, !noundef !23
  %_5.i.i17.i26 = load i32, ptr %11, align 4, !alias.scope !483, !noalias !482, !noundef !23
  %_0.i18.i27 = icmp slt i32 %_4.i.i16.i25, %_5.i.i17.i26
  store i32 %9, ptr %_10, align 4
  %dst5.i28 = getelementptr i8, ptr %scratch_base, i64 20
  %.val.i29 = load i32, ptr %13, align 4
  %.val19.i30 = load i32, ptr %11, align 4
  %14 = select i1 %_0.i18.i27, i32 %.val.i29, i32 %.val19.i30
  store i32 %14, ptr %dst5.i28, align 4
  %dst6.i31 = getelementptr i8, ptr %scratch_base, i64 24
  %.val20.i32 = load i32, ptr %11, align 4
  %.val21.i33 = load i32, ptr %13, align 4
  %15 = select i1 %_0.i18.i27, i32 %.val20.i32, i32 %.val21.i33
  store i32 %15, ptr %dst6.i31, align 4
  %16 = getelementptr i8, ptr %scratch_base, i64 28
  %b.val.i34 = load i32, ptr %b.i14, align 4
  %d.val.i35 = load i32, ptr %d.i18, align 4
  %17 = select i1 %_0.i15.i24, i32 %b.val.i34, i32 %d.val.i35
  store i32 %17, ptr %16, align 4
  tail call void @llvm.experimental.noalias.scope.decl(metadata !484)
  %18 = getelementptr inbounds nuw i8, ptr %dst, i64 28
  %_0.i.i38 = icmp slt i32 %9, %0
  %is_l.i18.i = xor i1 %_0.i.i38, true
  %19 = tail call i32 @llvm.smin.i32(i32 %9, i32 %0)
  store i32 %19, ptr %dst, align 4, !noalias !487
  %count.i.i = zext i1 %_0.i.i38 to i64
  %_12.i.i = getelementptr inbounds nuw i32, ptr %_10, i64 %count.i.i
  %count2.i.i = zext i1 %is_l.i18.i to i64
  %_14.i.i = getelementptr inbounds nuw i32, ptr %scratch_base, i64 %count2.i.i
  %_16.i.i = getelementptr inbounds nuw i8, ptr %dst, i64 4
  %_0.i21.i = icmp slt i32 %17, %8
  %is_l.i.i = xor i1 %_0.i21.i, true
  %20 = tail call i32 @llvm.smax.i32(i32 %17, i32 %8)
  store i32 %20, ptr %18, align 4, !noalias !491
  %count.neg.i.i = sext i1 %is_l.i.i to i64
  %21 = getelementptr i32, ptr %16, i64 %count.neg.i.i
  %count3.neg.i.i = sext i1 %_0.i21.i to i64
  %22 = getelementptr i32, ptr %7, i64 %count3.neg.i.i
  %23 = getelementptr inbounds nuw i8, ptr %dst, i64 24
  tail call void @llvm.experimental.noalias.scope.decl(metadata !495)
  tail call void @llvm.experimental.noalias.scope.decl(metadata !498)
  tail call void @llvm.experimental.noalias.scope.decl(metadata !500), !noalias !503
  tail call void @llvm.experimental.noalias.scope.decl(metadata !504), !noalias !503
  %_4.i.i.i36.1 = load i32, ptr %_12.i.i, align 4, !alias.scope !506, !noalias !507, !noundef !23
  %_5.i.i.i37.1 = load i32, ptr %_14.i.i, align 4, !alias.scope !508, !noalias !509, !noundef !23
  %_0.i.i38.1 = icmp slt i32 %_4.i.i.i36.1, %_5.i.i.i37.1
  %is_l.i18.i.1 = xor i1 %_0.i.i38.1, true
  %24 = tail call i32 @llvm.smin.i32(i32 %_4.i.i.i36.1, i32 %_5.i.i.i37.1)
  store i32 %24, ptr %_16.i.i, align 4, !noalias !487
  %count.i.i.1 = zext i1 %_0.i.i38.1 to i64
  %_12.i.i.1 = getelementptr inbounds nuw i32, ptr %_12.i.i, i64 %count.i.i.1
  %count2.i.i.1 = zext i1 %is_l.i18.i.1 to i64
  %_14.i.i.1 = getelementptr inbounds nuw i32, ptr %_14.i.i, i64 %count2.i.i.1
  %_16.i.i.1 = getelementptr inbounds nuw i8, ptr %dst, i64 8
  tail call void @llvm.experimental.noalias.scope.decl(metadata !510)
  tail call void @llvm.experimental.noalias.scope.decl(metadata !513)
  tail call void @llvm.experimental.noalias.scope.decl(metadata !515), !noalias !518
  tail call void @llvm.experimental.noalias.scope.decl(metadata !519), !noalias !518
  %_4.i.i19.i.1 = load i32, ptr %21, align 4, !alias.scope !521, !noalias !522, !noundef !23
  %_5.i.i20.i.1 = load i32, ptr %22, align 4, !alias.scope !523, !noalias !524, !noundef !23
  %_0.i21.i.1 = icmp slt i32 %_4.i.i19.i.1, %_5.i.i20.i.1
  %is_l.i.i.1 = xor i1 %_0.i21.i.1, true
  %25 = tail call i32 @llvm.smax.i32(i32 %_4.i.i19.i.1, i32 %_5.i.i20.i.1)
  store i32 %25, ptr %23, align 4, !noalias !491
  %count.neg.i.i.1 = sext i1 %is_l.i.i.1 to i64
  %26 = getelementptr i32, ptr %21, i64 %count.neg.i.i.1
  %count3.neg.i.i.1 = sext i1 %_0.i21.i.1 to i64
  %27 = getelementptr i32, ptr %22, i64 %count3.neg.i.i.1
  %28 = getelementptr inbounds nuw i8, ptr %dst, i64 20
  tail call void @llvm.experimental.noalias.scope.decl(metadata !525)
  tail call void @llvm.experimental.noalias.scope.decl(metadata !527)
  tail call void @llvm.experimental.noalias.scope.decl(metadata !529), !noalias !503
  tail call void @llvm.experimental.noalias.scope.decl(metadata !531), !noalias !503
  %_4.i.i.i36.2 = load i32, ptr %_12.i.i.1, align 4, !alias.scope !533, !noalias !534, !noundef !23
  %_5.i.i.i37.2 = load i32, ptr %_14.i.i.1, align 4, !alias.scope !535, !noalias !536, !noundef !23
  %_0.i.i38.2 = icmp slt i32 %_4.i.i.i36.2, %_5.i.i.i37.2
  %is_l.i18.i.2 = xor i1 %_0.i.i38.2, true
  %29 = tail call i32 @llvm.smin.i32(i32 %_4.i.i.i36.2, i32 %_5.i.i.i37.2)
  store i32 %29, ptr %_16.i.i.1, align 4, !noalias !487
  %count.i.i.2 = zext i1 %_0.i.i38.2 to i64
  %_12.i.i.2 = getelementptr inbounds nuw i32, ptr %_12.i.i.1, i64 %count.i.i.2
  %count2.i.i.2 = zext i1 %is_l.i18.i.2 to i64
  %_14.i.i.2 = getelementptr inbounds nuw i32, ptr %_14.i.i.1, i64 %count2.i.i.2
  %_16.i.i.2 = getelementptr inbounds nuw i8, ptr %dst, i64 12
  tail call void @llvm.experimental.noalias.scope.decl(metadata !537)
  tail call void @llvm.experimental.noalias.scope.decl(metadata !539)
  tail call void @llvm.experimental.noalias.scope.decl(metadata !541), !noalias !518
  tail call void @llvm.experimental.noalias.scope.decl(metadata !543), !noalias !518
  %_4.i.i19.i.2 = load i32, ptr %26, align 4, !alias.scope !545, !noalias !546, !noundef !23
  %_5.i.i20.i.2 = load i32, ptr %27, align 4, !alias.scope !547, !noalias !548, !noundef !23
  %_0.i21.i.2 = icmp slt i32 %_4.i.i19.i.2, %_5.i.i20.i.2
  %is_l.i.i.2 = xor i1 %_0.i21.i.2, true
  %30 = tail call i32 @llvm.smax.i32(i32 %_4.i.i19.i.2, i32 %_5.i.i20.i.2)
  store i32 %30, ptr %28, align 4, !noalias !491
  %count.neg.i.i.2 = sext i1 %is_l.i.i.2 to i64
  %31 = getelementptr i32, ptr %26, i64 %count.neg.i.i.2
  %count3.neg.i.i.2 = sext i1 %_0.i21.i.2 to i64
  %32 = getelementptr i32, ptr %27, i64 %count3.neg.i.i.2
  %33 = getelementptr inbounds nuw i8, ptr %dst, i64 16
  tail call void @llvm.experimental.noalias.scope.decl(metadata !549)
  tail call void @llvm.experimental.noalias.scope.decl(metadata !551)
  tail call void @llvm.experimental.noalias.scope.decl(metadata !553), !noalias !503
  tail call void @llvm.experimental.noalias.scope.decl(metadata !555), !noalias !503
  %_4.i.i.i36.3 = load i32, ptr %_12.i.i.2, align 4, !alias.scope !557, !noalias !558, !noundef !23
  %_5.i.i.i37.3 = load i32, ptr %_14.i.i.2, align 4, !alias.scope !559, !noalias !560, !noundef !23
  %_0.i.i38.3 = icmp slt i32 %_4.i.i.i36.3, %_5.i.i.i37.3
  %is_l.i18.i.3 = xor i1 %_0.i.i38.3, true
  %34 = tail call i32 @llvm.smin.i32(i32 %_4.i.i.i36.3, i32 %_5.i.i.i37.3)
  store i32 %34, ptr %_16.i.i.2, align 4, !noalias !487
  %count.i.i.3 = zext i1 %_0.i.i38.3 to i64
  %_12.i.i.3 = getelementptr inbounds nuw i32, ptr %_12.i.i.2, i64 %count.i.i.3
  %count2.i.i.3 = zext i1 %is_l.i18.i.3 to i64
  %_14.i.i.3 = getelementptr inbounds nuw i32, ptr %_14.i.i.2, i64 %count2.i.i.3
  tail call void @llvm.experimental.noalias.scope.decl(metadata !561)
  tail call void @llvm.experimental.noalias.scope.decl(metadata !563)
  tail call void @llvm.experimental.noalias.scope.decl(metadata !565), !noalias !518
  tail call void @llvm.experimental.noalias.scope.decl(metadata !567), !noalias !518
  %_4.i.i19.i.3 = load i32, ptr %31, align 4, !alias.scope !569, !noalias !570, !noundef !23
  %_5.i.i20.i.3 = load i32, ptr %32, align 4, !alias.scope !571, !noalias !572, !noundef !23
  %_0.i21.i.3 = icmp slt i32 %_4.i.i19.i.3, %_5.i.i20.i.3
  %is_l.i.i.3 = xor i1 %_0.i21.i.3, true
  %35 = tail call i32 @llvm.smax.i32(i32 %_4.i.i19.i.3, i32 %_5.i.i20.i.3)
  store i32 %35, ptr %33, align 4, !noalias !491
  %count.neg.i.i.3 = sext i1 %is_l.i.i.3 to i64
  %36 = getelementptr i32, ptr %31, i64 %count.neg.i.i.3
  %count3.neg.i.i.3 = sext i1 %_0.i21.i.3 to i64
  %37 = getelementptr i32, ptr %32, i64 %count3.neg.i.i.3
  %38 = getelementptr i8, ptr %37, i64 4
  %39 = getelementptr i8, ptr %36, i64 4
  %_31.i = icmp ne ptr %_14.i.i.3, %38
  %_32.i = icmp ne ptr %_12.i.i.3, %39
  %or.cond.i = select i1 %_31.i, i1 true, i1 %_32.i
  br i1 %or.cond.i, label %bb13.i, label %_ZN4core5slice4sort6shared9smallsort19bidirectional_merge17h9dd1673a08827040E.exit, !prof !363

bb13.i:                                           ; preds = %start
; call core::slice::sort::shared::smallsort::panic_on_ord_violation
  tail call void @_ZN4core5slice4sort6shared9smallsort22panic_on_ord_violation17hc77a22a2d50782cdE() #18, !noalias !484
  unreachable

_ZN4core5slice4sort6shared9smallsort19bidirectional_merge17h9dd1673a08827040E.exit: ; preds = %start
  ret void
}

; core::slice::sort::stable::driftsort_main
; Function Attrs: noinline nonlazybind uwtable
define void @_ZN4core5slice4sort6stable14driftsort_main17h8afcbd005fc7584aE(ptr noalias noundef nonnull align 4 %v.0, i64 noundef range(i64 0, 2305843009213693952) %v.1, ptr noalias noundef align 8 dereferenceable(8) %is_less) unnamed_addr #2 personality ptr @rust_eh_personality {
start:
  %stack_buf = alloca [4096 x i8], align 4
  %_105 = lshr i64 %v.1, 1
  %v1 = sub nsw i64 %v.1, %_105
  %_0.sroa.0.0.i = tail call noundef i64 @llvm.umin.i64(i64 %v.1, i64 2000000)
  %_0.sroa.0.0.i6 = tail call noundef i64 @llvm.umax.i64(i64 %_0.sroa.0.0.i, i64 %v1)
  %_0.sroa.0.0.i7 = tail call noundef i64 @llvm.umax.i64(i64 %_0.sroa.0.0.i6, i64 48)
  call void @llvm.lifetime.start.p0(i64 4096, ptr nonnull %stack_buf)
  %_15 = icmp ugt i64 %_0.sroa.0.0.i6, 1024
  br i1 %_15, label %bb4, label %bb8

bb4:                                              ; preds = %start
  %_21.0.i.i.i.i = shl i64 %_0.sroa.0.0.i7, 2
  %_21.1.i.i.i.i = icmp ugt i64 %v1, 4611686018427387903
  %_26.i.i.i.i = icmp ugt i64 %_21.0.i.i.i.i, 9223372036854775804
  %or.cond.i.i.i.i = or i1 %_21.1.i.i.i.i, %_26.i.i.i.i
  br i1 %or.cond.i.i.i.i, label %bb3.i.i, label %bb5.i.i.i, !prof !573

bb5.i.i.i:                                        ; preds = %bb4
; call __rustc::__rust_no_alloc_shim_is_unstable_v2
  tail call void @_RNvCsdBezzDwma51_7___rustc35___rust_no_alloc_shim_is_unstable_v2() #19, !noalias !574
; call __rustc::__rust_alloc
  %0 = tail call noundef align 4 ptr @_RNvCsdBezzDwma51_7___rustc12___rust_alloc(i64 noundef range(i64 1, 0) %_21.0.i.i.i.i, i64 noundef range(i64 1, -9223372036854775807) 4) #19, !noalias !574
  %1 = icmp eq ptr %0, null
  br i1 %1, label %bb3.i.i, label %bb8

bb3.i.i:                                          ; preds = %bb5.i.i.i, %bb4
  %_4.sroa.4.0.ph.i.i = phi i64 [ 4, %bb5.i.i.i ], [ 0, %bb4 ]
; call alloc::raw_vec::handle_error
  tail call void @_ZN5alloc7raw_vec12handle_error17h3a8c375904e593b2E(i64 noundef %_4.sroa.4.0.ph.i.i, i64 %_21.0.i.i.i.i) #20
  unreachable

cleanup:                                          ; preds = %bb8
  %2 = landingpad { ptr, i32 }
          cleanup
  br i1 %_15, label %bb2.i.i.i3.i10, label %bb11

bb8:                                              ; preds = %bb5.i.i.i, %start
  %heap_buf.sroa.6.1 = phi ptr [ undef, %start ], [ %0, %bb5.i.i.i ]
  %stack_scratch.sroa.4.0 = phi i64 [ 1024, %start ], [ %_0.sroa.0.0.i7, %bb5.i.i.i ]
  %stack_buf.pn = phi ptr [ %stack_buf, %start ], [ %0, %bb5.i.i.i ]
  %eager_sort = icmp samesign ult i64 %v.1, 65
; invoke core::slice::sort::stable::drift::sort
  invoke fastcc void @_ZN4core5slice4sort6stable5drift4sort17h8d9f5ec590a29886E(ptr noalias noundef nonnull align 4 %v.0, i64 noundef %v.1, ptr noalias noundef nonnull align 4 %stack_buf.pn, i64 noundef %stack_scratch.sroa.4.0, i1 noundef zeroext %eager_sort, ptr noalias noundef align 8 dereferenceable(8) %is_less)
          to label %bb9 unwind label %cleanup

bb9:                                              ; preds = %bb8
  br i1 %_15, label %bb2.i.i.i3.i, label %bb10

bb10:                                             ; preds = %bb2.i.i.i3.i, %bb9
  call void @llvm.lifetime.end.p0(i64 4096, ptr nonnull %stack_buf)
  ret void

bb2.i.i.i3.i:                                     ; preds = %bb9
  %3 = shl nuw i64 %_0.sroa.0.0.i7, 2
  %4 = icmp ne ptr %heap_buf.sroa.6.1, null
  call void @llvm.assume(i1 %4)
; call __rustc::__rust_dealloc
  call void @_RNvCsdBezzDwma51_7___rustc14___rust_dealloc(ptr noundef nonnull %heap_buf.sroa.6.1, i64 noundef %3, i64 noundef range(i64 1, -9223372036854775807) 4) #19, !noalias !579
  br label %bb10

bb11:                                             ; preds = %bb2.i.i.i3.i10, %cleanup
  resume { ptr, i32 } %2

bb2.i.i.i3.i10:                                   ; preds = %cleanup
  %5 = shl nuw i64 %_0.sroa.0.0.i7, 2
  %6 = icmp ne ptr %heap_buf.sroa.6.1, null
  call void @llvm.assume(i1 %6)
; call __rustc::__rust_dealloc
  call void @_RNvCsdBezzDwma51_7___rustc14___rust_dealloc(ptr noundef nonnull %heap_buf.sroa.6.1, i64 noundef %5, i64 noundef range(i64 1, -9223372036854775807) 4) #19, !noalias !588
  br label %bb11
}

; core::slice::sort::stable::driftsort_main
; Function Attrs: noinline nonlazybind uwtable
define void @_ZN4core5slice4sort6stable14driftsort_main17ha5f2bee4fd2b432eE(ptr noalias noundef nonnull align 4 %v.0, i64 noundef range(i64 0, 2305843009213693952) %v.1, ptr noalias noundef align 8 dereferenceable(8) %is_less) unnamed_addr #2 personality ptr @rust_eh_personality {
start:
  %stack_buf = alloca [4096 x i8], align 4
  %_105 = lshr i64 %v.1, 1
  %v1 = sub nsw i64 %v.1, %_105
  %_0.sroa.0.0.i = tail call noundef i64 @llvm.umin.i64(i64 %v.1, i64 2000000)
  %_0.sroa.0.0.i6 = tail call noundef i64 @llvm.umax.i64(i64 %_0.sroa.0.0.i, i64 %v1)
  %_0.sroa.0.0.i7 = tail call noundef i64 @llvm.umax.i64(i64 %_0.sroa.0.0.i6, i64 48)
  call void @llvm.lifetime.start.p0(i64 4096, ptr nonnull %stack_buf)
  %_15 = icmp ugt i64 %_0.sroa.0.0.i6, 1024
  br i1 %_15, label %bb4, label %bb8

bb4:                                              ; preds = %start
  %_21.0.i.i.i.i = shl i64 %_0.sroa.0.0.i7, 2
  %_21.1.i.i.i.i = icmp ugt i64 %v1, 4611686018427387903
  %_26.i.i.i.i = icmp ugt i64 %_21.0.i.i.i.i, 9223372036854775804
  %or.cond.i.i.i.i = or i1 %_21.1.i.i.i.i, %_26.i.i.i.i
  br i1 %or.cond.i.i.i.i, label %bb3.i.i, label %bb5.i.i.i, !prof !573

bb5.i.i.i:                                        ; preds = %bb4
; call __rustc::__rust_no_alloc_shim_is_unstable_v2
  tail call void @_RNvCsdBezzDwma51_7___rustc35___rust_no_alloc_shim_is_unstable_v2() #19, !noalias !597
; call __rustc::__rust_alloc
  %0 = tail call noundef align 4 ptr @_RNvCsdBezzDwma51_7___rustc12___rust_alloc(i64 noundef range(i64 1, 0) %_21.0.i.i.i.i, i64 noundef range(i64 1, -9223372036854775807) 4) #19, !noalias !597
  %1 = icmp eq ptr %0, null
  br i1 %1, label %bb3.i.i, label %bb8

bb3.i.i:                                          ; preds = %bb5.i.i.i, %bb4
  %_4.sroa.4.0.ph.i.i = phi i64 [ 4, %bb5.i.i.i ], [ 0, %bb4 ]
; call alloc::raw_vec::handle_error
  tail call void @_ZN5alloc7raw_vec12handle_error17h3a8c375904e593b2E(i64 noundef %_4.sroa.4.0.ph.i.i, i64 %_21.0.i.i.i.i) #20
  unreachable

cleanup:                                          ; preds = %bb8
  %2 = landingpad { ptr, i32 }
          cleanup
  br i1 %_15, label %bb2.i.i.i3.i10, label %bb11

bb8:                                              ; preds = %bb5.i.i.i, %start
  %heap_buf.sroa.6.1 = phi ptr [ undef, %start ], [ %0, %bb5.i.i.i ]
  %stack_scratch.sroa.4.0 = phi i64 [ 1024, %start ], [ %_0.sroa.0.0.i7, %bb5.i.i.i ]
  %stack_buf.pn = phi ptr [ %stack_buf, %start ], [ %0, %bb5.i.i.i ]
  %eager_sort = icmp samesign ult i64 %v.1, 65
; invoke core::slice::sort::stable::drift::sort
  invoke fastcc void @_ZN4core5slice4sort6stable5drift4sort17h99be6190cc5ab17eE(ptr noalias noundef nonnull align 4 %v.0, i64 noundef %v.1, ptr noalias noundef nonnull align 4 %stack_buf.pn, i64 noundef %stack_scratch.sroa.4.0, i1 noundef zeroext %eager_sort, ptr noalias noundef align 8 dereferenceable(8) %is_less)
          to label %bb9 unwind label %cleanup

bb9:                                              ; preds = %bb8
  br i1 %_15, label %bb2.i.i.i3.i, label %bb10

bb10:                                             ; preds = %bb2.i.i.i3.i, %bb9
  call void @llvm.lifetime.end.p0(i64 4096, ptr nonnull %stack_buf)
  ret void

bb2.i.i.i3.i:                                     ; preds = %bb9
  %3 = shl nuw i64 %_0.sroa.0.0.i7, 2
  %4 = icmp ne ptr %heap_buf.sroa.6.1, null
  call void @llvm.assume(i1 %4)
; call __rustc::__rust_dealloc
  call void @_RNvCsdBezzDwma51_7___rustc14___rust_dealloc(ptr noundef nonnull %heap_buf.sroa.6.1, i64 noundef %3, i64 noundef range(i64 1, -9223372036854775807) 4) #19, !noalias !602
  br label %bb10

bb11:                                             ; preds = %bb2.i.i.i3.i10, %cleanup
  resume { ptr, i32 } %2

bb2.i.i.i3.i10:                                   ; preds = %cleanup
  %5 = shl nuw i64 %_0.sroa.0.0.i7, 2
  %6 = icmp ne ptr %heap_buf.sroa.6.1, null
  call void @llvm.assume(i1 %6)
; call __rustc::__rust_dealloc
  call void @_RNvCsdBezzDwma51_7___rustc14___rust_dealloc(ptr noundef nonnull %heap_buf.sroa.6.1, i64 noundef %5, i64 noundef range(i64 1, -9223372036854775807) 4) #19, !noalias !611
  br label %bb11
}

; core::slice::sort::stable::drift::sort
; Function Attrs: nonlazybind uwtable
define internal fastcc void @_ZN4core5slice4sort6stable5drift4sort17h8d9f5ec590a29886E(ptr noalias noundef nonnull align 4 %v.0, i64 noundef range(i64 0, 2305843009213693952) %v.1, ptr noalias noundef nonnull align 4 %scratch.0, i64 noundef range(i64 0, 2305843009213693952) %scratch.1, i1 noundef zeroext %eager_sort, ptr noalias noundef nonnull align 8 dereferenceable(8) %is_less) unnamed_addr #1 personality ptr @rust_eh_personality {
start:
  %desired_depth_storage = alloca [66 x i8], align 1
  %run_storage = alloca [528 x i8], align 8
  %_6 = icmp samesign ult i64 %v.1, 2
  br i1 %_6, label %bb22, label %bb2

bb2:                                              ; preds = %start
  %d = udiv i64 4611686018427387904, %v.1
  %r = urem i64 4611686018427387904, %v.1
  %_73.not = icmp ne i64 %r, 0
  %0 = zext i1 %_73.not to i64
  %scale_factor.sroa.0.0 = add nuw nsw i64 %d, %0
  %_9 = icmp samesign ult i64 %v.1, 4097
  br i1 %_9, label %bb3, label %bb4

bb4:                                              ; preds = %bb2
; call core::slice::sort::stable::drift::sqrt_approx
  %1 = tail call noundef i64 @_ZN4core5slice4sort6stable5drift11sqrt_approx17h72a4dc1ae46294f4E(i64 noundef %v.1)
  br label %bb5

bb3:                                              ; preds = %bb2
  %_1135 = lshr i64 %v.1, 1
  %v1 = sub nsw i64 %v.1, %_1135
  %_0.sroa.0.0.i36 = tail call noundef i64 @llvm.umin.i64(i64 %v1, i64 64)
  br label %bb5

bb5:                                              ; preds = %bb3, %bb4
  %min_good_run_len.sroa.0.0 = phi i64 [ %_0.sroa.0.0.i36, %bb3 ], [ %1, %bb4 ]
  call void @llvm.lifetime.start.p0(i64 528, ptr nonnull %run_storage)
  call void @llvm.lifetime.start.p0(i64 66, ptr nonnull %desired_depth_storage)
  %_13.not.i98 = icmp ugt i64 %min_good_run_len.sroa.0.0, 2
  %_13.not.i104 = icmp ugt i64 %min_good_run_len.sroa.0.0, 2
  br label %bb6

bb6:                                              ; preds = %bb19, %bb5
  %prev_run.sroa.0.0 = phi i64 [ 1, %bb5 ], [ %next_run.sroa.0.0, %bb19 ]
  %scan_idx.sroa.0.0 = phi i64 [ 0, %bb5 ], [ %36, %bb19 ]
  %stack_len.sroa.0.0 = phi i64 [ 0, %bb5 ], [ %35, %bb19 ]
  %_22 = icmp ult i64 %scan_idx.sroa.0.0, %v.1
  br i1 %_22, label %bb30, label %bb10

bb10:                                             ; preds = %bb6, %_ZN4core5slice4sort6stable5drift10create_run17h947a78427763aacfE.exit
  %desired_depth.sroa.0.0 = phi i8 [ %18, %_ZN4core5slice4sort6stable5drift10create_run17h947a78427763aacfE.exit ], [ 0, %bb6 ]
  %next_run.sroa.0.0 = phi i64 [ %_0.sroa.0.0.i40, %_ZN4core5slice4sort6stable5drift10create_run17h947a78427763aacfE.exit ], [ 1, %bb6 ]
  %_3783 = icmp ugt i64 %stack_len.sroa.0.0, 1
  br i1 %_3783, label %bb12.lr.ph, label %bb17

bb12.lr.ph:                                       ; preds = %bb10
  %v_end.i = getelementptr inbounds nuw i32, ptr %v.0, i64 %scan_idx.sroa.0.0
  br label %bb12

bb30:                                             ; preds = %bb6
  %new_len = sub nuw nsw i64 %v.1, %scan_idx.sroa.0.0
  %_82 = getelementptr inbounds nuw i32, ptr %v.0, i64 %scan_idx.sroa.0.0
  %_7.not.i = icmp ult i64 %new_len, %min_good_run_len.sroa.0.0
  br i1 %_7.not.i, label %bb7.i41, label %bb1.i

bb7.i41:                                          ; preds = %_ZN4core5slice4sort6shared17find_existing_run17h17574dfac00a263fE.exit.i.thread101, %_ZN4core5slice4sort6shared17find_existing_run17h17574dfac00a263fE.exit.i.thread, %_ZN4core5slice4sort6shared17find_existing_run17h17574dfac00a263fE.exit.i, %bb30
  br i1 %eager_sort, label %bb16.i43, label %bb11.i42

bb1.i:                                            ; preds = %bb30
  %_4.i.i = icmp samesign ult i64 %new_len, 2
  br i1 %_4.i.i, label %bb5.i38, label %bb2.i.i

bb2.i.i:                                          ; preds = %bb1.i
  %_28.i.i = getelementptr inbounds nuw i8, ptr %_82, i64 4
  tail call void @llvm.experimental.noalias.scope.decl(metadata !620)
  tail call void @llvm.experimental.noalias.scope.decl(metadata !623)
  tail call void @llvm.experimental.noalias.scope.decl(metadata !625), !noalias !628
  tail call void @llvm.experimental.noalias.scope.decl(metadata !631), !noalias !628
  %_4.i.i62 = load i32, ptr %_28.i.i, align 4, !alias.scope !633, !noalias !634, !noundef !23
  %_5.i.i63 = load i32, ptr %_82, align 4, !alias.scope !635, !noalias !636, !noundef !23
  %_0.i64 = icmp slt i32 %_4.i.i62, %_5.i.i63
  %_10.i.i79.not = icmp eq i64 %new_len, 2
  br i1 %_0.i64, label %bb4.i.i.preheader, label %bb11.i.i.preheader

bb11.i.i.preheader:                               ; preds = %bb2.i.i
  br i1 %_10.i.i79.not, label %_ZN4core5slice4sort6shared17find_existing_run17h17574dfac00a263fE.exit.i.thread, label %bb12.i.i

bb4.i.i.preheader:                                ; preds = %bb2.i.i
  br i1 %_10.i.i79.not, label %_ZN4core5slice4sort6shared17find_existing_run17h17574dfac00a263fE.exit.i.thread101, label %bb5.i.i

bb12.i.i:                                         ; preds = %bb11.i.i.preheader, %bb15.i.i
  %_5.i.i60 = phi i32 [ %_4.i.i59, %bb15.i.i ], [ %_4.i.i62, %bb11.i.i.preheader ]
  %run_len.sroa.0.0.i.i77 = phi i64 [ %3, %bb15.i.i ], [ 2, %bb11.i.i.preheader ]
  %2 = getelementptr inbounds nuw i32, ptr %_82, i64 %run_len.sroa.0.0.i.i77
  %_4.i.i59 = load i32, ptr %2, align 4, !alias.scope !637, !noalias !642, !noundef !23
  %_0.i61 = icmp slt i32 %_4.i.i59, %_5.i.i60
  br i1 %_0.i61, label %_ZN4core5slice4sort6shared17find_existing_run17h17574dfac00a263fE.exit.i, label %bb15.i.i

bb15.i.i:                                         ; preds = %bb12.i.i
  %3 = add nuw i64 %run_len.sroa.0.0.i.i77, 1
  %exitcond.not = icmp eq i64 %3, %new_len
  br i1 %exitcond.not, label %_ZN4core5slice4sort6shared17find_existing_run17h17574dfac00a263fE.exit.i, label %bb12.i.i

bb5.i.i:                                          ; preds = %bb4.i.i.preheader, %bb7.i.i
  %_5.i.i = phi i32 [ %_4.i.i58, %bb7.i.i ], [ %_4.i.i62, %bb4.i.i.preheader ]
  %run_len.sroa.0.1.i.i80 = phi i64 [ %5, %bb7.i.i ], [ 2, %bb4.i.i.preheader ]
  %4 = getelementptr inbounds nuw i32, ptr %_82, i64 %run_len.sroa.0.1.i.i80
  %_4.i.i58 = load i32, ptr %4, align 4, !alias.scope !645, !noalias !650, !noundef !23
  %_0.i = icmp slt i32 %_4.i.i58, %_5.i.i
  br i1 %_0.i, label %bb7.i.i, label %_ZN4core5slice4sort6shared17find_existing_run17h17574dfac00a263fE.exit.i

bb7.i.i:                                          ; preds = %bb5.i.i
  %5 = add nuw i64 %run_len.sroa.0.1.i.i80, 1
  %exitcond93.not = icmp eq i64 %5, %new_len
  br i1 %exitcond93.not, label %_ZN4core5slice4sort6shared17find_existing_run17h17574dfac00a263fE.exit.i, label %bb5.i.i

_ZN4core5slice4sort6shared17find_existing_run17h17574dfac00a263fE.exit.i: ; preds = %bb15.i.i, %bb12.i.i, %bb7.i.i, %bb5.i.i
  %_0.sroa.0.0.i.i = phi i64 [ %new_len, %bb7.i.i ], [ %run_len.sroa.0.1.i.i80, %bb5.i.i ], [ %new_len, %bb15.i.i ], [ %run_len.sroa.0.0.i.i77, %bb12.i.i ]
  %_12.i = icmp samesign ule i64 %_0.sroa.0.0.i.i, %new_len
  tail call void @llvm.assume(i1 %_12.i)
  %_13.not.i = icmp ult i64 %_0.sroa.0.0.i.i, %min_good_run_len.sroa.0.0
  br i1 %_13.not.i, label %bb7.i41, label %bb3.i37

_ZN4core5slice4sort6shared17find_existing_run17h17574dfac00a263fE.exit.i.thread101: ; preds = %bb4.i.i.preheader
  br i1 %_13.not.i104, label %bb7.i41, label %bb5.preheader.i.i

_ZN4core5slice4sort6shared17find_existing_run17h17574dfac00a263fE.exit.i.thread: ; preds = %bb11.i.i.preheader
  br i1 %_13.not.i98, label %bb7.i41, label %bb5.i38

bb3.i37:                                          ; preds = %_ZN4core5slice4sort6shared17find_existing_run17h17574dfac00a263fE.exit.i
  br i1 %_0.i64, label %bb14.i, label %bb5.i38

bb11.i42:                                         ; preds = %bb7.i41
  %_0.sroa.0.0.i57 = tail call noundef i64 @llvm.umin.i64(i64 range(i64 0, 2305843009213693952) %new_len, i64 %min_good_run_len.sroa.0.0)
  %_36.i = shl nuw nsw i64 %_0.sroa.0.0.i57, 1
  br label %_ZN4core5slice4sort6stable5drift10create_run17h947a78427763aacfE.exit

bb16.i43:                                         ; preds = %bb7.i41
  %_0.sroa.0.0.i56 = tail call noundef i64 @llvm.umin.i64(i64 range(i64 0, 2305843009213693952) %new_len, i64 32)
; call core::slice::sort::stable::quicksort::quicksort
  tail call void @_ZN4core5slice4sort6stable9quicksort9quicksort17h1062ccab4d285464E(ptr noalias noundef nonnull align 4 %_82, i64 noundef %_0.sroa.0.0.i56, ptr noalias noundef nonnull align 4 %scratch.0, i64 noundef range(i64 0, 2305843009213693952) %scratch.1, i32 noundef 0, ptr noalias noundef readonly align 4 captures(address, read_provenance) dereferenceable_or_null(4) null, ptr noalias noundef nonnull align 8 dereferenceable(8) %is_less) #21
  %_35.i = shl nuw nsw i64 %_0.sroa.0.0.i56, 1
  %_34.i = or disjoint i64 %_35.i, 1
  br label %_ZN4core5slice4sort6stable5drift10create_run17h947a78427763aacfE.exit

bb5.i38:                                          ; preds = %bb6.i.i, %middle.block, %_ZN4core5slice4sort6shared17find_existing_run17h17574dfac00a263fE.exit.i.thread, %bb1.i, %bb14.i, %bb3.i37
  %_0.sroa.0.0.i.i7073 = phi i64 [ %_0.sroa.0.0.i.i, %bb3.i37 ], [ 1, %bb14.i ], [ %new_len, %bb1.i ], [ 2, %_ZN4core5slice4sort6shared17find_existing_run17h17574dfac00a263fE.exit.i.thread ], [ %_0.sroa.0.0.i.i99107111, %middle.block ], [ %_0.sroa.0.0.i.i99107111, %bb6.i.i ]
  %_27.i = shl nuw nsw i64 %_0.sroa.0.0.i.i7073, 1
  %_26.i = or disjoint i64 %_27.i, 1
  br label %_ZN4core5slice4sort6stable5drift10create_run17h947a78427763aacfE.exit

bb14.i:                                           ; preds = %bb3.i37
  %half_len2.i = lshr i64 %_0.sroa.0.0.i.i, 1
  tail call void @llvm.experimental.noalias.scope.decl(metadata !653), !noalias !656
  tail call void @llvm.experimental.noalias.scope.decl(metadata !658), !noalias !656
  %_915.not.i.i = icmp samesign ult i64 %_0.sroa.0.0.i.i, 2
  br i1 %_915.not.i.i, label %bb5.i38, label %bb5.preheader.i.i

bb5.preheader.i.i:                                ; preds = %_ZN4core5slice4sort6shared17find_existing_run17h17574dfac00a263fE.exit.i.thread101, %bb14.i
  %half_len2.i112 = phi i64 [ %half_len2.i, %bb14.i ], [ 1, %_ZN4core5slice4sort6shared17find_existing_run17h17574dfac00a263fE.exit.i.thread101 ]
  %_0.sroa.0.0.i.i99107111 = phi i64 [ %_0.sroa.0.0.i.i, %bb14.i ], [ 2, %_ZN4core5slice4sort6shared17find_existing_run17h17574dfac00a263fE.exit.i.thread101 ]
  %end.i = getelementptr inbounds nuw i32, ptr %_82, i64 %_0.sroa.0.0.i.i99107111
  %min.iters.check = icmp samesign ult i64 %half_len2.i112, 8
  br i1 %min.iters.check, label %bb6.i.i.preheader, label %vector.ph

vector.ph:                                        ; preds = %bb5.preheader.i.i
  %n.vec = and i64 %half_len2.i112, 9223372036854775800
  br label %vector.body

vector.body:                                      ; preds = %vector.body, %vector.ph
  %index = phi i64 [ 0, %vector.ph ], [ %index.next, %vector.body ]
  %6 = xor i64 %index, -1
  %7 = getelementptr inbounds nuw i32, ptr %_82, i64 %index
  %8 = getelementptr i32, ptr %end.i, i64 %6
  %9 = getelementptr inbounds nuw i8, ptr %7, i64 16
  %wide.load = load <4 x i32>, ptr %7, align 4, !alias.scope !660, !noalias !663
  %wide.load119 = load <4 x i32>, ptr %9, align 4, !alias.scope !660, !noalias !663
  %10 = getelementptr i8, ptr %8, i64 -12
  %11 = getelementptr i8, ptr %8, i64 -28
  %wide.load120 = load <4 x i32>, ptr %10, align 4, !alias.scope !664, !noalias !665
  %reverse = shufflevector <4 x i32> %wide.load120, <4 x i32> poison, <4 x i32> <i32 3, i32 2, i32 1, i32 0>
  %wide.load121 = load <4 x i32>, ptr %11, align 4, !alias.scope !664, !noalias !665
  %reverse122 = shufflevector <4 x i32> %wide.load121, <4 x i32> poison, <4 x i32> <i32 3, i32 2, i32 1, i32 0>
  store <4 x i32> %reverse, ptr %7, align 4, !alias.scope !660, !noalias !663
  store <4 x i32> %reverse122, ptr %9, align 4, !alias.scope !660, !noalias !663
  %reverse123 = shufflevector <4 x i32> %wide.load, <4 x i32> poison, <4 x i32> <i32 3, i32 2, i32 1, i32 0>
  store <4 x i32> %reverse123, ptr %10, align 4, !alias.scope !664, !noalias !665
  %reverse124 = shufflevector <4 x i32> %wide.load119, <4 x i32> poison, <4 x i32> <i32 3, i32 2, i32 1, i32 0>
  store <4 x i32> %reverse124, ptr %11, align 4, !alias.scope !664, !noalias !665
  %index.next = add nuw i64 %index, 8
  %12 = icmp eq i64 %index.next, %n.vec
  br i1 %12, label %middle.block, label %vector.body, !llvm.loop !666

middle.block:                                     ; preds = %vector.body
  %cmp.n = icmp eq i64 %half_len2.i112, %n.vec
  br i1 %cmp.n, label %bb5.i38, label %bb6.i.i.preheader

bb6.i.i.preheader:                                ; preds = %bb5.preheader.i.i, %middle.block
  %i.sroa.0.016.i.i.ph = phi i64 [ 0, %bb5.preheader.i.i ], [ %n.vec, %middle.block ]
  br label %bb6.i.i

bb6.i.i:                                          ; preds = %bb6.i.i.preheader, %bb6.i.i
  %i.sroa.0.016.i.i = phi i64 [ %16, %bb6.i.i ], [ %i.sroa.0.016.i.i.ph, %bb6.i.i.preheader ]
  %13 = xor i64 %i.sroa.0.016.i.i, -1
  %x.i.i = getelementptr inbounds nuw i32, ptr %_82, i64 %i.sroa.0.016.i.i
  %y.i.i = getelementptr i32, ptr %end.i, i64 %13
  %14 = load i32, ptr %x.i.i, align 4, !alias.scope !660, !noalias !663, !noundef !23
  %15 = load i32, ptr %y.i.i, align 4, !alias.scope !664, !noalias !665
  store i32 %15, ptr %x.i.i, align 4, !alias.scope !660, !noalias !663
  store i32 %14, ptr %y.i.i, align 4, !alias.scope !664, !noalias !665
  %16 = add nuw nsw i64 %i.sroa.0.016.i.i, 1
  %exitcond.not.i.i = icmp eq i64 %16, %half_len2.i112
  br i1 %exitcond.not.i.i, label %bb5.i38, label %bb6.i.i, !llvm.loop !669

_ZN4core5slice4sort6stable5drift10create_run17h947a78427763aacfE.exit: ; preds = %bb11.i42, %bb16.i43, %bb5.i38
  %_0.sroa.0.0.i40 = phi i64 [ %_26.i, %bb5.i38 ], [ %_34.i, %bb16.i43 ], [ %_36.i, %bb11.i42 ]
  %_31 = lshr i64 %prev_run.sroa.0.0, 1
  %_35 = lshr i64 %_0.sroa.0.0.i40, 1
  %factor = shl i64 %scan_idx.sroa.0.0, 1
  %x = sub i64 %factor, %_31
  %y = add i64 %_35, %factor
  %_90 = mul i64 %x, %scale_factor.sroa.0.0
  %_91 = mul i64 %y, %scale_factor.sroa.0.0
  %self4 = xor i64 %_91, %_90
  %17 = tail call range(i64 0, 65) i64 @llvm.ctlz.i64(i64 %self4, i1 false)
  %18 = trunc nuw nsw i64 %17 to i8
  br label %bb10

bb12:                                             ; preds = %bb12.lr.ph, %_ZN4core5slice4sort6stable5drift13logical_merge17h46c701cf60eb8184E.exit
  %stack_len.sroa.0.185 = phi i64 [ %stack_len.sroa.0.0, %bb12.lr.ph ], [ %count, %_ZN4core5slice4sort6stable5drift13logical_merge17h46c701cf60eb8184E.exit ]
  %prev_run.sroa.0.184 = phi i64 [ %prev_run.sroa.0.0, %bb12.lr.ph ], [ %_0.sroa.0.0.i, %_ZN4core5slice4sort6stable5drift13logical_merge17h46c701cf60eb8184E.exit ]
  %count = add i64 %stack_len.sroa.0.185, -1
  %_41 = getelementptr inbounds nuw i8, ptr %desired_depth_storage, i64 %count
  %_40 = load i8, ptr %_41, align 1, !noundef !23
  %_39.not = icmp ult i8 %_40, %desired_depth.sroa.0.0
  br i1 %_39.not, label %bb17, label %bb13

bb17:                                             ; preds = %_ZN4core5slice4sort6stable5drift13logical_merge17h46c701cf60eb8184E.exit, %bb12, %bb10
  %prev_run.sroa.0.1.lcssa = phi i64 [ %prev_run.sroa.0.0, %bb10 ], [ %prev_run.sroa.0.184, %bb12 ], [ %_0.sroa.0.0.i, %_ZN4core5slice4sort6stable5drift13logical_merge17h46c701cf60eb8184E.exit ]
  %stack_len.sroa.0.1.lcssa = phi i64 [ %stack_len.sroa.0.0, %bb10 ], [ %stack_len.sroa.0.185, %bb12 ], [ 1, %_ZN4core5slice4sort6stable5drift13logical_merge17h46c701cf60eb8184E.exit ]
  %_59 = getelementptr inbounds nuw i64, ptr %run_storage, i64 %stack_len.sroa.0.1.lcssa
  store i64 %prev_run.sroa.0.1.lcssa, ptr %_59, align 8
  %_61 = getelementptr inbounds nuw i8, ptr %desired_depth_storage, i64 %stack_len.sroa.0.1.lcssa
  store i8 %desired_depth.sroa.0.0, ptr %_61, align 1
  br i1 %_22, label %bb19, label %bb18

bb13:                                             ; preds = %bb12
  %_46 = getelementptr inbounds nuw i64, ptr %run_storage, i64 %count
  %left10 = load i64, ptr %_46, align 8, !noundef !23
  %_50 = lshr i64 %left10, 1
  %_51 = lshr i64 %prev_run.sroa.0.184, 1
  %merged_len = add nuw i64 %_50, %_51
  %merge_start_idx = sub i64 %scan_idx.sroa.0.0, %merged_len
  %_98 = getelementptr inbounds nuw i32, ptr %v.0, i64 %merge_start_idx
  %can_fit_in_scratch.i = icmp samesign ugt i64 %merged_len, %scratch.1
  %_22.i = and i64 %prev_run.sroa.0.184, 1
  %_10.not.i = icmp eq i64 %_22.i, 0
  %19 = or i64 %left10, %prev_run.sroa.0.184
  %20 = and i64 %19, 1
  %21 = icmp ne i64 %20, 0
  %or.cond2.i = or i1 %can_fit_in_scratch.i, %21
  br i1 %or.cond2.i, label %bb3.i, label %bb9.i

bb3.i:                                            ; preds = %bb13
  %_21.i = and i64 %left10, 1
  %_9.not.i = icmp eq i64 %_21.i, 0
  br i1 %_9.not.i, label %bb11.i, label %bb5.i

bb9.i:                                            ; preds = %bb13
  %_40.i = shl nuw nsw i64 %merged_len, 1
  br label %_ZN4core5slice4sort6stable5drift13logical_merge17h46c701cf60eb8184E.exit

bb5.i:                                            ; preds = %bb11.i, %bb3.i
  br i1 %_10.not.i, label %bb16.i, label %bb7.i

bb11.i:                                           ; preds = %bb3.i
  %self.i = or i64 %_50, 1
  %22 = tail call range(i64 3, 64) i64 @llvm.ctlz.i64(i64 %self.i, i1 true)
  %23 = trunc nuw nsw i64 %22 to i32
  %log.i = shl nuw nsw i32 %23, 1
  %limit.i = xor i32 %log.i, 126
; call core::slice::sort::stable::quicksort::quicksort
  tail call void @_ZN4core5slice4sort6stable9quicksort9quicksort17h1062ccab4d285464E(ptr noalias noundef nonnull align 4 %_98, i64 noundef range(i64 0, 2305843009213693952) %_50, ptr noalias noundef nonnull align 4 %scratch.0, i64 noundef range(i64 0, 2305843009213693952) %scratch.1, i32 noundef %limit.i, ptr noalias noundef readonly align 4 captures(address, read_provenance) dereferenceable_or_null(4) null, ptr noalias noundef nonnull align 8 dereferenceable(8) %is_less) #21
  br label %bb5.i

bb7.i:                                            ; preds = %bb16.i, %bb5.i
  tail call void @llvm.experimental.noalias.scope.decl(metadata !670)
  tail call void @llvm.experimental.noalias.scope.decl(metadata !673)
  %_6.i = icmp ult i64 %left10, 2
  %_7.i = icmp ult i64 %prev_run.sroa.0.184, 2
  %or.cond.i = select i1 %_6.i, i1 true, i1 %_7.i
  br i1 %or.cond.i, label %_ZN4core5slice4sort6stable5merge5merge17h8856933039596bccE.exit, label %bb2.i

bb2.i:                                            ; preds = %bb7.i
  %_0.sroa.0.0.i.i44 = tail call i64 @llvm.umin.i64(i64 %_51, i64 range(i64 0, -9223372036854775808) %_50)
  %_8.i = icmp samesign ult i64 %scratch.1, %_0.sroa.0.0.i.i44
  br i1 %_8.i, label %_ZN4core5slice4sort6stable5merge5merge17h8856933039596bccE.exit, label %bb5.i45

bb5.i45:                                          ; preds = %bb2.i
  %v_mid.i = getelementptr inbounds nuw i32, ptr %_98, i64 %_50
  %left_is_shorter.not.i = icmp samesign ugt i64 %_50, %_51
  %spec.select.i = select i1 %left_is_shorter.not.i, ptr %v_mid.i, ptr %_98
  %24 = shl nuw nsw i64 %_0.sroa.0.0.i.i44, 2
  tail call void @llvm.memcpy.p0.p0.i64(ptr nonnull align 4 %scratch.0, ptr nonnull align 4 %spec.select.i, i64 %24, i1 false), !alias.scope !675
  %_22.i46 = getelementptr inbounds nuw i8, ptr %scratch.0, i64 %24
  br i1 %left_is_shorter.not.i, label %bb1.i.i, label %bb3.i.i

bb1.i.i:                                          ; preds = %bb5.i45, %bb1.i.i
  %_2110.i.i = phi ptr [ %_21.i.i49, %bb1.i.i ], [ %_22.i46, %bb5.i45 ]
  %_188.i.i = phi ptr [ %_18.i.i, %bb1.i.i ], [ %v_mid.i, %bb5.i45 ]
  %out.sroa.0.0.i.i = phi ptr [ %27, %bb1.i.i ], [ %v_end.i, %bb5.i45 ]
  %25 = getelementptr inbounds i8, ptr %_188.i.i, i64 -4
  %26 = getelementptr inbounds i8, ptr %_2110.i.i, i64 -4
  %27 = getelementptr inbounds i8, ptr %out.sroa.0.0.i.i, i64 -4
  tail call void @llvm.experimental.noalias.scope.decl(metadata !676)
  tail call void @llvm.experimental.noalias.scope.decl(metadata !679)
  tail call void @llvm.experimental.noalias.scope.decl(metadata !681)
  tail call void @llvm.experimental.noalias.scope.decl(metadata !684)
  %_4.i.i.i.i = load i32, ptr %26, align 4, !alias.scope !686, !noalias !687, !noundef !23
  %_5.i.i.i.i = load i32, ptr %25, align 4, !alias.scope !690, !noalias !691, !noundef !23
  %_0.i.i.i = icmp slt i32 %_4.i.i.i.i, %_5.i.i.i.i
  %28 = tail call i32 @llvm.smax.i32(i32 %_4.i.i.i.i, i32 %_5.i.i.i.i)
  store i32 %28, ptr %27, align 4, !alias.scope !670, !noalias !692
  %_20.i.i = xor i1 %_0.i.i.i, true
  %count.i.i = zext i1 %_20.i.i to i64
  %_18.i.i = getelementptr inbounds nuw i32, ptr %25, i64 %count.i.i
  %count4.i.i = zext i1 %_0.i.i.i to i64
  %_21.i.i49 = getelementptr inbounds nuw i32, ptr %26, i64 %count4.i.i
  %_23.i.i = icmp eq ptr %_18.i.i, %_98
  %_26.i.i = icmp eq ptr %_21.i.i49, %scratch.0
  %or.cond.i.i = select i1 %_23.i.i, i1 true, i1 %_26.i.i
  br i1 %or.cond.i.i, label %bb16.i48, label %bb1.i.i

bb3.i.i:                                          ; preds = %bb5.i45, %bb3.i.i
  %_2511.i.i = phi ptr [ %_25.i.i, %bb3.i.i ], [ %_98, %bb5.i45 ]
  %right.sroa.0.010.i.i = phi ptr [ %_23.i17.i, %bb3.i.i ], [ %v_mid.i, %bb5.i45 ]
  %_2059.i.i = phi ptr [ %_20.i16.i, %bb3.i.i ], [ %scratch.0, %bb5.i45 ]
  tail call void @llvm.experimental.noalias.scope.decl(metadata !693)
  tail call void @llvm.experimental.noalias.scope.decl(metadata !696)
  tail call void @llvm.experimental.noalias.scope.decl(metadata !698)
  tail call void @llvm.experimental.noalias.scope.decl(metadata !701)
  %_4.i.i.i12.i = load i32, ptr %right.sroa.0.010.i.i, align 4, !alias.scope !703, !noalias !704, !noundef !23
  %_5.i.i.i13.i = load i32, ptr %_2059.i.i, align 4, !alias.scope !707, !noalias !708, !noundef !23
  %_0.i.i14.i = icmp slt i32 %_4.i.i.i12.i, %_5.i.i.i13.i
  %consume_left.i.i = xor i1 %_0.i.i14.i, true
  %29 = tail call i32 @llvm.smin.i32(i32 %_4.i.i.i12.i, i32 %_5.i.i.i13.i)
  store i32 %29, ptr %_2511.i.i, align 4, !alias.scope !670, !noalias !709
  %count.i15.i = zext i1 %consume_left.i.i to i64
  %_20.i16.i = getelementptr inbounds nuw i32, ptr %_2059.i.i, i64 %count.i15.i
  %count2.i.i = zext i1 %_0.i.i14.i to i64
  %_23.i17.i = getelementptr inbounds nuw i32, ptr %right.sroa.0.010.i.i, i64 %count2.i.i
  %_25.i.i = getelementptr inbounds nuw i8, ptr %_2511.i.i, i64 4
  %_7.i.i = icmp ne ptr %_20.i16.i, %_22.i46
  %_10.i.i47 = icmp ne ptr %_23.i17.i, %v_end.i
  %or.cond.i18.i = select i1 %_7.i.i, i1 %_10.i.i47, i1 false
  br i1 %or.cond.i18.i, label %bb3.i.i, label %bb16.i48

bb16.i48:                                         ; preds = %bb3.i.i, %bb1.i.i
  %merge_state.sroa.13.0.i = phi ptr [ %_18.i.i, %bb1.i.i ], [ %_25.i.i, %bb3.i.i ]
  %merge_state.sroa.7.0.i = phi ptr [ %_21.i.i49, %bb1.i.i ], [ %_22.i46, %bb3.i.i ]
  %merge_state.sroa.0.0.i = phi ptr [ %scratch.0, %bb1.i.i ], [ %_20.i16.i, %bb3.i.i ]
  %30 = ptrtoint ptr %merge_state.sroa.7.0.i to i64
  %31 = ptrtoint ptr %merge_state.sroa.0.0.i to i64
  %32 = sub nuw i64 %30, %31
  tail call void @llvm.memcpy.p0.p0.i64(ptr nonnull align 4 %merge_state.sroa.13.0.i, ptr align 4 %merge_state.sroa.0.0.i, i64 %32, i1 false), !alias.scope !675, !noalias !710
  br label %_ZN4core5slice4sort6stable5merge5merge17h8856933039596bccE.exit

_ZN4core5slice4sort6stable5merge5merge17h8856933039596bccE.exit: ; preds = %bb7.i, %bb2.i, %bb16.i48
  %_39.i = shl nuw nsw i64 %merged_len, 1
  %_38.i = or disjoint i64 %_39.i, 1
  br label %_ZN4core5slice4sort6stable5drift13logical_merge17h46c701cf60eb8184E.exit

bb16.i:                                           ; preds = %bb5.i
  %_37.i = getelementptr inbounds nuw i32, ptr %_98, i64 %_50
  %self.i50 = or i64 %_51, 1
  %33 = tail call range(i64 3, 64) i64 @llvm.ctlz.i64(i64 %self.i50, i1 true)
  %34 = trunc nuw nsw i64 %33 to i32
  %log.i51 = shl nuw nsw i32 %34, 1
  %limit.i52 = xor i32 %log.i51, 126
; call core::slice::sort::stable::quicksort::quicksort
  tail call void @_ZN4core5slice4sort6stable9quicksort9quicksort17h1062ccab4d285464E(ptr noalias noundef nonnull align 4 %_37.i, i64 noundef range(i64 0, 2305843009213693952) %_51, ptr noalias noundef nonnull align 4 %scratch.0, i64 noundef range(i64 0, 2305843009213693952) %scratch.1, i32 noundef %limit.i52, ptr noalias noundef readonly align 4 captures(address, read_provenance) dereferenceable_or_null(4) null, ptr noalias noundef nonnull align 8 dereferenceable(8) %is_less) #21
  br label %bb7.i

_ZN4core5slice4sort6stable5drift13logical_merge17h46c701cf60eb8184E.exit: ; preds = %bb9.i, %_ZN4core5slice4sort6stable5merge5merge17h8856933039596bccE.exit
  %_0.sroa.0.0.i = phi i64 [ %_38.i, %_ZN4core5slice4sort6stable5merge5merge17h8856933039596bccE.exit ], [ %_40.i, %bb9.i ]
  %_37 = icmp ugt i64 %count, 1
  br i1 %_37, label %bb12, label %bb17

bb19:                                             ; preds = %bb17
  %35 = add i64 %stack_len.sroa.0.1.lcssa, 1
  %_65 = lshr i64 %next_run.sroa.0.0, 1
  %36 = add nuw i64 %_65, %scan_idx.sroa.0.0
  br label %bb6

bb18:                                             ; preds = %bb17
  %_99 = and i64 %prev_run.sroa.0.1.lcssa, 1
  %_66.not = icmp eq i64 %_99, 0
  br i1 %_66.not, label %bb20, label %bb21

bb20:                                             ; preds = %bb18
  %self.i53 = or i64 %v.1, 1
  %37 = tail call range(i64 3, 64) i64 @llvm.ctlz.i64(i64 %self.i53, i1 true)
  %38 = trunc nuw nsw i64 %37 to i32
  %log.i54 = shl nuw nsw i32 %38, 1
  %limit.i55 = xor i32 %log.i54, 126
; call core::slice::sort::stable::quicksort::quicksort
  tail call void @_ZN4core5slice4sort6stable9quicksort9quicksort17h1062ccab4d285464E(ptr noalias noundef nonnull align 4 %v.0, i64 noundef range(i64 0, 2305843009213693952) %v.1, ptr noalias noundef nonnull align 4 %scratch.0, i64 noundef range(i64 0, 2305843009213693952) %scratch.1, i32 noundef %limit.i55, ptr noalias noundef readonly align 4 captures(address, read_provenance) dereferenceable_or_null(4) null, ptr noalias noundef nonnull align 8 dereferenceable(8) %is_less) #21
  br label %bb21

bb21:                                             ; preds = %bb20, %bb18
  call void @llvm.lifetime.end.p0(i64 66, ptr nonnull %desired_depth_storage)
  call void @llvm.lifetime.end.p0(i64 528, ptr nonnull %run_storage)
  br label %bb22

bb22:                                             ; preds = %start, %bb21
  ret void
}

; core::slice::sort::stable::drift::sort
; Function Attrs: nonlazybind uwtable
define internal fastcc void @_ZN4core5slice4sort6stable5drift4sort17h99be6190cc5ab17eE(ptr noalias noundef nonnull align 4 %v.0, i64 noundef range(i64 0, 2305843009213693952) %v.1, ptr noalias noundef nonnull align 4 %scratch.0, i64 noundef range(i64 0, 2305843009213693952) %scratch.1, i1 noundef zeroext %eager_sort, ptr noalias noundef nonnull align 8 dereferenceable(8) %is_less) unnamed_addr #1 personality ptr @rust_eh_personality {
start:
  %desired_depth_storage = alloca [66 x i8], align 1
  %run_storage = alloca [528 x i8], align 8
  %_6 = icmp samesign ult i64 %v.1, 2
  br i1 %_6, label %bb22, label %bb2

bb2:                                              ; preds = %start
  %d = udiv i64 4611686018427387904, %v.1
  %r = urem i64 4611686018427387904, %v.1
  %_73.not = icmp ne i64 %r, 0
  %0 = zext i1 %_73.not to i64
  %scale_factor.sroa.0.0 = add nuw nsw i64 %d, %0
  %_9 = icmp samesign ult i64 %v.1, 4097
  br i1 %_9, label %bb3, label %bb4

bb4:                                              ; preds = %bb2
; call core::slice::sort::stable::drift::sqrt_approx
  %1 = tail call noundef i64 @_ZN4core5slice4sort6stable5drift11sqrt_approx17h72a4dc1ae46294f4E(i64 noundef %v.1)
  br label %bb5

bb3:                                              ; preds = %bb2
  %_1135 = lshr i64 %v.1, 1
  %v1 = sub nsw i64 %v.1, %_1135
  %_0.sroa.0.0.i36 = tail call noundef i64 @llvm.umin.i64(i64 %v1, i64 64)
  br label %bb5

bb5:                                              ; preds = %bb3, %bb4
  %min_good_run_len.sroa.0.0 = phi i64 [ %_0.sroa.0.0.i36, %bb3 ], [ %1, %bb4 ]
  call void @llvm.lifetime.start.p0(i64 528, ptr nonnull %run_storage)
  call void @llvm.lifetime.start.p0(i64 66, ptr nonnull %desired_depth_storage)
  %_13.not.i97 = icmp ugt i64 %min_good_run_len.sroa.0.0, 2
  %_13.not.i103 = icmp ugt i64 %min_good_run_len.sroa.0.0, 2
  br label %bb6

bb6:                                              ; preds = %bb19, %bb5
  %prev_run.sroa.0.0 = phi i64 [ 1, %bb5 ], [ %next_run.sroa.0.0, %bb19 ]
  %scan_idx.sroa.0.0 = phi i64 [ 0, %bb5 ], [ %36, %bb19 ]
  %stack_len.sroa.0.0 = phi i64 [ 0, %bb5 ], [ %35, %bb19 ]
  %_22 = icmp ult i64 %scan_idx.sroa.0.0, %v.1
  br i1 %_22, label %bb30, label %bb10

bb10:                                             ; preds = %bb6, %_ZN4core5slice4sort6stable5drift10create_run17h068cc184b2a48bc4E.exit
  %desired_depth.sroa.0.0 = phi i8 [ %18, %_ZN4core5slice4sort6stable5drift10create_run17h068cc184b2a48bc4E.exit ], [ 0, %bb6 ]
  %next_run.sroa.0.0 = phi i64 [ %_0.sroa.0.0.i40, %_ZN4core5slice4sort6stable5drift10create_run17h068cc184b2a48bc4E.exit ], [ 1, %bb6 ]
  %_3782 = icmp ugt i64 %stack_len.sroa.0.0, 1
  br i1 %_3782, label %bb12.lr.ph, label %bb17

bb12.lr.ph:                                       ; preds = %bb10
  %v_end.i = getelementptr inbounds nuw i32, ptr %v.0, i64 %scan_idx.sroa.0.0
  br label %bb12

bb30:                                             ; preds = %bb6
  %new_len = sub nuw nsw i64 %v.1, %scan_idx.sroa.0.0
  %_82 = getelementptr inbounds nuw i32, ptr %v.0, i64 %scan_idx.sroa.0.0
  %_7.not.i = icmp ult i64 %new_len, %min_good_run_len.sroa.0.0
  br i1 %_7.not.i, label %bb7.i41, label %bb1.i

bb7.i41:                                          ; preds = %_ZN4core5slice4sort6shared17find_existing_run17hc8dd701d19db8c15E.exit.i.thread100, %_ZN4core5slice4sort6shared17find_existing_run17hc8dd701d19db8c15E.exit.i.thread, %_ZN4core5slice4sort6shared17find_existing_run17hc8dd701d19db8c15E.exit.i, %bb30
  br i1 %eager_sort, label %bb16.i43, label %bb11.i42

bb1.i:                                            ; preds = %bb30
  %_4.i.i = icmp samesign ult i64 %new_len, 2
  br i1 %_4.i.i, label %bb5.i38, label %bb2.i.i

bb2.i.i:                                          ; preds = %bb1.i
  %_28.i.i = getelementptr inbounds nuw i8, ptr %_82, i64 4
  tail call void @llvm.experimental.noalias.scope.decl(metadata !715)
  tail call void @llvm.experimental.noalias.scope.decl(metadata !718)
  tail call void @llvm.experimental.noalias.scope.decl(metadata !720), !noalias !723
  tail call void @llvm.experimental.noalias.scope.decl(metadata !726), !noalias !723
  tail call void @llvm.experimental.noalias.scope.decl(metadata !728), !noalias !723
  tail call void @llvm.experimental.noalias.scope.decl(metadata !731), !noalias !723
  %_3.i.i.i61 = load i32, ptr %_28.i.i, align 4, !alias.scope !733, !noalias !734, !noundef !23
  %_4.i.i.i62 = load i32, ptr %_82, align 4, !alias.scope !735, !noalias !736, !noundef !23
  %_0.i63 = icmp slt i32 %_3.i.i.i61, %_4.i.i.i62
  %_10.i.i78.not = icmp eq i64 %new_len, 2
  br i1 %_0.i63, label %bb4.i.i.preheader, label %bb11.i.i.preheader

bb11.i.i.preheader:                               ; preds = %bb2.i.i
  br i1 %_10.i.i78.not, label %_ZN4core5slice4sort6shared17find_existing_run17hc8dd701d19db8c15E.exit.i.thread, label %bb12.i.i

bb4.i.i.preheader:                                ; preds = %bb2.i.i
  br i1 %_10.i.i78.not, label %_ZN4core5slice4sort6shared17find_existing_run17hc8dd701d19db8c15E.exit.i.thread100, label %bb5.i.i

bb12.i.i:                                         ; preds = %bb11.i.i.preheader, %bb15.i.i
  %_4.i.i.i59 = phi i32 [ %_3.i.i.i58, %bb15.i.i ], [ %_3.i.i.i61, %bb11.i.i.preheader ]
  %run_len.sroa.0.0.i.i76 = phi i64 [ %3, %bb15.i.i ], [ 2, %bb11.i.i.preheader ]
  %2 = getelementptr inbounds nuw i32, ptr %_82, i64 %run_len.sroa.0.0.i.i76
  %_3.i.i.i58 = load i32, ptr %2, align 4, !alias.scope !737, !noalias !744, !noundef !23
  %_0.i60 = icmp slt i32 %_3.i.i.i58, %_4.i.i.i59
  br i1 %_0.i60, label %_ZN4core5slice4sort6shared17find_existing_run17hc8dd701d19db8c15E.exit.i, label %bb15.i.i

bb15.i.i:                                         ; preds = %bb12.i.i
  %3 = add nuw i64 %run_len.sroa.0.0.i.i76, 1
  %exitcond.not = icmp eq i64 %3, %new_len
  br i1 %exitcond.not, label %_ZN4core5slice4sort6shared17find_existing_run17hc8dd701d19db8c15E.exit.i, label %bb12.i.i

bb5.i.i:                                          ; preds = %bb4.i.i.preheader, %bb7.i.i
  %_4.i.i.i = phi i32 [ %_3.i.i.i, %bb7.i.i ], [ %_3.i.i.i61, %bb4.i.i.preheader ]
  %run_len.sroa.0.1.i.i79 = phi i64 [ %5, %bb7.i.i ], [ 2, %bb4.i.i.preheader ]
  %4 = getelementptr inbounds nuw i32, ptr %_82, i64 %run_len.sroa.0.1.i.i79
  %_3.i.i.i = load i32, ptr %4, align 4, !alias.scope !748, !noalias !755, !noundef !23
  %_0.i = icmp slt i32 %_3.i.i.i, %_4.i.i.i
  br i1 %_0.i, label %bb7.i.i, label %_ZN4core5slice4sort6shared17find_existing_run17hc8dd701d19db8c15E.exit.i

bb7.i.i:                                          ; preds = %bb5.i.i
  %5 = add nuw i64 %run_len.sroa.0.1.i.i79, 1
  %exitcond92.not = icmp eq i64 %5, %new_len
  br i1 %exitcond92.not, label %_ZN4core5slice4sort6shared17find_existing_run17hc8dd701d19db8c15E.exit.i, label %bb5.i.i

_ZN4core5slice4sort6shared17find_existing_run17hc8dd701d19db8c15E.exit.i: ; preds = %bb15.i.i, %bb12.i.i, %bb7.i.i, %bb5.i.i
  %_0.sroa.0.0.i.i = phi i64 [ %new_len, %bb7.i.i ], [ %run_len.sroa.0.1.i.i79, %bb5.i.i ], [ %new_len, %bb15.i.i ], [ %run_len.sroa.0.0.i.i76, %bb12.i.i ]
  %_12.i = icmp samesign ule i64 %_0.sroa.0.0.i.i, %new_len
  tail call void @llvm.assume(i1 %_12.i)
  %_13.not.i = icmp ult i64 %_0.sroa.0.0.i.i, %min_good_run_len.sroa.0.0
  br i1 %_13.not.i, label %bb7.i41, label %bb3.i37

_ZN4core5slice4sort6shared17find_existing_run17hc8dd701d19db8c15E.exit.i.thread100: ; preds = %bb4.i.i.preheader
  br i1 %_13.not.i103, label %bb7.i41, label %bb5.preheader.i.i

_ZN4core5slice4sort6shared17find_existing_run17hc8dd701d19db8c15E.exit.i.thread: ; preds = %bb11.i.i.preheader
  br i1 %_13.not.i97, label %bb7.i41, label %bb5.i38

bb3.i37:                                          ; preds = %_ZN4core5slice4sort6shared17find_existing_run17hc8dd701d19db8c15E.exit.i
  br i1 %_0.i63, label %bb14.i, label %bb5.i38

bb11.i42:                                         ; preds = %bb7.i41
  %_0.sroa.0.0.i57 = tail call noundef i64 @llvm.umin.i64(i64 range(i64 0, 2305843009213693952) %new_len, i64 %min_good_run_len.sroa.0.0)
  %_36.i = shl nuw nsw i64 %_0.sroa.0.0.i57, 1
  br label %_ZN4core5slice4sort6stable5drift10create_run17h068cc184b2a48bc4E.exit

bb16.i43:                                         ; preds = %bb7.i41
  %_0.sroa.0.0.i56 = tail call noundef i64 @llvm.umin.i64(i64 range(i64 0, 2305843009213693952) %new_len, i64 32)
; call core::slice::sort::stable::quicksort::quicksort
  tail call void @_ZN4core5slice4sort6stable9quicksort9quicksort17h586c81f6d2346d32E(ptr noalias noundef nonnull align 4 %_82, i64 noundef %_0.sroa.0.0.i56, ptr noalias noundef nonnull align 4 %scratch.0, i64 noundef range(i64 0, 2305843009213693952) %scratch.1, i32 noundef 0, ptr noalias noundef readonly align 4 captures(address, read_provenance) dereferenceable_or_null(4) null, ptr noalias noundef nonnull align 8 dereferenceable(8) %is_less) #21
  %_35.i = shl nuw nsw i64 %_0.sroa.0.0.i56, 1
  %_34.i = or disjoint i64 %_35.i, 1
  br label %_ZN4core5slice4sort6stable5drift10create_run17h068cc184b2a48bc4E.exit

bb5.i38:                                          ; preds = %bb6.i.i, %middle.block, %_ZN4core5slice4sort6shared17find_existing_run17hc8dd701d19db8c15E.exit.i.thread, %bb1.i, %bb14.i, %bb3.i37
  %_0.sroa.0.0.i.i6972 = phi i64 [ %_0.sroa.0.0.i.i, %bb3.i37 ], [ 1, %bb14.i ], [ %new_len, %bb1.i ], [ 2, %_ZN4core5slice4sort6shared17find_existing_run17hc8dd701d19db8c15E.exit.i.thread ], [ %_0.sroa.0.0.i.i98106110, %middle.block ], [ %_0.sroa.0.0.i.i98106110, %bb6.i.i ]
  %_27.i = shl nuw nsw i64 %_0.sroa.0.0.i.i6972, 1
  %_26.i = or disjoint i64 %_27.i, 1
  br label %_ZN4core5slice4sort6stable5drift10create_run17h068cc184b2a48bc4E.exit

bb14.i:                                           ; preds = %bb3.i37
  %half_len2.i = lshr i64 %_0.sroa.0.0.i.i, 1
  tail call void @llvm.experimental.noalias.scope.decl(metadata !759), !noalias !762
  tail call void @llvm.experimental.noalias.scope.decl(metadata !764), !noalias !762
  %_915.not.i.i = icmp samesign ult i64 %_0.sroa.0.0.i.i, 2
  br i1 %_915.not.i.i, label %bb5.i38, label %bb5.preheader.i.i

bb5.preheader.i.i:                                ; preds = %_ZN4core5slice4sort6shared17find_existing_run17hc8dd701d19db8c15E.exit.i.thread100, %bb14.i
  %half_len2.i111 = phi i64 [ %half_len2.i, %bb14.i ], [ 1, %_ZN4core5slice4sort6shared17find_existing_run17hc8dd701d19db8c15E.exit.i.thread100 ]
  %_0.sroa.0.0.i.i98106110 = phi i64 [ %_0.sroa.0.0.i.i, %bb14.i ], [ 2, %_ZN4core5slice4sort6shared17find_existing_run17hc8dd701d19db8c15E.exit.i.thread100 ]
  %end.i = getelementptr inbounds nuw i32, ptr %_82, i64 %_0.sroa.0.0.i.i98106110
  %min.iters.check = icmp samesign ult i64 %half_len2.i111, 8
  br i1 %min.iters.check, label %bb6.i.i.preheader, label %vector.ph

vector.ph:                                        ; preds = %bb5.preheader.i.i
  %n.vec = and i64 %half_len2.i111, 9223372036854775800
  br label %vector.body

vector.body:                                      ; preds = %vector.body, %vector.ph
  %index = phi i64 [ 0, %vector.ph ], [ %index.next, %vector.body ]
  %6 = xor i64 %index, -1
  %7 = getelementptr inbounds nuw i32, ptr %_82, i64 %index
  %8 = getelementptr i32, ptr %end.i, i64 %6
  %9 = getelementptr inbounds nuw i8, ptr %7, i64 16
  %wide.load = load <4 x i32>, ptr %7, align 4, !alias.scope !766, !noalias !769
  %wide.load118 = load <4 x i32>, ptr %9, align 4, !alias.scope !766, !noalias !769
  %10 = getelementptr i8, ptr %8, i64 -12
  %11 = getelementptr i8, ptr %8, i64 -28
  %wide.load119 = load <4 x i32>, ptr %10, align 4, !alias.scope !770, !noalias !771
  %reverse = shufflevector <4 x i32> %wide.load119, <4 x i32> poison, <4 x i32> <i32 3, i32 2, i32 1, i32 0>
  %wide.load120 = load <4 x i32>, ptr %11, align 4, !alias.scope !770, !noalias !771
  %reverse121 = shufflevector <4 x i32> %wide.load120, <4 x i32> poison, <4 x i32> <i32 3, i32 2, i32 1, i32 0>
  store <4 x i32> %reverse, ptr %7, align 4, !alias.scope !766, !noalias !769
  store <4 x i32> %reverse121, ptr %9, align 4, !alias.scope !766, !noalias !769
  %reverse122 = shufflevector <4 x i32> %wide.load, <4 x i32> poison, <4 x i32> <i32 3, i32 2, i32 1, i32 0>
  store <4 x i32> %reverse122, ptr %10, align 4, !alias.scope !770, !noalias !771
  %reverse123 = shufflevector <4 x i32> %wide.load118, <4 x i32> poison, <4 x i32> <i32 3, i32 2, i32 1, i32 0>
  store <4 x i32> %reverse123, ptr %11, align 4, !alias.scope !770, !noalias !771
  %index.next = add nuw i64 %index, 8
  %12 = icmp eq i64 %index.next, %n.vec
  br i1 %12, label %middle.block, label %vector.body, !llvm.loop !772

middle.block:                                     ; preds = %vector.body
  %cmp.n = icmp eq i64 %half_len2.i111, %n.vec
  br i1 %cmp.n, label %bb5.i38, label %bb6.i.i.preheader

bb6.i.i.preheader:                                ; preds = %bb5.preheader.i.i, %middle.block
  %i.sroa.0.016.i.i.ph = phi i64 [ 0, %bb5.preheader.i.i ], [ %n.vec, %middle.block ]
  br label %bb6.i.i

bb6.i.i:                                          ; preds = %bb6.i.i.preheader, %bb6.i.i
  %i.sroa.0.016.i.i = phi i64 [ %16, %bb6.i.i ], [ %i.sroa.0.016.i.i.ph, %bb6.i.i.preheader ]
  %13 = xor i64 %i.sroa.0.016.i.i, -1
  %x.i.i = getelementptr inbounds nuw i32, ptr %_82, i64 %i.sroa.0.016.i.i
  %y.i.i = getelementptr i32, ptr %end.i, i64 %13
  %14 = load i32, ptr %x.i.i, align 4, !alias.scope !766, !noalias !769, !noundef !23
  %15 = load i32, ptr %y.i.i, align 4, !alias.scope !770, !noalias !771
  store i32 %15, ptr %x.i.i, align 4, !alias.scope !766, !noalias !769
  store i32 %14, ptr %y.i.i, align 4, !alias.scope !770, !noalias !771
  %16 = add nuw nsw i64 %i.sroa.0.016.i.i, 1
  %exitcond.not.i.i = icmp eq i64 %16, %half_len2.i111
  br i1 %exitcond.not.i.i, label %bb5.i38, label %bb6.i.i, !llvm.loop !773

_ZN4core5slice4sort6stable5drift10create_run17h068cc184b2a48bc4E.exit: ; preds = %bb11.i42, %bb16.i43, %bb5.i38
  %_0.sroa.0.0.i40 = phi i64 [ %_26.i, %bb5.i38 ], [ %_34.i, %bb16.i43 ], [ %_36.i, %bb11.i42 ]
  %_31 = lshr i64 %prev_run.sroa.0.0, 1
  %_35 = lshr i64 %_0.sroa.0.0.i40, 1
  %factor = shl i64 %scan_idx.sroa.0.0, 1
  %x = sub i64 %factor, %_31
  %y = add i64 %_35, %factor
  %_90 = mul i64 %x, %scale_factor.sroa.0.0
  %_91 = mul i64 %y, %scale_factor.sroa.0.0
  %self4 = xor i64 %_91, %_90
  %17 = tail call range(i64 0, 65) i64 @llvm.ctlz.i64(i64 %self4, i1 false)
  %18 = trunc nuw nsw i64 %17 to i8
  br label %bb10

bb12:                                             ; preds = %bb12.lr.ph, %_ZN4core5slice4sort6stable5drift13logical_merge17hd579fef3d67821b1E.exit
  %stack_len.sroa.0.184 = phi i64 [ %stack_len.sroa.0.0, %bb12.lr.ph ], [ %count, %_ZN4core5slice4sort6stable5drift13logical_merge17hd579fef3d67821b1E.exit ]
  %prev_run.sroa.0.183 = phi i64 [ %prev_run.sroa.0.0, %bb12.lr.ph ], [ %_0.sroa.0.0.i, %_ZN4core5slice4sort6stable5drift13logical_merge17hd579fef3d67821b1E.exit ]
  %count = add i64 %stack_len.sroa.0.184, -1
  %_41 = getelementptr inbounds nuw i8, ptr %desired_depth_storage, i64 %count
  %_40 = load i8, ptr %_41, align 1, !noundef !23
  %_39.not = icmp ult i8 %_40, %desired_depth.sroa.0.0
  br i1 %_39.not, label %bb17, label %bb13

bb17:                                             ; preds = %_ZN4core5slice4sort6stable5drift13logical_merge17hd579fef3d67821b1E.exit, %bb12, %bb10
  %prev_run.sroa.0.1.lcssa = phi i64 [ %prev_run.sroa.0.0, %bb10 ], [ %prev_run.sroa.0.183, %bb12 ], [ %_0.sroa.0.0.i, %_ZN4core5slice4sort6stable5drift13logical_merge17hd579fef3d67821b1E.exit ]
  %stack_len.sroa.0.1.lcssa = phi i64 [ %stack_len.sroa.0.0, %bb10 ], [ %stack_len.sroa.0.184, %bb12 ], [ 1, %_ZN4core5slice4sort6stable5drift13logical_merge17hd579fef3d67821b1E.exit ]
  %_59 = getelementptr inbounds nuw i64, ptr %run_storage, i64 %stack_len.sroa.0.1.lcssa
  store i64 %prev_run.sroa.0.1.lcssa, ptr %_59, align 8
  %_61 = getelementptr inbounds nuw i8, ptr %desired_depth_storage, i64 %stack_len.sroa.0.1.lcssa
  store i8 %desired_depth.sroa.0.0, ptr %_61, align 1
  br i1 %_22, label %bb19, label %bb18

bb13:                                             ; preds = %bb12
  %_46 = getelementptr inbounds nuw i64, ptr %run_storage, i64 %count
  %left10 = load i64, ptr %_46, align 8, !noundef !23
  %_50 = lshr i64 %left10, 1
  %_51 = lshr i64 %prev_run.sroa.0.183, 1
  %merged_len = add nuw i64 %_50, %_51
  %merge_start_idx = sub i64 %scan_idx.sroa.0.0, %merged_len
  %_98 = getelementptr inbounds nuw i32, ptr %v.0, i64 %merge_start_idx
  %can_fit_in_scratch.i = icmp samesign ugt i64 %merged_len, %scratch.1
  %_22.i = and i64 %prev_run.sroa.0.183, 1
  %_10.not.i = icmp eq i64 %_22.i, 0
  %19 = or i64 %left10, %prev_run.sroa.0.183
  %20 = and i64 %19, 1
  %21 = icmp ne i64 %20, 0
  %or.cond2.i = or i1 %can_fit_in_scratch.i, %21
  br i1 %or.cond2.i, label %bb3.i, label %bb9.i

bb3.i:                                            ; preds = %bb13
  %_21.i = and i64 %left10, 1
  %_9.not.i = icmp eq i64 %_21.i, 0
  br i1 %_9.not.i, label %bb11.i, label %bb5.i

bb9.i:                                            ; preds = %bb13
  %_40.i = shl nuw nsw i64 %merged_len, 1
  br label %_ZN4core5slice4sort6stable5drift13logical_merge17hd579fef3d67821b1E.exit

bb5.i:                                            ; preds = %bb11.i, %bb3.i
  br i1 %_10.not.i, label %bb16.i, label %bb7.i

bb11.i:                                           ; preds = %bb3.i
  %self.i = or i64 %_50, 1
  %22 = tail call range(i64 3, 64) i64 @llvm.ctlz.i64(i64 %self.i, i1 true)
  %23 = trunc nuw nsw i64 %22 to i32
  %log.i = shl nuw nsw i32 %23, 1
  %limit.i = xor i32 %log.i, 126
; call core::slice::sort::stable::quicksort::quicksort
  tail call void @_ZN4core5slice4sort6stable9quicksort9quicksort17h586c81f6d2346d32E(ptr noalias noundef nonnull align 4 %_98, i64 noundef range(i64 0, 2305843009213693952) %_50, ptr noalias noundef nonnull align 4 %scratch.0, i64 noundef range(i64 0, 2305843009213693952) %scratch.1, i32 noundef %limit.i, ptr noalias noundef readonly align 4 captures(address, read_provenance) dereferenceable_or_null(4) null, ptr noalias noundef nonnull align 8 dereferenceable(8) %is_less) #21
  br label %bb5.i

bb7.i:                                            ; preds = %bb16.i, %bb5.i
  tail call void @llvm.experimental.noalias.scope.decl(metadata !774)
  tail call void @llvm.experimental.noalias.scope.decl(metadata !777)
  %_6.i = icmp ult i64 %left10, 2
  %_7.i = icmp ult i64 %prev_run.sroa.0.183, 2
  %or.cond.i = select i1 %_6.i, i1 true, i1 %_7.i
  br i1 %or.cond.i, label %_ZN4core5slice4sort6stable5merge5merge17hd2ba6f9ab550b0b2E.exit, label %bb2.i

bb2.i:                                            ; preds = %bb7.i
  %_0.sroa.0.0.i.i44 = tail call i64 @llvm.umin.i64(i64 %_51, i64 range(i64 0, -9223372036854775808) %_50)
  %_8.i = icmp samesign ult i64 %scratch.1, %_0.sroa.0.0.i.i44
  br i1 %_8.i, label %_ZN4core5slice4sort6stable5merge5merge17hd2ba6f9ab550b0b2E.exit, label %bb5.i45

bb5.i45:                                          ; preds = %bb2.i
  %v_mid.i = getelementptr inbounds nuw i32, ptr %_98, i64 %_50
  %left_is_shorter.not.i = icmp samesign ugt i64 %_50, %_51
  %spec.select.i = select i1 %left_is_shorter.not.i, ptr %v_mid.i, ptr %_98
  %24 = shl nuw nsw i64 %_0.sroa.0.0.i.i44, 2
  tail call void @llvm.memcpy.p0.p0.i64(ptr nonnull align 4 %scratch.0, ptr nonnull align 4 %spec.select.i, i64 %24, i1 false), !alias.scope !779
  %_22.i46 = getelementptr inbounds nuw i8, ptr %scratch.0, i64 %24
  br i1 %left_is_shorter.not.i, label %bb1.i.i, label %bb3.i.i

bb1.i.i:                                          ; preds = %bb5.i45, %bb1.i.i
  %_2110.i.i = phi ptr [ %_21.i.i49, %bb1.i.i ], [ %_22.i46, %bb5.i45 ]
  %_188.i.i = phi ptr [ %_18.i.i, %bb1.i.i ], [ %v_mid.i, %bb5.i45 ]
  %out.sroa.0.0.i.i = phi ptr [ %27, %bb1.i.i ], [ %v_end.i, %bb5.i45 ]
  %25 = getelementptr inbounds i8, ptr %_188.i.i, i64 -4
  %26 = getelementptr inbounds i8, ptr %_2110.i.i, i64 -4
  %27 = getelementptr inbounds i8, ptr %out.sroa.0.0.i.i, i64 -4
  tail call void @llvm.experimental.noalias.scope.decl(metadata !780)
  tail call void @llvm.experimental.noalias.scope.decl(metadata !783)
  tail call void @llvm.experimental.noalias.scope.decl(metadata !785)
  tail call void @llvm.experimental.noalias.scope.decl(metadata !788)
  tail call void @llvm.experimental.noalias.scope.decl(metadata !790)
  tail call void @llvm.experimental.noalias.scope.decl(metadata !793)
  %_3.i.i.i.i.i = load i32, ptr %26, align 4, !alias.scope !795, !noalias !796, !noundef !23
  %_4.i.i.i.i.i = load i32, ptr %25, align 4, !alias.scope !799, !noalias !800, !noundef !23
  %_0.i.i.i = icmp slt i32 %_3.i.i.i.i.i, %_4.i.i.i.i.i
  %28 = tail call i32 @llvm.smax.i32(i32 %_3.i.i.i.i.i, i32 %_4.i.i.i.i.i)
  store i32 %28, ptr %27, align 4, !alias.scope !774, !noalias !801
  %_20.i.i = xor i1 %_0.i.i.i, true
  %count.i.i = zext i1 %_20.i.i to i64
  %_18.i.i = getelementptr inbounds nuw i32, ptr %25, i64 %count.i.i
  %count4.i.i = zext i1 %_0.i.i.i to i64
  %_21.i.i49 = getelementptr inbounds nuw i32, ptr %26, i64 %count4.i.i
  %_23.i.i = icmp eq ptr %_18.i.i, %_98
  %_26.i.i = icmp eq ptr %_21.i.i49, %scratch.0
  %or.cond.i.i = select i1 %_23.i.i, i1 true, i1 %_26.i.i
  br i1 %or.cond.i.i, label %bb16.i48, label %bb1.i.i

bb3.i.i:                                          ; preds = %bb5.i45, %bb3.i.i
  %_2511.i.i = phi ptr [ %_25.i.i, %bb3.i.i ], [ %_98, %bb5.i45 ]
  %right.sroa.0.010.i.i = phi ptr [ %_23.i17.i, %bb3.i.i ], [ %v_mid.i, %bb5.i45 ]
  %_2059.i.i = phi ptr [ %_20.i16.i, %bb3.i.i ], [ %scratch.0, %bb5.i45 ]
  tail call void @llvm.experimental.noalias.scope.decl(metadata !802)
  tail call void @llvm.experimental.noalias.scope.decl(metadata !805)
  tail call void @llvm.experimental.noalias.scope.decl(metadata !807)
  tail call void @llvm.experimental.noalias.scope.decl(metadata !810)
  tail call void @llvm.experimental.noalias.scope.decl(metadata !812)
  tail call void @llvm.experimental.noalias.scope.decl(metadata !815)
  %_3.i.i.i.i12.i = load i32, ptr %right.sroa.0.010.i.i, align 4, !alias.scope !817, !noalias !818, !noundef !23
  %_4.i.i.i.i13.i = load i32, ptr %_2059.i.i, align 4, !alias.scope !821, !noalias !822, !noundef !23
  %_0.i.i14.i = icmp slt i32 %_3.i.i.i.i12.i, %_4.i.i.i.i13.i
  %consume_left.i.i = xor i1 %_0.i.i14.i, true
  %29 = tail call i32 @llvm.smin.i32(i32 %_3.i.i.i.i12.i, i32 %_4.i.i.i.i13.i)
  store i32 %29, ptr %_2511.i.i, align 4, !alias.scope !774, !noalias !823
  %count.i15.i = zext i1 %consume_left.i.i to i64
  %_20.i16.i = getelementptr inbounds nuw i32, ptr %_2059.i.i, i64 %count.i15.i
  %count2.i.i = zext i1 %_0.i.i14.i to i64
  %_23.i17.i = getelementptr inbounds nuw i32, ptr %right.sroa.0.010.i.i, i64 %count2.i.i
  %_25.i.i = getelementptr inbounds nuw i8, ptr %_2511.i.i, i64 4
  %_7.i.i = icmp ne ptr %_20.i16.i, %_22.i46
  %_10.i.i47 = icmp ne ptr %_23.i17.i, %v_end.i
  %or.cond.i18.i = select i1 %_7.i.i, i1 %_10.i.i47, i1 false
  br i1 %or.cond.i18.i, label %bb3.i.i, label %bb16.i48

bb16.i48:                                         ; preds = %bb3.i.i, %bb1.i.i
  %merge_state.sroa.13.0.i = phi ptr [ %_18.i.i, %bb1.i.i ], [ %_25.i.i, %bb3.i.i ]
  %merge_state.sroa.7.0.i = phi ptr [ %_21.i.i49, %bb1.i.i ], [ %_22.i46, %bb3.i.i ]
  %merge_state.sroa.0.0.i = phi ptr [ %scratch.0, %bb1.i.i ], [ %_20.i16.i, %bb3.i.i ]
  %30 = ptrtoint ptr %merge_state.sroa.7.0.i to i64
  %31 = ptrtoint ptr %merge_state.sroa.0.0.i to i64
  %32 = sub nuw i64 %30, %31
  tail call void @llvm.memcpy.p0.p0.i64(ptr nonnull align 4 %merge_state.sroa.13.0.i, ptr align 4 %merge_state.sroa.0.0.i, i64 %32, i1 false), !alias.scope !779, !noalias !824
  br label %_ZN4core5slice4sort6stable5merge5merge17hd2ba6f9ab550b0b2E.exit

_ZN4core5slice4sort6stable5merge5merge17hd2ba6f9ab550b0b2E.exit: ; preds = %bb7.i, %bb2.i, %bb16.i48
  %_39.i = shl nuw nsw i64 %merged_len, 1
  %_38.i = or disjoint i64 %_39.i, 1
  br label %_ZN4core5slice4sort6stable5drift13logical_merge17hd579fef3d67821b1E.exit

bb16.i:                                           ; preds = %bb5.i
  %_37.i = getelementptr inbounds nuw i32, ptr %_98, i64 %_50
  %self.i50 = or i64 %_51, 1
  %33 = tail call range(i64 3, 64) i64 @llvm.ctlz.i64(i64 %self.i50, i1 true)
  %34 = trunc nuw nsw i64 %33 to i32
  %log.i51 = shl nuw nsw i32 %34, 1
  %limit.i52 = xor i32 %log.i51, 126
; call core::slice::sort::stable::quicksort::quicksort
  tail call void @_ZN4core5slice4sort6stable9quicksort9quicksort17h586c81f6d2346d32E(ptr noalias noundef nonnull align 4 %_37.i, i64 noundef range(i64 0, 2305843009213693952) %_51, ptr noalias noundef nonnull align 4 %scratch.0, i64 noundef range(i64 0, 2305843009213693952) %scratch.1, i32 noundef %limit.i52, ptr noalias noundef readonly align 4 captures(address, read_provenance) dereferenceable_or_null(4) null, ptr noalias noundef nonnull align 8 dereferenceable(8) %is_less) #21
  br label %bb7.i

_ZN4core5slice4sort6stable5drift13logical_merge17hd579fef3d67821b1E.exit: ; preds = %bb9.i, %_ZN4core5slice4sort6stable5merge5merge17hd2ba6f9ab550b0b2E.exit
  %_0.sroa.0.0.i = phi i64 [ %_38.i, %_ZN4core5slice4sort6stable5merge5merge17hd2ba6f9ab550b0b2E.exit ], [ %_40.i, %bb9.i ]
  %_37 = icmp ugt i64 %count, 1
  br i1 %_37, label %bb12, label %bb17

bb19:                                             ; preds = %bb17
  %35 = add i64 %stack_len.sroa.0.1.lcssa, 1
  %_65 = lshr i64 %next_run.sroa.0.0, 1
  %36 = add nuw i64 %_65, %scan_idx.sroa.0.0
  br label %bb6

bb18:                                             ; preds = %bb17
  %_99 = and i64 %prev_run.sroa.0.1.lcssa, 1
  %_66.not = icmp eq i64 %_99, 0
  br i1 %_66.not, label %bb20, label %bb21

bb20:                                             ; preds = %bb18
  %self.i53 = or i64 %v.1, 1
  %37 = tail call range(i64 3, 64) i64 @llvm.ctlz.i64(i64 %self.i53, i1 true)
  %38 = trunc nuw nsw i64 %37 to i32
  %log.i54 = shl nuw nsw i32 %38, 1
  %limit.i55 = xor i32 %log.i54, 126
; call core::slice::sort::stable::quicksort::quicksort
  tail call void @_ZN4core5slice4sort6stable9quicksort9quicksort17h586c81f6d2346d32E(ptr noalias noundef nonnull align 4 %v.0, i64 noundef range(i64 0, 2305843009213693952) %v.1, ptr noalias noundef nonnull align 4 %scratch.0, i64 noundef range(i64 0, 2305843009213693952) %scratch.1, i32 noundef %limit.i55, ptr noalias noundef readonly align 4 captures(address, read_provenance) dereferenceable_or_null(4) null, ptr noalias noundef nonnull align 8 dereferenceable(8) %is_less) #21
  br label %bb21

bb21:                                             ; preds = %bb20, %bb18
  call void @llvm.lifetime.end.p0(i64 66, ptr nonnull %desired_depth_storage)
  call void @llvm.lifetime.end.p0(i64 528, ptr nonnull %run_storage)
  br label %bb22

bb22:                                             ; preds = %start, %bb21
  ret void
}

; core::slice::sort::stable::quicksort::quicksort
; Function Attrs: noinline nonlazybind uwtable
define void @_ZN4core5slice4sort6stable9quicksort9quicksort17h1062ccab4d285464E(ptr noalias noundef nonnull align 4 %0, i64 noundef range(i64 0, 2305843009213693952) %1, ptr noalias noundef nonnull align 4 %scratch.0, i64 noundef range(i64 0, 2305843009213693952) %scratch.1, i32 noundef %2, ptr noalias noundef readonly align 4 captures(address) dereferenceable_or_null(4) %3, ptr noalias noundef align 8 dereferenceable(8) %is_less) unnamed_addr #2 personality ptr @rust_eh_personality {
start:
  %pivot_copy = alloca [4 x i8], align 4
  %_8130136 = icmp samesign ult i64 %1, 33
  br i1 %_8130136, label %bb3, label %bb5.lr.ph

bb5.lr.ph:                                        ; preds = %start, %bb28
  %v.sroa.0.0.ph140 = phi ptr [ %_54, %bb28 ], [ %0, %start ]
  %v.sroa.16.0.ph139 = phi i64 [ %_63.i63, %bb28 ], [ %1, %start ]
  %limit.sroa.0.0.ph138 = phi i32 [ %48, %bb28 ], [ %2, %start ]
  %left_ancestor_pivot.sroa.0.0.ph137 = phi ptr [ null, %bb28 ], [ %3, %start ]
  %4 = ptrtoint ptr %v.sroa.0.0.ph140 to i64
  %.not = icmp eq ptr %left_ancestor_pivot.sroa.0.0.ph137, null
  br label %bb5

bb5:                                              ; preds = %bb5.lr.ph, %"_ZN4core5slice29_$LT$impl$u20$$u5b$T$u5d$$GT$12split_at_mut17h9694744ae55560c1E.exit"
  %v.sroa.16.0132 = phi i64 [ %v.sroa.16.0.ph139, %bb5.lr.ph ], [ %state.sroa.27.2.lcssa.i, %"_ZN4core5slice29_$LT$impl$u20$$u5b$T$u5d$$GT$12split_at_mut17h9694744ae55560c1E.exit" ]
  %limit.sroa.0.0131 = phi i32 [ %limit.sroa.0.0.ph138, %bb5.lr.ph ], [ %48, %"_ZN4core5slice29_$LT$impl$u20$$u5b$T$u5d$$GT$12split_at_mut17h9694744ae55560c1E.exit" ]
  %_11 = icmp eq i32 %limit.sroa.0.0131, 0
  br i1 %_11, label %bb6, label %bb7

bb3:                                              ; preds = %bb28, %"_ZN4core5slice29_$LT$impl$u20$$u5b$T$u5d$$GT$12split_at_mut17h9694744ae55560c1E.exit", %start
  %v.sroa.0.0.ph.lcssa129 = phi ptr [ %0, %start ], [ %v.sroa.0.0.ph140, %"_ZN4core5slice29_$LT$impl$u20$$u5b$T$u5d$$GT$12split_at_mut17h9694744ae55560c1E.exit" ], [ %_54, %bb28 ]
  %v.sroa.16.0.lcssa = phi i64 [ %1, %start ], [ %state.sroa.27.2.lcssa.i, %"_ZN4core5slice29_$LT$impl$u20$$u5b$T$u5d$$GT$12split_at_mut17h9694744ae55560c1E.exit" ], [ %_63.i63, %bb28 ]
  call void @llvm.experimental.noalias.scope.decl(metadata !829)
  call void @llvm.experimental.noalias.scope.decl(metadata !832)
  %_5.i = icmp samesign ult i64 %v.sroa.16.0.lcssa, 2
  br i1 %_5.i, label %bb22, label %bb2.i

bb2.i:                                            ; preds = %bb3
  %_8.i = add nuw nsw i64 %v.sroa.16.0.lcssa, 16
  %_6.i = icmp samesign ult i64 %scratch.1, %_8.i
  br i1 %_6.i, label %bb3.i, label %bb4.i

bb4.i:                                            ; preds = %bb2.i
  %len_div_211.i = lshr i64 %v.sroa.16.0.lcssa, 1
  %_14.i = icmp samesign ugt i64 %v.sroa.16.0.lcssa, 15
  br i1 %_14.i, label %bb6.i, label %bb9.i

bb3.i:                                            ; preds = %bb2.i
  call void @llvm.trap()
  unreachable

bb9.i:                                            ; preds = %bb4.i
  %_22.i = icmp samesign ugt i64 %v.sroa.16.0.lcssa, 7
  br i1 %_22.i, label %bb10.i, label %bb46.i

bb6.i:                                            ; preds = %bb4.i
  %_16.i = getelementptr inbounds nuw i32, ptr %scratch.0, i64 %v.sroa.16.0.lcssa
; call core::slice::sort::shared::smallsort::sort8_stable
  call fastcc void @_ZN4core5slice4sort6shared9smallsort12sort8_stable17hefed4dcb5b376924E(ptr noundef nonnull align 4 %v.sroa.0.0.ph.lcssa129, ptr noundef nonnull align 4 %scratch.0, ptr noundef %_16.i)
  %_18.i = getelementptr inbounds nuw i32, ptr %v.sroa.0.0.ph.lcssa129, i64 %len_div_211.i
  %_19.i = getelementptr inbounds nuw i32, ptr %scratch.0, i64 %len_div_211.i
  %_20.i = getelementptr inbounds nuw i8, ptr %_16.i, i64 32
; call core::slice::sort::shared::smallsort::sort8_stable
  call fastcc void @_ZN4core5slice4sort6shared9smallsort12sort8_stable17hefed4dcb5b376924E(ptr noundef %_18.i, ptr noundef %_19.i, ptr noundef %_20.i)
  br label %bb15.i

bb10.i:                                           ; preds = %bb9.i
  %_7.i.i = getelementptr inbounds nuw i8, ptr %v.sroa.0.0.ph.lcssa129, i64 4
  call void @llvm.experimental.noalias.scope.decl(metadata !834)
  call void @llvm.experimental.noalias.scope.decl(metadata !837)
  call void @llvm.experimental.noalias.scope.decl(metadata !839)
  call void @llvm.experimental.noalias.scope.decl(metadata !842)
  %_4.i.i.i.i = load i32, ptr %_7.i.i, align 4, !alias.scope !844, !noalias !845, !noundef !23
  %_5.i.i.i.i = load i32, ptr %v.sroa.0.0.ph.lcssa129, align 4, !alias.scope !847, !noalias !848, !noundef !23
  %_0.i.i.i = icmp slt i32 %_4.i.i.i.i, %_5.i.i.i.i
  %_12.i.i = getelementptr inbounds nuw i8, ptr %v.sroa.0.0.ph.lcssa129, i64 12
  %_14.i.i = getelementptr inbounds nuw i8, ptr %v.sroa.0.0.ph.lcssa129, i64 8
  call void @llvm.experimental.noalias.scope.decl(metadata !849)
  call void @llvm.experimental.noalias.scope.decl(metadata !852)
  call void @llvm.experimental.noalias.scope.decl(metadata !854)
  call void @llvm.experimental.noalias.scope.decl(metadata !857)
  %_4.i.i7.i.i = load i32, ptr %_12.i.i, align 4, !alias.scope !859, !noalias !860, !noundef !23
  %_5.i.i8.i.i = load i32, ptr %_14.i.i, align 4, !alias.scope !861, !noalias !862, !noundef !23
  %_0.i9.i.i = icmp slt i32 %_4.i.i7.i.i, %_5.i.i8.i.i
  %count.i.i = zext i1 %_0.i.i.i to i64
  %a.i.i = getelementptr inbounds nuw i32, ptr %v.sroa.0.0.ph.lcssa129, i64 %count.i.i
  %_19.i.i = xor i1 %_0.i.i.i, true
  %count2.i.i = zext i1 %_19.i.i to i64
  %b.i.i = getelementptr inbounds nuw i32, ptr %v.sroa.0.0.ph.lcssa129, i64 %count2.i.i
  %count3.i.i = select i1 %_0.i9.i.i, i64 3, i64 2
  %c.i.i = getelementptr inbounds nuw i32, ptr %v.sroa.0.0.ph.lcssa129, i64 %count3.i.i
  %count4.i.i = select i1 %_0.i9.i.i, i64 2, i64 3
  %d.i.i = getelementptr inbounds nuw i32, ptr %v.sroa.0.0.ph.lcssa129, i64 %count4.i.i
  call void @llvm.experimental.noalias.scope.decl(metadata !863)
  call void @llvm.experimental.noalias.scope.decl(metadata !866)
  call void @llvm.experimental.noalias.scope.decl(metadata !868)
  call void @llvm.experimental.noalias.scope.decl(metadata !871)
  %_4.i.i10.i.i = load i32, ptr %c.i.i, align 4, !alias.scope !873, !noalias !874, !noundef !23
  %_5.i.i11.i.i = load i32, ptr %a.i.i, align 4, !alias.scope !875, !noalias !876, !noundef !23
  %_0.i12.i.i = icmp slt i32 %_4.i.i10.i.i, %_5.i.i11.i.i
  call void @llvm.experimental.noalias.scope.decl(metadata !877)
  call void @llvm.experimental.noalias.scope.decl(metadata !880)
  call void @llvm.experimental.noalias.scope.decl(metadata !882)
  call void @llvm.experimental.noalias.scope.decl(metadata !885)
  %_4.i.i13.i.i = load i32, ptr %d.i.i, align 4, !alias.scope !887, !noalias !888, !noundef !23
  %_5.i.i14.i.i = load i32, ptr %b.i.i, align 4, !alias.scope !889, !noalias !890, !noundef !23
  %_0.i15.i.i = icmp slt i32 %_4.i.i13.i.i, %_5.i.i14.i.i
  %5 = call i32 @llvm.smin.i32(i32 %_4.i.i10.i.i, i32 %_5.i.i11.i.i)
  %6 = select i1 %_0.i15.i.i, ptr %c.i.i, ptr %b.i.i, !unpredictable !23
  %7 = select i1 %_0.i12.i.i, ptr %a.i.i, ptr %6, !unpredictable !23
  %8 = select i1 %_0.i12.i.i, ptr %b.i.i, ptr %c.i.i, !unpredictable !23
  %9 = select i1 %_0.i15.i.i, ptr %d.i.i, ptr %8, !unpredictable !23
  call void @llvm.experimental.noalias.scope.decl(metadata !891)
  call void @llvm.experimental.noalias.scope.decl(metadata !894)
  call void @llvm.experimental.noalias.scope.decl(metadata !896)
  call void @llvm.experimental.noalias.scope.decl(metadata !899)
  %_4.i.i16.i.i = load i32, ptr %9, align 4, !alias.scope !901, !noalias !902, !noundef !23
  %_5.i.i17.i.i = load i32, ptr %7, align 4, !alias.scope !903, !noalias !904, !noundef !23
  store i32 %5, ptr %scratch.0, align 4, !alias.scope !832, !noalias !905
  %dst5.i.i = getelementptr inbounds nuw i8, ptr %scratch.0, i64 4
  %10 = call i32 @llvm.smin.i32(i32 %_4.i.i16.i.i, i32 %_5.i.i17.i.i)
  store i32 %10, ptr %dst5.i.i, align 4, !alias.scope !832, !noalias !905
  %dst6.i.i = getelementptr inbounds nuw i8, ptr %scratch.0, i64 8
  %11 = call i32 @llvm.smax.i32(i32 %_4.i.i16.i.i, i32 %_5.i.i17.i.i)
  store i32 %11, ptr %dst6.i.i, align 4, !alias.scope !832, !noalias !905
  %12 = getelementptr inbounds nuw i8, ptr %scratch.0, i64 12
  %13 = call i32 @llvm.smax.i32(i32 %_4.i.i13.i.i, i32 %_5.i.i14.i.i)
  store i32 %13, ptr %12, align 4, !alias.scope !832, !noalias !905
  %_27.i = getelementptr inbounds nuw i32, ptr %v.sroa.0.0.ph.lcssa129, i64 %len_div_211.i
  %_28.i = getelementptr inbounds nuw i32, ptr %scratch.0, i64 %len_div_211.i
  %_7.i13.i = getelementptr inbounds nuw i8, ptr %_27.i, i64 4
  call void @llvm.experimental.noalias.scope.decl(metadata !906)
  call void @llvm.experimental.noalias.scope.decl(metadata !909)
  call void @llvm.experimental.noalias.scope.decl(metadata !911)
  call void @llvm.experimental.noalias.scope.decl(metadata !914)
  %_4.i.i.i14.i = load i32, ptr %_7.i13.i, align 4, !alias.scope !916, !noalias !917, !noundef !23
  %_5.i.i.i15.i = load i32, ptr %_27.i, align 4, !alias.scope !918, !noalias !919, !noundef !23
  %_0.i.i16.i = icmp slt i32 %_4.i.i.i14.i, %_5.i.i.i15.i
  %_12.i17.i = getelementptr inbounds nuw i8, ptr %_27.i, i64 12
  %_14.i18.i = getelementptr inbounds nuw i8, ptr %_27.i, i64 8
  call void @llvm.experimental.noalias.scope.decl(metadata !920)
  call void @llvm.experimental.noalias.scope.decl(metadata !923)
  call void @llvm.experimental.noalias.scope.decl(metadata !925)
  call void @llvm.experimental.noalias.scope.decl(metadata !928)
  %_4.i.i7.i19.i = load i32, ptr %_12.i17.i, align 4, !alias.scope !930, !noalias !931, !noundef !23
  %_5.i.i8.i20.i = load i32, ptr %_14.i18.i, align 4, !alias.scope !932, !noalias !933, !noundef !23
  %_0.i9.i21.i = icmp slt i32 %_4.i.i7.i19.i, %_5.i.i8.i20.i
  %count.i22.i = zext i1 %_0.i.i16.i to i64
  %a.i23.i = getelementptr inbounds nuw i32, ptr %_27.i, i64 %count.i22.i
  %_19.i24.i = xor i1 %_0.i.i16.i, true
  %count2.i25.i = zext i1 %_19.i24.i to i64
  %b.i26.i = getelementptr inbounds nuw i32, ptr %_27.i, i64 %count2.i25.i
  %count3.i27.i = select i1 %_0.i9.i21.i, i64 3, i64 2
  %c.i28.i = getelementptr inbounds nuw i32, ptr %_27.i, i64 %count3.i27.i
  %count4.i29.i = select i1 %_0.i9.i21.i, i64 2, i64 3
  %d.i30.i = getelementptr inbounds nuw i32, ptr %_27.i, i64 %count4.i29.i
  call void @llvm.experimental.noalias.scope.decl(metadata !934)
  call void @llvm.experimental.noalias.scope.decl(metadata !937)
  call void @llvm.experimental.noalias.scope.decl(metadata !939)
  call void @llvm.experimental.noalias.scope.decl(metadata !942)
  %_4.i.i10.i31.i = load i32, ptr %c.i28.i, align 4, !alias.scope !944, !noalias !945, !noundef !23
  %_5.i.i11.i32.i = load i32, ptr %a.i23.i, align 4, !alias.scope !946, !noalias !947, !noundef !23
  %_0.i12.i33.i = icmp slt i32 %_4.i.i10.i31.i, %_5.i.i11.i32.i
  call void @llvm.experimental.noalias.scope.decl(metadata !948)
  call void @llvm.experimental.noalias.scope.decl(metadata !951)
  call void @llvm.experimental.noalias.scope.decl(metadata !953)
  call void @llvm.experimental.noalias.scope.decl(metadata !956)
  %_4.i.i13.i34.i = load i32, ptr %d.i30.i, align 4, !alias.scope !958, !noalias !959, !noundef !23
  %_5.i.i14.i35.i = load i32, ptr %b.i26.i, align 4, !alias.scope !960, !noalias !961, !noundef !23
  %_0.i15.i36.i = icmp slt i32 %_4.i.i13.i34.i, %_5.i.i14.i35.i
  %14 = call i32 @llvm.smin.i32(i32 %_4.i.i10.i31.i, i32 %_5.i.i11.i32.i)
  %15 = select i1 %_0.i15.i36.i, ptr %c.i28.i, ptr %b.i26.i, !unpredictable !23
  %16 = select i1 %_0.i12.i33.i, ptr %a.i23.i, ptr %15, !unpredictable !23
  %17 = select i1 %_0.i12.i33.i, ptr %b.i26.i, ptr %c.i28.i, !unpredictable !23
  %18 = select i1 %_0.i15.i36.i, ptr %d.i30.i, ptr %17, !unpredictable !23
  call void @llvm.experimental.noalias.scope.decl(metadata !962)
  call void @llvm.experimental.noalias.scope.decl(metadata !965)
  call void @llvm.experimental.noalias.scope.decl(metadata !967)
  call void @llvm.experimental.noalias.scope.decl(metadata !970)
  %_4.i.i16.i37.i = load i32, ptr %18, align 4, !alias.scope !972, !noalias !973, !noundef !23
  %_5.i.i17.i38.i = load i32, ptr %16, align 4, !alias.scope !974, !noalias !975, !noundef !23
  store i32 %14, ptr %_28.i, align 4, !alias.scope !832, !noalias !905
  %dst5.i40.i = getelementptr inbounds nuw i8, ptr %_28.i, i64 4
  %19 = call i32 @llvm.smin.i32(i32 %_4.i.i16.i37.i, i32 %_5.i.i17.i38.i)
  store i32 %19, ptr %dst5.i40.i, align 4, !alias.scope !832, !noalias !905
  %dst6.i43.i = getelementptr inbounds nuw i8, ptr %_28.i, i64 8
  %20 = call i32 @llvm.smax.i32(i32 %_4.i.i16.i37.i, i32 %_5.i.i17.i38.i)
  store i32 %20, ptr %dst6.i43.i, align 4, !alias.scope !832, !noalias !905
  %21 = getelementptr inbounds nuw i8, ptr %_28.i, i64 12
  %22 = call i32 @llvm.smax.i32(i32 %_4.i.i13.i34.i, i32 %_5.i.i14.i35.i)
  store i32 %22, ptr %21, align 4, !alias.scope !832, !noalias !905
  br label %bb15.i

bb46.i:                                           ; preds = %bb9.i
  %23 = load i32, ptr %v.sroa.0.0.ph.lcssa129, align 4, !alias.scope !829, !noalias !976
  store i32 %23, ptr %scratch.0, align 4, !alias.scope !832, !noalias !905
  %_31.i = getelementptr inbounds nuw i32, ptr %v.sroa.0.0.ph.lcssa129, i64 %len_div_211.i
  %24 = getelementptr inbounds nuw i32, ptr %scratch.0, i64 %len_div_211.i
  %25 = load i32, ptr %_31.i, align 4, !alias.scope !829, !noalias !976
  store i32 %25, ptr %24, align 4, !alias.scope !832, !noalias !905
  br label %bb15.i

bb15.i:                                           ; preds = %bb46.i, %bb10.i, %bb6.i
  %presorted_len.sroa.0.0.i = phi i64 [ 8, %bb6.i ], [ 4, %bb10.i ], [ 1, %bb46.i ]
  %26 = sub nsw i64 %v.sroa.16.0.lcssa, %len_div_211.i
  %_8061.i = icmp samesign ult i64 %presorted_len.sroa.0.0.i, %len_div_211.i
  br i1 %_8061.i, label %bb24.preheader.i, label %bb16.loopexit.i

bb16.loopexit.i:                                  ; preds = %_ZN4core5slice4sort6shared9smallsort11insert_tail17h9a9d1a8f92f0b1ccE.exit.i, %bb15.i
  %src5.1.i = getelementptr inbounds nuw i32, ptr %v.sroa.0.0.ph.lcssa129, i64 %len_div_211.i
  %dst6.1.i = getelementptr i32, ptr %scratch.0, i64 %len_div_211.i
  %_8061.1.i = icmp ult i64 %presorted_len.sroa.0.0.i, %26
  br i1 %_8061.1.i, label %bb24.preheader.1.i, label %bb16.loopexit.1.i

bb24.preheader.1.i:                               ; preds = %bb16.loopexit.i
  %iter1.sroa.0.163.1.i = add nuw nsw i64 %presorted_len.sroa.0.0.i, 1
  br label %bb24.1.i

bb24.1.i:                                         ; preds = %_ZN4core5slice4sort6shared9smallsort11insert_tail17h9a9d1a8f92f0b1ccE.exit.1.i, %bb24.preheader.1.i
  %iter1.sroa.0.165.1.i = phi i64 [ %iter1.sroa.0.1.1.i, %_ZN4core5slice4sort6shared9smallsort11insert_tail17h9a9d1a8f92f0b1ccE.exit.1.i ], [ %iter1.sroa.0.163.1.i, %bb24.preheader.1.i ]
  %iter1.sroa.0.064.1.i = phi i64 [ %iter1.sroa.0.165.1.i, %_ZN4core5slice4sort6shared9smallsort11insert_tail17h9a9d1a8f92f0b1ccE.exit.1.i ], [ %presorted_len.sroa.0.0.i, %bb24.preheader.1.i ]
  %_55.1.i = getelementptr inbounds nuw i32, ptr %src5.1.i, i64 %iter1.sroa.0.064.1.i
  %dst7.1.i = getelementptr inbounds nuw i32, ptr %dst6.1.i, i64 %iter1.sroa.0.064.1.i
  %27 = load i32, ptr %_55.1.i, align 4, !alias.scope !829, !noalias !976
  store i32 %27, ptr %dst7.1.i, align 4, !alias.scope !832, !noalias !905
  %28 = getelementptr inbounds i8, ptr %dst7.1.i, i64 -4
  %_5.i.i.i55.1.i = load i32, ptr %28, align 4, !alias.scope !977, !noalias !982, !noundef !23
  %_0.i.i56.1.i = icmp slt i32 %27, %_5.i.i.i55.1.i
  br i1 %_0.i.i56.1.i, label %bb4.i.1.i, label %_ZN4core5slice4sort6shared9smallsort11insert_tail17h9a9d1a8f92f0b1ccE.exit.1.i

bb4.i.1.i:                                        ; preds = %bb24.1.i, %bb7.i.1.i
  %29 = phi i32 [ %_5.i.i2.i.1.i, %bb7.i.1.i ], [ %_5.i.i.i55.1.i, %bb24.1.i ]
  %gap_guard.sroa.5.0.i.1.i = phi ptr [ %sift.sroa.0.0.i.1.i, %bb7.i.1.i ], [ %dst7.1.i, %bb24.1.i ]
  %sift.sroa.0.0.i.1.i = phi ptr [ %30, %bb7.i.1.i ], [ %28, %bb24.1.i ]
  store i32 %29, ptr %gap_guard.sroa.5.0.i.1.i, align 4, !alias.scope !832, !noalias !905
  %_18.i.1.i = icmp eq ptr %sift.sroa.0.0.i.1.i, %dst6.1.i
  br i1 %_18.i.1.i, label %bb10.i.1.i, label %bb7.i.1.i

bb7.i.1.i:                                        ; preds = %bb4.i.1.i
  %30 = getelementptr inbounds i8, ptr %sift.sroa.0.0.i.1.i, i64 -4
  %_5.i.i2.i.1.i = load i32, ptr %30, align 4, !alias.scope !985, !noalias !990, !noundef !23
  %_0.i3.i.1.i = icmp slt i32 %27, %_5.i.i2.i.1.i
  br i1 %_0.i3.i.1.i, label %bb4.i.1.i, label %bb10.i.1.i

bb10.i.1.i:                                       ; preds = %bb7.i.1.i, %bb4.i.1.i
  %sift.sroa.0.0.i.lcssa.1.i = phi ptr [ %sift.sroa.0.0.i.1.i, %bb7.i.1.i ], [ %dst6.1.i, %bb4.i.1.i ]
  store i32 %27, ptr %sift.sroa.0.0.i.lcssa.1.i, align 4, !alias.scope !832, !noalias !993
  br label %_ZN4core5slice4sort6shared9smallsort11insert_tail17h9a9d1a8f92f0b1ccE.exit.1.i

_ZN4core5slice4sort6shared9smallsort11insert_tail17h9a9d1a8f92f0b1ccE.exit.1.i: ; preds = %bb10.i.1.i, %bb24.1.i
  %_80.1.i = icmp ult i64 %iter1.sroa.0.165.1.i, %26
  %_84.1.i = zext i1 %_80.1.i to i64
  %iter1.sroa.0.1.1.i = add nuw i64 %iter1.sroa.0.165.1.i, %_84.1.i
  br i1 %_80.1.i, label %bb24.1.i, label %bb16.loopexit.1.i

bb16.loopexit.1.i:                                ; preds = %_ZN4core5slice4sort6shared9smallsort11insert_tail17h9a9d1a8f92f0b1ccE.exit.1.i, %bb16.loopexit.i
  call void @llvm.experimental.noalias.scope.decl(metadata !998)
  %count1.i.i = add nsw i64 %v.sroa.16.0.lcssa, -1
  %31 = getelementptr inbounds nuw i32, ptr %v.sroa.0.0.ph.lcssa129, i64 %count1.i.i
  %32 = getelementptr inbounds nuw i32, ptr %scratch.0, i64 %count1.i.i
  %33 = getelementptr i8, ptr %dst6.1.i, i64 -4
  br label %bb15.i.i

bb24.preheader.i:                                 ; preds = %bb15.i
  %iter1.sroa.0.163.i = add nuw nsw i64 %presorted_len.sroa.0.0.i, 1
  br label %bb24.i

bb16.i.i:                                         ; preds = %bb15.i.i
  %34 = getelementptr i8, ptr %39, i64 4
  %35 = getelementptr i8, ptr %38, i64 4
  %_44.i.i = and i64 %v.sroa.16.0.lcssa, 1
  %_22.i.i = icmp eq i64 %_44.i.i, 0
  br i1 %_22.i.i, label %bb9.i.i, label %bb5.i.i

bb15.i.i:                                         ; preds = %bb15.i.i, %bb16.loopexit.1.i
  %dst.sroa.0.029.i.i = phi ptr [ %_16.i.i.i, %bb15.i.i ], [ %v.sroa.0.0.ph.lcssa129, %bb16.loopexit.1.i ]
  %iter.sroa.0.028.i.i = phi i64 [ %_39.i.i, %bb15.i.i ], [ 0, %bb16.loopexit.1.i ]
  %left.sroa.0.027.i.i = phi ptr [ %_14.i.i.i, %bb15.i.i ], [ %scratch.0, %bb16.loopexit.1.i ]
  %right.sroa.0.026.i.i = phi ptr [ %_12.i.i.i, %bb15.i.i ], [ %dst6.1.i, %bb16.loopexit.1.i ]
  %left_rev.sroa.0.025.i.i = phi ptr [ %39, %bb15.i.i ], [ %33, %bb16.loopexit.1.i ]
  %right_rev.sroa.0.024.i.i = phi ptr [ %38, %bb15.i.i ], [ %32, %bb16.loopexit.1.i ]
  %dst_rev.sroa.0.023.i.i = phi ptr [ %40, %bb15.i.i ], [ %31, %bb16.loopexit.1.i ]
  %_39.i.i = add nuw nsw i64 %iter.sroa.0.028.i.i, 1
  call void @llvm.experimental.noalias.scope.decl(metadata !1001)
  call void @llvm.experimental.noalias.scope.decl(metadata !1004)
  call void @llvm.experimental.noalias.scope.decl(metadata !1006), !noalias !1009
  call void @llvm.experimental.noalias.scope.decl(metadata !1012), !noalias !1009
  %_4.i.i.i48.i = load i32, ptr %right.sroa.0.026.i.i, align 4, !alias.scope !1014, !noalias !1015, !noundef !23
  %_5.i.i.i49.i = load i32, ptr %left.sroa.0.027.i.i, align 4, !alias.scope !1016, !noalias !1017, !noundef !23
  %_0.i.i50.i = icmp slt i32 %_4.i.i.i48.i, %_5.i.i.i49.i
  %is_l.i18.i.i = xor i1 %_0.i.i50.i, true
  %36 = call i32 @llvm.smin.i32(i32 %_4.i.i.i48.i, i32 %_5.i.i.i49.i)
  store i32 %36, ptr %dst.sroa.0.029.i.i, align 4, !alias.scope !829, !noalias !1018
  %count.i.i.i = zext i1 %_0.i.i50.i to i64
  %_12.i.i.i = getelementptr inbounds nuw i32, ptr %right.sroa.0.026.i.i, i64 %count.i.i.i
  %count2.i.i.i = zext i1 %is_l.i18.i.i to i64
  %_14.i.i.i = getelementptr inbounds nuw i32, ptr %left.sroa.0.027.i.i, i64 %count2.i.i.i
  %_16.i.i.i = getelementptr inbounds nuw i8, ptr %dst.sroa.0.029.i.i, i64 4
  call void @llvm.experimental.noalias.scope.decl(metadata !1020)
  call void @llvm.experimental.noalias.scope.decl(metadata !1023)
  call void @llvm.experimental.noalias.scope.decl(metadata !1025), !noalias !1028
  call void @llvm.experimental.noalias.scope.decl(metadata !1031), !noalias !1028
  %_4.i.i19.i.i = load i32, ptr %right_rev.sroa.0.024.i.i, align 4, !alias.scope !1033, !noalias !1034, !noundef !23
  %_5.i.i20.i.i = load i32, ptr %left_rev.sroa.0.025.i.i, align 4, !alias.scope !1035, !noalias !1036, !noundef !23
  %_0.i21.i.i = icmp slt i32 %_4.i.i19.i.i, %_5.i.i20.i.i
  %is_l.i.i.i = xor i1 %_0.i21.i.i, true
  %37 = call i32 @llvm.smax.i32(i32 %_4.i.i19.i.i, i32 %_5.i.i20.i.i)
  store i32 %37, ptr %dst_rev.sroa.0.023.i.i, align 4, !alias.scope !829, !noalias !1037
  %count.neg.i.i.i = sext i1 %is_l.i.i.i to i64
  %38 = getelementptr i32, ptr %right_rev.sroa.0.024.i.i, i64 %count.neg.i.i.i
  %count3.neg.i.i.i = sext i1 %_0.i21.i.i to i64
  %39 = getelementptr i32, ptr %left_rev.sroa.0.025.i.i, i64 %count3.neg.i.i.i
  %40 = getelementptr inbounds i8, ptr %dst_rev.sroa.0.023.i.i, i64 -4
  %exitcond.not.i.i = icmp eq i64 %_39.i.i, %len_div_211.i
  br i1 %exitcond.not.i.i, label %bb16.i.i, label %bb15.i.i

bb5.i.i:                                          ; preds = %bb16.i.i
  %left_nonempty.i.i = icmp ult ptr %_14.i.i.i, %34
  %left.sroa.0.0.right.sroa.0.0.i.i = select i1 %left_nonempty.i.i, ptr %_14.i.i.i, ptr %_12.i.i.i
  %41 = load i32, ptr %left.sroa.0.0.right.sroa.0.0.i.i, align 4, !alias.scope !1039, !noalias !905
  store i32 %41, ptr %_16.i.i.i, align 4, !alias.scope !829, !noalias !1040
  %count2.i51.i = zext i1 %left_nonempty.i.i to i64
  %_26.i.i = getelementptr inbounds nuw i32, ptr %_14.i.i.i, i64 %count2.i51.i
  %_30.i.i = xor i1 %left_nonempty.i.i, true
  %count3.i52.i = zext i1 %_30.i.i to i64
  %_28.i.i = getelementptr inbounds nuw i32, ptr %_12.i.i.i, i64 %count3.i52.i
  br label %bb9.i.i

bb9.i.i:                                          ; preds = %bb5.i.i, %bb16.i.i
  %right.sroa.0.1.i.i = phi ptr [ %_12.i.i.i, %bb16.i.i ], [ %_28.i.i, %bb5.i.i ]
  %left.sroa.0.1.i.i = phi ptr [ %_14.i.i.i, %bb16.i.i ], [ %_26.i.i, %bb5.i.i ]
  %_31.i.i = icmp ne ptr %left.sroa.0.1.i.i, %34
  %_32.i.i = icmp ne ptr %right.sroa.0.1.i.i, %35
  %or.cond.i.i = select i1 %_31.i.i, i1 true, i1 %_32.i.i
  br i1 %or.cond.i.i, label %bb13.i.i, label %bb22, !prof !363

bb13.i.i:                                         ; preds = %bb9.i.i
; invoke core::slice::sort::shared::smallsort::panic_on_ord_violation
  invoke void @_ZN4core5slice4sort6shared9smallsort22panic_on_ord_violation17hc77a22a2d50782cdE() #18
          to label %.noexc.i unwind label %cleanup2.i, !noalias !1041

.noexc.i:                                         ; preds = %bb13.i.i
  unreachable

cleanup2.i:                                       ; preds = %bb13.i.i
  %42 = landingpad { ptr, i32 }
          cleanup
  %43 = shl nuw nsw i64 %v.sroa.16.0.lcssa, 2
  call void @llvm.memcpy.p0.p0.i64(ptr nonnull align 4 %v.sroa.0.0.ph.lcssa129, ptr nonnull align 4 %scratch.0, i64 %43, i1 false), !alias.scope !1042, !noalias !1043
  resume { ptr, i32 } %42

bb24.i:                                           ; preds = %_ZN4core5slice4sort6shared9smallsort11insert_tail17h9a9d1a8f92f0b1ccE.exit.i, %bb24.preheader.i
  %iter1.sroa.0.165.i = phi i64 [ %iter1.sroa.0.1.i, %_ZN4core5slice4sort6shared9smallsort11insert_tail17h9a9d1a8f92f0b1ccE.exit.i ], [ %iter1.sroa.0.163.i, %bb24.preheader.i ]
  %iter1.sroa.0.064.i = phi i64 [ %iter1.sroa.0.165.i, %_ZN4core5slice4sort6shared9smallsort11insert_tail17h9a9d1a8f92f0b1ccE.exit.i ], [ %presorted_len.sroa.0.0.i, %bb24.preheader.i ]
  %_55.i = getelementptr inbounds nuw i32, ptr %v.sroa.0.0.ph.lcssa129, i64 %iter1.sroa.0.064.i
  %dst7.i = getelementptr inbounds nuw i32, ptr %scratch.0, i64 %iter1.sroa.0.064.i
  %44 = load i32, ptr %_55.i, align 4, !alias.scope !829, !noalias !976
  store i32 %44, ptr %dst7.i, align 4, !alias.scope !832, !noalias !905
  %45 = getelementptr inbounds i8, ptr %dst7.i, i64 -4
  %_5.i.i.i55.i = load i32, ptr %45, align 4, !alias.scope !977, !noalias !982, !noundef !23
  %_0.i.i56.i = icmp slt i32 %44, %_5.i.i.i55.i
  br i1 %_0.i.i56.i, label %bb4.i.i, label %_ZN4core5slice4sort6shared9smallsort11insert_tail17h9a9d1a8f92f0b1ccE.exit.i

bb4.i.i:                                          ; preds = %bb24.i, %bb7.i.i
  %46 = phi i32 [ %_5.i.i2.i.i, %bb7.i.i ], [ %_5.i.i.i55.i, %bb24.i ]
  %gap_guard.sroa.5.0.i.i = phi ptr [ %sift.sroa.0.0.i.i, %bb7.i.i ], [ %dst7.i, %bb24.i ]
  %sift.sroa.0.0.i.i = phi ptr [ %47, %bb7.i.i ], [ %45, %bb24.i ]
  store i32 %46, ptr %gap_guard.sroa.5.0.i.i, align 4, !alias.scope !832, !noalias !905
  %_18.i.i = icmp eq ptr %sift.sroa.0.0.i.i, %scratch.0
  br i1 %_18.i.i, label %bb10.i.i, label %bb7.i.i

bb7.i.i:                                          ; preds = %bb4.i.i
  %47 = getelementptr inbounds i8, ptr %sift.sroa.0.0.i.i, i64 -4
  %_5.i.i2.i.i = load i32, ptr %47, align 4, !alias.scope !985, !noalias !990, !noundef !23
  %_0.i3.i.i = icmp slt i32 %44, %_5.i.i2.i.i
  br i1 %_0.i3.i.i, label %bb4.i.i, label %bb10.i.i

bb10.i.i:                                         ; preds = %bb7.i.i, %bb4.i.i
  %sift.sroa.0.0.i.lcssa.i = phi ptr [ %sift.sroa.0.0.i.i, %bb7.i.i ], [ %scratch.0, %bb4.i.i ]
  store i32 %44, ptr %sift.sroa.0.0.i.lcssa.i, align 4, !alias.scope !832, !noalias !993
  br label %_ZN4core5slice4sort6shared9smallsort11insert_tail17h9a9d1a8f92f0b1ccE.exit.i

_ZN4core5slice4sort6shared9smallsort11insert_tail17h9a9d1a8f92f0b1ccE.exit.i: ; preds = %bb10.i.i, %bb24.i
  %_80.i = icmp ult i64 %iter1.sroa.0.165.i, %len_div_211.i
  %_84.i = zext i1 %_80.i to i64
  %iter1.sroa.0.1.i = add nuw i64 %iter1.sroa.0.165.i, %_84.i
  br i1 %_80.i, label %bb24.i, label %bb16.loopexit.i

bb7:                                              ; preds = %bb5
  %48 = add i32 %limit.sroa.0.0131, -1
  %len_div_84.i = lshr i64 %v.sroa.16.0132, 3
  %b.idx.i = shl nuw nsw i64 %len_div_84.i, 4
  %b.i = getelementptr inbounds nuw i8, ptr %v.sroa.0.0.ph140, i64 %b.idx.i
  %c.idx.i = mul nuw nsw i64 %len_div_84.i, 28
  %c.i = getelementptr inbounds nuw i8, ptr %v.sroa.0.0.ph140, i64 %c.idx.i
  %_12.i = icmp samesign ult i64 %v.sroa.16.0132, 64
  br i1 %_12.i, label %bb3.i23, label %bb5.i

bb5.i:                                            ; preds = %bb7
; call core::slice::sort::shared::pivot::median3_rec
  %self.i = call fastcc noundef ptr @_ZN4core5slice4sort6shared5pivot11median3_rec17haea3e81d8d8e5ec6E(ptr noundef nonnull readonly align 4 %v.sroa.0.0.ph140, ptr noundef readonly %b.i, ptr noundef readonly %c.i, i64 noundef %len_div_84.i)
  br label %bb10

bb3.i23:                                          ; preds = %bb7
  call void @llvm.experimental.noalias.scope.decl(metadata !1048)
  call void @llvm.experimental.noalias.scope.decl(metadata !1051)
  call void @llvm.experimental.noalias.scope.decl(metadata !1053), !noalias !1056
  call void @llvm.experimental.noalias.scope.decl(metadata !1059), !noalias !1056
  %_4.i.i.i = load i32, ptr %v.sroa.0.0.ph140, align 4, !alias.scope !1061, !noalias !1064, !noundef !23
  %_5.i.i.i = load i32, ptr %b.i, align 4, !alias.scope !1066, !noalias !1067, !noundef !23
  %_0.i.i = icmp slt i32 %_4.i.i.i, %_5.i.i.i
  %_5.i.i6.i = load i32, ptr %c.i, align 4, !alias.scope !1068, !noalias !1073, !noundef !23
  %_0.i7.i = icmp slt i32 %_4.i.i.i, %_5.i.i6.i
  %49 = xor i1 %_0.i.i, %_0.i7.i
  %_0.i10.i = icmp slt i32 %_5.i.i.i, %_5.i.i6.i
  %_12.i.i24 = xor i1 %_0.i.i, %_0.i10.i
  %c.b.i.i = select i1 %_12.i.i24, ptr %c.i, ptr %b.i
  %_0.sroa.0.0.i.i = select i1 %49, ptr %v.sroa.0.0.ph140, ptr %c.b.i.i
  br label %bb10

bb6:                                              ; preds = %bb5
; call core::slice::sort::stable::drift::sort
  call fastcc void @_ZN4core5slice4sort6stable5drift4sort17h8d9f5ec590a29886E(ptr noalias noundef nonnull align 4 %v.sroa.0.0.ph140, i64 noundef %v.sroa.16.0132, ptr noalias noundef nonnull align 4 %scratch.0, i64 noundef %scratch.1, i1 noundef zeroext true, ptr noalias noundef align 8 dereferenceable(8) %is_less)
  br label %bb22

bb10:                                             ; preds = %bb3.i23, %bb5.i
  %_0.sroa.0.0.i.sink.i = phi ptr [ %_0.sroa.0.0.i.i, %bb3.i23 ], [ %self.i, %bb5.i ]
  %50 = ptrtoint ptr %_0.sroa.0.0.i.sink.i to i64
  %51 = sub nuw i64 %50, %4
  %index.sroa.0.0.i = lshr exact i64 %51, 2
  %cond.i = icmp samesign ult i64 %index.sroa.0.0.i, %v.sroa.16.0132
  call void @llvm.assume(i1 %cond.i)
  call void @llvm.lifetime.start.p0(i64 4, ptr nonnull %pivot_copy)
  %src = getelementptr inbounds nuw i8, ptr %v.sroa.0.0.ph140, i64 %51
  %value = load i32, ptr %src, align 4, !noundef !23
  store i32 %value, ptr %pivot_copy, align 4
  br i1 %.not, label %bb14, label %bb12

bb12:                                             ; preds = %bb10
  %_4.i.i = load i32, ptr %left_ancestor_pivot.sroa.0.0.ph137, align 4, !alias.scope !1076, !noalias !1081, !noundef !23
  %_0.i = icmp slt i32 %_4.i.i, %value
  br i1 %_0.i, label %bb14, label %bb17

bb14:                                             ; preds = %bb10, %bb12
  call void @llvm.experimental.noalias.scope.decl(metadata !1084)
  call void @llvm.experimental.noalias.scope.decl(metadata !1087)
  %_8.i25.not = icmp samesign ult i64 %scratch.1, %v.sroa.16.0132
  br i1 %_8.i25.not, label %bb31.i, label %bb33.i, !prof !363

bb33.i:                                           ; preds = %bb14
  %_86.i = getelementptr i32, ptr %scratch.0, i64 %v.sroa.16.0132
  br label %bb3.i26

bb31.i:                                           ; preds = %bb14
  call void @llvm.trap()
  unreachable

bb3.i26:                                          ; preds = %bb23.i, %bb33.i
  %state.sroa.27.0.i = phi i64 [ 0, %bb33.i ], [ %state.sroa.27.2.lcssa.i, %bb23.i ]
  %state.sroa.9.0.i = phi ptr [ %v.sroa.0.0.ph140, %bb33.i ], [ %_9.i70.i, %bb23.i ]
  %state.sroa.43.0.i = phi ptr [ %_86.i, %bb33.i ], [ %63, %bb23.i ]
  %pivot_pos.sroa.0.0.i = phi i64 [ %index.sroa.0.0.i, %bb33.i ], [ %v.sroa.16.0132, %bb23.i ]
  %52 = call i64 @llvm.usub.sat.i64(i64 %pivot_pos.sroa.0.0.i, i64 3)
  %unroll_end.i = getelementptr inbounds nuw i32, ptr %v.sroa.0.0.ph140, i64 %52
  %_1984.i = icmp ult ptr %state.sroa.9.0.i, %unroll_end.i
  br i1 %_1984.i, label %bb6.i28.preheader, label %bb16.i

bb6.i28.preheader:                                ; preds = %bb3.i26
  %_5.i.i.i30 = load i32, ptr %src, align 4, !alias.scope !1089, !noalias !1094, !noundef !23
  br label %bb6.i28

bb6.i28:                                          ; preds = %bb6.i28.preheader, %bb6.i28
  %state.sroa.43.187.i = phi ptr [ %59, %bb6.i28 ], [ %state.sroa.43.0.i, %bb6.i28.preheader ]
  %state.sroa.9.186.i = phi ptr [ %_9.i54.i, %bb6.i28 ], [ %state.sroa.9.0.i, %bb6.i28.preheader ]
  %state.sroa.27.185.i = phi i64 [ %60, %bb6.i28 ], [ %state.sroa.27.0.i, %bb6.i28.preheader ]
  call void @llvm.experimental.noalias.scope.decl(metadata !1097)
  call void @llvm.experimental.noalias.scope.decl(metadata !1098)
  call void @llvm.experimental.noalias.scope.decl(metadata !1099)
  call void @llvm.experimental.noalias.scope.decl(metadata !1100)
  %_4.i.i.i29 = load i32, ptr %state.sroa.9.186.i, align 4, !alias.scope !1101, !noalias !1102, !noundef !23
  %_0.i.i31 = icmp slt i32 %_4.i.i.i29, %_5.i.i.i30
  %53 = getelementptr inbounds i8, ptr %state.sroa.43.187.i, i64 -4
  %dst_base.sroa.0.0.i.i = select i1 %_0.i.i31, ptr %scratch.0, ptr %53
  %dst.i.i = getelementptr inbounds nuw i32, ptr %dst_base.sroa.0.0.i.i, i64 %state.sroa.27.185.i
  store i32 %_4.i.i.i29, ptr %dst.i.i, align 4, !alias.scope !1087, !noalias !1103
  %_8.i.i = zext i1 %_0.i.i31 to i64
  %54 = add i64 %state.sroa.27.185.i, %_8.i.i
  %_9.i.i = getelementptr inbounds nuw i8, ptr %state.sroa.9.186.i, i64 4
  %_4.i.i25.i = load i32, ptr %_9.i.i, align 4, !alias.scope !1106, !noalias !1111, !noundef !23
  %_0.i27.i = icmp slt i32 %_4.i.i25.i, %_5.i.i.i30
  %55 = getelementptr inbounds i8, ptr %state.sroa.43.187.i, i64 -8
  %dst_base.sroa.0.0.i29.i = select i1 %_0.i27.i, ptr %scratch.0, ptr %55
  %dst.i31.i = getelementptr inbounds nuw i32, ptr %dst_base.sroa.0.0.i29.i, i64 %54
  store i32 %_4.i.i25.i, ptr %dst.i31.i, align 4, !alias.scope !1087, !noalias !1114
  %_8.i33.i = zext i1 %_0.i27.i to i64
  %56 = add i64 %54, %_8.i33.i
  %_9.i34.i = getelementptr inbounds nuw i8, ptr %state.sroa.9.186.i, i64 8
  %_4.i.i35.i = load i32, ptr %_9.i34.i, align 4, !alias.scope !1117, !noalias !1122, !noundef !23
  %_0.i37.i = icmp slt i32 %_4.i.i35.i, %_5.i.i.i30
  %57 = getelementptr inbounds i8, ptr %state.sroa.43.187.i, i64 -12
  %dst_base.sroa.0.0.i39.i = select i1 %_0.i37.i, ptr %scratch.0, ptr %57
  %dst.i41.i = getelementptr inbounds nuw i32, ptr %dst_base.sroa.0.0.i39.i, i64 %56
  store i32 %_4.i.i35.i, ptr %dst.i41.i, align 4, !alias.scope !1087, !noalias !1125
  %_8.i43.i = zext i1 %_0.i37.i to i64
  %58 = add i64 %56, %_8.i43.i
  %_9.i44.i = getelementptr inbounds nuw i8, ptr %state.sroa.9.186.i, i64 12
  %_4.i.i45.i = load i32, ptr %_9.i44.i, align 4, !alias.scope !1128, !noalias !1133, !noundef !23
  %_0.i47.i = icmp slt i32 %_4.i.i45.i, %_5.i.i.i30
  %59 = getelementptr inbounds i8, ptr %state.sroa.43.187.i, i64 -16
  %dst_base.sroa.0.0.i49.i = select i1 %_0.i47.i, ptr %scratch.0, ptr %59
  %dst.i51.i = getelementptr inbounds nuw i32, ptr %dst_base.sroa.0.0.i49.i, i64 %58
  store i32 %_4.i.i45.i, ptr %dst.i51.i, align 4, !alias.scope !1087, !noalias !1136
  %_8.i53.i = zext i1 %_0.i47.i to i64
  %60 = add i64 %58, %_8.i53.i
  %_9.i54.i = getelementptr inbounds nuw i8, ptr %state.sroa.9.186.i, i64 16
  %_19.i32 = icmp ult ptr %_9.i54.i, %unroll_end.i
  br i1 %_19.i32, label %bb6.i28, label %bb16.i

bb16.i:                                           ; preds = %bb6.i28, %bb3.i26
  %state.sroa.27.1.lcssa.i = phi i64 [ %state.sroa.27.0.i, %bb3.i26 ], [ %60, %bb6.i28 ]
  %state.sroa.9.1.lcssa.i = phi ptr [ %state.sroa.9.0.i, %bb3.i26 ], [ %_9.i54.i, %bb6.i28 ]
  %state.sroa.43.1.lcssa.i = phi ptr [ %state.sroa.43.0.i, %bb3.i26 ], [ %59, %bb6.i28 ]
  %loop_end.i = getelementptr inbounds nuw i32, ptr %v.sroa.0.0.ph140, i64 %pivot_pos.sroa.0.0.i
  %_4790.i = icmp ult ptr %state.sroa.9.1.lcssa.i, %loop_end.i
  br i1 %_4790.i, label %bb18.i.preheader, label %bb21.i

bb18.i.preheader:                                 ; preds = %bb16.i
  %_5.i.i56.i = load i32, ptr %src, align 4, !alias.scope !1139, !noalias !1144, !noundef !23
  br label %bb18.i

bb21.i:                                           ; preds = %bb18.i, %bb16.i
  %state.sroa.27.2.lcssa.i = phi i64 [ %state.sroa.27.1.lcssa.i, %bb16.i ], [ %62, %bb18.i ]
  %state.sroa.9.2.lcssa.i = phi ptr [ %state.sroa.9.1.lcssa.i, %bb16.i ], [ %_9.i64.i, %bb18.i ]
  %state.sroa.43.2.lcssa.i = phi ptr [ %state.sroa.43.1.lcssa.i, %bb16.i ], [ %61, %bb18.i ]
  %_55.i27 = icmp eq i64 %pivot_pos.sroa.0.0.i, %v.sroa.16.0132
  br i1 %_55.i27, label %bb22.i, label %bb23.i

bb18.i:                                           ; preds = %bb18.i.preheader, %bb18.i
  %state.sroa.43.293.i = phi ptr [ %61, %bb18.i ], [ %state.sroa.43.1.lcssa.i, %bb18.i.preheader ]
  %state.sroa.9.292.i = phi ptr [ %_9.i64.i, %bb18.i ], [ %state.sroa.9.1.lcssa.i, %bb18.i.preheader ]
  %state.sroa.27.291.i = phi i64 [ %62, %bb18.i ], [ %state.sroa.27.1.lcssa.i, %bb18.i.preheader ]
  call void @llvm.experimental.noalias.scope.decl(metadata !1147)
  call void @llvm.experimental.noalias.scope.decl(metadata !1148)
  call void @llvm.experimental.noalias.scope.decl(metadata !1149)
  call void @llvm.experimental.noalias.scope.decl(metadata !1150)
  %_4.i.i55.i = load i32, ptr %state.sroa.9.292.i, align 4, !alias.scope !1151, !noalias !1152, !noundef !23
  %_0.i57.i = icmp slt i32 %_4.i.i55.i, %_5.i.i56.i
  %61 = getelementptr inbounds i8, ptr %state.sroa.43.293.i, i64 -4
  %dst_base.sroa.0.0.i59.i = select i1 %_0.i57.i, ptr %scratch.0, ptr %61
  %dst.i61.i = getelementptr inbounds nuw i32, ptr %dst_base.sroa.0.0.i59.i, i64 %state.sroa.27.291.i
  store i32 %_4.i.i55.i, ptr %dst.i61.i, align 4, !alias.scope !1087, !noalias !1153
  %_8.i63.i = zext i1 %_0.i57.i to i64
  %62 = add i64 %state.sroa.27.291.i, %_8.i63.i
  %_9.i64.i = getelementptr inbounds nuw i8, ptr %state.sroa.9.292.i, i64 4
  %_47.i = icmp ult ptr %_9.i64.i, %loop_end.i
  br i1 %_47.i, label %bb18.i, label %bb21.i

bb23.i:                                           ; preds = %bb21.i
  %63 = getelementptr inbounds i8, ptr %state.sroa.43.2.lcssa.i, i64 -4
  %dst.i68.i = getelementptr inbounds nuw i32, ptr %63, i64 %state.sroa.27.2.lcssa.i
  %64 = load i32, ptr %state.sroa.9.2.lcssa.i, align 4, !alias.scope !1084, !noalias !1156
  store i32 %64, ptr %dst.i68.i, align 4, !alias.scope !1087, !noalias !1159
  %_9.i70.i = getelementptr inbounds nuw i8, ptr %state.sroa.9.2.lcssa.i, i64 4
  br label %bb3.i26

bb22.i:                                           ; preds = %bb21.i
  %65 = shl i64 %state.sroa.27.2.lcssa.i, 2
  call void @llvm.memcpy.p0.p0.i64(ptr nonnull align 4 %v.sroa.0.0.ph140, ptr nonnull align 4 %scratch.0, i64 %65, i1 false), !alias.scope !1160
  %_63.i = sub i64 %v.sroa.16.0132, %state.sroa.27.2.lcssa.i
  %_9797.not.i = icmp eq i64 %v.sroa.16.0132, %state.sroa.27.2.lcssa.i
  br i1 %_9797.not.i, label %bb16, label %bb42.lr.ph.i

bb42.lr.ph.i:                                     ; preds = %bb22.i
  %66 = getelementptr i32, ptr %v.sroa.0.0.ph140, i64 %state.sroa.27.2.lcssa.i
  %min.iters.check265 = icmp ult i64 %_63.i, 8
  br i1 %min.iters.check265, label %bb42.i.preheader, label %vector.ph266

vector.ph266:                                     ; preds = %bb42.lr.ph.i
  %n.vec268 = and i64 %_63.i, -8
  br label %vector.body269

vector.body269:                                   ; preds = %vector.body269, %vector.ph266
  %index270 = phi i64 [ 0, %vector.ph266 ], [ %index.next275, %vector.body269 ]
  %67 = getelementptr i32, ptr %66, i64 %index270
  %68 = xor i64 %index270, -1
  %69 = getelementptr i32, ptr %_86.i, i64 %68
  %70 = getelementptr i8, ptr %69, i64 -12
  %71 = getelementptr i8, ptr %69, i64 -28
  %wide.load271 = load <4 x i32>, ptr %70, align 4, !alias.scope !1087, !noalias !1084
  %reverse272 = shufflevector <4 x i32> %wide.load271, <4 x i32> poison, <4 x i32> <i32 3, i32 2, i32 1, i32 0>
  %wide.load273 = load <4 x i32>, ptr %71, align 4, !alias.scope !1087, !noalias !1084
  %reverse274 = shufflevector <4 x i32> %wide.load273, <4 x i32> poison, <4 x i32> <i32 3, i32 2, i32 1, i32 0>
  %72 = getelementptr i8, ptr %67, i64 16
  store <4 x i32> %reverse272, ptr %67, align 4, !alias.scope !1084, !noalias !1087
  store <4 x i32> %reverse274, ptr %72, align 4, !alias.scope !1084, !noalias !1087
  %index.next275 = add nuw i64 %index270, 8
  %73 = icmp eq i64 %index.next275, %n.vec268
  br i1 %73, label %middle.block276, label %vector.body269, !llvm.loop !1161

middle.block276:                                  ; preds = %vector.body269
  %cmp.n277 = icmp eq i64 %_63.i, %n.vec268
  br i1 %cmp.n277, label %bb16, label %bb42.i.preheader

bb42.i.preheader:                                 ; preds = %bb42.lr.ph.i, %middle.block276
  %iter.sroa.0.098.i.ph = phi i64 [ 0, %bb42.lr.ph.i ], [ %n.vec268, %middle.block276 ]
  br label %bb42.i

bb42.i:                                           ; preds = %bb42.i.preheader, %bb42.i
  %iter.sroa.0.098.i = phi i64 [ %74, %bb42.i ], [ %iter.sroa.0.098.i.ph, %bb42.i.preheader ]
  %74 = add nuw i64 %iter.sroa.0.098.i, 1
  %75 = getelementptr i32, ptr %66, i64 %iter.sroa.0.098.i
  %76 = xor i64 %iter.sroa.0.098.i, -1
  %77 = getelementptr i32, ptr %_86.i, i64 %76
  %78 = load i32, ptr %77, align 4, !alias.scope !1087, !noalias !1084
  store i32 %78, ptr %75, align 4, !alias.scope !1084, !noalias !1087
  %exitcond.not.i = icmp eq i64 %74, %_63.i
  br i1 %exitcond.not.i, label %bb16, label %bb42.i, !llvm.loop !1162

bb16:                                             ; preds = %bb42.i, %middle.block276, %bb22.i
  %79 = icmp eq i64 %state.sroa.27.2.lcssa.i, 0
  br i1 %79, label %bb17, label %bb19

bb19:                                             ; preds = %bb16
  %_6.not.i = icmp ugt i64 %state.sroa.27.2.lcssa.i, %v.sroa.16.0132
  br i1 %_6.not.i, label %bb3.i33, label %"_ZN4core5slice29_$LT$impl$u20$$u5b$T$u5d$$GT$12split_at_mut17h9694744ae55560c1E.exit", !prof !1163

bb3.i33:                                          ; preds = %bb19
; call core::panicking::panic_fmt
  call void @_ZN4core9panicking9panic_fmt17ha4414e4328fe24a0E(ptr noundef nonnull @alloc_d1084648e479974e70c9329824bf76f9, ptr noundef nonnull inttoptr (i64 19 to ptr), ptr noalias noundef nonnull readonly align 8 captures(address, read_provenance) dereferenceable(24) @alloc_58d434a1e795f965ef82c8e9c5db822a) #18, !noalias !1164
  unreachable

"_ZN4core5slice29_$LT$impl$u20$$u5b$T$u5d$$GT$12split_at_mut17h9694744ae55560c1E.exit": ; preds = %bb19
  %80 = getelementptr inbounds nuw i32, ptr %v.sroa.0.0.ph140, i64 %state.sroa.27.2.lcssa.i
; call core::slice::sort::stable::quicksort::quicksort
  call void @_ZN4core5slice4sort6stable9quicksort9quicksort17h1062ccab4d285464E(ptr noalias noundef nonnull align 4 %80, i64 noundef %_63.i, ptr noalias noundef nonnull align 4 %scratch.0, i64 noundef %scratch.1, i32 noundef %48, ptr noalias noundef nonnull readonly align 4 captures(address, read_provenance) dereferenceable_or_null(4) %pivot_copy, ptr noalias noundef nonnull align 8 dereferenceable(8) %is_less) #21
  call void @llvm.lifetime.end.p0(i64 4, ptr nonnull %pivot_copy)
  %_8 = icmp ult i64 %state.sroa.27.2.lcssa.i, 33
  br i1 %_8, label %bb3, label %bb5

bb17:                                             ; preds = %bb12, %bb16
  call void @llvm.experimental.noalias.scope.decl(metadata !1168)
  call void @llvm.experimental.noalias.scope.decl(metadata !1171)
  %_8.i34.not = icmp samesign ult i64 %scratch.1, %v.sroa.16.0132
  br i1 %_8.i34.not, label %bb31.i37, label %bb33.i38, !prof !363

bb33.i38:                                         ; preds = %bb17
  %_86.i40 = getelementptr i32, ptr %scratch.0, i64 %v.sroa.16.0132
  br label %bb3.i41

bb31.i37:                                         ; preds = %bb17
  call void @llvm.trap()
  unreachable

bb3.i41:                                          ; preds = %bb23.i59, %bb33.i38
  %state.sroa.27.0.i42 = phi i64 [ 0, %bb33.i38 ], [ %94, %bb23.i59 ]
  %state.sroa.9.0.i43 = phi ptr [ %v.sroa.0.0.ph140, %bb33.i38 ], [ %_9.i70.i61, %bb23.i59 ]
  %state.sroa.43.0.i44 = phi ptr [ %_86.i40, %bb33.i38 ], [ %92, %bb23.i59 ]
  %pivot_pos.sroa.0.0.i45 = phi i64 [ %index.sroa.0.0.i, %bb33.i38 ], [ %v.sroa.16.0132, %bb23.i59 ]
  %81 = call i64 @llvm.usub.sat.i64(i64 %pivot_pos.sroa.0.0.i45, i64 3)
  %unroll_end.i46 = getelementptr inbounds nuw i32, ptr %v.sroa.0.0.ph140, i64 %81
  %_1984.i47 = icmp ult ptr %state.sroa.9.0.i43, %unroll_end.i46
  br i1 %_1984.i47, label %bb6.i78.preheader, label %bb16.i48

bb6.i78.preheader:                                ; preds = %bb3.i41
  %_4.i.i.i.i82 = load i32, ptr %src, align 4, !alias.scope !1173, !noalias !1180, !noundef !23
  br label %bb6.i78

bb6.i78:                                          ; preds = %bb6.i78.preheader, %bb6.i78
  %state.sroa.43.187.i79 = phi ptr [ %88, %bb6.i78 ], [ %state.sroa.43.0.i44, %bb6.i78.preheader ]
  %state.sroa.9.186.i80 = phi ptr [ %_9.i54.i100, %bb6.i78 ], [ %state.sroa.9.0.i43, %bb6.i78.preheader ]
  %state.sroa.27.185.i81 = phi i64 [ %89, %bb6.i78 ], [ %state.sroa.27.0.i42, %bb6.i78.preheader ]
  call void @llvm.experimental.noalias.scope.decl(metadata !1184)
  call void @llvm.experimental.noalias.scope.decl(metadata !1185)
  call void @llvm.experimental.noalias.scope.decl(metadata !1186)
  call void @llvm.experimental.noalias.scope.decl(metadata !1187)
  call void @llvm.experimental.noalias.scope.decl(metadata !1188)
  call void @llvm.experimental.noalias.scope.decl(metadata !1189)
  %_5.i.i.i.i83 = load i32, ptr %state.sroa.9.186.i80, align 4, !alias.scope !1190, !noalias !1191, !noundef !23
  %_0.i.i.i84 = icmp sge i32 %_4.i.i.i.i82, %_5.i.i.i.i83
  %82 = getelementptr inbounds i8, ptr %state.sroa.43.187.i79, i64 -4
  %dst_base.sroa.0.0.i.i85 = select i1 %_0.i.i.i84, ptr %scratch.0, ptr %82
  %dst.i.i86 = getelementptr inbounds nuw i32, ptr %dst_base.sroa.0.0.i.i85, i64 %state.sroa.27.185.i81
  store i32 %_5.i.i.i.i83, ptr %dst.i.i86, align 4, !alias.scope !1171, !noalias !1192
  %_8.i.i87 = zext i1 %_0.i.i.i84 to i64
  %83 = add i64 %state.sroa.27.185.i81, %_8.i.i87
  %_9.i.i88 = getelementptr inbounds nuw i8, ptr %state.sroa.9.186.i80, i64 4
  %_5.i.i.i26.i = load i32, ptr %_9.i.i88, align 4, !alias.scope !1195, !noalias !1202, !noundef !23
  %_0.i.i27.i = icmp sge i32 %_4.i.i.i.i82, %_5.i.i.i26.i
  %84 = getelementptr inbounds i8, ptr %state.sroa.43.187.i79, i64 -8
  %dst_base.sroa.0.0.i29.i89 = select i1 %_0.i.i27.i, ptr %scratch.0, ptr %84
  %dst.i31.i90 = getelementptr inbounds nuw i32, ptr %dst_base.sroa.0.0.i29.i89, i64 %83
  store i32 %_5.i.i.i26.i, ptr %dst.i31.i90, align 4, !alias.scope !1171, !noalias !1206
  %_8.i33.i91 = zext i1 %_0.i.i27.i to i64
  %85 = add i64 %83, %_8.i33.i91
  %_9.i34.i92 = getelementptr inbounds nuw i8, ptr %state.sroa.9.186.i80, i64 8
  %_5.i.i.i36.i = load i32, ptr %_9.i34.i92, align 4, !alias.scope !1209, !noalias !1216, !noundef !23
  %_0.i.i37.i = icmp sge i32 %_4.i.i.i.i82, %_5.i.i.i36.i
  %86 = getelementptr inbounds i8, ptr %state.sroa.43.187.i79, i64 -12
  %dst_base.sroa.0.0.i39.i93 = select i1 %_0.i.i37.i, ptr %scratch.0, ptr %86
  %dst.i41.i94 = getelementptr inbounds nuw i32, ptr %dst_base.sroa.0.0.i39.i93, i64 %85
  store i32 %_5.i.i.i36.i, ptr %dst.i41.i94, align 4, !alias.scope !1171, !noalias !1220
  %_8.i43.i95 = zext i1 %_0.i.i37.i to i64
  %87 = add i64 %85, %_8.i43.i95
  %_9.i44.i96 = getelementptr inbounds nuw i8, ptr %state.sroa.9.186.i80, i64 12
  %_5.i.i.i46.i = load i32, ptr %_9.i44.i96, align 4, !alias.scope !1223, !noalias !1230, !noundef !23
  %_0.i.i47.i = icmp sge i32 %_4.i.i.i.i82, %_5.i.i.i46.i
  %88 = getelementptr inbounds i8, ptr %state.sroa.43.187.i79, i64 -16
  %dst_base.sroa.0.0.i49.i97 = select i1 %_0.i.i47.i, ptr %scratch.0, ptr %88
  %dst.i51.i98 = getelementptr inbounds nuw i32, ptr %dst_base.sroa.0.0.i49.i97, i64 %87
  store i32 %_5.i.i.i46.i, ptr %dst.i51.i98, align 4, !alias.scope !1171, !noalias !1234
  %_8.i53.i99 = zext i1 %_0.i.i47.i to i64
  %89 = add i64 %87, %_8.i53.i99
  %_9.i54.i100 = getelementptr inbounds nuw i8, ptr %state.sroa.9.186.i80, i64 16
  %_19.i101 = icmp ult ptr %_9.i54.i100, %unroll_end.i46
  br i1 %_19.i101, label %bb6.i78, label %bb16.i48

bb16.i48:                                         ; preds = %bb6.i78, %bb3.i41
  %state.sroa.27.1.lcssa.i49 = phi i64 [ %state.sroa.27.0.i42, %bb3.i41 ], [ %89, %bb6.i78 ]
  %state.sroa.9.1.lcssa.i50 = phi ptr [ %state.sroa.9.0.i43, %bb3.i41 ], [ %_9.i54.i100, %bb6.i78 ]
  %state.sroa.43.1.lcssa.i51 = phi ptr [ %state.sroa.43.0.i44, %bb3.i41 ], [ %88, %bb6.i78 ]
  %loop_end.i52 = getelementptr inbounds nuw i32, ptr %v.sroa.0.0.ph140, i64 %pivot_pos.sroa.0.0.i45
  %_4790.i53 = icmp ult ptr %state.sroa.9.1.lcssa.i50, %loop_end.i52
  br i1 %_4790.i53, label %bb18.i69.preheader, label %bb21.i54

bb18.i69.preheader:                               ; preds = %bb16.i48
  %_4.i.i.i55.i = load i32, ptr %src, align 4, !alias.scope !1237, !noalias !1244, !noundef !23
  br label %bb18.i69

bb21.i54:                                         ; preds = %bb18.i69, %bb16.i48
  %state.sroa.27.2.lcssa.i55 = phi i64 [ %state.sroa.27.1.lcssa.i49, %bb16.i48 ], [ %91, %bb18.i69 ]
  %state.sroa.9.2.lcssa.i56 = phi ptr [ %state.sroa.9.1.lcssa.i50, %bb16.i48 ], [ %_9.i64.i76, %bb18.i69 ]
  %state.sroa.43.2.lcssa.i57 = phi ptr [ %state.sroa.43.1.lcssa.i51, %bb16.i48 ], [ %90, %bb18.i69 ]
  %_55.i58 = icmp eq i64 %pivot_pos.sroa.0.0.i45, %v.sroa.16.0132
  br i1 %_55.i58, label %bb22.i62, label %bb23.i59

bb18.i69:                                         ; preds = %bb18.i69.preheader, %bb18.i69
  %state.sroa.43.293.i70 = phi ptr [ %90, %bb18.i69 ], [ %state.sroa.43.1.lcssa.i51, %bb18.i69.preheader ]
  %state.sroa.9.292.i71 = phi ptr [ %_9.i64.i76, %bb18.i69 ], [ %state.sroa.9.1.lcssa.i50, %bb18.i69.preheader ]
  %state.sroa.27.291.i72 = phi i64 [ %91, %bb18.i69 ], [ %state.sroa.27.1.lcssa.i49, %bb18.i69.preheader ]
  call void @llvm.experimental.noalias.scope.decl(metadata !1248)
  call void @llvm.experimental.noalias.scope.decl(metadata !1249)
  call void @llvm.experimental.noalias.scope.decl(metadata !1250)
  call void @llvm.experimental.noalias.scope.decl(metadata !1251)
  call void @llvm.experimental.noalias.scope.decl(metadata !1252)
  call void @llvm.experimental.noalias.scope.decl(metadata !1253)
  %_5.i.i.i56.i = load i32, ptr %state.sroa.9.292.i71, align 4, !alias.scope !1254, !noalias !1255, !noundef !23
  %_0.i.i57.i = icmp sge i32 %_4.i.i.i55.i, %_5.i.i.i56.i
  %90 = getelementptr inbounds i8, ptr %state.sroa.43.293.i70, i64 -4
  %dst_base.sroa.0.0.i59.i73 = select i1 %_0.i.i57.i, ptr %scratch.0, ptr %90
  %dst.i61.i74 = getelementptr inbounds nuw i32, ptr %dst_base.sroa.0.0.i59.i73, i64 %state.sroa.27.291.i72
  store i32 %_5.i.i.i56.i, ptr %dst.i61.i74, align 4, !alias.scope !1171, !noalias !1256
  %_8.i63.i75 = zext i1 %_0.i.i57.i to i64
  %91 = add i64 %state.sroa.27.291.i72, %_8.i63.i75
  %_9.i64.i76 = getelementptr inbounds nuw i8, ptr %state.sroa.9.292.i71, i64 4
  %_47.i77 = icmp ult ptr %_9.i64.i76, %loop_end.i52
  br i1 %_47.i77, label %bb18.i69, label %bb21.i54

bb23.i59:                                         ; preds = %bb21.i54
  %92 = getelementptr inbounds i8, ptr %state.sroa.43.2.lcssa.i57, i64 -4
  %dst.i68.i60 = getelementptr inbounds nuw i32, ptr %scratch.0, i64 %state.sroa.27.2.lcssa.i55
  %93 = load i32, ptr %state.sroa.9.2.lcssa.i56, align 4, !alias.scope !1168, !noalias !1259
  store i32 %93, ptr %dst.i68.i60, align 4, !alias.scope !1171, !noalias !1262
  %94 = add i64 %state.sroa.27.2.lcssa.i55, 1
  %_9.i70.i61 = getelementptr inbounds nuw i8, ptr %state.sroa.9.2.lcssa.i56, i64 4
  br label %bb3.i41

bb22.i62:                                         ; preds = %bb21.i54
  %95 = shl i64 %state.sroa.27.2.lcssa.i55, 2
  call void @llvm.memcpy.p0.p0.i64(ptr nonnull align 4 %v.sroa.0.0.ph140, ptr nonnull align 4 %scratch.0, i64 %95, i1 false), !alias.scope !1263
  %_63.i63 = sub i64 %v.sroa.16.0132, %state.sroa.27.2.lcssa.i55
  %_9797.not.i64 = icmp eq i64 %v.sroa.16.0132, %state.sroa.27.2.lcssa.i55
  br i1 %_9797.not.i64, label %bb3.thread, label %bb42.lr.ph.i65

bb42.lr.ph.i65:                                   ; preds = %bb22.i62
  %96 = getelementptr i32, ptr %v.sroa.0.0.ph140, i64 %state.sroa.27.2.lcssa.i55
  %min.iters.check = icmp ult i64 %_63.i63, 8
  br i1 %min.iters.check, label %bb42.i66.preheader, label %vector.ph

vector.ph:                                        ; preds = %bb42.lr.ph.i65
  %n.vec = and i64 %_63.i63, -8
  br label %vector.body

vector.body:                                      ; preds = %vector.body, %vector.ph
  %index = phi i64 [ 0, %vector.ph ], [ %index.next, %vector.body ]
  %97 = getelementptr i32, ptr %96, i64 %index
  %98 = xor i64 %index, -1
  %99 = getelementptr i32, ptr %_86.i40, i64 %98
  %100 = getelementptr i8, ptr %99, i64 -12
  %101 = getelementptr i8, ptr %99, i64 -28
  %wide.load = load <4 x i32>, ptr %100, align 4, !alias.scope !1171, !noalias !1168
  %reverse = shufflevector <4 x i32> %wide.load, <4 x i32> poison, <4 x i32> <i32 3, i32 2, i32 1, i32 0>
  %wide.load262 = load <4 x i32>, ptr %101, align 4, !alias.scope !1171, !noalias !1168
  %reverse263 = shufflevector <4 x i32> %wide.load262, <4 x i32> poison, <4 x i32> <i32 3, i32 2, i32 1, i32 0>
  %102 = getelementptr i8, ptr %97, i64 16
  store <4 x i32> %reverse, ptr %97, align 4, !alias.scope !1168, !noalias !1171
  store <4 x i32> %reverse263, ptr %102, align 4, !alias.scope !1168, !noalias !1171
  %index.next = add nuw i64 %index, 8
  %103 = icmp eq i64 %index.next, %n.vec
  br i1 %103, label %middle.block, label %vector.body, !llvm.loop !1264

middle.block:                                     ; preds = %vector.body
  %cmp.n = icmp eq i64 %_63.i63, %n.vec
  br i1 %cmp.n, label %_ZN4core5slice4sort6stable9quicksort16stable_partition17hb86ccb0438f16e12E.exit, label %bb42.i66.preheader

bb42.i66.preheader:                               ; preds = %bb42.lr.ph.i65, %middle.block
  %iter.sroa.0.098.i67.ph = phi i64 [ 0, %bb42.lr.ph.i65 ], [ %n.vec, %middle.block ]
  br label %bb42.i66

bb42.i66:                                         ; preds = %bb42.i66.preheader, %bb42.i66
  %iter.sroa.0.098.i67 = phi i64 [ %104, %bb42.i66 ], [ %iter.sroa.0.098.i67.ph, %bb42.i66.preheader ]
  %104 = add nuw i64 %iter.sroa.0.098.i67, 1
  %105 = getelementptr i32, ptr %96, i64 %iter.sroa.0.098.i67
  %106 = xor i64 %iter.sroa.0.098.i67, -1
  %107 = getelementptr i32, ptr %_86.i40, i64 %106
  %108 = load i32, ptr %107, align 4, !alias.scope !1171, !noalias !1168
  store i32 %108, ptr %105, align 4, !alias.scope !1168, !noalias !1171
  %exitcond.not.i68 = icmp eq i64 %104, %_63.i63
  br i1 %exitcond.not.i68, label %_ZN4core5slice4sort6stable9quicksort16stable_partition17hb86ccb0438f16e12E.exit, label %bb42.i66, !llvm.loop !1265

_ZN4core5slice4sort6stable9quicksort16stable_partition17hb86ccb0438f16e12E.exit: ; preds = %bb42.i66, %middle.block
  %_47 = icmp ugt i64 %state.sroa.27.2.lcssa.i55, %v.sroa.16.0132
  br i1 %_47, label %bb27, label %bb28, !prof !1163

bb3.thread:                                       ; preds = %bb22.i62
  call void @llvm.lifetime.end.p0(i64 4, ptr nonnull %pivot_copy)
  br label %bb22

bb28:                                             ; preds = %_ZN4core5slice4sort6stable9quicksort16stable_partition17hb86ccb0438f16e12E.exit
  %_54 = getelementptr inbounds nuw i32, ptr %v.sroa.0.0.ph140, i64 %state.sroa.27.2.lcssa.i55
  call void @llvm.lifetime.end.p0(i64 4, ptr nonnull %pivot_copy)
  %_8130 = icmp ult i64 %_63.i63, 33
  br i1 %_8130, label %bb3, label %bb5.lr.ph

bb27:                                             ; preds = %_ZN4core5slice4sort6stable9quicksort16stable_partition17hb86ccb0438f16e12E.exit
; call core::slice::index::slice_index_fail
  call void @_ZN4core5slice5index16slice_index_fail17h62807bcaa490c9c1E(i64 noundef %state.sroa.27.2.lcssa.i55, i64 noundef %v.sroa.16.0132, i64 noundef %v.sroa.16.0132, ptr noalias noundef readonly align 8 captures(address, read_provenance) dereferenceable(24) @alloc_0766b232215672ee1bd2195fdb153938) #18
  unreachable

bb22:                                             ; preds = %bb3.thread, %bb9.i.i, %bb3, %bb6
  ret void
}

; core::slice::sort::stable::quicksort::quicksort
; Function Attrs: noinline nonlazybind uwtable
define void @_ZN4core5slice4sort6stable9quicksort9quicksort17h586c81f6d2346d32E(ptr noalias noundef nonnull align 4 %0, i64 noundef range(i64 0, 2305843009213693952) %1, ptr noalias noundef nonnull align 4 %scratch.0, i64 noundef range(i64 0, 2305843009213693952) %scratch.1, i32 noundef %2, ptr noalias noundef readonly align 4 captures(address) dereferenceable_or_null(4) %3, ptr noalias noundef align 8 dereferenceable(8) %is_less) unnamed_addr #2 personality ptr @rust_eh_personality {
start:
  %pivot_copy = alloca [4 x i8], align 4
  %_8130136 = icmp samesign ult i64 %1, 33
  br i1 %_8130136, label %bb3, label %bb5.lr.ph

bb5.lr.ph:                                        ; preds = %start, %bb28
  %v.sroa.0.0.ph140 = phi ptr [ %_54, %bb28 ], [ %0, %start ]
  %v.sroa.16.0.ph139 = phi i64 [ %_63.i63, %bb28 ], [ %1, %start ]
  %limit.sroa.0.0.ph138 = phi i32 [ %48, %bb28 ], [ %2, %start ]
  %left_ancestor_pivot.sroa.0.0.ph137 = phi ptr [ null, %bb28 ], [ %3, %start ]
  %4 = ptrtoint ptr %v.sroa.0.0.ph140 to i64
  %.not = icmp eq ptr %left_ancestor_pivot.sroa.0.0.ph137, null
  br label %bb5

bb5:                                              ; preds = %bb5.lr.ph, %"_ZN4core5slice29_$LT$impl$u20$$u5b$T$u5d$$GT$12split_at_mut17h9694744ae55560c1E.exit"
  %v.sroa.16.0132 = phi i64 [ %v.sroa.16.0.ph139, %bb5.lr.ph ], [ %state.sroa.27.2.lcssa.i, %"_ZN4core5slice29_$LT$impl$u20$$u5b$T$u5d$$GT$12split_at_mut17h9694744ae55560c1E.exit" ]
  %limit.sroa.0.0131 = phi i32 [ %limit.sroa.0.0.ph138, %bb5.lr.ph ], [ %48, %"_ZN4core5slice29_$LT$impl$u20$$u5b$T$u5d$$GT$12split_at_mut17h9694744ae55560c1E.exit" ]
  %_11 = icmp eq i32 %limit.sroa.0.0131, 0
  br i1 %_11, label %bb6, label %bb7

bb3:                                              ; preds = %bb28, %"_ZN4core5slice29_$LT$impl$u20$$u5b$T$u5d$$GT$12split_at_mut17h9694744ae55560c1E.exit", %start
  %v.sroa.0.0.ph.lcssa129 = phi ptr [ %0, %start ], [ %v.sroa.0.0.ph140, %"_ZN4core5slice29_$LT$impl$u20$$u5b$T$u5d$$GT$12split_at_mut17h9694744ae55560c1E.exit" ], [ %_54, %bb28 ]
  %v.sroa.16.0.lcssa = phi i64 [ %1, %start ], [ %state.sroa.27.2.lcssa.i, %"_ZN4core5slice29_$LT$impl$u20$$u5b$T$u5d$$GT$12split_at_mut17h9694744ae55560c1E.exit" ], [ %_63.i63, %bb28 ]
  call void @llvm.experimental.noalias.scope.decl(metadata !1266)
  call void @llvm.experimental.noalias.scope.decl(metadata !1269)
  %_5.i = icmp samesign ult i64 %v.sroa.16.0.lcssa, 2
  br i1 %_5.i, label %bb22, label %bb2.i

bb2.i:                                            ; preds = %bb3
  %_8.i = add nuw nsw i64 %v.sroa.16.0.lcssa, 16
  %_6.i = icmp samesign ult i64 %scratch.1, %_8.i
  br i1 %_6.i, label %bb3.i, label %bb4.i

bb4.i:                                            ; preds = %bb2.i
  %len_div_211.i = lshr i64 %v.sroa.16.0.lcssa, 1
  %_14.i = icmp samesign ugt i64 %v.sroa.16.0.lcssa, 15
  br i1 %_14.i, label %bb6.i, label %bb9.i

bb3.i:                                            ; preds = %bb2.i
  call void @llvm.trap()
  unreachable

bb9.i:                                            ; preds = %bb4.i
  %_22.i = icmp samesign ugt i64 %v.sroa.16.0.lcssa, 7
  br i1 %_22.i, label %bb10.i, label %bb46.i

bb6.i:                                            ; preds = %bb4.i
  %_16.i = getelementptr inbounds nuw i32, ptr %scratch.0, i64 %v.sroa.16.0.lcssa
; call core::slice::sort::shared::smallsort::sort8_stable
  call fastcc void @_ZN4core5slice4sort6shared9smallsort12sort8_stable17h4c24201ae3c8461bE(ptr noundef nonnull align 4 %v.sroa.0.0.ph.lcssa129, ptr noundef nonnull align 4 %scratch.0, ptr noundef %_16.i)
  %_18.i = getelementptr inbounds nuw i32, ptr %v.sroa.0.0.ph.lcssa129, i64 %len_div_211.i
  %_19.i = getelementptr inbounds nuw i32, ptr %scratch.0, i64 %len_div_211.i
  %_20.i = getelementptr inbounds nuw i8, ptr %_16.i, i64 32
; call core::slice::sort::shared::smallsort::sort8_stable
  call fastcc void @_ZN4core5slice4sort6shared9smallsort12sort8_stable17h4c24201ae3c8461bE(ptr noundef %_18.i, ptr noundef %_19.i, ptr noundef %_20.i)
  br label %bb15.i

bb10.i:                                           ; preds = %bb9.i
  %_7.i.i = getelementptr inbounds nuw i8, ptr %v.sroa.0.0.ph.lcssa129, i64 4
  call void @llvm.experimental.noalias.scope.decl(metadata !1271)
  call void @llvm.experimental.noalias.scope.decl(metadata !1274)
  call void @llvm.experimental.noalias.scope.decl(metadata !1276)
  call void @llvm.experimental.noalias.scope.decl(metadata !1279)
  call void @llvm.experimental.noalias.scope.decl(metadata !1281)
  call void @llvm.experimental.noalias.scope.decl(metadata !1284)
  %_3.i.i.i.i.i = load i32, ptr %_7.i.i, align 4, !alias.scope !1286, !noalias !1287, !noundef !23
  %_4.i.i.i.i.i = load i32, ptr %v.sroa.0.0.ph.lcssa129, align 4, !alias.scope !1289, !noalias !1290, !noundef !23
  %_0.i.i.i = icmp slt i32 %_3.i.i.i.i.i, %_4.i.i.i.i.i
  %_12.i.i = getelementptr inbounds nuw i8, ptr %v.sroa.0.0.ph.lcssa129, i64 12
  %_14.i.i = getelementptr inbounds nuw i8, ptr %v.sroa.0.0.ph.lcssa129, i64 8
  call void @llvm.experimental.noalias.scope.decl(metadata !1291)
  call void @llvm.experimental.noalias.scope.decl(metadata !1294)
  call void @llvm.experimental.noalias.scope.decl(metadata !1296)
  call void @llvm.experimental.noalias.scope.decl(metadata !1299)
  call void @llvm.experimental.noalias.scope.decl(metadata !1301)
  call void @llvm.experimental.noalias.scope.decl(metadata !1304)
  %_3.i.i.i7.i.i = load i32, ptr %_12.i.i, align 4, !alias.scope !1306, !noalias !1307, !noundef !23
  %_4.i.i.i8.i.i = load i32, ptr %_14.i.i, align 4, !alias.scope !1308, !noalias !1309, !noundef !23
  %_0.i9.i.i = icmp slt i32 %_3.i.i.i7.i.i, %_4.i.i.i8.i.i
  %count.i.i = zext i1 %_0.i.i.i to i64
  %a.i.i = getelementptr inbounds nuw i32, ptr %v.sroa.0.0.ph.lcssa129, i64 %count.i.i
  %_19.i.i = xor i1 %_0.i.i.i, true
  %count2.i.i = zext i1 %_19.i.i to i64
  %b.i.i = getelementptr inbounds nuw i32, ptr %v.sroa.0.0.ph.lcssa129, i64 %count2.i.i
  %count3.i.i = select i1 %_0.i9.i.i, i64 3, i64 2
  %c.i.i = getelementptr inbounds nuw i32, ptr %v.sroa.0.0.ph.lcssa129, i64 %count3.i.i
  %count4.i.i = select i1 %_0.i9.i.i, i64 2, i64 3
  %d.i.i = getelementptr inbounds nuw i32, ptr %v.sroa.0.0.ph.lcssa129, i64 %count4.i.i
  call void @llvm.experimental.noalias.scope.decl(metadata !1310)
  call void @llvm.experimental.noalias.scope.decl(metadata !1313)
  call void @llvm.experimental.noalias.scope.decl(metadata !1315)
  call void @llvm.experimental.noalias.scope.decl(metadata !1318)
  call void @llvm.experimental.noalias.scope.decl(metadata !1320)
  call void @llvm.experimental.noalias.scope.decl(metadata !1323)
  %_3.i.i.i10.i.i = load i32, ptr %c.i.i, align 4, !alias.scope !1325, !noalias !1326, !noundef !23
  %_4.i.i.i11.i.i = load i32, ptr %a.i.i, align 4, !alias.scope !1327, !noalias !1328, !noundef !23
  %_0.i12.i.i = icmp slt i32 %_3.i.i.i10.i.i, %_4.i.i.i11.i.i
  call void @llvm.experimental.noalias.scope.decl(metadata !1329)
  call void @llvm.experimental.noalias.scope.decl(metadata !1332)
  call void @llvm.experimental.noalias.scope.decl(metadata !1334)
  call void @llvm.experimental.noalias.scope.decl(metadata !1337)
  call void @llvm.experimental.noalias.scope.decl(metadata !1339)
  call void @llvm.experimental.noalias.scope.decl(metadata !1342)
  %_3.i.i.i13.i.i = load i32, ptr %d.i.i, align 4, !alias.scope !1344, !noalias !1345, !noundef !23
  %_4.i.i.i14.i.i = load i32, ptr %b.i.i, align 4, !alias.scope !1346, !noalias !1347, !noundef !23
  %_0.i15.i.i = icmp slt i32 %_3.i.i.i13.i.i, %_4.i.i.i14.i.i
  %5 = call i32 @llvm.smin.i32(i32 %_3.i.i.i10.i.i, i32 %_4.i.i.i11.i.i)
  %6 = select i1 %_0.i15.i.i, ptr %c.i.i, ptr %b.i.i, !unpredictable !23
  %7 = select i1 %_0.i12.i.i, ptr %a.i.i, ptr %6, !unpredictable !23
  %8 = select i1 %_0.i12.i.i, ptr %b.i.i, ptr %c.i.i, !unpredictable !23
  %9 = select i1 %_0.i15.i.i, ptr %d.i.i, ptr %8, !unpredictable !23
  call void @llvm.experimental.noalias.scope.decl(metadata !1348)
  call void @llvm.experimental.noalias.scope.decl(metadata !1351)
  call void @llvm.experimental.noalias.scope.decl(metadata !1353)
  call void @llvm.experimental.noalias.scope.decl(metadata !1356)
  call void @llvm.experimental.noalias.scope.decl(metadata !1358)
  call void @llvm.experimental.noalias.scope.decl(metadata !1361)
  %_3.i.i.i16.i.i = load i32, ptr %9, align 4, !alias.scope !1363, !noalias !1364, !noundef !23
  %_4.i.i.i17.i.i = load i32, ptr %7, align 4, !alias.scope !1365, !noalias !1366, !noundef !23
  store i32 %5, ptr %scratch.0, align 4, !alias.scope !1269, !noalias !1367
  %dst5.i.i = getelementptr inbounds nuw i8, ptr %scratch.0, i64 4
  %10 = call i32 @llvm.smin.i32(i32 %_3.i.i.i16.i.i, i32 %_4.i.i.i17.i.i)
  store i32 %10, ptr %dst5.i.i, align 4, !alias.scope !1269, !noalias !1367
  %dst6.i.i = getelementptr inbounds nuw i8, ptr %scratch.0, i64 8
  %11 = call i32 @llvm.smax.i32(i32 %_3.i.i.i16.i.i, i32 %_4.i.i.i17.i.i)
  store i32 %11, ptr %dst6.i.i, align 4, !alias.scope !1269, !noalias !1367
  %12 = getelementptr inbounds nuw i8, ptr %scratch.0, i64 12
  %13 = call i32 @llvm.smax.i32(i32 %_3.i.i.i13.i.i, i32 %_4.i.i.i14.i.i)
  store i32 %13, ptr %12, align 4, !alias.scope !1269, !noalias !1367
  %_27.i = getelementptr inbounds nuw i32, ptr %v.sroa.0.0.ph.lcssa129, i64 %len_div_211.i
  %_28.i = getelementptr inbounds nuw i32, ptr %scratch.0, i64 %len_div_211.i
  %_7.i13.i = getelementptr inbounds nuw i8, ptr %_27.i, i64 4
  call void @llvm.experimental.noalias.scope.decl(metadata !1368)
  call void @llvm.experimental.noalias.scope.decl(metadata !1371)
  call void @llvm.experimental.noalias.scope.decl(metadata !1373)
  call void @llvm.experimental.noalias.scope.decl(metadata !1376)
  call void @llvm.experimental.noalias.scope.decl(metadata !1378)
  call void @llvm.experimental.noalias.scope.decl(metadata !1381)
  %_3.i.i.i.i14.i = load i32, ptr %_7.i13.i, align 4, !alias.scope !1383, !noalias !1384, !noundef !23
  %_4.i.i.i.i15.i = load i32, ptr %_27.i, align 4, !alias.scope !1385, !noalias !1386, !noundef !23
  %_0.i.i16.i = icmp slt i32 %_3.i.i.i.i14.i, %_4.i.i.i.i15.i
  %_12.i17.i = getelementptr inbounds nuw i8, ptr %_27.i, i64 12
  %_14.i18.i = getelementptr inbounds nuw i8, ptr %_27.i, i64 8
  call void @llvm.experimental.noalias.scope.decl(metadata !1387)
  call void @llvm.experimental.noalias.scope.decl(metadata !1390)
  call void @llvm.experimental.noalias.scope.decl(metadata !1392)
  call void @llvm.experimental.noalias.scope.decl(metadata !1395)
  call void @llvm.experimental.noalias.scope.decl(metadata !1397)
  call void @llvm.experimental.noalias.scope.decl(metadata !1400)
  %_3.i.i.i7.i19.i = load i32, ptr %_12.i17.i, align 4, !alias.scope !1402, !noalias !1403, !noundef !23
  %_4.i.i.i8.i20.i = load i32, ptr %_14.i18.i, align 4, !alias.scope !1404, !noalias !1405, !noundef !23
  %_0.i9.i21.i = icmp slt i32 %_3.i.i.i7.i19.i, %_4.i.i.i8.i20.i
  %count.i22.i = zext i1 %_0.i.i16.i to i64
  %a.i23.i = getelementptr inbounds nuw i32, ptr %_27.i, i64 %count.i22.i
  %_19.i24.i = xor i1 %_0.i.i16.i, true
  %count2.i25.i = zext i1 %_19.i24.i to i64
  %b.i26.i = getelementptr inbounds nuw i32, ptr %_27.i, i64 %count2.i25.i
  %count3.i27.i = select i1 %_0.i9.i21.i, i64 3, i64 2
  %c.i28.i = getelementptr inbounds nuw i32, ptr %_27.i, i64 %count3.i27.i
  %count4.i29.i = select i1 %_0.i9.i21.i, i64 2, i64 3
  %d.i30.i = getelementptr inbounds nuw i32, ptr %_27.i, i64 %count4.i29.i
  call void @llvm.experimental.noalias.scope.decl(metadata !1406)
  call void @llvm.experimental.noalias.scope.decl(metadata !1409)
  call void @llvm.experimental.noalias.scope.decl(metadata !1411)
  call void @llvm.experimental.noalias.scope.decl(metadata !1414)
  call void @llvm.experimental.noalias.scope.decl(metadata !1416)
  call void @llvm.experimental.noalias.scope.decl(metadata !1419)
  %_3.i.i.i10.i31.i = load i32, ptr %c.i28.i, align 4, !alias.scope !1421, !noalias !1422, !noundef !23
  %_4.i.i.i11.i32.i = load i32, ptr %a.i23.i, align 4, !alias.scope !1423, !noalias !1424, !noundef !23
  %_0.i12.i33.i = icmp slt i32 %_3.i.i.i10.i31.i, %_4.i.i.i11.i32.i
  call void @llvm.experimental.noalias.scope.decl(metadata !1425)
  call void @llvm.experimental.noalias.scope.decl(metadata !1428)
  call void @llvm.experimental.noalias.scope.decl(metadata !1430)
  call void @llvm.experimental.noalias.scope.decl(metadata !1433)
  call void @llvm.experimental.noalias.scope.decl(metadata !1435)
  call void @llvm.experimental.noalias.scope.decl(metadata !1438)
  %_3.i.i.i13.i34.i = load i32, ptr %d.i30.i, align 4, !alias.scope !1440, !noalias !1441, !noundef !23
  %_4.i.i.i14.i35.i = load i32, ptr %b.i26.i, align 4, !alias.scope !1442, !noalias !1443, !noundef !23
  %_0.i15.i36.i = icmp slt i32 %_3.i.i.i13.i34.i, %_4.i.i.i14.i35.i
  %14 = call i32 @llvm.smin.i32(i32 %_3.i.i.i10.i31.i, i32 %_4.i.i.i11.i32.i)
  %15 = select i1 %_0.i15.i36.i, ptr %c.i28.i, ptr %b.i26.i, !unpredictable !23
  %16 = select i1 %_0.i12.i33.i, ptr %a.i23.i, ptr %15, !unpredictable !23
  %17 = select i1 %_0.i12.i33.i, ptr %b.i26.i, ptr %c.i28.i, !unpredictable !23
  %18 = select i1 %_0.i15.i36.i, ptr %d.i30.i, ptr %17, !unpredictable !23
  call void @llvm.experimental.noalias.scope.decl(metadata !1444)
  call void @llvm.experimental.noalias.scope.decl(metadata !1447)
  call void @llvm.experimental.noalias.scope.decl(metadata !1449)
  call void @llvm.experimental.noalias.scope.decl(metadata !1452)
  call void @llvm.experimental.noalias.scope.decl(metadata !1454)
  call void @llvm.experimental.noalias.scope.decl(metadata !1457)
  %_3.i.i.i16.i37.i = load i32, ptr %18, align 4, !alias.scope !1459, !noalias !1460, !noundef !23
  %_4.i.i.i17.i38.i = load i32, ptr %16, align 4, !alias.scope !1461, !noalias !1462, !noundef !23
  store i32 %14, ptr %_28.i, align 4, !alias.scope !1269, !noalias !1367
  %dst5.i40.i = getelementptr inbounds nuw i8, ptr %_28.i, i64 4
  %19 = call i32 @llvm.smin.i32(i32 %_3.i.i.i16.i37.i, i32 %_4.i.i.i17.i38.i)
  store i32 %19, ptr %dst5.i40.i, align 4, !alias.scope !1269, !noalias !1367
  %dst6.i43.i = getelementptr inbounds nuw i8, ptr %_28.i, i64 8
  %20 = call i32 @llvm.smax.i32(i32 %_3.i.i.i16.i37.i, i32 %_4.i.i.i17.i38.i)
  store i32 %20, ptr %dst6.i43.i, align 4, !alias.scope !1269, !noalias !1367
  %21 = getelementptr inbounds nuw i8, ptr %_28.i, i64 12
  %22 = call i32 @llvm.smax.i32(i32 %_3.i.i.i13.i34.i, i32 %_4.i.i.i14.i35.i)
  store i32 %22, ptr %21, align 4, !alias.scope !1269, !noalias !1367
  br label %bb15.i

bb46.i:                                           ; preds = %bb9.i
  %23 = load i32, ptr %v.sroa.0.0.ph.lcssa129, align 4, !alias.scope !1266, !noalias !1463
  store i32 %23, ptr %scratch.0, align 4, !alias.scope !1269, !noalias !1367
  %_31.i = getelementptr inbounds nuw i32, ptr %v.sroa.0.0.ph.lcssa129, i64 %len_div_211.i
  %24 = getelementptr inbounds nuw i32, ptr %scratch.0, i64 %len_div_211.i
  %25 = load i32, ptr %_31.i, align 4, !alias.scope !1266, !noalias !1463
  store i32 %25, ptr %24, align 4, !alias.scope !1269, !noalias !1367
  br label %bb15.i

bb15.i:                                           ; preds = %bb46.i, %bb10.i, %bb6.i
  %presorted_len.sroa.0.0.i = phi i64 [ 8, %bb6.i ], [ 4, %bb10.i ], [ 1, %bb46.i ]
  %26 = sub nsw i64 %v.sroa.16.0.lcssa, %len_div_211.i
  %_8061.i = icmp samesign ult i64 %presorted_len.sroa.0.0.i, %len_div_211.i
  br i1 %_8061.i, label %bb24.preheader.i, label %bb16.loopexit.i

bb16.loopexit.i:                                  ; preds = %_ZN4core5slice4sort6shared9smallsort11insert_tail17hde149b261d22d4f1E.exit.i, %bb15.i
  %src5.1.i = getelementptr inbounds nuw i32, ptr %v.sroa.0.0.ph.lcssa129, i64 %len_div_211.i
  %dst6.1.i = getelementptr i32, ptr %scratch.0, i64 %len_div_211.i
  %_8061.1.i = icmp ult i64 %presorted_len.sroa.0.0.i, %26
  br i1 %_8061.1.i, label %bb24.preheader.1.i, label %bb16.loopexit.1.i

bb24.preheader.1.i:                               ; preds = %bb16.loopexit.i
  %iter1.sroa.0.163.1.i = add nuw nsw i64 %presorted_len.sroa.0.0.i, 1
  br label %bb24.1.i

bb24.1.i:                                         ; preds = %_ZN4core5slice4sort6shared9smallsort11insert_tail17hde149b261d22d4f1E.exit.1.i, %bb24.preheader.1.i
  %iter1.sroa.0.165.1.i = phi i64 [ %iter1.sroa.0.1.1.i, %_ZN4core5slice4sort6shared9smallsort11insert_tail17hde149b261d22d4f1E.exit.1.i ], [ %iter1.sroa.0.163.1.i, %bb24.preheader.1.i ]
  %iter1.sroa.0.064.1.i = phi i64 [ %iter1.sroa.0.165.1.i, %_ZN4core5slice4sort6shared9smallsort11insert_tail17hde149b261d22d4f1E.exit.1.i ], [ %presorted_len.sroa.0.0.i, %bb24.preheader.1.i ]
  %_55.1.i = getelementptr inbounds nuw i32, ptr %src5.1.i, i64 %iter1.sroa.0.064.1.i
  %dst7.1.i = getelementptr inbounds nuw i32, ptr %dst6.1.i, i64 %iter1.sroa.0.064.1.i
  %27 = load i32, ptr %_55.1.i, align 4, !alias.scope !1266, !noalias !1463
  store i32 %27, ptr %dst7.1.i, align 4, !alias.scope !1269, !noalias !1367
  %28 = getelementptr inbounds i8, ptr %dst7.1.i, i64 -4
  %_4.i.i.i.i55.1.i = load i32, ptr %28, align 4, !alias.scope !1464, !noalias !1471, !noundef !23
  %_0.i.i56.1.i = icmp slt i32 %27, %_4.i.i.i.i55.1.i
  br i1 %_0.i.i56.1.i, label %bb4.i.1.i, label %_ZN4core5slice4sort6shared9smallsort11insert_tail17hde149b261d22d4f1E.exit.1.i

bb4.i.1.i:                                        ; preds = %bb24.1.i, %bb7.i.1.i
  %29 = phi i32 [ %_4.i.i.i2.i.1.i, %bb7.i.1.i ], [ %_4.i.i.i.i55.1.i, %bb24.1.i ]
  %gap_guard.sroa.5.0.i.1.i = phi ptr [ %sift.sroa.0.0.i.1.i, %bb7.i.1.i ], [ %dst7.1.i, %bb24.1.i ]
  %sift.sroa.0.0.i.1.i = phi ptr [ %30, %bb7.i.1.i ], [ %28, %bb24.1.i ]
  store i32 %29, ptr %gap_guard.sroa.5.0.i.1.i, align 4, !alias.scope !1269, !noalias !1367
  %_18.i.1.i = icmp eq ptr %sift.sroa.0.0.i.1.i, %dst6.1.i
  br i1 %_18.i.1.i, label %bb10.i.1.i, label %bb7.i.1.i

bb7.i.1.i:                                        ; preds = %bb4.i.1.i
  %30 = getelementptr inbounds i8, ptr %sift.sroa.0.0.i.1.i, i64 -4
  %_4.i.i.i2.i.1.i = load i32, ptr %30, align 4, !alias.scope !1475, !noalias !1482, !noundef !23
  %_0.i3.i.1.i = icmp slt i32 %27, %_4.i.i.i2.i.1.i
  br i1 %_0.i3.i.1.i, label %bb4.i.1.i, label %bb10.i.1.i

bb10.i.1.i:                                       ; preds = %bb7.i.1.i, %bb4.i.1.i
  %sift.sroa.0.0.i.lcssa.1.i = phi ptr [ %sift.sroa.0.0.i.1.i, %bb7.i.1.i ], [ %dst6.1.i, %bb4.i.1.i ]
  store i32 %27, ptr %sift.sroa.0.0.i.lcssa.1.i, align 4, !alias.scope !1269, !noalias !1486
  br label %_ZN4core5slice4sort6shared9smallsort11insert_tail17hde149b261d22d4f1E.exit.1.i

_ZN4core5slice4sort6shared9smallsort11insert_tail17hde149b261d22d4f1E.exit.1.i: ; preds = %bb10.i.1.i, %bb24.1.i
  %_80.1.i = icmp ult i64 %iter1.sroa.0.165.1.i, %26
  %_84.1.i = zext i1 %_80.1.i to i64
  %iter1.sroa.0.1.1.i = add nuw i64 %iter1.sroa.0.165.1.i, %_84.1.i
  br i1 %_80.1.i, label %bb24.1.i, label %bb16.loopexit.1.i

bb16.loopexit.1.i:                                ; preds = %_ZN4core5slice4sort6shared9smallsort11insert_tail17hde149b261d22d4f1E.exit.1.i, %bb16.loopexit.i
  call void @llvm.experimental.noalias.scope.decl(metadata !1491)
  %count1.i.i = add nsw i64 %v.sroa.16.0.lcssa, -1
  %31 = getelementptr inbounds nuw i32, ptr %v.sroa.0.0.ph.lcssa129, i64 %count1.i.i
  %32 = getelementptr inbounds nuw i32, ptr %scratch.0, i64 %count1.i.i
  %33 = getelementptr i8, ptr %dst6.1.i, i64 -4
  br label %bb15.i.i

bb24.preheader.i:                                 ; preds = %bb15.i
  %iter1.sroa.0.163.i = add nuw nsw i64 %presorted_len.sroa.0.0.i, 1
  br label %bb24.i

bb16.i.i:                                         ; preds = %bb15.i.i
  %34 = getelementptr i8, ptr %39, i64 4
  %35 = getelementptr i8, ptr %38, i64 4
  %_44.i.i = and i64 %v.sroa.16.0.lcssa, 1
  %_22.i.i = icmp eq i64 %_44.i.i, 0
  br i1 %_22.i.i, label %bb9.i.i, label %bb5.i.i

bb15.i.i:                                         ; preds = %bb15.i.i, %bb16.loopexit.1.i
  %dst.sroa.0.029.i.i = phi ptr [ %_16.i.i.i, %bb15.i.i ], [ %v.sroa.0.0.ph.lcssa129, %bb16.loopexit.1.i ]
  %iter.sroa.0.028.i.i = phi i64 [ %_39.i.i, %bb15.i.i ], [ 0, %bb16.loopexit.1.i ]
  %left.sroa.0.027.i.i = phi ptr [ %_14.i.i.i, %bb15.i.i ], [ %scratch.0, %bb16.loopexit.1.i ]
  %right.sroa.0.026.i.i = phi ptr [ %_12.i.i.i, %bb15.i.i ], [ %dst6.1.i, %bb16.loopexit.1.i ]
  %left_rev.sroa.0.025.i.i = phi ptr [ %39, %bb15.i.i ], [ %33, %bb16.loopexit.1.i ]
  %right_rev.sroa.0.024.i.i = phi ptr [ %38, %bb15.i.i ], [ %32, %bb16.loopexit.1.i ]
  %dst_rev.sroa.0.023.i.i = phi ptr [ %40, %bb15.i.i ], [ %31, %bb16.loopexit.1.i ]
  %_39.i.i = add nuw nsw i64 %iter.sroa.0.028.i.i, 1
  call void @llvm.experimental.noalias.scope.decl(metadata !1494)
  call void @llvm.experimental.noalias.scope.decl(metadata !1497)
  call void @llvm.experimental.noalias.scope.decl(metadata !1499), !noalias !1502
  call void @llvm.experimental.noalias.scope.decl(metadata !1505), !noalias !1502
  call void @llvm.experimental.noalias.scope.decl(metadata !1507), !noalias !1502
  call void @llvm.experimental.noalias.scope.decl(metadata !1510), !noalias !1502
  %_3.i.i.i.i48.i = load i32, ptr %right.sroa.0.026.i.i, align 4, !alias.scope !1512, !noalias !1513, !noundef !23
  %_4.i.i.i.i49.i = load i32, ptr %left.sroa.0.027.i.i, align 4, !alias.scope !1514, !noalias !1515, !noundef !23
  %_0.i.i50.i = icmp slt i32 %_3.i.i.i.i48.i, %_4.i.i.i.i49.i
  %is_l.i18.i.i = xor i1 %_0.i.i50.i, true
  %36 = call i32 @llvm.smin.i32(i32 %_3.i.i.i.i48.i, i32 %_4.i.i.i.i49.i)
  store i32 %36, ptr %dst.sroa.0.029.i.i, align 4, !alias.scope !1266, !noalias !1516
  %count.i.i.i = zext i1 %_0.i.i50.i to i64
  %_12.i.i.i = getelementptr inbounds nuw i32, ptr %right.sroa.0.026.i.i, i64 %count.i.i.i
  %count2.i.i.i = zext i1 %is_l.i18.i.i to i64
  %_14.i.i.i = getelementptr inbounds nuw i32, ptr %left.sroa.0.027.i.i, i64 %count2.i.i.i
  %_16.i.i.i = getelementptr inbounds nuw i8, ptr %dst.sroa.0.029.i.i, i64 4
  call void @llvm.experimental.noalias.scope.decl(metadata !1518)
  call void @llvm.experimental.noalias.scope.decl(metadata !1521)
  call void @llvm.experimental.noalias.scope.decl(metadata !1523), !noalias !1526
  call void @llvm.experimental.noalias.scope.decl(metadata !1529), !noalias !1526
  call void @llvm.experimental.noalias.scope.decl(metadata !1531), !noalias !1526
  call void @llvm.experimental.noalias.scope.decl(metadata !1534), !noalias !1526
  %_3.i.i.i19.i.i = load i32, ptr %right_rev.sroa.0.024.i.i, align 4, !alias.scope !1536, !noalias !1537, !noundef !23
  %_4.i.i.i20.i.i = load i32, ptr %left_rev.sroa.0.025.i.i, align 4, !alias.scope !1538, !noalias !1539, !noundef !23
  %_0.i21.i.i = icmp slt i32 %_3.i.i.i19.i.i, %_4.i.i.i20.i.i
  %is_l.i.i.i = xor i1 %_0.i21.i.i, true
  %37 = call i32 @llvm.smax.i32(i32 %_3.i.i.i19.i.i, i32 %_4.i.i.i20.i.i)
  store i32 %37, ptr %dst_rev.sroa.0.023.i.i, align 4, !alias.scope !1266, !noalias !1540
  %count.neg.i.i.i = sext i1 %is_l.i.i.i to i64
  %38 = getelementptr i32, ptr %right_rev.sroa.0.024.i.i, i64 %count.neg.i.i.i
  %count3.neg.i.i.i = sext i1 %_0.i21.i.i to i64
  %39 = getelementptr i32, ptr %left_rev.sroa.0.025.i.i, i64 %count3.neg.i.i.i
  %40 = getelementptr inbounds i8, ptr %dst_rev.sroa.0.023.i.i, i64 -4
  %exitcond.not.i.i = icmp eq i64 %_39.i.i, %len_div_211.i
  br i1 %exitcond.not.i.i, label %bb16.i.i, label %bb15.i.i

bb5.i.i:                                          ; preds = %bb16.i.i
  %left_nonempty.i.i = icmp ult ptr %_14.i.i.i, %34
  %left.sroa.0.0.right.sroa.0.0.i.i = select i1 %left_nonempty.i.i, ptr %_14.i.i.i, ptr %_12.i.i.i
  %41 = load i32, ptr %left.sroa.0.0.right.sroa.0.0.i.i, align 4, !alias.scope !1542, !noalias !1367
  store i32 %41, ptr %_16.i.i.i, align 4, !alias.scope !1266, !noalias !1543
  %count2.i51.i = zext i1 %left_nonempty.i.i to i64
  %_26.i.i = getelementptr inbounds nuw i32, ptr %_14.i.i.i, i64 %count2.i51.i
  %_30.i.i = xor i1 %left_nonempty.i.i, true
  %count3.i52.i = zext i1 %_30.i.i to i64
  %_28.i.i = getelementptr inbounds nuw i32, ptr %_12.i.i.i, i64 %count3.i52.i
  br label %bb9.i.i

bb9.i.i:                                          ; preds = %bb5.i.i, %bb16.i.i
  %right.sroa.0.1.i.i = phi ptr [ %_12.i.i.i, %bb16.i.i ], [ %_28.i.i, %bb5.i.i ]
  %left.sroa.0.1.i.i = phi ptr [ %_14.i.i.i, %bb16.i.i ], [ %_26.i.i, %bb5.i.i ]
  %_31.i.i = icmp ne ptr %left.sroa.0.1.i.i, %34
  %_32.i.i = icmp ne ptr %right.sroa.0.1.i.i, %35
  %or.cond.i.i = select i1 %_31.i.i, i1 true, i1 %_32.i.i
  br i1 %or.cond.i.i, label %bb13.i.i, label %bb22, !prof !363

bb13.i.i:                                         ; preds = %bb9.i.i
; invoke core::slice::sort::shared::smallsort::panic_on_ord_violation
  invoke void @_ZN4core5slice4sort6shared9smallsort22panic_on_ord_violation17hc77a22a2d50782cdE() #18
          to label %.noexc.i unwind label %cleanup2.i, !noalias !1544

.noexc.i:                                         ; preds = %bb13.i.i
  unreachable

cleanup2.i:                                       ; preds = %bb13.i.i
  %42 = landingpad { ptr, i32 }
          cleanup
  %43 = shl nuw nsw i64 %v.sroa.16.0.lcssa, 2
  call void @llvm.memcpy.p0.p0.i64(ptr nonnull align 4 %v.sroa.0.0.ph.lcssa129, ptr nonnull align 4 %scratch.0, i64 %43, i1 false), !alias.scope !1545, !noalias !1546
  resume { ptr, i32 } %42

bb24.i:                                           ; preds = %_ZN4core5slice4sort6shared9smallsort11insert_tail17hde149b261d22d4f1E.exit.i, %bb24.preheader.i
  %iter1.sroa.0.165.i = phi i64 [ %iter1.sroa.0.1.i, %_ZN4core5slice4sort6shared9smallsort11insert_tail17hde149b261d22d4f1E.exit.i ], [ %iter1.sroa.0.163.i, %bb24.preheader.i ]
  %iter1.sroa.0.064.i = phi i64 [ %iter1.sroa.0.165.i, %_ZN4core5slice4sort6shared9smallsort11insert_tail17hde149b261d22d4f1E.exit.i ], [ %presorted_len.sroa.0.0.i, %bb24.preheader.i ]
  %_55.i = getelementptr inbounds nuw i32, ptr %v.sroa.0.0.ph.lcssa129, i64 %iter1.sroa.0.064.i
  %dst7.i = getelementptr inbounds nuw i32, ptr %scratch.0, i64 %iter1.sroa.0.064.i
  %44 = load i32, ptr %_55.i, align 4, !alias.scope !1266, !noalias !1463
  store i32 %44, ptr %dst7.i, align 4, !alias.scope !1269, !noalias !1367
  %45 = getelementptr inbounds i8, ptr %dst7.i, i64 -4
  %_4.i.i.i.i55.i = load i32, ptr %45, align 4, !alias.scope !1464, !noalias !1471, !noundef !23
  %_0.i.i56.i = icmp slt i32 %44, %_4.i.i.i.i55.i
  br i1 %_0.i.i56.i, label %bb4.i.i, label %_ZN4core5slice4sort6shared9smallsort11insert_tail17hde149b261d22d4f1E.exit.i

bb4.i.i:                                          ; preds = %bb24.i, %bb7.i.i
  %46 = phi i32 [ %_4.i.i.i2.i.i, %bb7.i.i ], [ %_4.i.i.i.i55.i, %bb24.i ]
  %gap_guard.sroa.5.0.i.i = phi ptr [ %sift.sroa.0.0.i.i, %bb7.i.i ], [ %dst7.i, %bb24.i ]
  %sift.sroa.0.0.i.i = phi ptr [ %47, %bb7.i.i ], [ %45, %bb24.i ]
  store i32 %46, ptr %gap_guard.sroa.5.0.i.i, align 4, !alias.scope !1269, !noalias !1367
  %_18.i.i = icmp eq ptr %sift.sroa.0.0.i.i, %scratch.0
  br i1 %_18.i.i, label %bb10.i.i, label %bb7.i.i

bb7.i.i:                                          ; preds = %bb4.i.i
  %47 = getelementptr inbounds i8, ptr %sift.sroa.0.0.i.i, i64 -4
  %_4.i.i.i2.i.i = load i32, ptr %47, align 4, !alias.scope !1475, !noalias !1482, !noundef !23
  %_0.i3.i.i = icmp slt i32 %44, %_4.i.i.i2.i.i
  br i1 %_0.i3.i.i, label %bb4.i.i, label %bb10.i.i

bb10.i.i:                                         ; preds = %bb7.i.i, %bb4.i.i
  %sift.sroa.0.0.i.lcssa.i = phi ptr [ %sift.sroa.0.0.i.i, %bb7.i.i ], [ %scratch.0, %bb4.i.i ]
  store i32 %44, ptr %sift.sroa.0.0.i.lcssa.i, align 4, !alias.scope !1269, !noalias !1486
  br label %_ZN4core5slice4sort6shared9smallsort11insert_tail17hde149b261d22d4f1E.exit.i

_ZN4core5slice4sort6shared9smallsort11insert_tail17hde149b261d22d4f1E.exit.i: ; preds = %bb10.i.i, %bb24.i
  %_80.i = icmp ult i64 %iter1.sroa.0.165.i, %len_div_211.i
  %_84.i = zext i1 %_80.i to i64
  %iter1.sroa.0.1.i = add nuw i64 %iter1.sroa.0.165.i, %_84.i
  br i1 %_80.i, label %bb24.i, label %bb16.loopexit.i

bb7:                                              ; preds = %bb5
  %48 = add i32 %limit.sroa.0.0131, -1
  %len_div_84.i = lshr i64 %v.sroa.16.0132, 3
  %b.idx.i = shl nuw nsw i64 %len_div_84.i, 4
  %b.i = getelementptr inbounds nuw i8, ptr %v.sroa.0.0.ph140, i64 %b.idx.i
  %c.idx.i = mul nuw nsw i64 %len_div_84.i, 28
  %c.i = getelementptr inbounds nuw i8, ptr %v.sroa.0.0.ph140, i64 %c.idx.i
  %_12.i = icmp samesign ult i64 %v.sroa.16.0132, 64
  br i1 %_12.i, label %bb3.i23, label %bb5.i

bb5.i:                                            ; preds = %bb7
; call core::slice::sort::shared::pivot::median3_rec
  %self.i = call fastcc noundef ptr @_ZN4core5slice4sort6shared5pivot11median3_rec17h4d95b87202d87658E(ptr noundef nonnull readonly align 4 %v.sroa.0.0.ph140, ptr noundef readonly %b.i, ptr noundef readonly %c.i, i64 noundef %len_div_84.i)
  br label %bb10

bb3.i23:                                          ; preds = %bb7
  call void @llvm.experimental.noalias.scope.decl(metadata !1551)
  call void @llvm.experimental.noalias.scope.decl(metadata !1554)
  call void @llvm.experimental.noalias.scope.decl(metadata !1556), !noalias !1559
  call void @llvm.experimental.noalias.scope.decl(metadata !1562), !noalias !1559
  call void @llvm.experimental.noalias.scope.decl(metadata !1564), !noalias !1559
  call void @llvm.experimental.noalias.scope.decl(metadata !1567), !noalias !1559
  %_3.i.i.i.i = load i32, ptr %v.sroa.0.0.ph140, align 4, !alias.scope !1569, !noalias !1572, !noundef !23
  %_4.i.i.i.i = load i32, ptr %b.i, align 4, !alias.scope !1574, !noalias !1575, !noundef !23
  %_0.i.i = icmp slt i32 %_3.i.i.i.i, %_4.i.i.i.i
  %_4.i.i.i6.i = load i32, ptr %c.i, align 4, !alias.scope !1576, !noalias !1583, !noundef !23
  %_0.i7.i = icmp slt i32 %_3.i.i.i.i, %_4.i.i.i6.i
  %49 = xor i1 %_0.i.i, %_0.i7.i
  %_0.i10.i = icmp slt i32 %_4.i.i.i.i, %_4.i.i.i6.i
  %_12.i.i24 = xor i1 %_0.i.i, %_0.i10.i
  %c.b.i.i = select i1 %_12.i.i24, ptr %c.i, ptr %b.i
  %_0.sroa.0.0.i.i = select i1 %49, ptr %v.sroa.0.0.ph140, ptr %c.b.i.i
  br label %bb10

bb6:                                              ; preds = %bb5
; call core::slice::sort::stable::drift::sort
  call fastcc void @_ZN4core5slice4sort6stable5drift4sort17h99be6190cc5ab17eE(ptr noalias noundef nonnull align 4 %v.sroa.0.0.ph140, i64 noundef %v.sroa.16.0132, ptr noalias noundef nonnull align 4 %scratch.0, i64 noundef %scratch.1, i1 noundef zeroext true, ptr noalias noundef align 8 dereferenceable(8) %is_less)
  br label %bb22

bb10:                                             ; preds = %bb3.i23, %bb5.i
  %_0.sroa.0.0.i.sink.i = phi ptr [ %_0.sroa.0.0.i.i, %bb3.i23 ], [ %self.i, %bb5.i ]
  %50 = ptrtoint ptr %_0.sroa.0.0.i.sink.i to i64
  %51 = sub nuw i64 %50, %4
  %index.sroa.0.0.i = lshr exact i64 %51, 2
  %cond.i = icmp samesign ult i64 %index.sroa.0.0.i, %v.sroa.16.0132
  call void @llvm.assume(i1 %cond.i)
  call void @llvm.lifetime.start.p0(i64 4, ptr nonnull %pivot_copy)
  %src = getelementptr inbounds nuw i8, ptr %v.sroa.0.0.ph140, i64 %51
  %value = load i32, ptr %src, align 4, !noundef !23
  store i32 %value, ptr %pivot_copy, align 4
  br i1 %.not, label %bb14, label %bb12

bb12:                                             ; preds = %bb10
  %_3.i.i.i = load i32, ptr %left_ancestor_pivot.sroa.0.0.ph137, align 4, !alias.scope !1587, !noalias !1594, !noundef !23
  %_0.i = icmp slt i32 %_3.i.i.i, %value
  br i1 %_0.i, label %bb14, label %bb17

bb14:                                             ; preds = %bb10, %bb12
  call void @llvm.experimental.noalias.scope.decl(metadata !1598)
  call void @llvm.experimental.noalias.scope.decl(metadata !1601)
  %_8.i25.not = icmp samesign ult i64 %scratch.1, %v.sroa.16.0132
  br i1 %_8.i25.not, label %bb31.i, label %bb33.i, !prof !363

bb33.i:                                           ; preds = %bb14
  %_86.i = getelementptr i32, ptr %scratch.0, i64 %v.sroa.16.0132
  br label %bb3.i26

bb31.i:                                           ; preds = %bb14
  call void @llvm.trap()
  unreachable

bb3.i26:                                          ; preds = %bb23.i, %bb33.i
  %state.sroa.27.0.i = phi i64 [ 0, %bb33.i ], [ %state.sroa.27.2.lcssa.i, %bb23.i ]
  %state.sroa.9.0.i = phi ptr [ %v.sroa.0.0.ph140, %bb33.i ], [ %_9.i70.i, %bb23.i ]
  %state.sroa.43.0.i = phi ptr [ %_86.i, %bb33.i ], [ %63, %bb23.i ]
  %pivot_pos.sroa.0.0.i = phi i64 [ %index.sroa.0.0.i, %bb33.i ], [ %v.sroa.16.0132, %bb23.i ]
  %52 = call i64 @llvm.usub.sat.i64(i64 %pivot_pos.sroa.0.0.i, i64 3)
  %unroll_end.i = getelementptr inbounds nuw i32, ptr %v.sroa.0.0.ph140, i64 %52
  %_1984.i = icmp ult ptr %state.sroa.9.0.i, %unroll_end.i
  br i1 %_1984.i, label %bb6.i28.preheader, label %bb16.i

bb6.i28.preheader:                                ; preds = %bb3.i26
  %_4.i.i.i.i30 = load i32, ptr %src, align 4, !alias.scope !1603, !noalias !1610, !noundef !23
  br label %bb6.i28

bb6.i28:                                          ; preds = %bb6.i28.preheader, %bb6.i28
  %state.sroa.43.187.i = phi ptr [ %59, %bb6.i28 ], [ %state.sroa.43.0.i, %bb6.i28.preheader ]
  %state.sroa.9.186.i = phi ptr [ %_9.i54.i, %bb6.i28 ], [ %state.sroa.9.0.i, %bb6.i28.preheader ]
  %state.sroa.27.185.i = phi i64 [ %60, %bb6.i28 ], [ %state.sroa.27.0.i, %bb6.i28.preheader ]
  call void @llvm.experimental.noalias.scope.decl(metadata !1614)
  call void @llvm.experimental.noalias.scope.decl(metadata !1615)
  call void @llvm.experimental.noalias.scope.decl(metadata !1616)
  call void @llvm.experimental.noalias.scope.decl(metadata !1617)
  call void @llvm.experimental.noalias.scope.decl(metadata !1618)
  call void @llvm.experimental.noalias.scope.decl(metadata !1619)
  %_3.i.i.i.i29 = load i32, ptr %state.sroa.9.186.i, align 4, !alias.scope !1620, !noalias !1621, !noundef !23
  %_0.i.i31 = icmp slt i32 %_3.i.i.i.i29, %_4.i.i.i.i30
  %53 = getelementptr inbounds i8, ptr %state.sroa.43.187.i, i64 -4
  %dst_base.sroa.0.0.i.i = select i1 %_0.i.i31, ptr %scratch.0, ptr %53
  %dst.i.i = getelementptr inbounds nuw i32, ptr %dst_base.sroa.0.0.i.i, i64 %state.sroa.27.185.i
  store i32 %_3.i.i.i.i29, ptr %dst.i.i, align 4, !alias.scope !1601, !noalias !1622
  %_8.i.i = zext i1 %_0.i.i31 to i64
  %54 = add i64 %state.sroa.27.185.i, %_8.i.i
  %_9.i.i = getelementptr inbounds nuw i8, ptr %state.sroa.9.186.i, i64 4
  %_3.i.i.i25.i = load i32, ptr %_9.i.i, align 4, !alias.scope !1625, !noalias !1632, !noundef !23
  %_0.i27.i = icmp slt i32 %_3.i.i.i25.i, %_4.i.i.i.i30
  %55 = getelementptr inbounds i8, ptr %state.sroa.43.187.i, i64 -8
  %dst_base.sroa.0.0.i29.i = select i1 %_0.i27.i, ptr %scratch.0, ptr %55
  %dst.i31.i = getelementptr inbounds nuw i32, ptr %dst_base.sroa.0.0.i29.i, i64 %54
  store i32 %_3.i.i.i25.i, ptr %dst.i31.i, align 4, !alias.scope !1601, !noalias !1636
  %_8.i33.i = zext i1 %_0.i27.i to i64
  %56 = add i64 %54, %_8.i33.i
  %_9.i34.i = getelementptr inbounds nuw i8, ptr %state.sroa.9.186.i, i64 8
  %_3.i.i.i35.i = load i32, ptr %_9.i34.i, align 4, !alias.scope !1639, !noalias !1646, !noundef !23
  %_0.i37.i = icmp slt i32 %_3.i.i.i35.i, %_4.i.i.i.i30
  %57 = getelementptr inbounds i8, ptr %state.sroa.43.187.i, i64 -12
  %dst_base.sroa.0.0.i39.i = select i1 %_0.i37.i, ptr %scratch.0, ptr %57
  %dst.i41.i = getelementptr inbounds nuw i32, ptr %dst_base.sroa.0.0.i39.i, i64 %56
  store i32 %_3.i.i.i35.i, ptr %dst.i41.i, align 4, !alias.scope !1601, !noalias !1650
  %_8.i43.i = zext i1 %_0.i37.i to i64
  %58 = add i64 %56, %_8.i43.i
  %_9.i44.i = getelementptr inbounds nuw i8, ptr %state.sroa.9.186.i, i64 12
  %_3.i.i.i45.i = load i32, ptr %_9.i44.i, align 4, !alias.scope !1653, !noalias !1660, !noundef !23
  %_0.i47.i = icmp slt i32 %_3.i.i.i45.i, %_4.i.i.i.i30
  %59 = getelementptr inbounds i8, ptr %state.sroa.43.187.i, i64 -16
  %dst_base.sroa.0.0.i49.i = select i1 %_0.i47.i, ptr %scratch.0, ptr %59
  %dst.i51.i = getelementptr inbounds nuw i32, ptr %dst_base.sroa.0.0.i49.i, i64 %58
  store i32 %_3.i.i.i45.i, ptr %dst.i51.i, align 4, !alias.scope !1601, !noalias !1664
  %_8.i53.i = zext i1 %_0.i47.i to i64
  %60 = add i64 %58, %_8.i53.i
  %_9.i54.i = getelementptr inbounds nuw i8, ptr %state.sroa.9.186.i, i64 16
  %_19.i32 = icmp ult ptr %_9.i54.i, %unroll_end.i
  br i1 %_19.i32, label %bb6.i28, label %bb16.i

bb16.i:                                           ; preds = %bb6.i28, %bb3.i26
  %state.sroa.27.1.lcssa.i = phi i64 [ %state.sroa.27.0.i, %bb3.i26 ], [ %60, %bb6.i28 ]
  %state.sroa.9.1.lcssa.i = phi ptr [ %state.sroa.9.0.i, %bb3.i26 ], [ %_9.i54.i, %bb6.i28 ]
  %state.sroa.43.1.lcssa.i = phi ptr [ %state.sroa.43.0.i, %bb3.i26 ], [ %59, %bb6.i28 ]
  %loop_end.i = getelementptr inbounds nuw i32, ptr %v.sroa.0.0.ph140, i64 %pivot_pos.sroa.0.0.i
  %_4790.i = icmp ult ptr %state.sroa.9.1.lcssa.i, %loop_end.i
  br i1 %_4790.i, label %bb18.i.preheader, label %bb21.i

bb18.i.preheader:                                 ; preds = %bb16.i
  %_4.i.i.i56.i = load i32, ptr %src, align 4, !alias.scope !1667, !noalias !1674, !noundef !23
  br label %bb18.i

bb21.i:                                           ; preds = %bb18.i, %bb16.i
  %state.sroa.27.2.lcssa.i = phi i64 [ %state.sroa.27.1.lcssa.i, %bb16.i ], [ %62, %bb18.i ]
  %state.sroa.9.2.lcssa.i = phi ptr [ %state.sroa.9.1.lcssa.i, %bb16.i ], [ %_9.i64.i, %bb18.i ]
  %state.sroa.43.2.lcssa.i = phi ptr [ %state.sroa.43.1.lcssa.i, %bb16.i ], [ %61, %bb18.i ]
  %_55.i27 = icmp eq i64 %pivot_pos.sroa.0.0.i, %v.sroa.16.0132
  br i1 %_55.i27, label %bb22.i, label %bb23.i

bb18.i:                                           ; preds = %bb18.i.preheader, %bb18.i
  %state.sroa.43.293.i = phi ptr [ %61, %bb18.i ], [ %state.sroa.43.1.lcssa.i, %bb18.i.preheader ]
  %state.sroa.9.292.i = phi ptr [ %_9.i64.i, %bb18.i ], [ %state.sroa.9.1.lcssa.i, %bb18.i.preheader ]
  %state.sroa.27.291.i = phi i64 [ %62, %bb18.i ], [ %state.sroa.27.1.lcssa.i, %bb18.i.preheader ]
  call void @llvm.experimental.noalias.scope.decl(metadata !1678)
  call void @llvm.experimental.noalias.scope.decl(metadata !1679)
  call void @llvm.experimental.noalias.scope.decl(metadata !1680)
  call void @llvm.experimental.noalias.scope.decl(metadata !1681)
  call void @llvm.experimental.noalias.scope.decl(metadata !1682)
  call void @llvm.experimental.noalias.scope.decl(metadata !1683)
  %_3.i.i.i55.i = load i32, ptr %state.sroa.9.292.i, align 4, !alias.scope !1684, !noalias !1685, !noundef !23
  %_0.i57.i = icmp slt i32 %_3.i.i.i55.i, %_4.i.i.i56.i
  %61 = getelementptr inbounds i8, ptr %state.sroa.43.293.i, i64 -4
  %dst_base.sroa.0.0.i59.i = select i1 %_0.i57.i, ptr %scratch.0, ptr %61
  %dst.i61.i = getelementptr inbounds nuw i32, ptr %dst_base.sroa.0.0.i59.i, i64 %state.sroa.27.291.i
  store i32 %_3.i.i.i55.i, ptr %dst.i61.i, align 4, !alias.scope !1601, !noalias !1686
  %_8.i63.i = zext i1 %_0.i57.i to i64
  %62 = add i64 %state.sroa.27.291.i, %_8.i63.i
  %_9.i64.i = getelementptr inbounds nuw i8, ptr %state.sroa.9.292.i, i64 4
  %_47.i = icmp ult ptr %_9.i64.i, %loop_end.i
  br i1 %_47.i, label %bb18.i, label %bb21.i

bb23.i:                                           ; preds = %bb21.i
  %63 = getelementptr inbounds i8, ptr %state.sroa.43.2.lcssa.i, i64 -4
  %dst.i68.i = getelementptr inbounds nuw i32, ptr %63, i64 %state.sroa.27.2.lcssa.i
  %64 = load i32, ptr %state.sroa.9.2.lcssa.i, align 4, !alias.scope !1598, !noalias !1689
  store i32 %64, ptr %dst.i68.i, align 4, !alias.scope !1601, !noalias !1692
  %_9.i70.i = getelementptr inbounds nuw i8, ptr %state.sroa.9.2.lcssa.i, i64 4
  br label %bb3.i26

bb22.i:                                           ; preds = %bb21.i
  %65 = shl i64 %state.sroa.27.2.lcssa.i, 2
  call void @llvm.memcpy.p0.p0.i64(ptr nonnull align 4 %v.sroa.0.0.ph140, ptr nonnull align 4 %scratch.0, i64 %65, i1 false), !alias.scope !1693
  %_63.i = sub i64 %v.sroa.16.0132, %state.sroa.27.2.lcssa.i
  %_9797.not.i = icmp eq i64 %v.sroa.16.0132, %state.sroa.27.2.lcssa.i
  br i1 %_9797.not.i, label %bb16, label %bb42.lr.ph.i

bb42.lr.ph.i:                                     ; preds = %bb22.i
  %66 = getelementptr i32, ptr %v.sroa.0.0.ph140, i64 %state.sroa.27.2.lcssa.i
  %min.iters.check265 = icmp ult i64 %_63.i, 8
  br i1 %min.iters.check265, label %bb42.i.preheader, label %vector.ph266

vector.ph266:                                     ; preds = %bb42.lr.ph.i
  %n.vec268 = and i64 %_63.i, -8
  br label %vector.body269

vector.body269:                                   ; preds = %vector.body269, %vector.ph266
  %index270 = phi i64 [ 0, %vector.ph266 ], [ %index.next275, %vector.body269 ]
  %67 = getelementptr i32, ptr %66, i64 %index270
  %68 = xor i64 %index270, -1
  %69 = getelementptr i32, ptr %_86.i, i64 %68
  %70 = getelementptr i8, ptr %69, i64 -12
  %71 = getelementptr i8, ptr %69, i64 -28
  %wide.load271 = load <4 x i32>, ptr %70, align 4, !alias.scope !1601, !noalias !1598
  %reverse272 = shufflevector <4 x i32> %wide.load271, <4 x i32> poison, <4 x i32> <i32 3, i32 2, i32 1, i32 0>
  %wide.load273 = load <4 x i32>, ptr %71, align 4, !alias.scope !1601, !noalias !1598
  %reverse274 = shufflevector <4 x i32> %wide.load273, <4 x i32> poison, <4 x i32> <i32 3, i32 2, i32 1, i32 0>
  %72 = getelementptr i8, ptr %67, i64 16
  store <4 x i32> %reverse272, ptr %67, align 4, !alias.scope !1598, !noalias !1601
  store <4 x i32> %reverse274, ptr %72, align 4, !alias.scope !1598, !noalias !1601
  %index.next275 = add nuw i64 %index270, 8
  %73 = icmp eq i64 %index.next275, %n.vec268
  br i1 %73, label %middle.block276, label %vector.body269, !llvm.loop !1694

middle.block276:                                  ; preds = %vector.body269
  %cmp.n277 = icmp eq i64 %_63.i, %n.vec268
  br i1 %cmp.n277, label %bb16, label %bb42.i.preheader

bb42.i.preheader:                                 ; preds = %bb42.lr.ph.i, %middle.block276
  %iter.sroa.0.098.i.ph = phi i64 [ 0, %bb42.lr.ph.i ], [ %n.vec268, %middle.block276 ]
  br label %bb42.i

bb42.i:                                           ; preds = %bb42.i.preheader, %bb42.i
  %iter.sroa.0.098.i = phi i64 [ %74, %bb42.i ], [ %iter.sroa.0.098.i.ph, %bb42.i.preheader ]
  %74 = add nuw i64 %iter.sroa.0.098.i, 1
  %75 = getelementptr i32, ptr %66, i64 %iter.sroa.0.098.i
  %76 = xor i64 %iter.sroa.0.098.i, -1
  %77 = getelementptr i32, ptr %_86.i, i64 %76
  %78 = load i32, ptr %77, align 4, !alias.scope !1601, !noalias !1598
  store i32 %78, ptr %75, align 4, !alias.scope !1598, !noalias !1601
  %exitcond.not.i = icmp eq i64 %74, %_63.i
  br i1 %exitcond.not.i, label %bb16, label %bb42.i, !llvm.loop !1695

bb16:                                             ; preds = %bb42.i, %middle.block276, %bb22.i
  %79 = icmp eq i64 %state.sroa.27.2.lcssa.i, 0
  br i1 %79, label %bb17, label %bb19

bb19:                                             ; preds = %bb16
  %_6.not.i = icmp ugt i64 %state.sroa.27.2.lcssa.i, %v.sroa.16.0132
  br i1 %_6.not.i, label %bb3.i33, label %"_ZN4core5slice29_$LT$impl$u20$$u5b$T$u5d$$GT$12split_at_mut17h9694744ae55560c1E.exit", !prof !1163

bb3.i33:                                          ; preds = %bb19
; call core::panicking::panic_fmt
  call void @_ZN4core9panicking9panic_fmt17ha4414e4328fe24a0E(ptr noundef nonnull @alloc_d1084648e479974e70c9329824bf76f9, ptr noundef nonnull inttoptr (i64 19 to ptr), ptr noalias noundef nonnull readonly align 8 captures(address, read_provenance) dereferenceable(24) @alloc_58d434a1e795f965ef82c8e9c5db822a) #18, !noalias !1696
  unreachable

"_ZN4core5slice29_$LT$impl$u20$$u5b$T$u5d$$GT$12split_at_mut17h9694744ae55560c1E.exit": ; preds = %bb19
  %80 = getelementptr inbounds nuw i32, ptr %v.sroa.0.0.ph140, i64 %state.sroa.27.2.lcssa.i
; call core::slice::sort::stable::quicksort::quicksort
  call void @_ZN4core5slice4sort6stable9quicksort9quicksort17h586c81f6d2346d32E(ptr noalias noundef nonnull align 4 %80, i64 noundef %_63.i, ptr noalias noundef nonnull align 4 %scratch.0, i64 noundef %scratch.1, i32 noundef %48, ptr noalias noundef nonnull readonly align 4 captures(address, read_provenance) dereferenceable_or_null(4) %pivot_copy, ptr noalias noundef nonnull align 8 dereferenceable(8) %is_less) #21
  call void @llvm.lifetime.end.p0(i64 4, ptr nonnull %pivot_copy)
  %_8 = icmp ult i64 %state.sroa.27.2.lcssa.i, 33
  br i1 %_8, label %bb3, label %bb5

bb17:                                             ; preds = %bb12, %bb16
  call void @llvm.experimental.noalias.scope.decl(metadata !1700)
  call void @llvm.experimental.noalias.scope.decl(metadata !1703)
  %_8.i34.not = icmp samesign ult i64 %scratch.1, %v.sroa.16.0132
  br i1 %_8.i34.not, label %bb31.i37, label %bb33.i38, !prof !363

bb33.i38:                                         ; preds = %bb17
  %_86.i40 = getelementptr i32, ptr %scratch.0, i64 %v.sroa.16.0132
  br label %bb3.i41

bb31.i37:                                         ; preds = %bb17
  call void @llvm.trap()
  unreachable

bb3.i41:                                          ; preds = %bb23.i59, %bb33.i38
  %state.sroa.27.0.i42 = phi i64 [ 0, %bb33.i38 ], [ %94, %bb23.i59 ]
  %state.sroa.9.0.i43 = phi ptr [ %v.sroa.0.0.ph140, %bb33.i38 ], [ %_9.i70.i61, %bb23.i59 ]
  %state.sroa.43.0.i44 = phi ptr [ %_86.i40, %bb33.i38 ], [ %92, %bb23.i59 ]
  %pivot_pos.sroa.0.0.i45 = phi i64 [ %index.sroa.0.0.i, %bb33.i38 ], [ %v.sroa.16.0132, %bb23.i59 ]
  %81 = call i64 @llvm.usub.sat.i64(i64 %pivot_pos.sroa.0.0.i45, i64 3)
  %unroll_end.i46 = getelementptr inbounds nuw i32, ptr %v.sroa.0.0.ph140, i64 %81
  %_1984.i47 = icmp ult ptr %state.sroa.9.0.i43, %unroll_end.i46
  br i1 %_1984.i47, label %bb6.i78.preheader, label %bb16.i48

bb6.i78.preheader:                                ; preds = %bb3.i41
  %_3.i.i.i.i.i82 = load i32, ptr %src, align 4, !alias.scope !1705, !noalias !1714, !noundef !23
  br label %bb6.i78

bb6.i78:                                          ; preds = %bb6.i78.preheader, %bb6.i78
  %state.sroa.43.187.i79 = phi ptr [ %88, %bb6.i78 ], [ %state.sroa.43.0.i44, %bb6.i78.preheader ]
  %state.sroa.9.186.i80 = phi ptr [ %_9.i54.i100, %bb6.i78 ], [ %state.sroa.9.0.i43, %bb6.i78.preheader ]
  %state.sroa.27.185.i81 = phi i64 [ %89, %bb6.i78 ], [ %state.sroa.27.0.i42, %bb6.i78.preheader ]
  call void @llvm.experimental.noalias.scope.decl(metadata !1719)
  call void @llvm.experimental.noalias.scope.decl(metadata !1720)
  call void @llvm.experimental.noalias.scope.decl(metadata !1721)
  call void @llvm.experimental.noalias.scope.decl(metadata !1722)
  call void @llvm.experimental.noalias.scope.decl(metadata !1723)
  call void @llvm.experimental.noalias.scope.decl(metadata !1724)
  call void @llvm.experimental.noalias.scope.decl(metadata !1725)
  call void @llvm.experimental.noalias.scope.decl(metadata !1726)
  %_4.i.i.i.i.i83 = load i32, ptr %state.sroa.9.186.i80, align 4, !alias.scope !1727, !noalias !1728, !noundef !23
  %_0.i.i.i84 = icmp sge i32 %_3.i.i.i.i.i82, %_4.i.i.i.i.i83
  %82 = getelementptr inbounds i8, ptr %state.sroa.43.187.i79, i64 -4
  %dst_base.sroa.0.0.i.i85 = select i1 %_0.i.i.i84, ptr %scratch.0, ptr %82
  %dst.i.i86 = getelementptr inbounds nuw i32, ptr %dst_base.sroa.0.0.i.i85, i64 %state.sroa.27.185.i81
  store i32 %_4.i.i.i.i.i83, ptr %dst.i.i86, align 4, !alias.scope !1703, !noalias !1729
  %_8.i.i87 = zext i1 %_0.i.i.i84 to i64
  %83 = add i64 %state.sroa.27.185.i81, %_8.i.i87
  %_9.i.i88 = getelementptr inbounds nuw i8, ptr %state.sroa.9.186.i80, i64 4
  %_4.i.i.i.i26.i = load i32, ptr %_9.i.i88, align 4, !alias.scope !1732, !noalias !1741, !noundef !23
  %_0.i.i27.i = icmp sge i32 %_3.i.i.i.i.i82, %_4.i.i.i.i26.i
  %84 = getelementptr inbounds i8, ptr %state.sroa.43.187.i79, i64 -8
  %dst_base.sroa.0.0.i29.i89 = select i1 %_0.i.i27.i, ptr %scratch.0, ptr %84
  %dst.i31.i90 = getelementptr inbounds nuw i32, ptr %dst_base.sroa.0.0.i29.i89, i64 %83
  store i32 %_4.i.i.i.i26.i, ptr %dst.i31.i90, align 4, !alias.scope !1703, !noalias !1746
  %_8.i33.i91 = zext i1 %_0.i.i27.i to i64
  %85 = add i64 %83, %_8.i33.i91
  %_9.i34.i92 = getelementptr inbounds nuw i8, ptr %state.sroa.9.186.i80, i64 8
  %_4.i.i.i.i36.i = load i32, ptr %_9.i34.i92, align 4, !alias.scope !1749, !noalias !1758, !noundef !23
  %_0.i.i37.i = icmp sge i32 %_3.i.i.i.i.i82, %_4.i.i.i.i36.i
  %86 = getelementptr inbounds i8, ptr %state.sroa.43.187.i79, i64 -12
  %dst_base.sroa.0.0.i39.i93 = select i1 %_0.i.i37.i, ptr %scratch.0, ptr %86
  %dst.i41.i94 = getelementptr inbounds nuw i32, ptr %dst_base.sroa.0.0.i39.i93, i64 %85
  store i32 %_4.i.i.i.i36.i, ptr %dst.i41.i94, align 4, !alias.scope !1703, !noalias !1763
  %_8.i43.i95 = zext i1 %_0.i.i37.i to i64
  %87 = add i64 %85, %_8.i43.i95
  %_9.i44.i96 = getelementptr inbounds nuw i8, ptr %state.sroa.9.186.i80, i64 12
  %_4.i.i.i.i46.i = load i32, ptr %_9.i44.i96, align 4, !alias.scope !1766, !noalias !1775, !noundef !23
  %_0.i.i47.i = icmp sge i32 %_3.i.i.i.i.i82, %_4.i.i.i.i46.i
  %88 = getelementptr inbounds i8, ptr %state.sroa.43.187.i79, i64 -16
  %dst_base.sroa.0.0.i49.i97 = select i1 %_0.i.i47.i, ptr %scratch.0, ptr %88
  %dst.i51.i98 = getelementptr inbounds nuw i32, ptr %dst_base.sroa.0.0.i49.i97, i64 %87
  store i32 %_4.i.i.i.i46.i, ptr %dst.i51.i98, align 4, !alias.scope !1703, !noalias !1780
  %_8.i53.i99 = zext i1 %_0.i.i47.i to i64
  %89 = add i64 %87, %_8.i53.i99
  %_9.i54.i100 = getelementptr inbounds nuw i8, ptr %state.sroa.9.186.i80, i64 16
  %_19.i101 = icmp ult ptr %_9.i54.i100, %unroll_end.i46
  br i1 %_19.i101, label %bb6.i78, label %bb16.i48

bb16.i48:                                         ; preds = %bb6.i78, %bb3.i41
  %state.sroa.27.1.lcssa.i49 = phi i64 [ %state.sroa.27.0.i42, %bb3.i41 ], [ %89, %bb6.i78 ]
  %state.sroa.9.1.lcssa.i50 = phi ptr [ %state.sroa.9.0.i43, %bb3.i41 ], [ %_9.i54.i100, %bb6.i78 ]
  %state.sroa.43.1.lcssa.i51 = phi ptr [ %state.sroa.43.0.i44, %bb3.i41 ], [ %88, %bb6.i78 ]
  %loop_end.i52 = getelementptr inbounds nuw i32, ptr %v.sroa.0.0.ph140, i64 %pivot_pos.sroa.0.0.i45
  %_4790.i53 = icmp ult ptr %state.sroa.9.1.lcssa.i50, %loop_end.i52
  br i1 %_4790.i53, label %bb18.i69.preheader, label %bb21.i54

bb18.i69.preheader:                               ; preds = %bb16.i48
  %_3.i.i.i.i55.i = load i32, ptr %src, align 4, !alias.scope !1783, !noalias !1792, !noundef !23
  br label %bb18.i69

bb21.i54:                                         ; preds = %bb18.i69, %bb16.i48
  %state.sroa.27.2.lcssa.i55 = phi i64 [ %state.sroa.27.1.lcssa.i49, %bb16.i48 ], [ %91, %bb18.i69 ]
  %state.sroa.9.2.lcssa.i56 = phi ptr [ %state.sroa.9.1.lcssa.i50, %bb16.i48 ], [ %_9.i64.i76, %bb18.i69 ]
  %state.sroa.43.2.lcssa.i57 = phi ptr [ %state.sroa.43.1.lcssa.i51, %bb16.i48 ], [ %90, %bb18.i69 ]
  %_55.i58 = icmp eq i64 %pivot_pos.sroa.0.0.i45, %v.sroa.16.0132
  br i1 %_55.i58, label %bb22.i62, label %bb23.i59

bb18.i69:                                         ; preds = %bb18.i69.preheader, %bb18.i69
  %state.sroa.43.293.i70 = phi ptr [ %90, %bb18.i69 ], [ %state.sroa.43.1.lcssa.i51, %bb18.i69.preheader ]
  %state.sroa.9.292.i71 = phi ptr [ %_9.i64.i76, %bb18.i69 ], [ %state.sroa.9.1.lcssa.i50, %bb18.i69.preheader ]
  %state.sroa.27.291.i72 = phi i64 [ %91, %bb18.i69 ], [ %state.sroa.27.1.lcssa.i49, %bb18.i69.preheader ]
  call void @llvm.experimental.noalias.scope.decl(metadata !1797)
  call void @llvm.experimental.noalias.scope.decl(metadata !1798)
  call void @llvm.experimental.noalias.scope.decl(metadata !1799)
  call void @llvm.experimental.noalias.scope.decl(metadata !1800)
  call void @llvm.experimental.noalias.scope.decl(metadata !1801)
  call void @llvm.experimental.noalias.scope.decl(metadata !1802)
  call void @llvm.experimental.noalias.scope.decl(metadata !1803)
  call void @llvm.experimental.noalias.scope.decl(metadata !1804)
  %_4.i.i.i.i56.i = load i32, ptr %state.sroa.9.292.i71, align 4, !alias.scope !1805, !noalias !1806, !noundef !23
  %_0.i.i57.i = icmp sge i32 %_3.i.i.i.i55.i, %_4.i.i.i.i56.i
  %90 = getelementptr inbounds i8, ptr %state.sroa.43.293.i70, i64 -4
  %dst_base.sroa.0.0.i59.i73 = select i1 %_0.i.i57.i, ptr %scratch.0, ptr %90
  %dst.i61.i74 = getelementptr inbounds nuw i32, ptr %dst_base.sroa.0.0.i59.i73, i64 %state.sroa.27.291.i72
  store i32 %_4.i.i.i.i56.i, ptr %dst.i61.i74, align 4, !alias.scope !1703, !noalias !1807
  %_8.i63.i75 = zext i1 %_0.i.i57.i to i64
  %91 = add i64 %state.sroa.27.291.i72, %_8.i63.i75
  %_9.i64.i76 = getelementptr inbounds nuw i8, ptr %state.sroa.9.292.i71, i64 4
  %_47.i77 = icmp ult ptr %_9.i64.i76, %loop_end.i52
  br i1 %_47.i77, label %bb18.i69, label %bb21.i54

bb23.i59:                                         ; preds = %bb21.i54
  %92 = getelementptr inbounds i8, ptr %state.sroa.43.2.lcssa.i57, i64 -4
  %dst.i68.i60 = getelementptr inbounds nuw i32, ptr %scratch.0, i64 %state.sroa.27.2.lcssa.i55
  %93 = load i32, ptr %state.sroa.9.2.lcssa.i56, align 4, !alias.scope !1700, !noalias !1810
  store i32 %93, ptr %dst.i68.i60, align 4, !alias.scope !1703, !noalias !1813
  %94 = add i64 %state.sroa.27.2.lcssa.i55, 1
  %_9.i70.i61 = getelementptr inbounds nuw i8, ptr %state.sroa.9.2.lcssa.i56, i64 4
  br label %bb3.i41

bb22.i62:                                         ; preds = %bb21.i54
  %95 = shl i64 %state.sroa.27.2.lcssa.i55, 2
  call void @llvm.memcpy.p0.p0.i64(ptr nonnull align 4 %v.sroa.0.0.ph140, ptr nonnull align 4 %scratch.0, i64 %95, i1 false), !alias.scope !1814
  %_63.i63 = sub i64 %v.sroa.16.0132, %state.sroa.27.2.lcssa.i55
  %_9797.not.i64 = icmp eq i64 %v.sroa.16.0132, %state.sroa.27.2.lcssa.i55
  br i1 %_9797.not.i64, label %bb3.thread, label %bb42.lr.ph.i65

bb42.lr.ph.i65:                                   ; preds = %bb22.i62
  %96 = getelementptr i32, ptr %v.sroa.0.0.ph140, i64 %state.sroa.27.2.lcssa.i55
  %min.iters.check = icmp ult i64 %_63.i63, 8
  br i1 %min.iters.check, label %bb42.i66.preheader, label %vector.ph

vector.ph:                                        ; preds = %bb42.lr.ph.i65
  %n.vec = and i64 %_63.i63, -8
  br label %vector.body

vector.body:                                      ; preds = %vector.body, %vector.ph
  %index = phi i64 [ 0, %vector.ph ], [ %index.next, %vector.body ]
  %97 = getelementptr i32, ptr %96, i64 %index
  %98 = xor i64 %index, -1
  %99 = getelementptr i32, ptr %_86.i40, i64 %98
  %100 = getelementptr i8, ptr %99, i64 -12
  %101 = getelementptr i8, ptr %99, i64 -28
  %wide.load = load <4 x i32>, ptr %100, align 4, !alias.scope !1703, !noalias !1700
  %reverse = shufflevector <4 x i32> %wide.load, <4 x i32> poison, <4 x i32> <i32 3, i32 2, i32 1, i32 0>
  %wide.load262 = load <4 x i32>, ptr %101, align 4, !alias.scope !1703, !noalias !1700
  %reverse263 = shufflevector <4 x i32> %wide.load262, <4 x i32> poison, <4 x i32> <i32 3, i32 2, i32 1, i32 0>
  %102 = getelementptr i8, ptr %97, i64 16
  store <4 x i32> %reverse, ptr %97, align 4, !alias.scope !1700, !noalias !1703
  store <4 x i32> %reverse263, ptr %102, align 4, !alias.scope !1700, !noalias !1703
  %index.next = add nuw i64 %index, 8
  %103 = icmp eq i64 %index.next, %n.vec
  br i1 %103, label %middle.block, label %vector.body, !llvm.loop !1815

middle.block:                                     ; preds = %vector.body
  %cmp.n = icmp eq i64 %_63.i63, %n.vec
  br i1 %cmp.n, label %_ZN4core5slice4sort6stable9quicksort16stable_partition17hbc0030d22bf60613E.exit, label %bb42.i66.preheader

bb42.i66.preheader:                               ; preds = %bb42.lr.ph.i65, %middle.block
  %iter.sroa.0.098.i67.ph = phi i64 [ 0, %bb42.lr.ph.i65 ], [ %n.vec, %middle.block ]
  br label %bb42.i66

bb42.i66:                                         ; preds = %bb42.i66.preheader, %bb42.i66
  %iter.sroa.0.098.i67 = phi i64 [ %104, %bb42.i66 ], [ %iter.sroa.0.098.i67.ph, %bb42.i66.preheader ]
  %104 = add nuw i64 %iter.sroa.0.098.i67, 1
  %105 = getelementptr i32, ptr %96, i64 %iter.sroa.0.098.i67
  %106 = xor i64 %iter.sroa.0.098.i67, -1
  %107 = getelementptr i32, ptr %_86.i40, i64 %106
  %108 = load i32, ptr %107, align 4, !alias.scope !1703, !noalias !1700
  store i32 %108, ptr %105, align 4, !alias.scope !1700, !noalias !1703
  %exitcond.not.i68 = icmp eq i64 %104, %_63.i63
  br i1 %exitcond.not.i68, label %_ZN4core5slice4sort6stable9quicksort16stable_partition17hbc0030d22bf60613E.exit, label %bb42.i66, !llvm.loop !1816

_ZN4core5slice4sort6stable9quicksort16stable_partition17hbc0030d22bf60613E.exit: ; preds = %bb42.i66, %middle.block
  %_47 = icmp ugt i64 %state.sroa.27.2.lcssa.i55, %v.sroa.16.0132
  br i1 %_47, label %bb27, label %bb28, !prof !1163

bb3.thread:                                       ; preds = %bb22.i62
  call void @llvm.lifetime.end.p0(i64 4, ptr nonnull %pivot_copy)
  br label %bb22

bb28:                                             ; preds = %_ZN4core5slice4sort6stable9quicksort16stable_partition17hbc0030d22bf60613E.exit
  %_54 = getelementptr inbounds nuw i32, ptr %v.sroa.0.0.ph140, i64 %state.sroa.27.2.lcssa.i55
  call void @llvm.lifetime.end.p0(i64 4, ptr nonnull %pivot_copy)
  %_8130 = icmp ult i64 %_63.i63, 33
  br i1 %_8130, label %bb3, label %bb5.lr.ph

bb27:                                             ; preds = %_ZN4core5slice4sort6stable9quicksort16stable_partition17hbc0030d22bf60613E.exit
; call core::slice::index::slice_index_fail
  call void @_ZN4core5slice5index16slice_index_fail17h62807bcaa490c9c1E(i64 noundef %state.sroa.27.2.lcssa.i55, i64 noundef %v.sroa.16.0132, i64 noundef %v.sroa.16.0132, ptr noalias noundef readonly align 8 captures(address, read_provenance) dereferenceable(24) @alloc_0766b232215672ee1bd2195fdb153938) #18
  unreachable

bb22:                                             ; preds = %bb3.thread, %bb9.i.i, %bb3, %bb6
  ret void
}

; Function Attrs: mustprogress nofree norecurse nosync nounwind nonlazybind willreturn memory(argmem: read) uwtable
define noundef range(i8 -1, 2) i8 @cmpfunc(ptr noalias noundef readonly align 4 captures(none) dereferenceable(4) %a, ptr noalias noundef readonly align 4 captures(none) dereferenceable(4) %b) unnamed_addr #3 {
start:
  %_3 = load i32, ptr %a, align 4, !noundef !23
  %_4 = load i32, ptr %b, align 4, !noundef !23
  %_0 = tail call i8 @llvm.scmp.i8.i32(i32 %_3, i32 %_4)
  ret i8 %_0
}

; Function Attrs: nonlazybind uwtable
define noundef i32 @f_gold(ptr noalias noundef nonnull align 4 %a.0, i64 noundef range(i64 0, 2305843009213693952) %a.1, i32 noundef %n) unnamed_addr #1 personality ptr @rust_eh_personality {
start:
  %compare.i = alloca [0 x i8], align 1
  %is_less.i.i = alloca [8 x i8], align 8
  tail call void @llvm.experimental.noalias.scope.decl(metadata !1817)
  call void @llvm.lifetime.start.p0(i64 0, ptr nonnull %compare.i)
  tail call void @llvm.experimental.noalias.scope.decl(metadata !1820)
  call void @llvm.lifetime.start.p0(i64 8, ptr nonnull %is_less.i.i), !noalias !1817
  store ptr %compare.i, ptr %is_less.i.i, align 8, !noalias !1823
  %b.i.i = icmp samesign ult i64 %a.1, 2
  br i1 %b.i.i, label %"_ZN5alloc5slice29_$LT$impl$u20$$u5b$T$u5d$$GT$7sort_by17h6a0164226d671befE.exit", label %bb7.i.i, !prof !1825

bb7.i.i:                                          ; preds = %start
  %b1.i.i = icmp samesign ult i64 %a.1, 21
  br i1 %b1.i.i, label %bb9.i.i, label %bb10.i.i, !prof !1825

bb10.i.i:                                         ; preds = %bb7.i.i
; call core::slice::sort::stable::driftsort_main
  call void @_ZN4core5slice4sort6stable14driftsort_main17h8afcbd005fc7584aE(ptr noalias noundef nonnull align 4 %a.0, i64 noundef range(i64 0, 2305843009213693952) %a.1, ptr noalias noundef nonnull align 8 dereferenceable(8) %is_less.i.i)
  br label %"_ZN5alloc5slice29_$LT$impl$u20$$u5b$T$u5d$$GT$7sort_by17h6a0164226d671befE.exit"

bb9.i.i:                                          ; preds = %bb7.i.i
  %v_end.idx.i.i.i = shl nuw nsw i64 %a.1, 2
  %v_end.i.i.i = getelementptr inbounds nuw i8, ptr %a.0, i64 %v_end.idx.i.i.i
  %tail.sroa.0.01.i.i.i = getelementptr inbounds nuw i8, ptr %a.0, i64 4
  %0 = and i64 %a.1, 1
  %lcmp.mod.not.not = icmp eq i64 %0, 0
  br i1 %lcmp.mod.not.not, label %bb5.i.i.i.prol, label %bb5.i.i.i.prol.loopexit

bb5.i.i.i.prol:                                   ; preds = %bb9.i.i
  call void @llvm.experimental.noalias.scope.decl(metadata !1826)
  call void @llvm.experimental.noalias.scope.decl(metadata !1829)
  call void @llvm.experimental.noalias.scope.decl(metadata !1831)
  call void @llvm.experimental.noalias.scope.decl(metadata !1834)
  %_4.i.i.i.i.i.i.prol = load i32, ptr %tail.sroa.0.01.i.i.i, align 4, !alias.scope !1836, !noalias !1839, !noundef !23
  %_5.i.i.i.i.i.i.prol = load i32, ptr %a.0, align 4, !alias.scope !1840, !noalias !1841, !noundef !23
  %_0.i.i.i.i.i.prol = icmp slt i32 %_4.i.i.i.i.i.i.prol, %_5.i.i.i.i.i.i.prol
  br i1 %_0.i.i.i.i.i.prol, label %bb4.i.i.i.i.prol, label %_ZN4core5slice4sort6shared9smallsort11insert_tail17h9a9d1a8f92f0b1ccE.exit.i.i.i.prol

bb4.i.i.i.i.prol:                                 ; preds = %bb5.i.i.i.prol, %bb7.i.i.i.i.prol
  %1 = phi i32 [ %_5.i.i2.i.i.i.i.prol, %bb7.i.i.i.i.prol ], [ %_5.i.i.i.i.i.i.prol, %bb5.i.i.i.prol ]
  %gap_guard.sroa.5.0.i.i.i.i.prol = phi ptr [ %sift.sroa.0.0.i.i.i.i.prol, %bb7.i.i.i.i.prol ], [ %tail.sroa.0.01.i.i.i, %bb5.i.i.i.prol ]
  %sift.sroa.0.0.i.i.i.i.prol = phi ptr [ %2, %bb7.i.i.i.i.prol ], [ %a.0, %bb5.i.i.i.prol ]
  store i32 %1, ptr %gap_guard.sroa.5.0.i.i.i.i.prol, align 4, !alias.scope !1842, !noalias !1843
  %_18.i.i.i.i.prol = icmp eq ptr %sift.sroa.0.0.i.i.i.i.prol, %a.0
  br i1 %_18.i.i.i.i.prol, label %bb10.i.i.i.i.prol, label %bb7.i.i.i.i.prol

bb7.i.i.i.i.prol:                                 ; preds = %bb4.i.i.i.i.prol
  %2 = getelementptr inbounds i8, ptr %sift.sroa.0.0.i.i.i.i.prol, i64 -4
  %_5.i.i2.i.i.i.i.prol = load i32, ptr %2, align 4, !alias.scope !1844, !noalias !1849, !noundef !23
  %_0.i3.i.i.i.i.prol = icmp slt i32 %_4.i.i.i.i.i.i.prol, %_5.i.i2.i.i.i.i.prol
  br i1 %_0.i3.i.i.i.i.prol, label %bb4.i.i.i.i.prol, label %bb10.i.i.i.i.prol

bb10.i.i.i.i.prol:                                ; preds = %bb7.i.i.i.i.prol, %bb4.i.i.i.i.prol
  %sift.sroa.0.0.i.lcssa.i.i.i.prol = phi ptr [ %sift.sroa.0.0.i.i.i.i.prol, %bb7.i.i.i.i.prol ], [ %a.0, %bb4.i.i.i.i.prol ]
  store i32 %_4.i.i.i.i.i.i.prol, ptr %sift.sroa.0.0.i.lcssa.i.i.i.prol, align 4, !alias.scope !1842, !noalias !1852
  br label %_ZN4core5slice4sort6shared9smallsort11insert_tail17h9a9d1a8f92f0b1ccE.exit.i.i.i.prol

_ZN4core5slice4sort6shared9smallsort11insert_tail17h9a9d1a8f92f0b1ccE.exit.i.i.i.prol: ; preds = %bb10.i.i.i.i.prol, %bb5.i.i.i.prol
  %tail.sroa.0.0.i.i.i.prol = getelementptr inbounds nuw i8, ptr %a.0, i64 8
  br label %bb5.i.i.i.prol.loopexit

bb5.i.i.i.prol.loopexit:                          ; preds = %_ZN4core5slice4sort6shared9smallsort11insert_tail17h9a9d1a8f92f0b1ccE.exit.i.i.i.prol, %bb9.i.i
  %tail.sroa.0.04.i.i.i.unr = phi ptr [ %tail.sroa.0.01.i.i.i, %bb9.i.i ], [ %tail.sroa.0.0.i.i.i.prol, %_ZN4core5slice4sort6shared9smallsort11insert_tail17h9a9d1a8f92f0b1ccE.exit.i.i.i.prol ]
  %v.0.pn3.i.i.i.unr = phi ptr [ %a.0, %bb9.i.i ], [ %tail.sroa.0.01.i.i.i, %_ZN4core5slice4sort6shared9smallsort11insert_tail17h9a9d1a8f92f0b1ccE.exit.i.i.i.prol ]
  %3 = icmp eq i64 %a.1, 2
  br i1 %3, label %"_ZN5alloc5slice29_$LT$impl$u20$$u5b$T$u5d$$GT$7sort_by17h6a0164226d671befE.exit", label %bb5.i.i.i

bb5.i.i.i:                                        ; preds = %bb5.i.i.i.prol.loopexit, %_ZN4core5slice4sort6shared9smallsort11insert_tail17h9a9d1a8f92f0b1ccE.exit.i.i.i.1
  %tail.sroa.0.04.i.i.i = phi ptr [ %tail.sroa.0.0.i.i.i.1, %_ZN4core5slice4sort6shared9smallsort11insert_tail17h9a9d1a8f92f0b1ccE.exit.i.i.i.1 ], [ %tail.sroa.0.04.i.i.i.unr, %bb5.i.i.i.prol.loopexit ]
  %v.0.pn3.i.i.i = phi ptr [ %tail.sroa.0.0.i.i.i, %_ZN4core5slice4sort6shared9smallsort11insert_tail17h9a9d1a8f92f0b1ccE.exit.i.i.i.1 ], [ %v.0.pn3.i.i.i.unr, %bb5.i.i.i.prol.loopexit ]
  call void @llvm.experimental.noalias.scope.decl(metadata !1826)
  call void @llvm.experimental.noalias.scope.decl(metadata !1829)
  call void @llvm.experimental.noalias.scope.decl(metadata !1831)
  call void @llvm.experimental.noalias.scope.decl(metadata !1834)
  %_4.i.i.i.i.i.i = load i32, ptr %tail.sroa.0.04.i.i.i, align 4, !alias.scope !1836, !noalias !1839, !noundef !23
  %_5.i.i.i.i.i.i = load i32, ptr %v.0.pn3.i.i.i, align 4, !alias.scope !1840, !noalias !1841, !noundef !23
  %_0.i.i.i.i.i = icmp slt i32 %_4.i.i.i.i.i.i, %_5.i.i.i.i.i.i
  br i1 %_0.i.i.i.i.i, label %bb4.i.i.i.i, label %_ZN4core5slice4sort6shared9smallsort11insert_tail17h9a9d1a8f92f0b1ccE.exit.i.i.i

bb4.i.i.i.i:                                      ; preds = %bb5.i.i.i, %bb7.i.i.i.i
  %4 = phi i32 [ %_5.i.i2.i.i.i.i, %bb7.i.i.i.i ], [ %_5.i.i.i.i.i.i, %bb5.i.i.i ]
  %gap_guard.sroa.5.0.i.i.i.i = phi ptr [ %sift.sroa.0.0.i.i.i.i, %bb7.i.i.i.i ], [ %tail.sroa.0.04.i.i.i, %bb5.i.i.i ]
  %sift.sroa.0.0.i.i.i.i = phi ptr [ %5, %bb7.i.i.i.i ], [ %v.0.pn3.i.i.i, %bb5.i.i.i ]
  store i32 %4, ptr %gap_guard.sroa.5.0.i.i.i.i, align 4, !alias.scope !1842, !noalias !1843
  %_18.i.i.i.i = icmp eq ptr %sift.sroa.0.0.i.i.i.i, %a.0
  br i1 %_18.i.i.i.i, label %bb10.i.i.i.i, label %bb7.i.i.i.i

bb7.i.i.i.i:                                      ; preds = %bb4.i.i.i.i
  %5 = getelementptr inbounds i8, ptr %sift.sroa.0.0.i.i.i.i, i64 -4
  %_5.i.i2.i.i.i.i = load i32, ptr %5, align 4, !alias.scope !1844, !noalias !1849, !noundef !23
  %_0.i3.i.i.i.i = icmp slt i32 %_4.i.i.i.i.i.i, %_5.i.i2.i.i.i.i
  br i1 %_0.i3.i.i.i.i, label %bb4.i.i.i.i, label %bb10.i.i.i.i

bb10.i.i.i.i:                                     ; preds = %bb7.i.i.i.i, %bb4.i.i.i.i
  %sift.sroa.0.0.i.lcssa.i.i.i = phi ptr [ %sift.sroa.0.0.i.i.i.i, %bb7.i.i.i.i ], [ %a.0, %bb4.i.i.i.i ]
  store i32 %_4.i.i.i.i.i.i, ptr %sift.sroa.0.0.i.lcssa.i.i.i, align 4, !alias.scope !1842, !noalias !1852
  br label %_ZN4core5slice4sort6shared9smallsort11insert_tail17h9a9d1a8f92f0b1ccE.exit.i.i.i

_ZN4core5slice4sort6shared9smallsort11insert_tail17h9a9d1a8f92f0b1ccE.exit.i.i.i: ; preds = %bb10.i.i.i.i, %bb5.i.i.i
  %tail.sroa.0.0.i.i.i = getelementptr inbounds nuw i8, ptr %tail.sroa.0.04.i.i.i, i64 4
  call void @llvm.experimental.noalias.scope.decl(metadata !1857)
  call void @llvm.experimental.noalias.scope.decl(metadata !1859)
  call void @llvm.experimental.noalias.scope.decl(metadata !1861)
  call void @llvm.experimental.noalias.scope.decl(metadata !1863)
  %_4.i.i.i.i.i.i.1 = load i32, ptr %tail.sroa.0.0.i.i.i, align 4, !alias.scope !1865, !noalias !1866, !noundef !23
  %_5.i.i.i.i.i.i.1 = load i32, ptr %tail.sroa.0.04.i.i.i, align 4, !alias.scope !1867, !noalias !1868, !noundef !23
  %_0.i.i.i.i.i.1 = icmp slt i32 %_4.i.i.i.i.i.i.1, %_5.i.i.i.i.i.i.1
  br i1 %_0.i.i.i.i.i.1, label %bb4.i.i.i.i.1, label %_ZN4core5slice4sort6shared9smallsort11insert_tail17h9a9d1a8f92f0b1ccE.exit.i.i.i.1

bb4.i.i.i.i.1:                                    ; preds = %_ZN4core5slice4sort6shared9smallsort11insert_tail17h9a9d1a8f92f0b1ccE.exit.i.i.i, %bb7.i.i.i.i.1
  %6 = phi i32 [ %_5.i.i2.i.i.i.i.1, %bb7.i.i.i.i.1 ], [ %_5.i.i.i.i.i.i.1, %_ZN4core5slice4sort6shared9smallsort11insert_tail17h9a9d1a8f92f0b1ccE.exit.i.i.i ]
  %gap_guard.sroa.5.0.i.i.i.i.1 = phi ptr [ %sift.sroa.0.0.i.i.i.i.1, %bb7.i.i.i.i.1 ], [ %tail.sroa.0.0.i.i.i, %_ZN4core5slice4sort6shared9smallsort11insert_tail17h9a9d1a8f92f0b1ccE.exit.i.i.i ]
  %sift.sroa.0.0.i.i.i.i.1 = phi ptr [ %7, %bb7.i.i.i.i.1 ], [ %tail.sroa.0.04.i.i.i, %_ZN4core5slice4sort6shared9smallsort11insert_tail17h9a9d1a8f92f0b1ccE.exit.i.i.i ]
  store i32 %6, ptr %gap_guard.sroa.5.0.i.i.i.i.1, align 4, !alias.scope !1842, !noalias !1843
  %_18.i.i.i.i.1 = icmp eq ptr %sift.sroa.0.0.i.i.i.i.1, %a.0
  br i1 %_18.i.i.i.i.1, label %bb10.i.i.i.i.1, label %bb7.i.i.i.i.1

bb7.i.i.i.i.1:                                    ; preds = %bb4.i.i.i.i.1
  %7 = getelementptr inbounds i8, ptr %sift.sroa.0.0.i.i.i.i.1, i64 -4
  %_5.i.i2.i.i.i.i.1 = load i32, ptr %7, align 4, !alias.scope !1844, !noalias !1849, !noundef !23
  %_0.i3.i.i.i.i.1 = icmp slt i32 %_4.i.i.i.i.i.i.1, %_5.i.i2.i.i.i.i.1
  br i1 %_0.i3.i.i.i.i.1, label %bb4.i.i.i.i.1, label %bb10.i.i.i.i.1

bb10.i.i.i.i.1:                                   ; preds = %bb7.i.i.i.i.1, %bb4.i.i.i.i.1
  %sift.sroa.0.0.i.lcssa.i.i.i.1 = phi ptr [ %sift.sroa.0.0.i.i.i.i.1, %bb7.i.i.i.i.1 ], [ %a.0, %bb4.i.i.i.i.1 ]
  store i32 %_4.i.i.i.i.i.i.1, ptr %sift.sroa.0.0.i.lcssa.i.i.i.1, align 4, !alias.scope !1842, !noalias !1852
  br label %_ZN4core5slice4sort6shared9smallsort11insert_tail17h9a9d1a8f92f0b1ccE.exit.i.i.i.1

_ZN4core5slice4sort6shared9smallsort11insert_tail17h9a9d1a8f92f0b1ccE.exit.i.i.i.1: ; preds = %bb10.i.i.i.i.1, %_ZN4core5slice4sort6shared9smallsort11insert_tail17h9a9d1a8f92f0b1ccE.exit.i.i.i
  %tail.sroa.0.0.i.i.i.1 = getelementptr inbounds nuw i8, ptr %tail.sroa.0.04.i.i.i, i64 8
  %_11.not.i.i.i.1 = icmp eq ptr %tail.sroa.0.0.i.i.i.1, %v_end.i.i.i
  br i1 %_11.not.i.i.i.1, label %"_ZN5alloc5slice29_$LT$impl$u20$$u5b$T$u5d$$GT$7sort_by17h6a0164226d671befE.exit", label %bb5.i.i.i

"_ZN5alloc5slice29_$LT$impl$u20$$u5b$T$u5d$$GT$7sort_by17h6a0164226d671befE.exit": ; preds = %bb5.i.i.i.prol.loopexit, %_ZN4core5slice4sort6shared9smallsort11insert_tail17h9a9d1a8f92f0b1ccE.exit.i.i.i.1, %start, %bb10.i.i
  call void @llvm.lifetime.end.p0(i64 8, ptr nonnull %is_less.i.i), !noalias !1817
  call void @llvm.lifetime.end.p0(i64 0, ptr nonnull %compare.i)
  %_209 = icmp sgt i32 %n, 0
  br i1 %_209, label %bb8.preheader, label %bb9

bb8.preheader:                                    ; preds = %"_ZN5alloc5slice29_$LT$impl$u20$$u5b$T$u5d$$GT$7sort_by17h6a0164226d671befE.exit"
  %wide.trip.count = zext nneg i32 %n to i64
  br label %bb8

bb9.loopexit:                                     ; preds = %bb7
  %8 = add i32 %num1.sroa.0.1, %num2.sroa.0.1
  br label %bb9

bb9:                                              ; preds = %bb9.loopexit, %"_ZN5alloc5slice29_$LT$impl$u20$$u5b$T$u5d$$GT$7sort_by17h6a0164226d671befE.exit"
  %_0 = phi i32 [ 0, %"_ZN5alloc5slice29_$LT$impl$u20$$u5b$T$u5d$$GT$7sort_by17h6a0164226d671befE.exit" ], [ %8, %bb9.loopexit ]
  ret i32 %_0

bb8:                                              ; preds = %bb8.preheader, %bb7
  %indvars.iv = phi i64 [ 0, %bb8.preheader ], [ %indvars.iv.next, %bb7 ]
  %num1.sroa.0.012 = phi i32 [ 0, %bb8.preheader ], [ %num1.sroa.0.1, %bb7 ]
  %num2.sroa.0.011 = phi i32 [ 0, %bb8.preheader ], [ %num2.sroa.0.1, %bb7 ]
  %indvars.iv.next = add nuw nsw i64 %indvars.iv, 1
  %_915 = and i64 %indvars.iv, 1
  %_8 = icmp eq i64 %_915, 0
  %_14 = icmp samesign ugt i64 %a.1, %indvars.iv
  br i1 %_8, label %bb3, label %bb5

bb5:                                              ; preds = %bb8
  br i1 %_14, label %bb6, label %panic

bb3:                                              ; preds = %bb8
  br i1 %_14, label %bb4, label %panic1

bb6:                                              ; preds = %bb5
  %_15 = mul i32 %num2.sroa.0.011, 10
  %9 = getelementptr inbounds nuw i32, ptr %a.0, i64 %indvars.iv
  %_16 = load i32, ptr %9, align 4, !noundef !23
  %10 = add i32 %_16, %_15
  br label %bb7

panic:                                            ; preds = %bb5
; call core::panicking::panic_bounds_check
  call void @_ZN4core9panicking18panic_bounds_check17hb15443e8431033c2E(i64 noundef %indvars.iv, i64 noundef %a.1, ptr noalias noundef readonly align 8 captures(address, read_provenance) dereferenceable(24) @alloc_7b93abd3670b3023ebceb126cbccd1b4) #18
  unreachable

bb7:                                              ; preds = %bb4, %bb6
  %num2.sroa.0.1 = phi i32 [ %num2.sroa.0.011, %bb4 ], [ %10, %bb6 ]
  %num1.sroa.0.1 = phi i32 [ %12, %bb4 ], [ %num1.sroa.0.012, %bb6 ]
  %exitcond.not = icmp eq i64 %indvars.iv.next, %wide.trip.count
  br i1 %exitcond.not, label %bb9.loopexit, label %bb8

bb4:                                              ; preds = %bb3
  %_10 = mul i32 %num1.sroa.0.012, 10
  %11 = getelementptr inbounds nuw i32, ptr %a.0, i64 %indvars.iv
  %_11 = load i32, ptr %11, align 4, !noundef !23
  %12 = add i32 %_11, %_10
  br label %bb7

panic1:                                           ; preds = %bb3
; call core::panicking::panic_bounds_check
  call void @_ZN4core9panicking18panic_bounds_check17hb15443e8431033c2E(i64 noundef %indvars.iv, i64 noundef %a.1, ptr noalias noundef readonly align 8 captures(address, read_provenance) dereferenceable(24) @alloc_2b648ac720853773226d2adc6c4e4ae0) #18
  unreachable
}

; Function Attrs: mustprogress nofree norecurse nosync nounwind nonlazybind willreturn memory(none) uwtable
define noundef range(i64 0, 2305843009213693952) i64 @len(ptr noalias noundef nonnull readonly align 4 captures(none) %arr.0, i64 noundef returned range(i64 0, 2305843009213693952) %arr.1) unnamed_addr #4 {
start:
  ret i64 %arr.1
}

; Function Attrs: mustprogress nofree norecurse nosync nounwind nonlazybind willreturn memory(none) uwtable
define noundef i32 @max(i32 noundef %x, i32 noundef %y) unnamed_addr #4 {
start:
  %x.y = tail call i32 @llvm.smax.i32(i32 %x, i32 %y)
  ret i32 %x.y
}

; Function Attrs: mustprogress nofree norecurse nosync nounwind nonlazybind willreturn memory(none) uwtable
define noundef i32 @min(i32 noundef %x, i32 noundef %y) unnamed_addr #4 {
start:
  %x.y = tail call i32 @llvm.smin.i32(i32 %x, i32 %y)
  ret i32 %x.y
}

; Function Attrs: nonlazybind uwtable
define void @sort(ptr noalias noundef nonnull align 4 %arr.0, i64 noundef range(i64 0, 2305843009213693952) %arr.1) unnamed_addr #1 personality ptr @rust_eh_personality {
start:
  %compare.i = alloca [0 x i8], align 1
  %is_less.i.i = alloca [8 x i8], align 8
  tail call void @llvm.experimental.noalias.scope.decl(metadata !1869)
  call void @llvm.lifetime.start.p0(i64 0, ptr nonnull %compare.i)
  tail call void @llvm.experimental.noalias.scope.decl(metadata !1872)
  call void @llvm.lifetime.start.p0(i64 8, ptr nonnull %is_less.i.i), !noalias !1869
  store ptr %compare.i, ptr %is_less.i.i, align 8, !noalias !1875
  %b.i.i = icmp samesign ult i64 %arr.1, 2
  br i1 %b.i.i, label %"_ZN5alloc5slice29_$LT$impl$u20$$u5b$T$u5d$$GT$7sort_by17h1829e709caf06742E.exit", label %bb7.i.i, !prof !1825

bb7.i.i:                                          ; preds = %start
  %b1.i.i = icmp samesign ult i64 %arr.1, 21
  br i1 %b1.i.i, label %bb9.i.i, label %bb10.i.i, !prof !1825

bb10.i.i:                                         ; preds = %bb7.i.i
; call core::slice::sort::stable::driftsort_main
  call void @_ZN4core5slice4sort6stable14driftsort_main17ha5f2bee4fd2b432eE(ptr noalias noundef nonnull align 4 %arr.0, i64 noundef range(i64 0, 2305843009213693952) %arr.1, ptr noalias noundef nonnull align 8 dereferenceable(8) %is_less.i.i)
  br label %"_ZN5alloc5slice29_$LT$impl$u20$$u5b$T$u5d$$GT$7sort_by17h1829e709caf06742E.exit"

bb9.i.i:                                          ; preds = %bb7.i.i
  %v_end.idx.i.i.i = shl nuw nsw i64 %arr.1, 2
  %v_end.i.i.i = getelementptr inbounds nuw i8, ptr %arr.0, i64 %v_end.idx.i.i.i
  %tail.sroa.0.01.i.i.i = getelementptr inbounds nuw i8, ptr %arr.0, i64 4
  %0 = and i64 %arr.1, 1
  %lcmp.mod.not.not = icmp eq i64 %0, 0
  br i1 %lcmp.mod.not.not, label %bb5.i.i.i.prol, label %bb5.i.i.i.prol.loopexit

bb5.i.i.i.prol:                                   ; preds = %bb9.i.i
  call void @llvm.experimental.noalias.scope.decl(metadata !1877)
  call void @llvm.experimental.noalias.scope.decl(metadata !1880)
  call void @llvm.experimental.noalias.scope.decl(metadata !1882)
  call void @llvm.experimental.noalias.scope.decl(metadata !1885)
  call void @llvm.experimental.noalias.scope.decl(metadata !1887)
  call void @llvm.experimental.noalias.scope.decl(metadata !1890)
  %_3.i.i.i.i.i.i.i.prol = load i32, ptr %tail.sroa.0.01.i.i.i, align 4, !alias.scope !1892, !noalias !1895, !noundef !23
  %_4.i.i.i.i.i.i.i.prol = load i32, ptr %arr.0, align 4, !alias.scope !1896, !noalias !1897, !noundef !23
  %_0.i.i.i.i.i.prol = icmp slt i32 %_3.i.i.i.i.i.i.i.prol, %_4.i.i.i.i.i.i.i.prol
  br i1 %_0.i.i.i.i.i.prol, label %bb4.i.i.i.i.prol, label %_ZN4core5slice4sort6shared9smallsort11insert_tail17hde149b261d22d4f1E.exit.i.i.i.prol

bb4.i.i.i.i.prol:                                 ; preds = %bb5.i.i.i.prol, %bb7.i.i.i.i.prol
  %1 = phi i32 [ %_4.i.i.i2.i.i.i.i.prol, %bb7.i.i.i.i.prol ], [ %_4.i.i.i.i.i.i.i.prol, %bb5.i.i.i.prol ]
  %gap_guard.sroa.5.0.i.i.i.i.prol = phi ptr [ %sift.sroa.0.0.i.i.i.i.prol, %bb7.i.i.i.i.prol ], [ %tail.sroa.0.01.i.i.i, %bb5.i.i.i.prol ]
  %sift.sroa.0.0.i.i.i.i.prol = phi ptr [ %2, %bb7.i.i.i.i.prol ], [ %arr.0, %bb5.i.i.i.prol ]
  store i32 %1, ptr %gap_guard.sroa.5.0.i.i.i.i.prol, align 4, !alias.scope !1898, !noalias !1899
  %_18.i.i.i.i.prol = icmp eq ptr %sift.sroa.0.0.i.i.i.i.prol, %arr.0
  br i1 %_18.i.i.i.i.prol, label %bb10.i.i.i.i.prol, label %bb7.i.i.i.i.prol

bb7.i.i.i.i.prol:                                 ; preds = %bb4.i.i.i.i.prol
  %2 = getelementptr inbounds i8, ptr %sift.sroa.0.0.i.i.i.i.prol, i64 -4
  %_4.i.i.i2.i.i.i.i.prol = load i32, ptr %2, align 4, !alias.scope !1900, !noalias !1907, !noundef !23
  %_0.i3.i.i.i.i.prol = icmp slt i32 %_3.i.i.i.i.i.i.i.prol, %_4.i.i.i2.i.i.i.i.prol
  br i1 %_0.i3.i.i.i.i.prol, label %bb4.i.i.i.i.prol, label %bb10.i.i.i.i.prol

bb10.i.i.i.i.prol:                                ; preds = %bb7.i.i.i.i.prol, %bb4.i.i.i.i.prol
  %sift.sroa.0.0.i.lcssa.i.i.i.prol = phi ptr [ %sift.sroa.0.0.i.i.i.i.prol, %bb7.i.i.i.i.prol ], [ %arr.0, %bb4.i.i.i.i.prol ]
  store i32 %_3.i.i.i.i.i.i.i.prol, ptr %sift.sroa.0.0.i.lcssa.i.i.i.prol, align 4, !alias.scope !1898, !noalias !1911
  br label %_ZN4core5slice4sort6shared9smallsort11insert_tail17hde149b261d22d4f1E.exit.i.i.i.prol

_ZN4core5slice4sort6shared9smallsort11insert_tail17hde149b261d22d4f1E.exit.i.i.i.prol: ; preds = %bb10.i.i.i.i.prol, %bb5.i.i.i.prol
  %tail.sroa.0.0.i.i.i.prol = getelementptr inbounds nuw i8, ptr %arr.0, i64 8
  br label %bb5.i.i.i.prol.loopexit

bb5.i.i.i.prol.loopexit:                          ; preds = %_ZN4core5slice4sort6shared9smallsort11insert_tail17hde149b261d22d4f1E.exit.i.i.i.prol, %bb9.i.i
  %tail.sroa.0.04.i.i.i.unr = phi ptr [ %tail.sroa.0.01.i.i.i, %bb9.i.i ], [ %tail.sroa.0.0.i.i.i.prol, %_ZN4core5slice4sort6shared9smallsort11insert_tail17hde149b261d22d4f1E.exit.i.i.i.prol ]
  %v.0.pn3.i.i.i.unr = phi ptr [ %arr.0, %bb9.i.i ], [ %tail.sroa.0.01.i.i.i, %_ZN4core5slice4sort6shared9smallsort11insert_tail17hde149b261d22d4f1E.exit.i.i.i.prol ]
  %3 = icmp eq i64 %arr.1, 2
  br i1 %3, label %"_ZN5alloc5slice29_$LT$impl$u20$$u5b$T$u5d$$GT$7sort_by17h1829e709caf06742E.exit", label %bb5.i.i.i

bb5.i.i.i:                                        ; preds = %bb5.i.i.i.prol.loopexit, %_ZN4core5slice4sort6shared9smallsort11insert_tail17hde149b261d22d4f1E.exit.i.i.i.1
  %tail.sroa.0.04.i.i.i = phi ptr [ %tail.sroa.0.0.i.i.i.1, %_ZN4core5slice4sort6shared9smallsort11insert_tail17hde149b261d22d4f1E.exit.i.i.i.1 ], [ %tail.sroa.0.04.i.i.i.unr, %bb5.i.i.i.prol.loopexit ]
  %v.0.pn3.i.i.i = phi ptr [ %tail.sroa.0.0.i.i.i, %_ZN4core5slice4sort6shared9smallsort11insert_tail17hde149b261d22d4f1E.exit.i.i.i.1 ], [ %v.0.pn3.i.i.i.unr, %bb5.i.i.i.prol.loopexit ]
  call void @llvm.experimental.noalias.scope.decl(metadata !1877)
  call void @llvm.experimental.noalias.scope.decl(metadata !1880)
  call void @llvm.experimental.noalias.scope.decl(metadata !1882)
  call void @llvm.experimental.noalias.scope.decl(metadata !1885)
  call void @llvm.experimental.noalias.scope.decl(metadata !1887)
  call void @llvm.experimental.noalias.scope.decl(metadata !1890)
  %_3.i.i.i.i.i.i.i = load i32, ptr %tail.sroa.0.04.i.i.i, align 4, !alias.scope !1892, !noalias !1895, !noundef !23
  %_4.i.i.i.i.i.i.i = load i32, ptr %v.0.pn3.i.i.i, align 4, !alias.scope !1896, !noalias !1897, !noundef !23
  %_0.i.i.i.i.i = icmp slt i32 %_3.i.i.i.i.i.i.i, %_4.i.i.i.i.i.i.i
  br i1 %_0.i.i.i.i.i, label %bb4.i.i.i.i, label %_ZN4core5slice4sort6shared9smallsort11insert_tail17hde149b261d22d4f1E.exit.i.i.i

bb4.i.i.i.i:                                      ; preds = %bb5.i.i.i, %bb7.i.i.i.i
  %4 = phi i32 [ %_4.i.i.i2.i.i.i.i, %bb7.i.i.i.i ], [ %_4.i.i.i.i.i.i.i, %bb5.i.i.i ]
  %gap_guard.sroa.5.0.i.i.i.i = phi ptr [ %sift.sroa.0.0.i.i.i.i, %bb7.i.i.i.i ], [ %tail.sroa.0.04.i.i.i, %bb5.i.i.i ]
  %sift.sroa.0.0.i.i.i.i = phi ptr [ %5, %bb7.i.i.i.i ], [ %v.0.pn3.i.i.i, %bb5.i.i.i ]
  store i32 %4, ptr %gap_guard.sroa.5.0.i.i.i.i, align 4, !alias.scope !1898, !noalias !1899
  %_18.i.i.i.i = icmp eq ptr %sift.sroa.0.0.i.i.i.i, %arr.0
  br i1 %_18.i.i.i.i, label %bb10.i.i.i.i, label %bb7.i.i.i.i

bb7.i.i.i.i:                                      ; preds = %bb4.i.i.i.i
  %5 = getelementptr inbounds i8, ptr %sift.sroa.0.0.i.i.i.i, i64 -4
  %_4.i.i.i2.i.i.i.i = load i32, ptr %5, align 4, !alias.scope !1900, !noalias !1907, !noundef !23
  %_0.i3.i.i.i.i = icmp slt i32 %_3.i.i.i.i.i.i.i, %_4.i.i.i2.i.i.i.i
  br i1 %_0.i3.i.i.i.i, label %bb4.i.i.i.i, label %bb10.i.i.i.i

bb10.i.i.i.i:                                     ; preds = %bb7.i.i.i.i, %bb4.i.i.i.i
  %sift.sroa.0.0.i.lcssa.i.i.i = phi ptr [ %sift.sroa.0.0.i.i.i.i, %bb7.i.i.i.i ], [ %arr.0, %bb4.i.i.i.i ]
  store i32 %_3.i.i.i.i.i.i.i, ptr %sift.sroa.0.0.i.lcssa.i.i.i, align 4, !alias.scope !1898, !noalias !1911
  br label %_ZN4core5slice4sort6shared9smallsort11insert_tail17hde149b261d22d4f1E.exit.i.i.i

_ZN4core5slice4sort6shared9smallsort11insert_tail17hde149b261d22d4f1E.exit.i.i.i: ; preds = %bb10.i.i.i.i, %bb5.i.i.i
  %tail.sroa.0.0.i.i.i = getelementptr inbounds nuw i8, ptr %tail.sroa.0.04.i.i.i, i64 4
  call void @llvm.experimental.noalias.scope.decl(metadata !1916)
  call void @llvm.experimental.noalias.scope.decl(metadata !1918)
  call void @llvm.experimental.noalias.scope.decl(metadata !1920)
  call void @llvm.experimental.noalias.scope.decl(metadata !1922)
  call void @llvm.experimental.noalias.scope.decl(metadata !1924)
  call void @llvm.experimental.noalias.scope.decl(metadata !1926)
  %_3.i.i.i.i.i.i.i.1 = load i32, ptr %tail.sroa.0.0.i.i.i, align 4, !alias.scope !1928, !noalias !1929, !noundef !23
  %_4.i.i.i.i.i.i.i.1 = load i32, ptr %tail.sroa.0.04.i.i.i, align 4, !alias.scope !1930, !noalias !1931, !noundef !23
  %_0.i.i.i.i.i.1 = icmp slt i32 %_3.i.i.i.i.i.i.i.1, %_4.i.i.i.i.i.i.i.1
  br i1 %_0.i.i.i.i.i.1, label %bb4.i.i.i.i.1, label %_ZN4core5slice4sort6shared9smallsort11insert_tail17hde149b261d22d4f1E.exit.i.i.i.1

bb4.i.i.i.i.1:                                    ; preds = %_ZN4core5slice4sort6shared9smallsort11insert_tail17hde149b261d22d4f1E.exit.i.i.i, %bb7.i.i.i.i.1
  %6 = phi i32 [ %_4.i.i.i2.i.i.i.i.1, %bb7.i.i.i.i.1 ], [ %_4.i.i.i.i.i.i.i.1, %_ZN4core5slice4sort6shared9smallsort11insert_tail17hde149b261d22d4f1E.exit.i.i.i ]
  %gap_guard.sroa.5.0.i.i.i.i.1 = phi ptr [ %sift.sroa.0.0.i.i.i.i.1, %bb7.i.i.i.i.1 ], [ %tail.sroa.0.0.i.i.i, %_ZN4core5slice4sort6shared9smallsort11insert_tail17hde149b261d22d4f1E.exit.i.i.i ]
  %sift.sroa.0.0.i.i.i.i.1 = phi ptr [ %7, %bb7.i.i.i.i.1 ], [ %tail.sroa.0.04.i.i.i, %_ZN4core5slice4sort6shared9smallsort11insert_tail17hde149b261d22d4f1E.exit.i.i.i ]
  store i32 %6, ptr %gap_guard.sroa.5.0.i.i.i.i.1, align 4, !alias.scope !1898, !noalias !1899
  %_18.i.i.i.i.1 = icmp eq ptr %sift.sroa.0.0.i.i.i.i.1, %arr.0
  br i1 %_18.i.i.i.i.1, label %bb10.i.i.i.i.1, label %bb7.i.i.i.i.1

bb7.i.i.i.i.1:                                    ; preds = %bb4.i.i.i.i.1
  %7 = getelementptr inbounds i8, ptr %sift.sroa.0.0.i.i.i.i.1, i64 -4
  %_4.i.i.i2.i.i.i.i.1 = load i32, ptr %7, align 4, !alias.scope !1900, !noalias !1907, !noundef !23
  %_0.i3.i.i.i.i.1 = icmp slt i32 %_3.i.i.i.i.i.i.i.1, %_4.i.i.i2.i.i.i.i.1
  br i1 %_0.i3.i.i.i.i.1, label %bb4.i.i.i.i.1, label %bb10.i.i.i.i.1

bb10.i.i.i.i.1:                                   ; preds = %bb7.i.i.i.i.1, %bb4.i.i.i.i.1
  %sift.sroa.0.0.i.lcssa.i.i.i.1 = phi ptr [ %sift.sroa.0.0.i.i.i.i.1, %bb7.i.i.i.i.1 ], [ %arr.0, %bb4.i.i.i.i.1 ]
  store i32 %_3.i.i.i.i.i.i.i.1, ptr %sift.sroa.0.0.i.lcssa.i.i.i.1, align 4, !alias.scope !1898, !noalias !1911
  br label %_ZN4core5slice4sort6shared9smallsort11insert_tail17hde149b261d22d4f1E.exit.i.i.i.1

_ZN4core5slice4sort6shared9smallsort11insert_tail17hde149b261d22d4f1E.exit.i.i.i.1: ; preds = %bb10.i.i.i.i.1, %_ZN4core5slice4sort6shared9smallsort11insert_tail17hde149b261d22d4f1E.exit.i.i.i
  %tail.sroa.0.0.i.i.i.1 = getelementptr inbounds nuw i8, ptr %tail.sroa.0.04.i.i.i, i64 8
  %_11.not.i.i.i.1 = icmp eq ptr %tail.sroa.0.0.i.i.i.1, %v_end.i.i.i
  br i1 %_11.not.i.i.i.1, label %"_ZN5alloc5slice29_$LT$impl$u20$$u5b$T$u5d$$GT$7sort_by17h1829e709caf06742E.exit", label %bb5.i.i.i

"_ZN5alloc5slice29_$LT$impl$u20$$u5b$T$u5d$$GT$7sort_by17h1829e709caf06742E.exit": ; preds = %bb5.i.i.i.prol.loopexit, %_ZN4core5slice4sort6shared9smallsort11insert_tail17hde149b261d22d4f1E.exit.i.i.i.1, %start, %bb10.i.i
  call void @llvm.lifetime.end.p0(i64 8, ptr nonnull %is_less.i.i), !noalias !1869
  call void @llvm.lifetime.end.p0(i64 0, ptr nonnull %compare.i)
  ret void
}

; Function Attrs: nounwind nonlazybind uwtable
declare noundef range(i32 0, 10) i32 @rust_eh_personality(i32 noundef, i32 noundef, i64 noundef, ptr noundef, ptr noundef) unnamed_addr #5

; Function Attrs: mustprogress nocallback nofree nosync nounwind willreturn memory(argmem: readwrite)
declare void @llvm.lifetime.start.p0(i64 immarg, ptr captures(none)) #6

; Function Attrs: mustprogress nocallback nofree nosync nounwind willreturn memory(argmem: readwrite)
declare void @llvm.lifetime.end.p0(i64 immarg, ptr captures(none)) #6

; Function Attrs: mustprogress nocallback nofree nosync nounwind willreturn memory(inaccessiblemem: write)
declare void @llvm.assume(i1 noundef) #7

; Function Attrs: mustprogress nocallback nofree nounwind willreturn memory(argmem: readwrite)
declare void @llvm.memcpy.p0.p0.i64(ptr noalias writeonly captures(none), ptr noalias readonly captures(none), i64, i1 immarg) #8

; core::panicking::panic_fmt
; Function Attrs: cold noinline noreturn nonlazybind uwtable
declare void @_ZN4core9panicking9panic_fmt17ha4414e4328fe24a0E(ptr noundef nonnull, ptr noundef nonnull, ptr noalias noundef readonly align 8 captures(address, read_provenance) dereferenceable(24)) unnamed_addr #9

; core::panicking::panic_bounds_check
; Function Attrs: cold minsize noinline noreturn nonlazybind optsize uwtable
declare void @_ZN4core9panicking18panic_bounds_check17hb15443e8431033c2E(i64 noundef, i64 noundef, ptr noalias noundef readonly align 8 captures(address, read_provenance) dereferenceable(24)) unnamed_addr #10

; Function Attrs: cold noreturn nounwind memory(inaccessiblemem: write)
declare void @llvm.trap() #11

; core::slice::sort::shared::smallsort::panic_on_ord_violation
; Function Attrs: cold noinline noreturn nonlazybind uwtable
declare void @_ZN4core5slice4sort6shared9smallsort22panic_on_ord_violation17hc77a22a2d50782cdE() unnamed_addr #9

; core::slice::index::slice_index_fail
; Function Attrs: cold noinline noreturn nonlazybind uwtable
declare void @_ZN4core5slice5index16slice_index_fail17h62807bcaa490c9c1E(i64 noundef, i64 noundef, i64 noundef, ptr noalias noundef readonly align 8 captures(address, read_provenance) dereferenceable(24)) unnamed_addr #9

; Function Attrs: mustprogress nocallback nofree nosync nounwind speculatable willreturn memory(none)
declare i64 @llvm.ctlz.i64(i64, i1 immarg) #12

; core::slice::sort::stable::drift::sqrt_approx
; Function Attrs: nonlazybind uwtable
declare noundef i64 @_ZN4core5slice4sort6stable5drift11sqrt_approx17h72a4dc1ae46294f4E(i64 noundef) unnamed_addr #1

; Function Attrs: mustprogress nocallback nofree nosync nounwind speculatable willreturn memory(none)
declare i64 @llvm.usub.sat.i64(i64, i64) #12

; Function Attrs: mustprogress nocallback nofree nosync nounwind speculatable willreturn memory(none)
declare range(i8 -1, 2) i8 @llvm.scmp.i8.i32(i32, i32) #12

; __rustc::__rust_no_alloc_shim_is_unstable_v2
; Function Attrs: nounwind nonlazybind uwtable
declare void @_RNvCsdBezzDwma51_7___rustc35___rust_no_alloc_shim_is_unstable_v2() unnamed_addr #5

; __rustc::__rust_alloc
; Function Attrs: nounwind nonlazybind allockind("alloc,uninitialized,aligned") allocsize(0) uwtable
declare noalias noundef ptr @_RNvCsdBezzDwma51_7___rustc12___rust_alloc(i64 noundef, i64 allocalign noundef) unnamed_addr #13

; alloc::raw_vec::handle_error
; Function Attrs: cold minsize noreturn nonlazybind optsize uwtable
declare void @_ZN5alloc7raw_vec12handle_error17h3a8c375904e593b2E(i64 noundef range(i64 0, -9223372036854775807), i64) unnamed_addr #14

; __rustc::__rust_dealloc
; Function Attrs: nounwind nonlazybind allockind("free") uwtable
declare void @_RNvCsdBezzDwma51_7___rustc14___rust_dealloc(ptr allocptr noundef, i64 noundef, i64 noundef) unnamed_addr #15

; Function Attrs: nocallback nofree nosync nounwind willreturn memory(inaccessiblemem: readwrite)
declare void @llvm.experimental.noalias.scope.decl(metadata) #16

; Function Attrs: nocallback nofree nosync nounwind speculatable willreturn memory(none)
declare i64 @llvm.umin.i64(i64, i64) #17

