; ModuleID = 'LEXICOGRAPHICAL_CONCATENATION_SUBSTRINGS_STRING_emit.aa11a84f957bb06-cgu.0'
source_filename = "LEXICOGRAPHICAL_CONCATENATION_SUBSTRINGS_STRING_emit.aa11a84f957bb06-cgu.0"
target datalayout = "e-m:e-p270:32:32-p271:32:32-p272:64:64-i64:64-i128:128-f80:128-n8:16:32:64-S128"
target triple = "x86_64-unknown-linux-gnu"

%"core::mem::maybe_uninit::MaybeUninit<[u8; 8]>" = type { [8 x i8] }
%"alloc::string::String" = type { %"alloc::vec::Vec<u8>" }
%"alloc::vec::Vec<u8>" = type { %"alloc::raw_vec::RawVec<u8>", i64 }
%"alloc::raw_vec::RawVec<u8>" = type { %"alloc::raw_vec::RawVecInner", %"core::marker::PhantomData<u8>" }
%"alloc::raw_vec::RawVecInner" = type { i64, ptr, %"alloc::alloc::Global" }
%"alloc::alloc::Global" = type {}
%"core::marker::PhantomData<u8>" = type {}

@alloc_d1084648e479974e70c9329824bf76f9 = private unnamed_addr constant [9 x i8] c"mid > len", align 1
@alloc_e8e5fd9f509afcb950667480b3e3e42a = private unnamed_addr constant [126 x i8] c"/root/.rustup/toolchains/stable-x86_64-unknown-linux-gnu/lib/rustlib/src/rust/library/core/src/slice/sort/stable/quicksort.rs\00", align 1
@alloc_58d434a1e795f965ef82c8e9c5db822a = private unnamed_addr constant <{ ptr, [16 x i8] }> <{ ptr @alloc_e8e5fd9f509afcb950667480b3e3e42a, [16 x i8] c"}\00\00\00\00\00\00\00J\00\00\00\1F\00\00\00" }>, align 8
@alloc_0766b232215672ee1bd2195fdb153938 = private unnamed_addr constant <{ ptr, [16 x i8] }> <{ ptr @alloc_e8e5fd9f509afcb950667480b3e3e42a, [16 x i8] c"}\00\00\00\00\00\00\00D\00\00\00\17\00\00\00" }>, align 8
@alloc_b70df69cce52d7d76923f104d33422fb = private unnamed_addr constant [149 x i8] c"/root/es/vert/vert/rust_funcs/cpp_transcoder/LEXICOGRAPHICAL_CONCATENATION_SUBSTRINGS_STRING/LEXICOGRAPHICAL_CONCATENATION_SUBSTRINGS_STRING_emit.rs\00", align 1
@alloc_4cce44244d9639ad41a74bd16b875a27 = private unnamed_addr constant <{ ptr, [16 x i8] }> <{ ptr @alloc_b70df69cce52d7d76923f104d33422fb, [16 x i8] c"\94\00\00\00\00\00\00\00#\00\00\00\1A\00\00\00" }>, align 8
@alloc_04774e36529a2f0ec64e4c14b859aaab = private unnamed_addr constant <{ ptr, [16 x i8] }> <{ ptr @alloc_b70df69cce52d7d76923f104d33422fb, [16 x i8] c"\94\00\00\00\00\00\00\00\1C\00\00\00\17\00\00\00" }>, align 8

; core::ptr::swap_nonoverlapping_bytes::swap_nonoverlapping_chunks
; Function Attrs: nofree norecurse nosync nounwind nonlazybind memory(argmem: readwrite, inaccessiblemem: readwrite) uwtable
define void @_ZN4core3ptr25swap_nonoverlapping_bytes26swap_nonoverlapping_chunks17h4ae9e6ef425335d4E(ptr noundef captures(none) %x, ptr noundef captures(none) %y, i64 noundef range(i64 1, 0) %chunks) unnamed_addr #0 {
start:
  %xtraiter = and i64 %chunks, 1
  %0 = icmp eq i64 %chunks, 1
  br i1 %0, label %bb4.unr-lcssa, label %start.new

start.new:                                        ; preds = %start
  %unroll_iter = and i64 %chunks, -2
  br label %bb3

bb4.unr-lcssa:                                    ; preds = %bb3, %start
  %iter.sroa.0.02.unr = phi i64 [ 0, %start ], [ %_18.1, %bb3 ]
  %lcmp.mod.not = icmp eq i64 %xtraiter, 0
  br i1 %lcmp.mod.not, label %bb4, label %bb3.epil

bb3.epil:                                         ; preds = %bb4.unr-lcssa
  %_11.epil = getelementptr inbounds nuw %"core::mem::maybe_uninit::MaybeUninit<[u8; 8]>", ptr %x, i64 %iter.sroa.0.02.unr
  %_13.epil = getelementptr inbounds nuw %"core::mem::maybe_uninit::MaybeUninit<[u8; 8]>", ptr %y, i64 %iter.sroa.0.02.unr
  tail call void @llvm.experimental.noalias.scope.decl(metadata !3)
  tail call void @llvm.experimental.noalias.scope.decl(metadata !6)
  %_3.sroa.0.0.copyload.i.epil = load i64, ptr %_11.epil, align 1, !alias.scope !3, !noalias !6
  %_4.sroa.0.0.copyload.i.epil = load i64, ptr %_13.epil, align 1, !alias.scope !6, !noalias !3
  store i64 %_4.sroa.0.0.copyload.i.epil, ptr %_11.epil, align 1, !alias.scope !3, !noalias !6
  store i64 %_3.sroa.0.0.copyload.i.epil, ptr %_13.epil, align 1, !alias.scope !6, !noalias !3
  br label %bb4

bb4:                                              ; preds = %bb4.unr-lcssa, %bb3.epil
  ret void

bb3:                                              ; preds = %bb3, %start.new
  %iter.sroa.0.02 = phi i64 [ 0, %start.new ], [ %_18.1, %bb3 ]
  %niter = phi i64 [ 0, %start.new ], [ %niter.next.1, %bb3 ]
  %_18 = or disjoint i64 %iter.sroa.0.02, 1
  %_11 = getelementptr inbounds nuw %"core::mem::maybe_uninit::MaybeUninit<[u8; 8]>", ptr %x, i64 %iter.sroa.0.02
  %_13 = getelementptr inbounds nuw %"core::mem::maybe_uninit::MaybeUninit<[u8; 8]>", ptr %y, i64 %iter.sroa.0.02
  tail call void @llvm.experimental.noalias.scope.decl(metadata !3)
  tail call void @llvm.experimental.noalias.scope.decl(metadata !6)
  %_3.sroa.0.0.copyload.i = load i64, ptr %_11, align 1, !alias.scope !3, !noalias !6
  %_4.sroa.0.0.copyload.i = load i64, ptr %_13, align 1, !alias.scope !6, !noalias !3
  store i64 %_4.sroa.0.0.copyload.i, ptr %_11, align 1, !alias.scope !3, !noalias !6
  store i64 %_3.sroa.0.0.copyload.i, ptr %_13, align 1, !alias.scope !6, !noalias !3
  %_18.1 = add nuw i64 %iter.sroa.0.02, 2
  %_11.1 = getelementptr inbounds nuw %"core::mem::maybe_uninit::MaybeUninit<[u8; 8]>", ptr %x, i64 %_18
  %_13.1 = getelementptr inbounds nuw %"core::mem::maybe_uninit::MaybeUninit<[u8; 8]>", ptr %y, i64 %_18
  tail call void @llvm.experimental.noalias.scope.decl(metadata !8)
  tail call void @llvm.experimental.noalias.scope.decl(metadata !10)
  %_3.sroa.0.0.copyload.i.1 = load i64, ptr %_11.1, align 1, !alias.scope !8, !noalias !10
  %_4.sroa.0.0.copyload.i.1 = load i64, ptr %_13.1, align 1, !alias.scope !10, !noalias !8
  store i64 %_4.sroa.0.0.copyload.i.1, ptr %_11.1, align 1, !alias.scope !8, !noalias !10
  store i64 %_3.sroa.0.0.copyload.i.1, ptr %_13.1, align 1, !alias.scope !10, !noalias !8
  %niter.next.1 = add i64 %niter, 2
  %niter.ncmp.1 = icmp eq i64 %niter.next.1, %unroll_iter
  br i1 %niter.ncmp.1, label %bb4.unr-lcssa, label %bb3
}

; core::ptr::drop_in_place<alloc::string::String>
; Function Attrs: nonlazybind uwtable
define internal fastcc void @"_ZN4core3ptr42drop_in_place$LT$alloc..string..String$GT$17hde14ea688b292269E"(ptr noalias noundef nonnull align 8 dereferenceable(24) %_1) unnamed_addr #1 personality ptr @rust_eh_personality {
start:
; invoke <alloc::vec::Vec<T,A> as core::ops::drop::Drop>::drop
  invoke void @"_ZN70_$LT$alloc..vec..Vec$LT$T$C$A$GT$$u20$as$u20$core..ops..drop..Drop$GT$4drop17h6ffafe41d4ff3563E"(ptr noalias noundef nonnull align 8 dereferenceable(24) %_1)
          to label %"_ZN4core3ptr46drop_in_place$LT$alloc..vec..Vec$LT$u8$GT$$GT$17hed4fea2f99745addE.exit" unwind label %cleanup.i

cleanup.i:                                        ; preds = %start
  %0 = landingpad { ptr, i32 }
          cleanup
; invoke <alloc::raw_vec::RawVec<T,A> as core::ops::drop::Drop>::drop
  invoke void @"_ZN77_$LT$alloc..raw_vec..RawVec$LT$T$C$A$GT$$u20$as$u20$core..ops..drop..Drop$GT$4drop17h86eef0594e496705E"(ptr noalias noundef nonnull align 8 dereferenceable(24) %_1)
          to label %bb1.i unwind label %terminate.i

terminate.i:                                      ; preds = %cleanup.i
  %1 = landingpad { ptr, i32 }
          filter [0 x ptr] zeroinitializer
; call core::panicking::panic_in_cleanup
  tail call void @_ZN4core9panicking16panic_in_cleanup17h5f6bde45d17ae243E() #31
  unreachable

bb1.i:                                            ; preds = %cleanup.i
  resume { ptr, i32 } %0

"_ZN4core3ptr46drop_in_place$LT$alloc..vec..Vec$LT$u8$GT$$GT$17hed4fea2f99745addE.exit": ; preds = %start
; call <alloc::raw_vec::RawVec<T,A> as core::ops::drop::Drop>::drop
  tail call void @"_ZN77_$LT$alloc..raw_vec..RawVec$LT$T$C$A$GT$$u20$as$u20$core..ops..drop..Drop$GT$4drop17h86eef0594e496705E"(ptr noalias noundef nonnull align 8 dereferenceable(24) %_1)
  ret void
}

; core::ptr::drop_in_place<alloc::vec::Vec<alloc::string::String>>
; Function Attrs: nonlazybind uwtable
define internal fastcc void @"_ZN4core3ptr65drop_in_place$LT$alloc..vec..Vec$LT$alloc..string..String$GT$$GT$17he3d388727106a310E"(ptr noalias noundef nonnull align 8 dereferenceable(24) %_1) unnamed_addr #1 personality ptr @rust_eh_personality {
start:
; invoke <alloc::vec::Vec<T,A> as core::ops::drop::Drop>::drop
  invoke void @"_ZN70_$LT$alloc..vec..Vec$LT$T$C$A$GT$$u20$as$u20$core..ops..drop..Drop$GT$4drop17h3a1990cca6413e04E"(ptr noalias noundef align 8 dereferenceable(24) %_1)
          to label %bb4 unwind label %cleanup

cleanup:                                          ; preds = %start
  %0 = landingpad { ptr, i32 }
          cleanup
; invoke alloc::raw_vec::RawVecInner<A>::deallocate
  invoke void @"_ZN5alloc7raw_vec20RawVecInner$LT$A$GT$10deallocate17h6ddf8733b0451bb9E"(ptr noalias noundef nonnull align 8 dereferenceable(16) %_1, i64 noundef 8, i64 noundef 24)
          to label %bb1 unwind label %terminate

bb4:                                              ; preds = %start
; call alloc::raw_vec::RawVecInner<A>::deallocate
  tail call void @"_ZN5alloc7raw_vec20RawVecInner$LT$A$GT$10deallocate17h6ddf8733b0451bb9E"(ptr noalias noundef nonnull align 8 dereferenceable(16) %_1, i64 noundef 8, i64 noundef 24)
  ret void

terminate:                                        ; preds = %cleanup
  %1 = landingpad { ptr, i32 }
          filter [0 x ptr] zeroinitializer
; call core::panicking::panic_in_cleanup
  tail call void @_ZN4core9panicking16panic_in_cleanup17h5f6bde45d17ae243E() #31
  unreachable

bb1:                                              ; preds = %cleanup
  resume { ptr, i32 } %0
}

; core::slice::sort::shared::pivot::median3_rec
; Function Attrs: nofree nosync nounwind nonlazybind memory(read, inaccessiblemem: readwrite) uwtable
define noundef nonnull ptr @_ZN4core5slice4sort6shared5pivot11median3_rec17h0a600e94c9b56343E(ptr noundef %0, ptr noundef %1, ptr noundef %2, i64 noundef %n, ptr noalias noundef align 8 dereferenceable(8) %is_less) unnamed_addr #2 {
start:
  %3 = and i64 %n, 2305843009213693944
  %_6.not = icmp eq i64 %3, 0
  br i1 %_6.not, label %bb6, label %bb1

bb1:                                              ; preds = %start
  %n84 = lshr i64 %n, 3
  %count = shl nuw nsw i64 %n84, 2
  %_10 = getelementptr inbounds nuw i32, ptr %0, i64 %count
  %count1 = mul nuw i64 %n84, 7
  %_13 = getelementptr inbounds nuw i32, ptr %0, i64 %count1
; call core::slice::sort::shared::pivot::median3_rec
  %4 = tail call noundef ptr @_ZN4core5slice4sort6shared5pivot11median3_rec17h0a600e94c9b56343E(ptr noundef %0, ptr noundef %_10, ptr noundef %_13, i64 noundef %n84, ptr noalias noundef align 8 dereferenceable(8) %is_less)
  %_16 = getelementptr inbounds nuw i32, ptr %1, i64 %count
  %_18 = getelementptr inbounds nuw i32, ptr %1, i64 %count1
; call core::slice::sort::shared::pivot::median3_rec
  %5 = tail call noundef ptr @_ZN4core5slice4sort6shared5pivot11median3_rec17h0a600e94c9b56343E(ptr noundef %1, ptr noundef %_16, ptr noundef %_18, i64 noundef %n84, ptr noalias noundef align 8 dereferenceable(8) %is_less)
  %_20 = getelementptr inbounds nuw i32, ptr %2, i64 %count
  %_22 = getelementptr inbounds nuw i32, ptr %2, i64 %count1
; call core::slice::sort::shared::pivot::median3_rec
  %6 = tail call noundef ptr @_ZN4core5slice4sort6shared5pivot11median3_rec17h0a600e94c9b56343E(ptr noundef %2, ptr noundef %_20, ptr noundef %_22, i64 noundef %n84, ptr noalias noundef align 8 dereferenceable(8) %is_less)
  br label %bb6

bb6:                                              ; preds = %start, %bb1
  %c.sroa.0.0 = phi ptr [ %6, %bb1 ], [ %2, %start ]
  %b.sroa.0.0 = phi ptr [ %5, %bb1 ], [ %1, %start ]
  %a.sroa.0.0 = phi ptr [ %4, %bb1 ], [ %0, %start ]
  tail call void @llvm.experimental.noalias.scope.decl(metadata !12)
  tail call void @llvm.experimental.noalias.scope.decl(metadata !15)
  tail call void @llvm.experimental.noalias.scope.decl(metadata !17), !noalias !20
  tail call void @llvm.experimental.noalias.scope.decl(metadata !23), !noalias !20
  tail call void @llvm.experimental.noalias.scope.decl(metadata !25), !noalias !20
  tail call void @llvm.experimental.noalias.scope.decl(metadata !28), !noalias !20
  tail call void @llvm.experimental.noalias.scope.decl(metadata !30), !noalias !20
  tail call void @llvm.experimental.noalias.scope.decl(metadata !33), !noalias !20
  %_3.i.i.i.i = load i32, ptr %a.sroa.0.0, align 4, !alias.scope !35, !noalias !36, !noundef !37
  %_4.i.i.i.i = load i32, ptr %b.sroa.0.0, align 4, !alias.scope !38, !noalias !39, !noundef !37
  %_0.i = icmp slt i32 %_3.i.i.i.i, %_4.i.i.i.i
  %_4.i.i.i.i6 = load i32, ptr %c.sroa.0.0, align 4, !alias.scope !40, !noalias !49, !noundef !37
  %_0.i7 = icmp slt i32 %_3.i.i.i.i, %_4.i.i.i.i6
  %7 = xor i1 %_0.i, %_0.i7
  %_0.i10 = icmp slt i32 %_4.i.i.i.i, %_4.i.i.i.i6
  %_12.i = xor i1 %_0.i, %_0.i10
  %c.b.i = select i1 %_12.i, ptr %c.sroa.0.0, ptr %b.sroa.0.0
  %_0.sroa.0.0.i = select i1 %7, ptr %a.sroa.0.0, ptr %c.b.i
  ret ptr %_0.sroa.0.0.i
}

; core::slice::sort::shared::pivot::median3_rec
; Function Attrs: nofree nounwind nonlazybind memory(read, inaccessiblemem: readwrite) uwtable
define noundef nonnull ptr @_ZN4core5slice4sort6shared5pivot11median3_rec17h99e7361c9dd75cc6E(ptr noundef %0, ptr noundef %1, ptr noundef %2, i64 noundef %n, ptr noalias noundef nonnull align 1 %is_less) unnamed_addr #3 {
start:
  %3 = and i64 %n, 2305843009213693944
  %_6.not = icmp eq i64 %3, 0
  br i1 %_6.not, label %bb6, label %bb1

bb1:                                              ; preds = %start
  %n84 = lshr i64 %n, 3
  %count = shl nuw nsw i64 %n84, 2
  %_10 = getelementptr inbounds nuw %"alloc::string::String", ptr %0, i64 %count
  %count1 = mul nuw i64 %n84, 7
  %_13 = getelementptr inbounds nuw %"alloc::string::String", ptr %0, i64 %count1
; call core::slice::sort::shared::pivot::median3_rec
  %4 = tail call noundef ptr @_ZN4core5slice4sort6shared5pivot11median3_rec17h99e7361c9dd75cc6E(ptr noundef %0, ptr noundef %_10, ptr noundef %_13, i64 noundef %n84, ptr noalias noundef nonnull align 1 %is_less)
  %_16 = getelementptr inbounds nuw %"alloc::string::String", ptr %1, i64 %count
  %_18 = getelementptr inbounds nuw %"alloc::string::String", ptr %1, i64 %count1
; call core::slice::sort::shared::pivot::median3_rec
  %5 = tail call noundef ptr @_ZN4core5slice4sort6shared5pivot11median3_rec17h99e7361c9dd75cc6E(ptr noundef %1, ptr noundef %_16, ptr noundef %_18, i64 noundef %n84, ptr noalias noundef nonnull align 1 %is_less)
  %_20 = getelementptr inbounds nuw %"alloc::string::String", ptr %2, i64 %count
  %_22 = getelementptr inbounds nuw %"alloc::string::String", ptr %2, i64 %count1
; call core::slice::sort::shared::pivot::median3_rec
  %6 = tail call noundef ptr @_ZN4core5slice4sort6shared5pivot11median3_rec17h99e7361c9dd75cc6E(ptr noundef %2, ptr noundef %_20, ptr noundef %_22, i64 noundef %n84, ptr noalias noundef nonnull align 1 %is_less)
  br label %bb6

bb6:                                              ; preds = %start, %bb1
  %c.sroa.0.0 = phi ptr [ %6, %bb1 ], [ %2, %start ]
  %b.sroa.0.0 = phi ptr [ %5, %bb1 ], [ %1, %start ]
  %a.sroa.0.0 = phi ptr [ %4, %bb1 ], [ %0, %start ]
  tail call void @llvm.experimental.noalias.scope.decl(metadata !54)
  tail call void @llvm.experimental.noalias.scope.decl(metadata !57)
  tail call void @llvm.experimental.noalias.scope.decl(metadata !59), !noalias !62
  tail call void @llvm.experimental.noalias.scope.decl(metadata !65), !noalias !62
  tail call void @llvm.experimental.noalias.scope.decl(metadata !67), !noalias !62
  tail call void @llvm.experimental.noalias.scope.decl(metadata !70), !noalias !62
  tail call void @llvm.experimental.noalias.scope.decl(metadata !72), !noalias !62
  tail call void @llvm.experimental.noalias.scope.decl(metadata !75), !noalias !62
  %7 = getelementptr inbounds nuw i8, ptr %a.sroa.0.0, i64 8
  %_7.i.i.i.i = load ptr, ptr %7, align 8, !alias.scope !77, !noalias !78, !nonnull !37, !noundef !37
  %8 = getelementptr inbounds nuw i8, ptr %a.sroa.0.0, i64 16
  %len1.i.i.i.i = load i64, ptr %8, align 8, !alias.scope !77, !noalias !78, !noundef !37
  %9 = getelementptr inbounds nuw i8, ptr %b.sroa.0.0, i64 8
  %_14.i.i.i.i = load ptr, ptr %9, align 8, !alias.scope !79, !noalias !80, !nonnull !37, !noundef !37
  %10 = getelementptr inbounds nuw i8, ptr %b.sroa.0.0, i64 16
  %11 = load i64, ptr %10, align 8, !alias.scope !79, !noalias !80, !noundef !37
  %spec.store.select.i.i.i.i.i.i = tail call i64 @llvm.umin.i64(i64 range(i64 0, -9223372036854775808) %len1.i.i.i.i, i64 range(i64 0, -9223372036854775808) %11)
  %12 = tail call i32 @memcmp(ptr nonnull readonly align 1 %_7.i.i.i.i, ptr nonnull readonly align 1 %_14.i.i.i.i, i64 %spec.store.select.i.i.i.i.i.i), !alias.scope !81, !noalias !88
  %13 = sext i32 %12 to i64
  %_15.i.i.i.i.i.i = icmp eq i32 %12, 0
  %diff.i.i.i.i.i.i = sub nsw i64 %len1.i.i.i.i, %11
  %spec.select.i.i.i.i.i.i = select i1 %_15.i.i.i.i.i.i, i64 %diff.i.i.i.i.i.i, i64 %13
  tail call void @llvm.experimental.noalias.scope.decl(metadata !89)
  tail call void @llvm.experimental.noalias.scope.decl(metadata !92)
  tail call void @llvm.experimental.noalias.scope.decl(metadata !95)
  tail call void @llvm.experimental.noalias.scope.decl(metadata !98)
  %14 = getelementptr inbounds nuw i8, ptr %c.sroa.0.0, i64 8
  %_14.i.i.i.i7 = load ptr, ptr %14, align 8, !alias.scope !101, !noalias !102, !nonnull !37, !noundef !37
  %15 = getelementptr inbounds nuw i8, ptr %c.sroa.0.0, i64 16
  %16 = load i64, ptr %15, align 8, !alias.scope !101, !noalias !102, !noundef !37
  %spec.store.select.i.i.i.i.i.i8 = tail call i64 @llvm.umin.i64(i64 range(i64 0, -9223372036854775808) %len1.i.i.i.i, i64 range(i64 0, -9223372036854775808) %16)
  %17 = tail call i32 @memcmp(ptr nonnull readonly align 1 %_7.i.i.i.i, ptr nonnull readonly align 1 %_14.i.i.i.i7, i64 %spec.store.select.i.i.i.i.i.i8), !alias.scope !107, !noalias !114
  %18 = sext i32 %17 to i64
  %_15.i.i.i.i.i.i9 = icmp eq i32 %17, 0
  %diff.i.i.i.i.i.i10 = sub nsw i64 %len1.i.i.i.i, %16
  %spec.select.i.i.i.i.i.i11 = select i1 %_15.i.i.i.i.i.i9, i64 %diff.i.i.i.i.i.i10, i64 %18
  %19 = xor i64 %spec.select.i.i.i.i.i.i11, %spec.select.i.i.i.i.i.i
  %20 = icmp slt i64 %19, 0
  br i1 %20, label %_ZN4core5slice4sort6shared5pivot7median317h22c231397570fc7bE.exit, label %bb3.i

bb3.i:                                            ; preds = %bb6
  %spec.store.select.i.i.i.i.i.i15 = tail call i64 @llvm.umin.i64(i64 range(i64 0, -9223372036854775808) %11, i64 range(i64 0, -9223372036854775808) %16)
  %21 = tail call i32 @memcmp(ptr nonnull readonly align 1 %_14.i.i.i.i, ptr nonnull readonly align 1 %_14.i.i.i.i7, i64 %spec.store.select.i.i.i.i.i.i15), !alias.scope !115, !noalias !122
  %22 = sext i32 %21 to i64
  %_15.i.i.i.i.i.i16 = icmp eq i32 %21, 0
  %diff.i.i.i.i.i.i17 = sub nsw i64 %11, %16
  %spec.select.i.i.i.i.i.i18 = select i1 %_15.i.i.i.i.i.i16, i64 %diff.i.i.i.i.i.i17, i64 %22
  %23 = xor i64 %spec.select.i.i.i.i.i.i18, %spec.select.i.i.i.i.i.i
  %_12.i = icmp slt i64 %23, 0
  %c.b.i = select i1 %_12.i, ptr %c.sroa.0.0, ptr %b.sroa.0.0
  br label %_ZN4core5slice4sort6shared5pivot7median317h22c231397570fc7bE.exit

_ZN4core5slice4sort6shared5pivot7median317h22c231397570fc7bE.exit: ; preds = %bb6, %bb3.i
  %_0.sroa.0.0.i = phi ptr [ %a.sroa.0.0, %bb6 ], [ %c.b.i, %bb3.i ]
  ret ptr %_0.sroa.0.0.i
}

; core::slice::sort::shared::smallsort::insert_tail
; Function Attrs: nofree norecurse nosync nounwind nonlazybind memory(argmem: readwrite, inaccessiblemem: readwrite) uwtable
define void @_ZN4core5slice4sort6shared9smallsort11insert_tail17h8d444b17020be90bE(ptr noundef readnone captures(address) %begin, ptr noundef captures(address) %tail, ptr noalias noundef readnone align 8 captures(none) dereferenceable(8) %is_less) unnamed_addr #0 personality ptr @rust_eh_personality {
start:
  %0 = getelementptr inbounds i8, ptr %tail, i64 -4
  tail call void @llvm.experimental.noalias.scope.decl(metadata !135)
  tail call void @llvm.experimental.noalias.scope.decl(metadata !138)
  tail call void @llvm.experimental.noalias.scope.decl(metadata !140)
  tail call void @llvm.experimental.noalias.scope.decl(metadata !143)
  tail call void @llvm.experimental.noalias.scope.decl(metadata !145)
  tail call void @llvm.experimental.noalias.scope.decl(metadata !148)
  tail call void @llvm.experimental.noalias.scope.decl(metadata !150)
  tail call void @llvm.experimental.noalias.scope.decl(metadata !153)
  %_3.i.i.i.i = load i32, ptr %tail, align 4, !alias.scope !155, !noalias !156, !noundef !37
  %_4.i.i.i.i = load i32, ptr %0, align 4, !alias.scope !156, !noalias !155, !noundef !37
  %_0.i = icmp slt i32 %_3.i.i.i.i, %_4.i.i.i.i
  br i1 %_0.i, label %bb4, label %bb12

bb12:                                             ; preds = %start, %bb10
  ret void

bb4:                                              ; preds = %start, %bb6
  %gap_guard.sroa.5.0 = phi ptr [ %sift.sroa.0.0, %bb6 ], [ %tail, %start ]
  %sift.sroa.0.0 = phi ptr [ %2, %bb6 ], [ %0, %start ]
  %1 = load i32, ptr %sift.sroa.0.0, align 4
  store i32 %1, ptr %gap_guard.sroa.5.0, align 4
  %_18 = icmp eq ptr %sift.sroa.0.0, %begin
  br i1 %_18, label %bb10, label %bb6

bb6:                                              ; preds = %bb4
  %2 = getelementptr inbounds i8, ptr %sift.sroa.0.0, i64 -4
  %_4.i.i.i.i2 = load i32, ptr %2, align 4, !alias.scope !157, !noalias !166, !noundef !37
  %_0.i3 = icmp slt i32 %_3.i.i.i.i, %_4.i.i.i.i2
  br i1 %_0.i3, label %bb4, label %bb10

bb10:                                             ; preds = %bb6, %bb4
  store i32 %_3.i.i.i.i, ptr %sift.sroa.0.0, align 4, !noalias !171
  br label %bb12
}

; core::slice::sort::shared::smallsort::insert_tail
; Function Attrs: nofree norecurse nounwind nonlazybind memory(read, argmem: readwrite, inaccessiblemem: readwrite) uwtable
define void @_ZN4core5slice4sort6shared9smallsort11insert_tail17haddbce5dcdcd8aa9E(ptr noundef readnone captures(address) %begin, ptr noundef captures(address) %tail, ptr noalias noundef nonnull readnone align 1 captures(none) %is_less) unnamed_addr #4 personality ptr @rust_eh_personality {
start:
  tail call void @llvm.experimental.noalias.scope.decl(metadata !176)
  tail call void @llvm.experimental.noalias.scope.decl(metadata !179)
  tail call void @llvm.experimental.noalias.scope.decl(metadata !181)
  tail call void @llvm.experimental.noalias.scope.decl(metadata !184)
  tail call void @llvm.experimental.noalias.scope.decl(metadata !186)
  tail call void @llvm.experimental.noalias.scope.decl(metadata !189)
  tail call void @llvm.experimental.noalias.scope.decl(metadata !191)
  tail call void @llvm.experimental.noalias.scope.decl(metadata !194)
  %0 = getelementptr inbounds nuw i8, ptr %tail, i64 8
  %_7.i.i.i.i = load ptr, ptr %0, align 8, !alias.scope !196, !noalias !197, !nonnull !37, !noundef !37
  %1 = getelementptr inbounds nuw i8, ptr %tail, i64 16
  %len1.i.i.i.i = load i64, ptr %1, align 8, !alias.scope !196, !noalias !197, !noundef !37
  %2 = getelementptr inbounds i8, ptr %tail, i64 -16
  %_14.i.i.i.i = load ptr, ptr %2, align 8, !alias.scope !197, !noalias !196, !nonnull !37, !noundef !37
  %3 = getelementptr inbounds i8, ptr %tail, i64 -8
  %4 = load i64, ptr %3, align 8, !alias.scope !197, !noalias !196, !noundef !37
  %spec.store.select.i.i.i.i.i.i = tail call i64 @llvm.umin.i64(i64 range(i64 0, -9223372036854775808) %len1.i.i.i.i, i64 range(i64 0, -9223372036854775808) %4)
  %5 = tail call i32 @memcmp(ptr nonnull readonly align 1 %_7.i.i.i.i, ptr nonnull readonly align 1 %_14.i.i.i.i, i64 %spec.store.select.i.i.i.i.i.i), !alias.scope !198, !noalias !205
  %6 = sext i32 %5 to i64
  %_15.i.i.i.i.i.i = icmp eq i32 %5, 0
  %diff.i.i.i.i.i.i = sub nsw i64 %len1.i.i.i.i, %4
  %spec.select.i.i.i.i.i.i = select i1 %_15.i.i.i.i.i.i, i64 %diff.i.i.i.i.i.i, i64 %6
  %7 = icmp slt i64 %spec.select.i.i.i.i.i.i, 0
  br i1 %7, label %bb2, label %bb12

bb2:                                              ; preds = %start
  %value.sroa.0.0.copyload = load i64, ptr %tail, align 8
  %value.sroa.4.0.tail.sroa_idx = getelementptr inbounds nuw i8, ptr %tail, i64 8
  %value.sroa.4.0.copyload = load ptr, ptr %value.sroa.4.0.tail.sroa_idx, align 8
  %value.sroa.5.0.tail.sroa_idx = getelementptr inbounds nuw i8, ptr %tail, i64 16
  %value.sroa.5.0.copyload = load i64, ptr %value.sroa.5.0.tail.sroa_idx, align 8
  br label %bb4

bb12:                                             ; preds = %start, %bb10
  ret void

bb4:                                              ; preds = %bb6, %bb2
  %gap_guard.sroa.5.0 = phi ptr [ %tail, %bb2 ], [ %sift.sroa.0.0, %bb6 ]
  %sift.sroa.0.0 = getelementptr inbounds i8, ptr %gap_guard.sroa.5.0, i64 -24
  tail call void @llvm.memcpy.p0.p0.i64(ptr noundef nonnull align 8 dereferenceable(24) %gap_guard.sroa.5.0, ptr noundef nonnull align 8 dereferenceable(24) %sift.sroa.0.0, i64 24, i1 false)
  %_18 = icmp eq ptr %sift.sroa.0.0, %begin
  br i1 %_18, label %bb10, label %bb6

bb6:                                              ; preds = %bb4
  tail call void @llvm.experimental.noalias.scope.decl(metadata !206)
  tail call void @llvm.experimental.noalias.scope.decl(metadata !209)
  tail call void @llvm.experimental.noalias.scope.decl(metadata !212)
  tail call void @llvm.experimental.noalias.scope.decl(metadata !215)
  %8 = getelementptr inbounds i8, ptr %gap_guard.sroa.5.0, i64 -40
  %_14.i.i.i.i3 = load ptr, ptr %8, align 8, !alias.scope !218, !noalias !219, !nonnull !37, !noundef !37
  %9 = getelementptr inbounds i8, ptr %gap_guard.sroa.5.0, i64 -32
  %10 = load i64, ptr %9, align 8, !alias.scope !218, !noalias !219, !noundef !37
  %spec.store.select.i.i.i.i.i.i4 = tail call i64 @llvm.umin.i64(i64 range(i64 0, -9223372036854775808) %value.sroa.5.0.copyload, i64 range(i64 0, -9223372036854775808) %10)
  %11 = tail call i32 @memcmp(ptr nonnull readonly align 1 %value.sroa.4.0.copyload, ptr nonnull readonly align 1 %_14.i.i.i.i3, i64 %spec.store.select.i.i.i.i.i.i4), !alias.scope !224, !noalias !231
  %12 = sext i32 %11 to i64
  %_15.i.i.i.i.i.i5 = icmp eq i32 %11, 0
  %diff.i.i.i.i.i.i6 = sub nsw i64 %value.sroa.5.0.copyload, %10
  %spec.select.i.i.i.i.i.i7 = select i1 %_15.i.i.i.i.i.i5, i64 %diff.i.i.i.i.i.i6, i64 %12
  %13 = icmp slt i64 %spec.select.i.i.i.i.i.i7, 0
  br i1 %13, label %bb4, label %bb10

bb10:                                             ; preds = %bb6, %bb4
  store i64 %value.sroa.0.0.copyload, ptr %sift.sroa.0.0, align 8, !noalias !232
  %tmp.sroa.4.0.sift.sroa.0.0.lcssa.sroa_idx = getelementptr inbounds i8, ptr %gap_guard.sroa.5.0, i64 -16
  store ptr %value.sroa.4.0.copyload, ptr %tmp.sroa.4.0.sift.sroa.0.0.lcssa.sroa_idx, align 8, !noalias !232
  %tmp.sroa.5.0.sift.sroa.0.0.lcssa.sroa_idx = getelementptr inbounds i8, ptr %gap_guard.sroa.5.0, i64 -8
  store i64 %value.sroa.5.0.copyload, ptr %tmp.sroa.5.0.sift.sroa.0.0.lcssa.sroa_idx, align 8, !noalias !232
  br label %bb12
}

; core::slice::sort::shared::smallsort::sort4_stable
; Function Attrs: mustprogress nofree norecurse nounwind nonlazybind willreturn memory(read, argmem: readwrite, inaccessiblemem: readwrite) uwtable
define void @_ZN4core5slice4sort6shared9smallsort12sort4_stable17h8dbcb2c0d021ad35E(ptr noundef readonly captures(none) %v_base, ptr noundef writeonly captures(none) initializes((0, 96)) %dst, ptr noalias nonnull readnone align 1 captures(none) %is_less) unnamed_addr #5 personality ptr @rust_eh_personality {
start:
  tail call void @llvm.experimental.noalias.scope.decl(metadata !237)
  tail call void @llvm.experimental.noalias.scope.decl(metadata !240)
  tail call void @llvm.experimental.noalias.scope.decl(metadata !242)
  tail call void @llvm.experimental.noalias.scope.decl(metadata !245)
  tail call void @llvm.experimental.noalias.scope.decl(metadata !247)
  tail call void @llvm.experimental.noalias.scope.decl(metadata !250)
  tail call void @llvm.experimental.noalias.scope.decl(metadata !252)
  tail call void @llvm.experimental.noalias.scope.decl(metadata !255)
  %0 = getelementptr inbounds nuw i8, ptr %v_base, i64 32
  %_7.i.i.i.i = load ptr, ptr %0, align 8, !alias.scope !257, !noalias !258, !nonnull !37, !noundef !37
  %1 = getelementptr inbounds nuw i8, ptr %v_base, i64 40
  %len1.i.i.i.i = load i64, ptr %1, align 8, !alias.scope !257, !noalias !258, !noundef !37
  %2 = getelementptr inbounds nuw i8, ptr %v_base, i64 8
  %_14.i.i.i.i = load ptr, ptr %2, align 8, !alias.scope !258, !noalias !257, !nonnull !37, !noundef !37
  %3 = getelementptr inbounds nuw i8, ptr %v_base, i64 16
  %4 = load i64, ptr %3, align 8, !alias.scope !258, !noalias !257, !noundef !37
  %spec.store.select.i.i.i.i.i.i = tail call i64 @llvm.umin.i64(i64 range(i64 0, -9223372036854775808) %len1.i.i.i.i, i64 range(i64 0, -9223372036854775808) %4)
  %5 = tail call i32 @memcmp(ptr nonnull readonly align 1 %_7.i.i.i.i, ptr nonnull readonly align 1 %_14.i.i.i.i, i64 %spec.store.select.i.i.i.i.i.i), !alias.scope !259, !noalias !266
  %6 = sext i32 %5 to i64
  %_15.i.i.i.i.i.i = icmp eq i32 %5, 0
  %diff.i.i.i.i.i.i = sub nsw i64 %len1.i.i.i.i, %4
  %spec.select.i.i.i.i.i.i = select i1 %_15.i.i.i.i.i.i, i64 %diff.i.i.i.i.i.i, i64 %6
  %7 = icmp sgt i64 %spec.select.i.i.i.i.i.i, -1
  tail call void @llvm.experimental.noalias.scope.decl(metadata !267)
  tail call void @llvm.experimental.noalias.scope.decl(metadata !270)
  tail call void @llvm.experimental.noalias.scope.decl(metadata !272)
  tail call void @llvm.experimental.noalias.scope.decl(metadata !275)
  tail call void @llvm.experimental.noalias.scope.decl(metadata !277)
  tail call void @llvm.experimental.noalias.scope.decl(metadata !280)
  tail call void @llvm.experimental.noalias.scope.decl(metadata !282)
  tail call void @llvm.experimental.noalias.scope.decl(metadata !285)
  %8 = getelementptr inbounds nuw i8, ptr %v_base, i64 80
  %_7.i.i.i.i7 = load ptr, ptr %8, align 8, !alias.scope !287, !noalias !288, !nonnull !37, !noundef !37
  %9 = getelementptr inbounds nuw i8, ptr %v_base, i64 88
  %len1.i.i.i.i8 = load i64, ptr %9, align 8, !alias.scope !287, !noalias !288, !noundef !37
  %10 = getelementptr inbounds nuw i8, ptr %v_base, i64 56
  %_14.i.i.i.i9 = load ptr, ptr %10, align 8, !alias.scope !288, !noalias !287, !nonnull !37, !noundef !37
  %11 = getelementptr inbounds nuw i8, ptr %v_base, i64 64
  %12 = load i64, ptr %11, align 8, !alias.scope !288, !noalias !287, !noundef !37
  %spec.store.select.i.i.i.i.i.i10 = tail call i64 @llvm.umin.i64(i64 range(i64 0, -9223372036854775808) %len1.i.i.i.i8, i64 range(i64 0, -9223372036854775808) %12)
  %13 = tail call i32 @memcmp(ptr nonnull readonly align 1 %_7.i.i.i.i7, ptr nonnull readonly align 1 %_14.i.i.i.i9, i64 %spec.store.select.i.i.i.i.i.i10), !alias.scope !289, !noalias !296
  %14 = sext i32 %13 to i64
  %_15.i.i.i.i.i.i11 = icmp eq i32 %13, 0
  %diff.i.i.i.i.i.i12 = sub nsw i64 %len1.i.i.i.i8, %12
  %spec.select.i.i.i.i.i.i13 = select i1 %_15.i.i.i.i.i.i11, i64 %diff.i.i.i.i.i.i12, i64 %14
  %15 = icmp slt i64 %spec.select.i.i.i.i.i.i13, 0
  %spec.select.i.i.i.i.i.i.lobit = lshr i64 %spec.select.i.i.i.i.i.i, 63
  %a = getelementptr inbounds nuw %"alloc::string::String", ptr %v_base, i64 %spec.select.i.i.i.i.i.i.lobit
  %count2 = zext i1 %7 to i64
  %b = getelementptr inbounds nuw %"alloc::string::String", ptr %v_base, i64 %count2
  %count3 = select i1 %15, i64 3, i64 2
  %c = getelementptr inbounds nuw %"alloc::string::String", ptr %v_base, i64 %count3
  %count4 = select i1 %15, i64 2, i64 3
  %d = getelementptr inbounds nuw %"alloc::string::String", ptr %v_base, i64 %count4
  tail call void @llvm.experimental.noalias.scope.decl(metadata !297)
  tail call void @llvm.experimental.noalias.scope.decl(metadata !300)
  tail call void @llvm.experimental.noalias.scope.decl(metadata !302)
  tail call void @llvm.experimental.noalias.scope.decl(metadata !305)
  tail call void @llvm.experimental.noalias.scope.decl(metadata !307)
  tail call void @llvm.experimental.noalias.scope.decl(metadata !310)
  tail call void @llvm.experimental.noalias.scope.decl(metadata !312)
  tail call void @llvm.experimental.noalias.scope.decl(metadata !315)
  %16 = getelementptr inbounds nuw i8, ptr %c, i64 8
  %_7.i.i.i.i14 = load ptr, ptr %16, align 8, !alias.scope !317, !noalias !318, !nonnull !37, !noundef !37
  %17 = getelementptr inbounds nuw i8, ptr %c, i64 16
  %len1.i.i.i.i15 = load i64, ptr %17, align 8, !alias.scope !317, !noalias !318, !noundef !37
  %18 = getelementptr inbounds nuw i8, ptr %a, i64 8
  %_14.i.i.i.i16 = load ptr, ptr %18, align 8, !alias.scope !318, !noalias !317, !nonnull !37, !noundef !37
  %19 = getelementptr inbounds nuw i8, ptr %a, i64 16
  %20 = load i64, ptr %19, align 8, !alias.scope !318, !noalias !317, !noundef !37
  %spec.store.select.i.i.i.i.i.i17 = tail call i64 @llvm.umin.i64(i64 range(i64 0, -9223372036854775808) %len1.i.i.i.i15, i64 range(i64 0, -9223372036854775808) %20)
  %21 = tail call i32 @memcmp(ptr nonnull readonly align 1 %_7.i.i.i.i14, ptr nonnull readonly align 1 %_14.i.i.i.i16, i64 %spec.store.select.i.i.i.i.i.i17), !alias.scope !319, !noalias !326
  %22 = sext i32 %21 to i64
  %_15.i.i.i.i.i.i18 = icmp eq i32 %21, 0
  %diff.i.i.i.i.i.i19 = sub nsw i64 %len1.i.i.i.i15, %20
  %spec.select.i.i.i.i.i.i20 = select i1 %_15.i.i.i.i.i.i18, i64 %diff.i.i.i.i.i.i19, i64 %22
  %23 = icmp slt i64 %spec.select.i.i.i.i.i.i20, 0
  tail call void @llvm.experimental.noalias.scope.decl(metadata !327)
  tail call void @llvm.experimental.noalias.scope.decl(metadata !330)
  tail call void @llvm.experimental.noalias.scope.decl(metadata !332)
  tail call void @llvm.experimental.noalias.scope.decl(metadata !335)
  tail call void @llvm.experimental.noalias.scope.decl(metadata !337)
  tail call void @llvm.experimental.noalias.scope.decl(metadata !340)
  tail call void @llvm.experimental.noalias.scope.decl(metadata !342)
  tail call void @llvm.experimental.noalias.scope.decl(metadata !345)
  %24 = getelementptr inbounds nuw i8, ptr %d, i64 8
  %_7.i.i.i.i21 = load ptr, ptr %24, align 8, !alias.scope !347, !noalias !348, !nonnull !37, !noundef !37
  %25 = getelementptr inbounds nuw i8, ptr %d, i64 16
  %len1.i.i.i.i22 = load i64, ptr %25, align 8, !alias.scope !347, !noalias !348, !noundef !37
  %26 = getelementptr inbounds nuw i8, ptr %b, i64 8
  %_14.i.i.i.i23 = load ptr, ptr %26, align 8, !alias.scope !348, !noalias !347, !nonnull !37, !noundef !37
  %27 = getelementptr inbounds nuw i8, ptr %b, i64 16
  %28 = load i64, ptr %27, align 8, !alias.scope !348, !noalias !347, !noundef !37
  %spec.store.select.i.i.i.i.i.i24 = tail call i64 @llvm.umin.i64(i64 range(i64 0, -9223372036854775808) %len1.i.i.i.i22, i64 range(i64 0, -9223372036854775808) %28)
  %29 = tail call i32 @memcmp(ptr nonnull readonly align 1 %_7.i.i.i.i21, ptr nonnull readonly align 1 %_14.i.i.i.i23, i64 %spec.store.select.i.i.i.i.i.i24), !alias.scope !349, !noalias !356
  %30 = sext i32 %29 to i64
  %_15.i.i.i.i.i.i25 = icmp eq i32 %29, 0
  %diff.i.i.i.i.i.i26 = sub nsw i64 %len1.i.i.i.i22, %28
  %spec.select.i.i.i.i.i.i27 = select i1 %_15.i.i.i.i.i.i25, i64 %diff.i.i.i.i.i.i26, i64 %30
  %31 = icmp slt i64 %spec.select.i.i.i.i.i.i27, 0
  %32 = select i1 %23, ptr %c, ptr %a, !unpredictable !37
  %33 = select i1 %31, ptr %b, ptr %d, !unpredictable !37
  %34 = select i1 %31, ptr %c, ptr %b, !unpredictable !37
  %35 = select i1 %23, ptr %a, ptr %34, !unpredictable !37
  %36 = select i1 %23, ptr %b, ptr %c, !unpredictable !37
  %37 = select i1 %31, ptr %d, ptr %36, !unpredictable !37
  tail call void @llvm.experimental.noalias.scope.decl(metadata !357)
  tail call void @llvm.experimental.noalias.scope.decl(metadata !360)
  tail call void @llvm.experimental.noalias.scope.decl(metadata !362)
  tail call void @llvm.experimental.noalias.scope.decl(metadata !365)
  tail call void @llvm.experimental.noalias.scope.decl(metadata !367)
  tail call void @llvm.experimental.noalias.scope.decl(metadata !370)
  tail call void @llvm.experimental.noalias.scope.decl(metadata !372)
  tail call void @llvm.experimental.noalias.scope.decl(metadata !375)
  %38 = getelementptr inbounds nuw i8, ptr %37, i64 8
  %_7.i.i.i.i28 = load ptr, ptr %38, align 8, !alias.scope !377, !noalias !378, !nonnull !37, !noundef !37
  %39 = getelementptr inbounds nuw i8, ptr %37, i64 16
  %len1.i.i.i.i29 = load i64, ptr %39, align 8, !alias.scope !377, !noalias !378, !noundef !37
  %40 = getelementptr inbounds nuw i8, ptr %35, i64 8
  %_14.i.i.i.i30 = load ptr, ptr %40, align 8, !alias.scope !378, !noalias !377, !nonnull !37, !noundef !37
  %41 = getelementptr inbounds nuw i8, ptr %35, i64 16
  %42 = load i64, ptr %41, align 8, !alias.scope !378, !noalias !377, !noundef !37
  %spec.store.select.i.i.i.i.i.i31 = tail call i64 @llvm.umin.i64(i64 range(i64 0, -9223372036854775808) %len1.i.i.i.i29, i64 range(i64 0, -9223372036854775808) %42)
  %43 = tail call i32 @memcmp(ptr nonnull readonly align 1 %_7.i.i.i.i28, ptr nonnull readonly align 1 %_14.i.i.i.i30, i64 %spec.store.select.i.i.i.i.i.i31), !alias.scope !379, !noalias !386
  %44 = sext i32 %43 to i64
  %_15.i.i.i.i.i.i32 = icmp eq i32 %43, 0
  %diff.i.i.i.i.i.i33 = sub nsw i64 %len1.i.i.i.i29, %42
  %spec.select.i.i.i.i.i.i34 = select i1 %_15.i.i.i.i.i.i32, i64 %diff.i.i.i.i.i.i33, i64 %44
  %45 = icmp slt i64 %spec.select.i.i.i.i.i.i34, 0
  %46 = select i1 %45, ptr %37, ptr %35, !unpredictable !37
  %47 = select i1 %45, ptr %35, ptr %37, !unpredictable !37
  tail call void @llvm.memcpy.p0.p0.i64(ptr noundef nonnull align 8 dereferenceable(24) %dst, ptr noundef nonnull align 8 dereferenceable(24) %32, i64 24, i1 false)
  %dst5 = getelementptr inbounds nuw i8, ptr %dst, i64 24
  tail call void @llvm.memcpy.p0.p0.i64(ptr noundef nonnull align 8 dereferenceable(24) %dst5, ptr noundef nonnull align 8 dereferenceable(24) %46, i64 24, i1 false)
  %dst6 = getelementptr inbounds nuw i8, ptr %dst, i64 48
  tail call void @llvm.memcpy.p0.p0.i64(ptr noundef nonnull align 8 dereferenceable(24) %dst6, ptr noundef nonnull align 8 dereferenceable(24) %47, i64 24, i1 false)
  %48 = getelementptr inbounds nuw i8, ptr %dst, i64 72
  tail call void @llvm.memcpy.p0.p0.i64(ptr noundef nonnull align 8 dereferenceable(24) %48, ptr noundef nonnull align 8 dereferenceable(24) %33, i64 24, i1 false)
  ret void
}

; core::slice::sort::shared::smallsort::sort4_stable
; Function Attrs: mustprogress nofree norecurse nosync nounwind nonlazybind willreturn memory(argmem: readwrite, inaccessiblemem: readwrite) uwtable
define void @_ZN4core5slice4sort6shared9smallsort12sort4_stable17hdf74f2b460780f44E(ptr noundef readonly captures(none) %v_base, ptr noundef writeonly captures(none) initializes((0, 16)) %dst, ptr noalias noundef readnone align 8 captures(none) dereferenceable(8) %is_less) unnamed_addr #6 personality ptr @rust_eh_personality {
start:
  %_7 = getelementptr inbounds nuw i8, ptr %v_base, i64 4
  tail call void @llvm.experimental.noalias.scope.decl(metadata !387)
  tail call void @llvm.experimental.noalias.scope.decl(metadata !390)
  tail call void @llvm.experimental.noalias.scope.decl(metadata !392)
  tail call void @llvm.experimental.noalias.scope.decl(metadata !395)
  tail call void @llvm.experimental.noalias.scope.decl(metadata !397)
  tail call void @llvm.experimental.noalias.scope.decl(metadata !400)
  tail call void @llvm.experimental.noalias.scope.decl(metadata !402)
  tail call void @llvm.experimental.noalias.scope.decl(metadata !405)
  %_3.i.i.i.i = load i32, ptr %_7, align 4, !alias.scope !407, !noalias !408, !noundef !37
  %_4.i.i.i.i = load i32, ptr %v_base, align 4, !alias.scope !408, !noalias !407, !noundef !37
  %_0.i = icmp slt i32 %_3.i.i.i.i, %_4.i.i.i.i
  %_12 = getelementptr inbounds nuw i8, ptr %v_base, i64 12
  %_14 = getelementptr inbounds nuw i8, ptr %v_base, i64 8
  tail call void @llvm.experimental.noalias.scope.decl(metadata !409)
  tail call void @llvm.experimental.noalias.scope.decl(metadata !412)
  tail call void @llvm.experimental.noalias.scope.decl(metadata !414)
  tail call void @llvm.experimental.noalias.scope.decl(metadata !417)
  tail call void @llvm.experimental.noalias.scope.decl(metadata !419)
  tail call void @llvm.experimental.noalias.scope.decl(metadata !422)
  tail call void @llvm.experimental.noalias.scope.decl(metadata !424)
  tail call void @llvm.experimental.noalias.scope.decl(metadata !427)
  %_3.i.i.i.i7 = load i32, ptr %_12, align 4, !alias.scope !429, !noalias !430, !noundef !37
  %_4.i.i.i.i8 = load i32, ptr %_14, align 4, !alias.scope !430, !noalias !429, !noundef !37
  %_0.i9 = icmp slt i32 %_3.i.i.i.i7, %_4.i.i.i.i8
  %count = zext i1 %_0.i to i64
  %a = getelementptr inbounds nuw i32, ptr %v_base, i64 %count
  %_19 = xor i1 %_0.i, true
  %count2 = zext i1 %_19 to i64
  %b = getelementptr inbounds nuw i32, ptr %v_base, i64 %count2
  %count3 = select i1 %_0.i9, i64 3, i64 2
  %c = getelementptr inbounds nuw i32, ptr %v_base, i64 %count3
  %count4 = select i1 %_0.i9, i64 2, i64 3
  %d = getelementptr inbounds nuw i32, ptr %v_base, i64 %count4
  tail call void @llvm.experimental.noalias.scope.decl(metadata !431)
  tail call void @llvm.experimental.noalias.scope.decl(metadata !434)
  tail call void @llvm.experimental.noalias.scope.decl(metadata !436)
  tail call void @llvm.experimental.noalias.scope.decl(metadata !439)
  tail call void @llvm.experimental.noalias.scope.decl(metadata !441)
  tail call void @llvm.experimental.noalias.scope.decl(metadata !444)
  tail call void @llvm.experimental.noalias.scope.decl(metadata !446)
  tail call void @llvm.experimental.noalias.scope.decl(metadata !449)
  %_3.i.i.i.i10 = load i32, ptr %c, align 4, !alias.scope !451, !noalias !452, !noundef !37
  %_4.i.i.i.i11 = load i32, ptr %a, align 4, !alias.scope !452, !noalias !451, !noundef !37
  %_0.i12 = icmp slt i32 %_3.i.i.i.i10, %_4.i.i.i.i11
  tail call void @llvm.experimental.noalias.scope.decl(metadata !453)
  tail call void @llvm.experimental.noalias.scope.decl(metadata !456)
  tail call void @llvm.experimental.noalias.scope.decl(metadata !458)
  tail call void @llvm.experimental.noalias.scope.decl(metadata !461)
  tail call void @llvm.experimental.noalias.scope.decl(metadata !463)
  tail call void @llvm.experimental.noalias.scope.decl(metadata !466)
  tail call void @llvm.experimental.noalias.scope.decl(metadata !468)
  tail call void @llvm.experimental.noalias.scope.decl(metadata !471)
  %_3.i.i.i.i13 = load i32, ptr %d, align 4, !alias.scope !473, !noalias !474, !noundef !37
  %_4.i.i.i.i14 = load i32, ptr %b, align 4, !alias.scope !474, !noalias !473, !noundef !37
  %_0.i15 = icmp slt i32 %_3.i.i.i.i13, %_4.i.i.i.i14
  %0 = select i1 %_0.i12, ptr %c, ptr %a, !unpredictable !37
  %1 = select i1 %_0.i15, ptr %c, ptr %b, !unpredictable !37
  %2 = select i1 %_0.i12, ptr %a, ptr %1, !unpredictable !37
  %3 = select i1 %_0.i12, ptr %b, ptr %c, !unpredictable !37
  %4 = select i1 %_0.i15, ptr %d, ptr %3, !unpredictable !37
  tail call void @llvm.experimental.noalias.scope.decl(metadata !475)
  tail call void @llvm.experimental.noalias.scope.decl(metadata !478)
  tail call void @llvm.experimental.noalias.scope.decl(metadata !480)
  tail call void @llvm.experimental.noalias.scope.decl(metadata !483)
  tail call void @llvm.experimental.noalias.scope.decl(metadata !485)
  tail call void @llvm.experimental.noalias.scope.decl(metadata !488)
  tail call void @llvm.experimental.noalias.scope.decl(metadata !490)
  tail call void @llvm.experimental.noalias.scope.decl(metadata !493)
  %_3.i.i.i.i16 = load i32, ptr %4, align 4, !alias.scope !495, !noalias !496, !noundef !37
  %_4.i.i.i.i17 = load i32, ptr %2, align 4, !alias.scope !496, !noalias !495, !noundef !37
  %_0.i18 = icmp slt i32 %_3.i.i.i.i16, %_4.i.i.i.i17
  %5 = load i32, ptr %0, align 4
  store i32 %5, ptr %dst, align 4
  %dst5 = getelementptr inbounds nuw i8, ptr %dst, i64 4
  %.val = load i32, ptr %4, align 4
  %.val19 = load i32, ptr %2, align 4
  %6 = select i1 %_0.i18, i32 %.val, i32 %.val19
  store i32 %6, ptr %dst5, align 4
  %dst6 = getelementptr inbounds nuw i8, ptr %dst, i64 8
  %.val20 = load i32, ptr %2, align 4
  %.val21 = load i32, ptr %4, align 4
  %7 = select i1 %_0.i18, i32 %.val20, i32 %.val21
  store i32 %7, ptr %dst6, align 4
  %8 = getelementptr inbounds nuw i8, ptr %dst, i64 12
  %b.val = load i32, ptr %b, align 4
  %d.val = load i32, ptr %d, align 4
  %9 = select i1 %_0.i15, i32 %b.val, i32 %d.val
  store i32 %9, ptr %8, align 4
  ret void
}

; core::slice::sort::shared::smallsort::sort8_stable
; Function Attrs: nonlazybind uwtable
define void @_ZN4core5slice4sort6shared9smallsort12sort8_stable17hed0c5b8627756ff6E(ptr noundef readonly captures(none) %v_base, ptr noundef writeonly captures(none) initializes((0, 32)) %dst, ptr noundef captures(address) initializes((0, 32)) %scratch_base, ptr noalias readnone align 8 captures(none) %is_less) unnamed_addr #1 personality ptr @rust_eh_personality {
start:
  %_7.i = getelementptr inbounds nuw i8, ptr %v_base, i64 4
  tail call void @llvm.experimental.noalias.scope.decl(metadata !497)
  tail call void @llvm.experimental.noalias.scope.decl(metadata !500)
  tail call void @llvm.experimental.noalias.scope.decl(metadata !502)
  tail call void @llvm.experimental.noalias.scope.decl(metadata !505)
  tail call void @llvm.experimental.noalias.scope.decl(metadata !507)
  tail call void @llvm.experimental.noalias.scope.decl(metadata !510)
  tail call void @llvm.experimental.noalias.scope.decl(metadata !512)
  tail call void @llvm.experimental.noalias.scope.decl(metadata !515)
  %_3.i.i.i.i.i = load i32, ptr %_7.i, align 4, !alias.scope !517, !noalias !518, !noundef !37
  %_4.i.i.i.i.i = load i32, ptr %v_base, align 4, !alias.scope !518, !noalias !517, !noundef !37
  %_0.i.i = icmp slt i32 %_3.i.i.i.i.i, %_4.i.i.i.i.i
  %_12.i = getelementptr inbounds nuw i8, ptr %v_base, i64 12
  %_14.i = getelementptr inbounds nuw i8, ptr %v_base, i64 8
  tail call void @llvm.experimental.noalias.scope.decl(metadata !519)
  tail call void @llvm.experimental.noalias.scope.decl(metadata !522)
  tail call void @llvm.experimental.noalias.scope.decl(metadata !524)
  tail call void @llvm.experimental.noalias.scope.decl(metadata !527)
  tail call void @llvm.experimental.noalias.scope.decl(metadata !529)
  tail call void @llvm.experimental.noalias.scope.decl(metadata !532)
  tail call void @llvm.experimental.noalias.scope.decl(metadata !534)
  tail call void @llvm.experimental.noalias.scope.decl(metadata !537)
  %_3.i.i.i.i7.i = load i32, ptr %_12.i, align 4, !alias.scope !539, !noalias !540, !noundef !37
  %_4.i.i.i.i8.i = load i32, ptr %_14.i, align 4, !alias.scope !540, !noalias !539, !noundef !37
  %_0.i9.i = icmp slt i32 %_3.i.i.i.i7.i, %_4.i.i.i.i8.i
  %count.i = zext i1 %_0.i.i to i64
  %a.i = getelementptr inbounds nuw i32, ptr %v_base, i64 %count.i
  %_19.i = xor i1 %_0.i.i, true
  %count2.i = zext i1 %_19.i to i64
  %b.i = getelementptr inbounds nuw i32, ptr %v_base, i64 %count2.i
  %count3.i = select i1 %_0.i9.i, i64 3, i64 2
  %c.i = getelementptr inbounds nuw i32, ptr %v_base, i64 %count3.i
  %count4.i = select i1 %_0.i9.i, i64 2, i64 3
  %d.i = getelementptr inbounds nuw i32, ptr %v_base, i64 %count4.i
  tail call void @llvm.experimental.noalias.scope.decl(metadata !541)
  tail call void @llvm.experimental.noalias.scope.decl(metadata !544)
  tail call void @llvm.experimental.noalias.scope.decl(metadata !546)
  tail call void @llvm.experimental.noalias.scope.decl(metadata !549)
  tail call void @llvm.experimental.noalias.scope.decl(metadata !551)
  tail call void @llvm.experimental.noalias.scope.decl(metadata !554)
  tail call void @llvm.experimental.noalias.scope.decl(metadata !556)
  tail call void @llvm.experimental.noalias.scope.decl(metadata !559)
  %_3.i.i.i.i10.i = load i32, ptr %c.i, align 4, !alias.scope !561, !noalias !562, !noundef !37
  %_4.i.i.i.i11.i = load i32, ptr %a.i, align 4, !alias.scope !562, !noalias !561, !noundef !37
  %_0.i12.i = icmp slt i32 %_3.i.i.i.i10.i, %_4.i.i.i.i11.i
  tail call void @llvm.experimental.noalias.scope.decl(metadata !563)
  tail call void @llvm.experimental.noalias.scope.decl(metadata !566)
  tail call void @llvm.experimental.noalias.scope.decl(metadata !568)
  tail call void @llvm.experimental.noalias.scope.decl(metadata !571)
  tail call void @llvm.experimental.noalias.scope.decl(metadata !573)
  tail call void @llvm.experimental.noalias.scope.decl(metadata !576)
  tail call void @llvm.experimental.noalias.scope.decl(metadata !578)
  tail call void @llvm.experimental.noalias.scope.decl(metadata !581)
  %_3.i.i.i.i13.i = load i32, ptr %d.i, align 4, !alias.scope !583, !noalias !584, !noundef !37
  %_4.i.i.i.i14.i = load i32, ptr %b.i, align 4, !alias.scope !584, !noalias !583, !noundef !37
  %_0.i15.i = icmp slt i32 %_3.i.i.i.i13.i, %_4.i.i.i.i14.i
  %0 = select i1 %_0.i12.i, ptr %c.i, ptr %a.i, !unpredictable !37
  %1 = select i1 %_0.i15.i, ptr %c.i, ptr %b.i, !unpredictable !37
  %2 = select i1 %_0.i12.i, ptr %a.i, ptr %1, !unpredictable !37
  %3 = select i1 %_0.i12.i, ptr %b.i, ptr %c.i, !unpredictable !37
  %4 = select i1 %_0.i15.i, ptr %d.i, ptr %3, !unpredictable !37
  tail call void @llvm.experimental.noalias.scope.decl(metadata !585)
  tail call void @llvm.experimental.noalias.scope.decl(metadata !588)
  tail call void @llvm.experimental.noalias.scope.decl(metadata !590)
  tail call void @llvm.experimental.noalias.scope.decl(metadata !593)
  tail call void @llvm.experimental.noalias.scope.decl(metadata !595)
  tail call void @llvm.experimental.noalias.scope.decl(metadata !598)
  tail call void @llvm.experimental.noalias.scope.decl(metadata !600)
  tail call void @llvm.experimental.noalias.scope.decl(metadata !603)
  %_3.i.i.i.i16.i = load i32, ptr %4, align 4, !alias.scope !605, !noalias !606, !noundef !37
  %_4.i.i.i.i17.i = load i32, ptr %2, align 4, !alias.scope !606, !noalias !605, !noundef !37
  %_0.i18.i = icmp slt i32 %_3.i.i.i.i16.i, %_4.i.i.i.i17.i
  %5 = load i32, ptr %0, align 4
  store i32 %5, ptr %scratch_base, align 4
  %dst5.i = getelementptr inbounds nuw i8, ptr %scratch_base, i64 4
  %.val.i = load i32, ptr %4, align 4
  %.val19.i = load i32, ptr %2, align 4
  %6 = select i1 %_0.i18.i, i32 %.val.i, i32 %.val19.i
  store i32 %6, ptr %dst5.i, align 4
  %dst6.i = getelementptr inbounds nuw i8, ptr %scratch_base, i64 8
  %.val20.i = load i32, ptr %2, align 4
  %.val21.i = load i32, ptr %4, align 4
  %7 = select i1 %_0.i18.i, i32 %.val20.i, i32 %.val21.i
  store i32 %7, ptr %dst6.i, align 4
  %8 = getelementptr inbounds nuw i8, ptr %scratch_base, i64 12
  %b.val.i = load i32, ptr %b.i, align 4
  %d.val.i = load i32, ptr %d.i, align 4
  %9 = select i1 %_0.i15.i, i32 %b.val.i, i32 %d.val.i
  store i32 %9, ptr %8, align 4
  %_9 = getelementptr inbounds nuw i8, ptr %v_base, i64 16
  %_10 = getelementptr i8, ptr %scratch_base, i64 16
  %_7.i1 = getelementptr inbounds nuw i8, ptr %v_base, i64 20
  tail call void @llvm.experimental.noalias.scope.decl(metadata !607)
  tail call void @llvm.experimental.noalias.scope.decl(metadata !610)
  tail call void @llvm.experimental.noalias.scope.decl(metadata !612)
  tail call void @llvm.experimental.noalias.scope.decl(metadata !615)
  tail call void @llvm.experimental.noalias.scope.decl(metadata !617)
  tail call void @llvm.experimental.noalias.scope.decl(metadata !620)
  tail call void @llvm.experimental.noalias.scope.decl(metadata !622)
  tail call void @llvm.experimental.noalias.scope.decl(metadata !625)
  %_3.i.i.i.i.i2 = load i32, ptr %_7.i1, align 4, !alias.scope !627, !noalias !628, !noundef !37
  %_4.i.i.i.i.i3 = load i32, ptr %_9, align 4, !alias.scope !628, !noalias !627, !noundef !37
  %_0.i.i4 = icmp slt i32 %_3.i.i.i.i.i2, %_4.i.i.i.i.i3
  %_12.i5 = getelementptr inbounds nuw i8, ptr %v_base, i64 28
  %_14.i6 = getelementptr inbounds nuw i8, ptr %v_base, i64 24
  tail call void @llvm.experimental.noalias.scope.decl(metadata !629)
  tail call void @llvm.experimental.noalias.scope.decl(metadata !632)
  tail call void @llvm.experimental.noalias.scope.decl(metadata !634)
  tail call void @llvm.experimental.noalias.scope.decl(metadata !637)
  tail call void @llvm.experimental.noalias.scope.decl(metadata !639)
  tail call void @llvm.experimental.noalias.scope.decl(metadata !642)
  tail call void @llvm.experimental.noalias.scope.decl(metadata !644)
  tail call void @llvm.experimental.noalias.scope.decl(metadata !647)
  %_3.i.i.i.i7.i7 = load i32, ptr %_12.i5, align 4, !alias.scope !649, !noalias !650, !noundef !37
  %_4.i.i.i.i8.i8 = load i32, ptr %_14.i6, align 4, !alias.scope !650, !noalias !649, !noundef !37
  %_0.i9.i9 = icmp slt i32 %_3.i.i.i.i7.i7, %_4.i.i.i.i8.i8
  %count.i10 = zext i1 %_0.i.i4 to i64
  %a.i11 = getelementptr inbounds nuw i32, ptr %_9, i64 %count.i10
  %_19.i12 = xor i1 %_0.i.i4, true
  %count2.i13 = zext i1 %_19.i12 to i64
  %b.i14 = getelementptr inbounds nuw i32, ptr %_9, i64 %count2.i13
  %count3.i15 = select i1 %_0.i9.i9, i64 3, i64 2
  %c.i16 = getelementptr inbounds nuw i32, ptr %_9, i64 %count3.i15
  %count4.i17 = select i1 %_0.i9.i9, i64 2, i64 3
  %d.i18 = getelementptr inbounds nuw i32, ptr %_9, i64 %count4.i17
  tail call void @llvm.experimental.noalias.scope.decl(metadata !651)
  tail call void @llvm.experimental.noalias.scope.decl(metadata !654)
  tail call void @llvm.experimental.noalias.scope.decl(metadata !656)
  tail call void @llvm.experimental.noalias.scope.decl(metadata !659)
  tail call void @llvm.experimental.noalias.scope.decl(metadata !661)
  tail call void @llvm.experimental.noalias.scope.decl(metadata !664)
  tail call void @llvm.experimental.noalias.scope.decl(metadata !666)
  tail call void @llvm.experimental.noalias.scope.decl(metadata !669)
  %_3.i.i.i.i10.i19 = load i32, ptr %c.i16, align 4, !alias.scope !671, !noalias !672, !noundef !37
  %_4.i.i.i.i11.i20 = load i32, ptr %a.i11, align 4, !alias.scope !672, !noalias !671, !noundef !37
  %_0.i12.i21 = icmp slt i32 %_3.i.i.i.i10.i19, %_4.i.i.i.i11.i20
  tail call void @llvm.experimental.noalias.scope.decl(metadata !673)
  tail call void @llvm.experimental.noalias.scope.decl(metadata !676)
  tail call void @llvm.experimental.noalias.scope.decl(metadata !678)
  tail call void @llvm.experimental.noalias.scope.decl(metadata !681)
  tail call void @llvm.experimental.noalias.scope.decl(metadata !683)
  tail call void @llvm.experimental.noalias.scope.decl(metadata !686)
  tail call void @llvm.experimental.noalias.scope.decl(metadata !688)
  tail call void @llvm.experimental.noalias.scope.decl(metadata !691)
  %_3.i.i.i.i13.i22 = load i32, ptr %d.i18, align 4, !alias.scope !693, !noalias !694, !noundef !37
  %_4.i.i.i.i14.i23 = load i32, ptr %b.i14, align 4, !alias.scope !694, !noalias !693, !noundef !37
  %_0.i15.i24 = icmp slt i32 %_3.i.i.i.i13.i22, %_4.i.i.i.i14.i23
  %10 = select i1 %_0.i12.i21, ptr %c.i16, ptr %a.i11, !unpredictable !37
  %11 = select i1 %_0.i15.i24, ptr %c.i16, ptr %b.i14, !unpredictable !37
  %12 = select i1 %_0.i12.i21, ptr %a.i11, ptr %11, !unpredictable !37
  %13 = select i1 %_0.i12.i21, ptr %b.i14, ptr %c.i16, !unpredictable !37
  %14 = select i1 %_0.i15.i24, ptr %d.i18, ptr %13, !unpredictable !37
  tail call void @llvm.experimental.noalias.scope.decl(metadata !695)
  tail call void @llvm.experimental.noalias.scope.decl(metadata !698)
  tail call void @llvm.experimental.noalias.scope.decl(metadata !700)
  tail call void @llvm.experimental.noalias.scope.decl(metadata !703)
  tail call void @llvm.experimental.noalias.scope.decl(metadata !705)
  tail call void @llvm.experimental.noalias.scope.decl(metadata !708)
  tail call void @llvm.experimental.noalias.scope.decl(metadata !710)
  tail call void @llvm.experimental.noalias.scope.decl(metadata !713)
  %_3.i.i.i.i16.i25 = load i32, ptr %14, align 4, !alias.scope !715, !noalias !716, !noundef !37
  %_4.i.i.i.i17.i26 = load i32, ptr %12, align 4, !alias.scope !716, !noalias !715, !noundef !37
  %_0.i18.i27 = icmp slt i32 %_3.i.i.i.i16.i25, %_4.i.i.i.i17.i26
  %15 = load i32, ptr %10, align 4
  store i32 %15, ptr %_10, align 4
  %dst5.i28 = getelementptr i8, ptr %scratch_base, i64 20
  %.val.i29 = load i32, ptr %14, align 4
  %.val19.i30 = load i32, ptr %12, align 4
  %16 = select i1 %_0.i18.i27, i32 %.val.i29, i32 %.val19.i30
  store i32 %16, ptr %dst5.i28, align 4
  %dst6.i31 = getelementptr i8, ptr %scratch_base, i64 24
  %.val20.i32 = load i32, ptr %12, align 4
  %.val21.i33 = load i32, ptr %14, align 4
  %17 = select i1 %_0.i18.i27, i32 %.val20.i32, i32 %.val21.i33
  store i32 %17, ptr %dst6.i31, align 4
  %18 = getelementptr i8, ptr %scratch_base, i64 28
  %b.val.i34 = load i32, ptr %b.i14, align 4
  %d.val.i35 = load i32, ptr %d.i18, align 4
  %19 = select i1 %_0.i15.i24, i32 %b.val.i34, i32 %d.val.i35
  store i32 %19, ptr %18, align 4
  tail call void @llvm.experimental.noalias.scope.decl(metadata !717)
  %20 = getelementptr i8, ptr %scratch_base, i64 12
  %21 = getelementptr inbounds nuw i8, ptr %scratch_base, i64 28
  %22 = getelementptr inbounds nuw i8, ptr %dst, i64 28
  tail call void @llvm.experimental.noalias.scope.decl(metadata !720)
  tail call void @llvm.experimental.noalias.scope.decl(metadata !723)
  tail call void @llvm.experimental.noalias.scope.decl(metadata !725), !noalias !728
  tail call void @llvm.experimental.noalias.scope.decl(metadata !731), !noalias !728
  tail call void @llvm.experimental.noalias.scope.decl(metadata !733), !noalias !728
  tail call void @llvm.experimental.noalias.scope.decl(metadata !736), !noalias !728
  tail call void @llvm.experimental.noalias.scope.decl(metadata !738), !noalias !728
  tail call void @llvm.experimental.noalias.scope.decl(metadata !741), !noalias !728
  %_3.i.i.i.i.i36 = load i32, ptr %_10, align 4, !alias.scope !743, !noalias !744, !noundef !37
  %_4.i.i.i.i.i37 = load i32, ptr %scratch_base, align 4, !alias.scope !745, !noalias !746, !noundef !37
  %_0.i.i38 = icmp slt i32 %_3.i.i.i.i.i36, %_4.i.i.i.i.i37
  %is_l.i18.i = xor i1 %_0.i.i38, true
  %23 = tail call i32 @llvm.smin.i32(i32 %_3.i.i.i.i.i36, i32 %_4.i.i.i.i.i37)
  store i32 %23, ptr %dst, align 4, !noalias !747
  %count.i.i = zext i1 %_0.i.i38 to i64
  %_12.i.i = getelementptr inbounds nuw i32, ptr %_10, i64 %count.i.i
  %count2.i.i = zext i1 %is_l.i18.i to i64
  %_14.i.i = getelementptr inbounds nuw i32, ptr %scratch_base, i64 %count2.i.i
  %_16.i.i = getelementptr inbounds nuw i8, ptr %dst, i64 4
  tail call void @llvm.experimental.noalias.scope.decl(metadata !749)
  tail call void @llvm.experimental.noalias.scope.decl(metadata !752)
  tail call void @llvm.experimental.noalias.scope.decl(metadata !754), !noalias !757
  tail call void @llvm.experimental.noalias.scope.decl(metadata !760), !noalias !757
  tail call void @llvm.experimental.noalias.scope.decl(metadata !762), !noalias !757
  tail call void @llvm.experimental.noalias.scope.decl(metadata !765), !noalias !757
  tail call void @llvm.experimental.noalias.scope.decl(metadata !767), !noalias !757
  tail call void @llvm.experimental.noalias.scope.decl(metadata !770), !noalias !757
  %_3.i.i.i.i19.i = load i32, ptr %21, align 4, !alias.scope !772, !noalias !773, !noundef !37
  %_4.i.i.i.i20.i = load i32, ptr %20, align 4, !alias.scope !774, !noalias !775, !noundef !37
  %_0.i21.i = icmp slt i32 %_3.i.i.i.i19.i, %_4.i.i.i.i20.i
  %is_l.i.i = xor i1 %_0.i21.i, true
  %24 = tail call i32 @llvm.smax.i32(i32 %_3.i.i.i.i19.i, i32 %_4.i.i.i.i20.i)
  store i32 %24, ptr %22, align 4, !noalias !776
  %count.neg.i.i = sext i1 %is_l.i.i to i64
  %25 = getelementptr i32, ptr %21, i64 %count.neg.i.i
  %count3.neg.i.i = sext i1 %_0.i21.i to i64
  %26 = getelementptr i32, ptr %20, i64 %count3.neg.i.i
  %27 = getelementptr inbounds nuw i8, ptr %dst, i64 24
  tail call void @llvm.experimental.noalias.scope.decl(metadata !778)
  tail call void @llvm.experimental.noalias.scope.decl(metadata !780)
  tail call void @llvm.experimental.noalias.scope.decl(metadata !782), !noalias !728
  tail call void @llvm.experimental.noalias.scope.decl(metadata !784), !noalias !728
  tail call void @llvm.experimental.noalias.scope.decl(metadata !786), !noalias !728
  tail call void @llvm.experimental.noalias.scope.decl(metadata !788), !noalias !728
  tail call void @llvm.experimental.noalias.scope.decl(metadata !790), !noalias !728
  tail call void @llvm.experimental.noalias.scope.decl(metadata !792), !noalias !728
  %_3.i.i.i.i.i36.1 = load i32, ptr %_12.i.i, align 4, !alias.scope !794, !noalias !795, !noundef !37
  %_4.i.i.i.i.i37.1 = load i32, ptr %_14.i.i, align 4, !alias.scope !796, !noalias !797, !noundef !37
  %_0.i.i38.1 = icmp slt i32 %_3.i.i.i.i.i36.1, %_4.i.i.i.i.i37.1
  %is_l.i18.i.1 = xor i1 %_0.i.i38.1, true
  %28 = tail call i32 @llvm.smin.i32(i32 %_3.i.i.i.i.i36.1, i32 %_4.i.i.i.i.i37.1)
  store i32 %28, ptr %_16.i.i, align 4, !noalias !747
  %count.i.i.1 = zext i1 %_0.i.i38.1 to i64
  %_12.i.i.1 = getelementptr inbounds nuw i32, ptr %_12.i.i, i64 %count.i.i.1
  %count2.i.i.1 = zext i1 %is_l.i18.i.1 to i64
  %_14.i.i.1 = getelementptr inbounds nuw i32, ptr %_14.i.i, i64 %count2.i.i.1
  %_16.i.i.1 = getelementptr inbounds nuw i8, ptr %dst, i64 8
  tail call void @llvm.experimental.noalias.scope.decl(metadata !798)
  tail call void @llvm.experimental.noalias.scope.decl(metadata !800)
  tail call void @llvm.experimental.noalias.scope.decl(metadata !802), !noalias !757
  tail call void @llvm.experimental.noalias.scope.decl(metadata !804), !noalias !757
  tail call void @llvm.experimental.noalias.scope.decl(metadata !806), !noalias !757
  tail call void @llvm.experimental.noalias.scope.decl(metadata !808), !noalias !757
  tail call void @llvm.experimental.noalias.scope.decl(metadata !810), !noalias !757
  tail call void @llvm.experimental.noalias.scope.decl(metadata !812), !noalias !757
  %_3.i.i.i.i19.i.1 = load i32, ptr %25, align 4, !alias.scope !814, !noalias !815, !noundef !37
  %_4.i.i.i.i20.i.1 = load i32, ptr %26, align 4, !alias.scope !816, !noalias !817, !noundef !37
  %_0.i21.i.1 = icmp slt i32 %_3.i.i.i.i19.i.1, %_4.i.i.i.i20.i.1
  %is_l.i.i.1 = xor i1 %_0.i21.i.1, true
  %29 = tail call i32 @llvm.smax.i32(i32 %_3.i.i.i.i19.i.1, i32 %_4.i.i.i.i20.i.1)
  store i32 %29, ptr %27, align 4, !noalias !776
  %count.neg.i.i.1 = sext i1 %is_l.i.i.1 to i64
  %30 = getelementptr i32, ptr %25, i64 %count.neg.i.i.1
  %count3.neg.i.i.1 = sext i1 %_0.i21.i.1 to i64
  %31 = getelementptr i32, ptr %26, i64 %count3.neg.i.i.1
  %32 = getelementptr inbounds nuw i8, ptr %dst, i64 20
  tail call void @llvm.experimental.noalias.scope.decl(metadata !818)
  tail call void @llvm.experimental.noalias.scope.decl(metadata !820)
  tail call void @llvm.experimental.noalias.scope.decl(metadata !822), !noalias !728
  tail call void @llvm.experimental.noalias.scope.decl(metadata !824), !noalias !728
  tail call void @llvm.experimental.noalias.scope.decl(metadata !826), !noalias !728
  tail call void @llvm.experimental.noalias.scope.decl(metadata !828), !noalias !728
  tail call void @llvm.experimental.noalias.scope.decl(metadata !830), !noalias !728
  tail call void @llvm.experimental.noalias.scope.decl(metadata !832), !noalias !728
  %_3.i.i.i.i.i36.2 = load i32, ptr %_12.i.i.1, align 4, !alias.scope !834, !noalias !835, !noundef !37
  %_4.i.i.i.i.i37.2 = load i32, ptr %_14.i.i.1, align 4, !alias.scope !836, !noalias !837, !noundef !37
  %_0.i.i38.2 = icmp slt i32 %_3.i.i.i.i.i36.2, %_4.i.i.i.i.i37.2
  %is_l.i18.i.2 = xor i1 %_0.i.i38.2, true
  %33 = tail call i32 @llvm.smin.i32(i32 %_3.i.i.i.i.i36.2, i32 %_4.i.i.i.i.i37.2)
  store i32 %33, ptr %_16.i.i.1, align 4, !noalias !747
  %count.i.i.2 = zext i1 %_0.i.i38.2 to i64
  %_12.i.i.2 = getelementptr inbounds nuw i32, ptr %_12.i.i.1, i64 %count.i.i.2
  %count2.i.i.2 = zext i1 %is_l.i18.i.2 to i64
  %_14.i.i.2 = getelementptr inbounds nuw i32, ptr %_14.i.i.1, i64 %count2.i.i.2
  %_16.i.i.2 = getelementptr inbounds nuw i8, ptr %dst, i64 12
  tail call void @llvm.experimental.noalias.scope.decl(metadata !838)
  tail call void @llvm.experimental.noalias.scope.decl(metadata !840)
  tail call void @llvm.experimental.noalias.scope.decl(metadata !842), !noalias !757
  tail call void @llvm.experimental.noalias.scope.decl(metadata !844), !noalias !757
  tail call void @llvm.experimental.noalias.scope.decl(metadata !846), !noalias !757
  tail call void @llvm.experimental.noalias.scope.decl(metadata !848), !noalias !757
  tail call void @llvm.experimental.noalias.scope.decl(metadata !850), !noalias !757
  tail call void @llvm.experimental.noalias.scope.decl(metadata !852), !noalias !757
  %_3.i.i.i.i19.i.2 = load i32, ptr %30, align 4, !alias.scope !854, !noalias !855, !noundef !37
  %_4.i.i.i.i20.i.2 = load i32, ptr %31, align 4, !alias.scope !856, !noalias !857, !noundef !37
  %_0.i21.i.2 = icmp slt i32 %_3.i.i.i.i19.i.2, %_4.i.i.i.i20.i.2
  %is_l.i.i.2 = xor i1 %_0.i21.i.2, true
  %34 = tail call i32 @llvm.smax.i32(i32 %_3.i.i.i.i19.i.2, i32 %_4.i.i.i.i20.i.2)
  store i32 %34, ptr %32, align 4, !noalias !776
  %count.neg.i.i.2 = sext i1 %is_l.i.i.2 to i64
  %35 = getelementptr i32, ptr %30, i64 %count.neg.i.i.2
  %count3.neg.i.i.2 = sext i1 %_0.i21.i.2 to i64
  %36 = getelementptr i32, ptr %31, i64 %count3.neg.i.i.2
  %37 = getelementptr inbounds nuw i8, ptr %dst, i64 16
  tail call void @llvm.experimental.noalias.scope.decl(metadata !858)
  tail call void @llvm.experimental.noalias.scope.decl(metadata !860)
  tail call void @llvm.experimental.noalias.scope.decl(metadata !862), !noalias !728
  tail call void @llvm.experimental.noalias.scope.decl(metadata !864), !noalias !728
  tail call void @llvm.experimental.noalias.scope.decl(metadata !866), !noalias !728
  tail call void @llvm.experimental.noalias.scope.decl(metadata !868), !noalias !728
  tail call void @llvm.experimental.noalias.scope.decl(metadata !870), !noalias !728
  tail call void @llvm.experimental.noalias.scope.decl(metadata !872), !noalias !728
  %_3.i.i.i.i.i36.3 = load i32, ptr %_12.i.i.2, align 4, !alias.scope !874, !noalias !875, !noundef !37
  %_4.i.i.i.i.i37.3 = load i32, ptr %_14.i.i.2, align 4, !alias.scope !876, !noalias !877, !noundef !37
  %_0.i.i38.3 = icmp slt i32 %_3.i.i.i.i.i36.3, %_4.i.i.i.i.i37.3
  %is_l.i18.i.3 = xor i1 %_0.i.i38.3, true
  %38 = tail call i32 @llvm.smin.i32(i32 %_3.i.i.i.i.i36.3, i32 %_4.i.i.i.i.i37.3)
  store i32 %38, ptr %_16.i.i.2, align 4, !noalias !747
  %count.i.i.3 = zext i1 %_0.i.i38.3 to i64
  %_12.i.i.3 = getelementptr inbounds nuw i32, ptr %_12.i.i.2, i64 %count.i.i.3
  %count2.i.i.3 = zext i1 %is_l.i18.i.3 to i64
  %_14.i.i.3 = getelementptr inbounds nuw i32, ptr %_14.i.i.2, i64 %count2.i.i.3
  tail call void @llvm.experimental.noalias.scope.decl(metadata !878)
  tail call void @llvm.experimental.noalias.scope.decl(metadata !880)
  tail call void @llvm.experimental.noalias.scope.decl(metadata !882), !noalias !757
  tail call void @llvm.experimental.noalias.scope.decl(metadata !884), !noalias !757
  tail call void @llvm.experimental.noalias.scope.decl(metadata !886), !noalias !757
  tail call void @llvm.experimental.noalias.scope.decl(metadata !888), !noalias !757
  tail call void @llvm.experimental.noalias.scope.decl(metadata !890), !noalias !757
  tail call void @llvm.experimental.noalias.scope.decl(metadata !892), !noalias !757
  %_3.i.i.i.i19.i.3 = load i32, ptr %35, align 4, !alias.scope !894, !noalias !895, !noundef !37
  %_4.i.i.i.i20.i.3 = load i32, ptr %36, align 4, !alias.scope !896, !noalias !897, !noundef !37
  %_0.i21.i.3 = icmp slt i32 %_3.i.i.i.i19.i.3, %_4.i.i.i.i20.i.3
  %is_l.i.i.3 = xor i1 %_0.i21.i.3, true
  %39 = tail call i32 @llvm.smax.i32(i32 %_3.i.i.i.i19.i.3, i32 %_4.i.i.i.i20.i.3)
  store i32 %39, ptr %37, align 4, !noalias !776
  %count.neg.i.i.3 = sext i1 %is_l.i.i.3 to i64
  %40 = getelementptr i32, ptr %35, i64 %count.neg.i.i.3
  %count3.neg.i.i.3 = sext i1 %_0.i21.i.3 to i64
  %41 = getelementptr i32, ptr %36, i64 %count3.neg.i.i.3
  %42 = getelementptr i8, ptr %41, i64 4
  %43 = getelementptr i8, ptr %40, i64 4
  %_31.i = icmp ne ptr %_14.i.i.3, %42
  %_32.i = icmp ne ptr %_12.i.i.3, %43
  %or.cond.i = select i1 %_31.i, i1 true, i1 %_32.i
  br i1 %or.cond.i, label %bb13.i, label %_ZN4core5slice4sort6shared9smallsort19bidirectional_merge17he3b0c15c05973dbcE.exit, !prof !898

bb13.i:                                           ; preds = %start
; call core::slice::sort::shared::smallsort::panic_on_ord_violation
  tail call void @_ZN4core5slice4sort6shared9smallsort22panic_on_ord_violation17hc77a22a2d50782cdE() #32, !noalias !717
  unreachable

_ZN4core5slice4sort6shared9smallsort19bidirectional_merge17he3b0c15c05973dbcE.exit: ; preds = %start
  ret void
}

; core::slice::sort::shared::smallsort::bidirectional_merge
; Function Attrs: nonlazybind uwtable
define void @_ZN4core5slice4sort6shared9smallsort19bidirectional_merge17h5782bbec6bc4ca12E(ptr noalias noundef nonnull readonly align 8 captures(address) %v.0, i64 noundef range(i64 0, 384307168202282326) %v.1, ptr noundef writeonly captures(none) %0, ptr noalias nonnull readnone align 1 captures(none) %is_less) unnamed_addr #1 {
start:
  %len_div_215 = lshr i64 %v.1, 1
  %_7 = icmp samesign ugt i64 %v.1, 1
  tail call void @llvm.assume(i1 %_7)
  %count1 = add nsw i64 %v.1, -1
  %1 = getelementptr inbounds nuw %"alloc::string::String", ptr %0, i64 %count1
  %2 = getelementptr inbounds nuw %"alloc::string::String", ptr %v.0, i64 %count1
  %3 = getelementptr %"alloc::string::String", ptr %v.0, i64 %len_div_215
  %4 = getelementptr i8, ptr %3, i64 -24
  br label %bb15

bb16:                                             ; preds = %bb15
  %5 = getelementptr i8, ptr %24, i64 24
  %6 = getelementptr i8, ptr %23, i64 24
  %_44 = and i64 %v.1, 1
  %_22 = icmp eq i64 %_44, 0
  br i1 %_22, label %bb9, label %bb5

bb15:                                             ; preds = %start, %bb15
  %dst.sroa.0.033 = phi ptr [ %_16.i, %bb15 ], [ %0, %start ]
  %iter.sroa.0.032 = phi i64 [ %_39, %bb15 ], [ 0, %start ]
  %left.sroa.0.031 = phi ptr [ %_14.i, %bb15 ], [ %v.0, %start ]
  %right.sroa.0.030 = phi ptr [ %_12.i, %bb15 ], [ %3, %start ]
  %left_rev.sroa.0.029 = phi ptr [ %24, %bb15 ], [ %4, %start ]
  %right_rev.sroa.0.028 = phi ptr [ %23, %bb15 ], [ %2, %start ]
  %dst_rev.sroa.0.027 = phi ptr [ %25, %bb15 ], [ %1, %start ]
  %_39 = add nuw nsw i64 %iter.sroa.0.032, 1
  tail call void @llvm.experimental.noalias.scope.decl(metadata !899)
  tail call void @llvm.experimental.noalias.scope.decl(metadata !902)
  tail call void @llvm.experimental.noalias.scope.decl(metadata !904), !noalias !907
  tail call void @llvm.experimental.noalias.scope.decl(metadata !910), !noalias !907
  tail call void @llvm.experimental.noalias.scope.decl(metadata !912), !noalias !907
  tail call void @llvm.experimental.noalias.scope.decl(metadata !915), !noalias !907
  tail call void @llvm.experimental.noalias.scope.decl(metadata !917), !noalias !907
  tail call void @llvm.experimental.noalias.scope.decl(metadata !920), !noalias !907
  %7 = getelementptr inbounds nuw i8, ptr %right.sroa.0.030, i64 8
  %_7.i.i.i.i = load ptr, ptr %7, align 8, !alias.scope !922, !noalias !923, !nonnull !37, !noundef !37
  %8 = getelementptr inbounds nuw i8, ptr %right.sroa.0.030, i64 16
  %len1.i.i.i.i = load i64, ptr %8, align 8, !alias.scope !922, !noalias !923, !noundef !37
  %9 = getelementptr inbounds nuw i8, ptr %left.sroa.0.031, i64 8
  %_14.i.i.i.i = load ptr, ptr %9, align 8, !alias.scope !924, !noalias !925, !nonnull !37, !noundef !37
  %10 = getelementptr inbounds nuw i8, ptr %left.sroa.0.031, i64 16
  %11 = load i64, ptr %10, align 8, !alias.scope !924, !noalias !925, !noundef !37
  %spec.store.select.i.i.i.i.i.i = tail call i64 @llvm.umin.i64(i64 range(i64 0, -9223372036854775808) %len1.i.i.i.i, i64 range(i64 0, -9223372036854775808) %11)
  %12 = tail call i32 @memcmp(ptr nonnull readonly align 1 %_7.i.i.i.i, ptr nonnull readonly align 1 %_14.i.i.i.i, i64 %spec.store.select.i.i.i.i.i.i), !alias.scope !926, !noalias !933
  %13 = sext i32 %12 to i64
  %_15.i.i.i.i.i.i = icmp eq i32 %12, 0
  %diff.i.i.i.i.i.i = sub nsw i64 %len1.i.i.i.i, %11
  %spec.select.i.i.i.i.i.i = select i1 %_15.i.i.i.i.i.i, i64 %diff.i.i.i.i.i.i, i64 %13
  %14 = icmp sgt i64 %spec.select.i.i.i.i.i.i, -1
  %..i17 = select i1 %14, ptr %left.sroa.0.031, ptr %right.sroa.0.030
  tail call void @llvm.memcpy.p0.p0.i64(ptr noundef nonnull align 8 dereferenceable(24) %dst.sroa.0.033, ptr noundef nonnull align 8 dereferenceable(24) %..i17, i64 24, i1 false), !noalias !934
  %spec.select.i.i.i.i.i.i.lobit = lshr i64 %spec.select.i.i.i.i.i.i, 63
  %_12.i = getelementptr inbounds nuw %"alloc::string::String", ptr %right.sroa.0.030, i64 %spec.select.i.i.i.i.i.i.lobit
  %count2.i = zext i1 %14 to i64
  %_14.i = getelementptr inbounds nuw %"alloc::string::String", ptr %left.sroa.0.031, i64 %count2.i
  %_16.i = getelementptr inbounds nuw i8, ptr %dst.sroa.0.033, i64 24
  tail call void @llvm.experimental.noalias.scope.decl(metadata !936)
  tail call void @llvm.experimental.noalias.scope.decl(metadata !939)
  tail call void @llvm.experimental.noalias.scope.decl(metadata !941), !noalias !944
  tail call void @llvm.experimental.noalias.scope.decl(metadata !947), !noalias !944
  tail call void @llvm.experimental.noalias.scope.decl(metadata !949), !noalias !944
  tail call void @llvm.experimental.noalias.scope.decl(metadata !952), !noalias !944
  tail call void @llvm.experimental.noalias.scope.decl(metadata !954), !noalias !944
  tail call void @llvm.experimental.noalias.scope.decl(metadata !957), !noalias !944
  %15 = getelementptr inbounds nuw i8, ptr %right_rev.sroa.0.028, i64 8
  %_7.i.i.i.i19 = load ptr, ptr %15, align 8, !alias.scope !959, !noalias !960, !nonnull !37, !noundef !37
  %16 = getelementptr inbounds nuw i8, ptr %right_rev.sroa.0.028, i64 16
  %len1.i.i.i.i20 = load i64, ptr %16, align 8, !alias.scope !959, !noalias !960, !noundef !37
  %17 = getelementptr inbounds nuw i8, ptr %left_rev.sroa.0.029, i64 8
  %_14.i.i.i.i21 = load ptr, ptr %17, align 8, !alias.scope !961, !noalias !962, !nonnull !37, !noundef !37
  %18 = getelementptr inbounds nuw i8, ptr %left_rev.sroa.0.029, i64 16
  %19 = load i64, ptr %18, align 8, !alias.scope !961, !noalias !962, !noundef !37
  %spec.store.select.i.i.i.i.i.i22 = tail call i64 @llvm.umin.i64(i64 range(i64 0, -9223372036854775808) %len1.i.i.i.i20, i64 range(i64 0, -9223372036854775808) %19)
  %20 = tail call i32 @memcmp(ptr nonnull readonly align 1 %_7.i.i.i.i19, ptr nonnull readonly align 1 %_14.i.i.i.i21, i64 %spec.store.select.i.i.i.i.i.i22), !alias.scope !963, !noalias !970
  %21 = sext i32 %20 to i64
  %_15.i.i.i.i.i.i23 = icmp eq i32 %20, 0
  %diff.i.i.i.i.i.i24 = sub nsw i64 %len1.i.i.i.i20, %19
  %spec.select.i.i.i.i.i.i25 = select i1 %_15.i.i.i.i.i.i23, i64 %diff.i.i.i.i.i.i24, i64 %21
  %22 = icmp sgt i64 %spec.select.i.i.i.i.i.i25, -1
  %..i = select i1 %22, ptr %right_rev.sroa.0.028, ptr %left_rev.sroa.0.029
  tail call void @llvm.memcpy.p0.p0.i64(ptr noundef nonnull align 8 dereferenceable(24) %dst_rev.sroa.0.027, ptr noundef nonnull align 8 dereferenceable(24) %..i, i64 24, i1 false), !noalias !971
  %count.neg.i = sext i1 %22 to i64
  %23 = getelementptr %"alloc::string::String", ptr %right_rev.sroa.0.028, i64 %count.neg.i
  %spec.select.i.i.i.i.i.i25.lobit = ashr i64 %spec.select.i.i.i.i.i.i25, 63
  %24 = getelementptr %"alloc::string::String", ptr %left_rev.sroa.0.029, i64 %spec.select.i.i.i.i.i.i25.lobit
  %25 = getelementptr inbounds i8, ptr %dst_rev.sroa.0.027, i64 -24
  %exitcond.not = icmp eq i64 %_39, %len_div_215
  br i1 %exitcond.not, label %bb16, label %bb15

bb5:                                              ; preds = %bb16
  %left_nonempty = icmp ult ptr %_14.i, %5
  %left.sroa.0.0.right.sroa.0.0 = select i1 %left_nonempty, ptr %_14.i, ptr %_12.i
  tail call void @llvm.memcpy.p0.p0.i64(ptr noundef nonnull align 8 dereferenceable(24) %_16.i, ptr noundef nonnull align 8 dereferenceable(24) %left.sroa.0.0.right.sroa.0.0, i64 24, i1 false)
  %count2 = zext i1 %left_nonempty to i64
  %_26 = getelementptr inbounds nuw %"alloc::string::String", ptr %_14.i, i64 %count2
  %_30 = xor i1 %left_nonempty, true
  %count3 = zext i1 %_30 to i64
  %_28 = getelementptr inbounds nuw %"alloc::string::String", ptr %_12.i, i64 %count3
  br label %bb9

bb9:                                              ; preds = %bb16, %bb5
  %right.sroa.0.1 = phi ptr [ %_12.i, %bb16 ], [ %_28, %bb5 ]
  %left.sroa.0.1 = phi ptr [ %_14.i, %bb16 ], [ %_26, %bb5 ]
  %_31 = icmp ne ptr %left.sroa.0.1, %5
  %_32 = icmp ne ptr %right.sroa.0.1, %6
  %or.cond = select i1 %_31, i1 true, i1 %_32
  br i1 %or.cond, label %bb13, label %bb14, !prof !898

bb14:                                             ; preds = %bb9
  ret void

bb13:                                             ; preds = %bb9
; call core::slice::sort::shared::smallsort::panic_on_ord_violation
  tail call void @_ZN4core5slice4sort6shared9smallsort22panic_on_ord_violation17hc77a22a2d50782cdE() #32
  unreachable
}

; core::slice::sort::shared::smallsort::bidirectional_merge
; Function Attrs: nonlazybind uwtable
define void @_ZN4core5slice4sort6shared9smallsort19bidirectional_merge17he3b0c15c05973dbcE(ptr noalias noundef nonnull readonly align 4 captures(address) %v.0, i64 noundef range(i64 0, 2305843009213693952) %v.1, ptr noundef writeonly captures(none) %0, ptr noalias noundef readnone align 8 captures(none) dereferenceable(8) %is_less) unnamed_addr #1 {
start:
  %len_div_215 = lshr i64 %v.1, 1
  %_7 = icmp samesign ugt i64 %v.1, 1
  tail call void @llvm.assume(i1 %_7)
  %count1 = add nsw i64 %v.1, -1
  %1 = getelementptr inbounds nuw i32, ptr %0, i64 %count1
  %2 = getelementptr inbounds nuw i32, ptr %v.0, i64 %count1
  %3 = getelementptr i32, ptr %v.0, i64 %len_div_215
  %4 = getelementptr i8, ptr %3, i64 -4
  br label %bb15

bb16:                                             ; preds = %bb15
  %5 = getelementptr i8, ptr %10, i64 4
  %6 = getelementptr i8, ptr %9, i64 4
  %_44 = and i64 %v.1, 1
  %_22 = icmp eq i64 %_44, 0
  br i1 %_22, label %bb9, label %bb5

bb15:                                             ; preds = %start, %bb15
  %dst.sroa.0.029 = phi ptr [ %_16.i, %bb15 ], [ %0, %start ]
  %iter.sroa.0.028 = phi i64 [ %_39, %bb15 ], [ 0, %start ]
  %left.sroa.0.027 = phi ptr [ %_14.i, %bb15 ], [ %v.0, %start ]
  %right.sroa.0.026 = phi ptr [ %_12.i, %bb15 ], [ %3, %start ]
  %left_rev.sroa.0.025 = phi ptr [ %10, %bb15 ], [ %4, %start ]
  %right_rev.sroa.0.024 = phi ptr [ %9, %bb15 ], [ %2, %start ]
  %dst_rev.sroa.0.023 = phi ptr [ %11, %bb15 ], [ %1, %start ]
  %_39 = add nuw nsw i64 %iter.sroa.0.028, 1
  tail call void @llvm.experimental.noalias.scope.decl(metadata !973)
  tail call void @llvm.experimental.noalias.scope.decl(metadata !976)
  tail call void @llvm.experimental.noalias.scope.decl(metadata !978), !noalias !981
  tail call void @llvm.experimental.noalias.scope.decl(metadata !984), !noalias !981
  tail call void @llvm.experimental.noalias.scope.decl(metadata !986), !noalias !981
  tail call void @llvm.experimental.noalias.scope.decl(metadata !989), !noalias !981
  tail call void @llvm.experimental.noalias.scope.decl(metadata !991), !noalias !981
  tail call void @llvm.experimental.noalias.scope.decl(metadata !994), !noalias !981
  %_3.i.i.i.i = load i32, ptr %right.sroa.0.026, align 4, !alias.scope !996, !noalias !997, !noundef !37
  %_4.i.i.i.i = load i32, ptr %left.sroa.0.027, align 4, !alias.scope !998, !noalias !999, !noundef !37
  %_0.i = icmp slt i32 %_3.i.i.i.i, %_4.i.i.i.i
  %is_l.i18 = xor i1 %_0.i, true
  %7 = tail call i32 @llvm.smin.i32(i32 %_3.i.i.i.i, i32 %_4.i.i.i.i)
  store i32 %7, ptr %dst.sroa.0.029, align 4, !noalias !1000
  %count.i = zext i1 %_0.i to i64
  %_12.i = getelementptr inbounds nuw i32, ptr %right.sroa.0.026, i64 %count.i
  %count2.i = zext i1 %is_l.i18 to i64
  %_14.i = getelementptr inbounds nuw i32, ptr %left.sroa.0.027, i64 %count2.i
  %_16.i = getelementptr inbounds nuw i8, ptr %dst.sroa.0.029, i64 4
  tail call void @llvm.experimental.noalias.scope.decl(metadata !1002)
  tail call void @llvm.experimental.noalias.scope.decl(metadata !1005)
  tail call void @llvm.experimental.noalias.scope.decl(metadata !1007), !noalias !1010
  tail call void @llvm.experimental.noalias.scope.decl(metadata !1013), !noalias !1010
  tail call void @llvm.experimental.noalias.scope.decl(metadata !1015), !noalias !1010
  tail call void @llvm.experimental.noalias.scope.decl(metadata !1018), !noalias !1010
  tail call void @llvm.experimental.noalias.scope.decl(metadata !1020), !noalias !1010
  tail call void @llvm.experimental.noalias.scope.decl(metadata !1023), !noalias !1010
  %_3.i.i.i.i19 = load i32, ptr %right_rev.sroa.0.024, align 4, !alias.scope !1025, !noalias !1026, !noundef !37
  %_4.i.i.i.i20 = load i32, ptr %left_rev.sroa.0.025, align 4, !alias.scope !1027, !noalias !1028, !noundef !37
  %_0.i21 = icmp slt i32 %_3.i.i.i.i19, %_4.i.i.i.i20
  %is_l.i = xor i1 %_0.i21, true
  %8 = tail call i32 @llvm.smax.i32(i32 %_3.i.i.i.i19, i32 %_4.i.i.i.i20)
  store i32 %8, ptr %dst_rev.sroa.0.023, align 4, !noalias !1029
  %count.neg.i = sext i1 %is_l.i to i64
  %9 = getelementptr i32, ptr %right_rev.sroa.0.024, i64 %count.neg.i
  %count3.neg.i = sext i1 %_0.i21 to i64
  %10 = getelementptr i32, ptr %left_rev.sroa.0.025, i64 %count3.neg.i
  %11 = getelementptr inbounds i8, ptr %dst_rev.sroa.0.023, i64 -4
  %exitcond.not = icmp eq i64 %_39, %len_div_215
  br i1 %exitcond.not, label %bb16, label %bb15

bb5:                                              ; preds = %bb16
  %left_nonempty = icmp ult ptr %_14.i, %5
  %left.sroa.0.0.right.sroa.0.0 = select i1 %left_nonempty, ptr %_14.i, ptr %_12.i
  %12 = load i32, ptr %left.sroa.0.0.right.sroa.0.0, align 4
  store i32 %12, ptr %_16.i, align 4
  %count2 = zext i1 %left_nonempty to i64
  %_26 = getelementptr inbounds nuw i32, ptr %_14.i, i64 %count2
  %_30 = xor i1 %left_nonempty, true
  %count3 = zext i1 %_30 to i64
  %_28 = getelementptr inbounds nuw i32, ptr %_12.i, i64 %count3
  br label %bb9

bb9:                                              ; preds = %bb16, %bb5
  %right.sroa.0.1 = phi ptr [ %_12.i, %bb16 ], [ %_28, %bb5 ]
  %left.sroa.0.1 = phi ptr [ %_14.i, %bb16 ], [ %_26, %bb5 ]
  %_31 = icmp ne ptr %left.sroa.0.1, %5
  %_32 = icmp ne ptr %right.sroa.0.1, %6
  %or.cond = select i1 %_31, i1 true, i1 %_32
  br i1 %or.cond, label %bb13, label %bb14, !prof !898

bb14:                                             ; preds = %bb9
  ret void

bb13:                                             ; preds = %bb9
; call core::slice::sort::shared::smallsort::panic_on_ord_violation
  tail call void @_ZN4core5slice4sort6shared9smallsort22panic_on_ord_violation17hc77a22a2d50782cdE() #32
  unreachable
}

; core::slice::sort::shared::smallsort::insertion_sort_shift_left
; Function Attrs: nounwind nonlazybind memory(argmem: readwrite, inaccessiblemem: readwrite) uwtable
define void @_ZN4core5slice4sort6shared9smallsort25insertion_sort_shift_left17h0ae00b1ab412e7dbE(ptr noalias noundef nonnull align 4 captures(address) %v.0, i64 noundef range(i64 0, 2305843009213693952) %v.1, i64 noundef %offset, ptr noalias readnone align 8 captures(none) %is_less) unnamed_addr #7 personality ptr @rust_eh_personality {
start:
  %0 = add i64 %offset, -1
  %or.cond.not = icmp ult i64 %0, %v.1
  br i1 %or.cond.not, label %bb3, label %bb2

bb2:                                              ; preds = %start
  tail call void @llvm.trap()
  unreachable

bb3:                                              ; preds = %start
  %v_end = getelementptr inbounds nuw i32, ptr %v.0, i64 %v.1
  %_11.not1 = icmp samesign eq i64 %offset, %v.1
  br i1 %_11.not1, label %bb7, label %bb5.preheader

bb5.preheader:                                    ; preds = %bb3
  %1 = getelementptr inbounds nuw i32, ptr %v.0, i64 %offset
  br label %bb5

bb7:                                              ; preds = %_ZN4core5slice4sort6shared9smallsort11insert_tail17h8d444b17020be90bE.exit, %bb3
  ret void

bb5:                                              ; preds = %bb5.preheader, %_ZN4core5slice4sort6shared9smallsort11insert_tail17h8d444b17020be90bE.exit
  %tail.sroa.0.02 = phi ptr [ %_15, %_ZN4core5slice4sort6shared9smallsort11insert_tail17h8d444b17020be90bE.exit ], [ %1, %bb5.preheader ]
  %2 = getelementptr inbounds i8, ptr %tail.sroa.0.02, i64 -4
  tail call void @llvm.experimental.noalias.scope.decl(metadata !1031)
  tail call void @llvm.experimental.noalias.scope.decl(metadata !1034)
  tail call void @llvm.experimental.noalias.scope.decl(metadata !1036)
  tail call void @llvm.experimental.noalias.scope.decl(metadata !1039)
  tail call void @llvm.experimental.noalias.scope.decl(metadata !1041)
  tail call void @llvm.experimental.noalias.scope.decl(metadata !1044)
  tail call void @llvm.experimental.noalias.scope.decl(metadata !1046)
  tail call void @llvm.experimental.noalias.scope.decl(metadata !1049)
  %_3.i.i.i.i.i = load i32, ptr %tail.sroa.0.02, align 4, !alias.scope !1051, !noalias !1052, !noundef !37
  %_4.i.i.i.i.i = load i32, ptr %2, align 4, !alias.scope !1052, !noalias !1051, !noundef !37
  %_0.i.i = icmp slt i32 %_3.i.i.i.i.i, %_4.i.i.i.i.i
  br i1 %_0.i.i, label %bb4.i, label %_ZN4core5slice4sort6shared9smallsort11insert_tail17h8d444b17020be90bE.exit

bb4.i:                                            ; preds = %bb5, %bb6.i
  %gap_guard.sroa.5.0.i = phi ptr [ %sift.sroa.0.0.i, %bb6.i ], [ %tail.sroa.0.02, %bb5 ]
  %sift.sroa.0.0.i = phi ptr [ %4, %bb6.i ], [ %2, %bb5 ]
  %3 = load i32, ptr %sift.sroa.0.0.i, align 4
  store i32 %3, ptr %gap_guard.sroa.5.0.i, align 4
  %_18.i = icmp eq ptr %sift.sroa.0.0.i, %v.0
  br i1 %_18.i, label %bb10.i, label %bb6.i

bb6.i:                                            ; preds = %bb4.i
  %4 = getelementptr inbounds i8, ptr %sift.sroa.0.0.i, i64 -4
  %_4.i.i.i.i2.i = load i32, ptr %4, align 4, !alias.scope !1053, !noalias !1062, !noundef !37
  %_0.i3.i = icmp slt i32 %_3.i.i.i.i.i, %_4.i.i.i.i2.i
  br i1 %_0.i3.i, label %bb4.i, label %bb10.i

bb10.i:                                           ; preds = %bb6.i, %bb4.i
  store i32 %_3.i.i.i.i.i, ptr %sift.sroa.0.0.i, align 4, !noalias !1067
  br label %_ZN4core5slice4sort6shared9smallsort11insert_tail17h8d444b17020be90bE.exit

_ZN4core5slice4sort6shared9smallsort11insert_tail17h8d444b17020be90bE.exit: ; preds = %bb5, %bb10.i
  %_15 = getelementptr inbounds nuw i8, ptr %tail.sroa.0.02, i64 4
  %_11.not = icmp eq ptr %_15, %v_end
  br i1 %_11.not, label %bb7, label %bb5
}

; core::slice::sort::shared::smallsort::insertion_sort_shift_left
; Function Attrs: nounwind nonlazybind memory(read, argmem: readwrite, inaccessiblemem: readwrite) uwtable
define void @_ZN4core5slice4sort6shared9smallsort25insertion_sort_shift_left17h5881bc39b88732acE(ptr noalias noundef nonnull align 8 captures(address) %v.0, i64 noundef range(i64 0, 384307168202282326) %v.1, i64 noundef %offset, ptr noalias nonnull readnone align 1 captures(none) %is_less) unnamed_addr #8 personality ptr @rust_eh_personality {
start:
  %0 = add i64 %offset, -1
  %or.cond.not = icmp ult i64 %0, %v.1
  br i1 %or.cond.not, label %bb3, label %bb2

bb2:                                              ; preds = %start
  tail call void @llvm.trap()
  unreachable

bb3:                                              ; preds = %start
  %v_end = getelementptr inbounds nuw %"alloc::string::String", ptr %v.0, i64 %v.1
  %_11.not1 = icmp samesign eq i64 %offset, %v.1
  br i1 %_11.not1, label %bb7, label %bb5.preheader

bb5.preheader:                                    ; preds = %bb3
  %1 = getelementptr inbounds nuw %"alloc::string::String", ptr %v.0, i64 %offset
  br label %bb5

bb7:                                              ; preds = %_ZN4core5slice4sort6shared9smallsort11insert_tail17haddbce5dcdcd8aa9E.exit, %bb3
  ret void

bb5:                                              ; preds = %bb5.preheader, %_ZN4core5slice4sort6shared9smallsort11insert_tail17haddbce5dcdcd8aa9E.exit
  %tail.sroa.0.02 = phi ptr [ %_15, %_ZN4core5slice4sort6shared9smallsort11insert_tail17haddbce5dcdcd8aa9E.exit ], [ %1, %bb5.preheader ]
  tail call void @llvm.experimental.noalias.scope.decl(metadata !1072)
  tail call void @llvm.experimental.noalias.scope.decl(metadata !1075)
  tail call void @llvm.experimental.noalias.scope.decl(metadata !1077)
  tail call void @llvm.experimental.noalias.scope.decl(metadata !1080)
  tail call void @llvm.experimental.noalias.scope.decl(metadata !1082)
  tail call void @llvm.experimental.noalias.scope.decl(metadata !1085)
  tail call void @llvm.experimental.noalias.scope.decl(metadata !1087)
  tail call void @llvm.experimental.noalias.scope.decl(metadata !1090)
  %2 = getelementptr inbounds nuw i8, ptr %tail.sroa.0.02, i64 8
  %_7.i.i.i.i.i = load ptr, ptr %2, align 8, !alias.scope !1092, !noalias !1093, !nonnull !37, !noundef !37
  %3 = getelementptr inbounds nuw i8, ptr %tail.sroa.0.02, i64 16
  %len1.i.i.i.i.i = load i64, ptr %3, align 8, !alias.scope !1092, !noalias !1093, !noundef !37
  %4 = getelementptr inbounds i8, ptr %tail.sroa.0.02, i64 -16
  %_14.i.i.i.i.i = load ptr, ptr %4, align 8, !alias.scope !1093, !noalias !1092, !nonnull !37, !noundef !37
  %5 = getelementptr inbounds i8, ptr %tail.sroa.0.02, i64 -8
  %6 = load i64, ptr %5, align 8, !alias.scope !1093, !noalias !1092, !noundef !37
  %spec.store.select.i.i.i.i.i.i.i = tail call i64 @llvm.umin.i64(i64 range(i64 0, -9223372036854775808) %len1.i.i.i.i.i, i64 range(i64 0, -9223372036854775808) %6)
  %7 = tail call i32 @memcmp(ptr nonnull readonly align 1 %_7.i.i.i.i.i, ptr nonnull readonly align 1 %_14.i.i.i.i.i, i64 %spec.store.select.i.i.i.i.i.i.i), !alias.scope !1094, !noalias !1101
  %8 = sext i32 %7 to i64
  %_15.i.i.i.i.i.i.i = icmp eq i32 %7, 0
  %diff.i.i.i.i.i.i.i = sub nsw i64 %len1.i.i.i.i.i, %6
  %spec.select.i.i.i.i.i.i.i = select i1 %_15.i.i.i.i.i.i.i, i64 %diff.i.i.i.i.i.i.i, i64 %8
  %9 = icmp slt i64 %spec.select.i.i.i.i.i.i.i, 0
  br i1 %9, label %bb2.i, label %_ZN4core5slice4sort6shared9smallsort11insert_tail17haddbce5dcdcd8aa9E.exit

bb2.i:                                            ; preds = %bb5
  %value.sroa.0.0.copyload.i = load i64, ptr %tail.sroa.0.02, align 8
  br label %bb4.i

bb4.i:                                            ; preds = %bb6.i, %bb2.i
  %gap_guard.sroa.5.0.i = phi ptr [ %tail.sroa.0.02, %bb2.i ], [ %sift.sroa.0.0.i, %bb6.i ]
  %sift.sroa.0.0.i = getelementptr inbounds i8, ptr %gap_guard.sroa.5.0.i, i64 -24
  tail call void @llvm.memcpy.p0.p0.i64(ptr noundef nonnull align 8 dereferenceable(24) %gap_guard.sroa.5.0.i, ptr noundef nonnull align 8 dereferenceable(24) %sift.sroa.0.0.i, i64 24, i1 false)
  %_18.i = icmp eq ptr %sift.sroa.0.0.i, %v.0
  br i1 %_18.i, label %bb10.i, label %bb6.i

bb6.i:                                            ; preds = %bb4.i
  tail call void @llvm.experimental.noalias.scope.decl(metadata !1102)
  tail call void @llvm.experimental.noalias.scope.decl(metadata !1105)
  tail call void @llvm.experimental.noalias.scope.decl(metadata !1108)
  tail call void @llvm.experimental.noalias.scope.decl(metadata !1111)
  %10 = getelementptr inbounds i8, ptr %gap_guard.sroa.5.0.i, i64 -40
  %_14.i.i.i.i3.i = load ptr, ptr %10, align 8, !alias.scope !1114, !noalias !1115, !nonnull !37, !noundef !37
  %11 = getelementptr inbounds i8, ptr %gap_guard.sroa.5.0.i, i64 -32
  %12 = load i64, ptr %11, align 8, !alias.scope !1114, !noalias !1115, !noundef !37
  %spec.store.select.i.i.i.i.i.i4.i = tail call i64 @llvm.umin.i64(i64 range(i64 0, -9223372036854775808) %len1.i.i.i.i.i, i64 range(i64 0, -9223372036854775808) %12)
  %13 = tail call i32 @memcmp(ptr nonnull readonly align 1 %_7.i.i.i.i.i, ptr nonnull readonly align 1 %_14.i.i.i.i3.i, i64 %spec.store.select.i.i.i.i.i.i4.i), !alias.scope !1120, !noalias !1127
  %14 = sext i32 %13 to i64
  %_15.i.i.i.i.i.i5.i = icmp eq i32 %13, 0
  %diff.i.i.i.i.i.i6.i = sub nsw i64 %len1.i.i.i.i.i, %12
  %spec.select.i.i.i.i.i.i7.i = select i1 %_15.i.i.i.i.i.i5.i, i64 %diff.i.i.i.i.i.i6.i, i64 %14
  %15 = icmp slt i64 %spec.select.i.i.i.i.i.i7.i, 0
  br i1 %15, label %bb4.i, label %bb10.i

bb10.i:                                           ; preds = %bb6.i, %bb4.i
  store i64 %value.sroa.0.0.copyload.i, ptr %sift.sroa.0.0.i, align 8, !noalias !1128
  %tmp.sroa.4.0.sift.sroa.0.0.lcssa.sroa_idx.i = getelementptr inbounds i8, ptr %gap_guard.sroa.5.0.i, i64 -16
  store ptr %_7.i.i.i.i.i, ptr %tmp.sroa.4.0.sift.sroa.0.0.lcssa.sroa_idx.i, align 8, !noalias !1128
  %tmp.sroa.5.0.sift.sroa.0.0.lcssa.sroa_idx.i = getelementptr inbounds i8, ptr %gap_guard.sroa.5.0.i, i64 -8
  store i64 %len1.i.i.i.i.i, ptr %tmp.sroa.5.0.sift.sroa.0.0.lcssa.sroa_idx.i, align 8, !noalias !1128
  br label %_ZN4core5slice4sort6shared9smallsort11insert_tail17haddbce5dcdcd8aa9E.exit

_ZN4core5slice4sort6shared9smallsort11insert_tail17haddbce5dcdcd8aa9E.exit: ; preds = %bb5, %bb10.i
  %_15 = getelementptr inbounds nuw i8, ptr %tail.sroa.0.02, i64 24
  %_11.not = icmp eq ptr %_15, %v_end
  br i1 %_11.not, label %bb7, label %bb5
}

; core::slice::sort::shared::smallsort::small_sort_general_with_scratch
; Function Attrs: nonlazybind uwtable
define void @_ZN4core5slice4sort6shared9smallsort31small_sort_general_with_scratch17h810f0cca5566cd17E(ptr noalias noundef nonnull align 8 captures(none) %v.0, i64 noundef range(i64 0, 384307168202282326) %v.1, ptr noalias noundef nonnull align 8 captures(address) %scratch.0, i64 noundef range(i64 0, 384307168202282326) %scratch.1, ptr noalias nonnull readnone align 1 captures(none) %is_less) unnamed_addr #1 personality ptr @rust_eh_personality {
start:
  %iter = alloca [32 x i8], align 8
  %_5 = icmp samesign ult i64 %v.1, 2
  br i1 %_5, label %bb29, label %bb2

bb2:                                              ; preds = %start
  %_8 = add nuw nsw i64 %v.1, 16
  %_6 = icmp samesign ult i64 %scratch.1, %_8
  br i1 %_6, label %bb3, label %bb4

bb4:                                              ; preds = %bb2
  %len_div_211 = lshr i64 %v.1, 1
  %_22 = icmp samesign ugt i64 %v.1, 7
  %_27 = getelementptr inbounds nuw %"alloc::string::String", ptr %v.0, i64 %len_div_211
  %_28 = getelementptr inbounds nuw %"alloc::string::String", ptr %scratch.0, i64 %len_div_211
  br i1 %_22, label %bb10, label %bb46

bb3:                                              ; preds = %bb2
  tail call void @llvm.trap()
  unreachable

bb10:                                             ; preds = %bb4
; call core::slice::sort::shared::smallsort::sort4_stable
  tail call void @_ZN4core5slice4sort6shared9smallsort12sort4_stable17h8dbcb2c0d021ad35E(ptr noundef nonnull %v.0, ptr noundef nonnull %scratch.0, ptr noalias nonnull align 1 poison)
; call core::slice::sort::shared::smallsort::sort4_stable
  tail call void @_ZN4core5slice4sort6shared9smallsort12sort4_stable17h8dbcb2c0d021ad35E(ptr noundef nonnull %_27, ptr noundef nonnull %_28, ptr noalias nonnull align 1 poison)
  br label %bb15

bb46:                                             ; preds = %bb4
  tail call void @llvm.memcpy.p0.p0.i64(ptr noundef nonnull align 8 dereferenceable(24) %scratch.0, ptr noundef nonnull align 8 dereferenceable(24) %v.0, i64 24, i1 false)
  tail call void @llvm.memcpy.p0.p0.i64(ptr noundef nonnull align 8 dereferenceable(24) %_28, ptr noundef nonnull align 8 dereferenceable(24) %_27, i64 24, i1 false)
  br label %bb15

bb15:                                             ; preds = %bb46, %bb10
  %presorted_len.sroa.0.0 = phi i64 [ 4, %bb10 ], [ 1, %bb46 ]
  call void @llvm.lifetime.start.p0(i64 32, ptr nonnull %iter)
  store i64 0, ptr %iter, align 8
  %_37.sroa.4.0.iter.sroa_idx = getelementptr inbounds nuw i8, ptr %iter, i64 8
  store i64 2, ptr %_37.sroa.4.0.iter.sroa_idx, align 8
  %_37.sroa.5.0.iter.sroa_idx = getelementptr inbounds nuw i8, ptr %iter, i64 16
  store i64 0, ptr %_37.sroa.5.0.iter.sroa_idx, align 8
  %_37.sroa.6.0.iter.sroa_idx = getelementptr inbounds nuw i8, ptr %iter, i64 24
  store i64 %len_div_211, ptr %_37.sroa.6.0.iter.sroa_idx, align 8
  %0 = sub nsw i64 %v.1, %len_div_211
  %iter1.sroa.0.115 = add nuw nsw i64 %presorted_len.sroa.0.0, 1
  br label %bb16

bb16:                                             ; preds = %bb16.backedge, %bb15
  %_11.i18 = phi i64 [ 0, %bb15 ], [ %_11.i19, %bb16.backedge ]
  %1 = phi i64 [ 0, %bb15 ], [ %2, %bb16.backedge ]
  %_5.not.i.not = icmp eq i64 %1, 2
  br i1 %_5.not.i.not, label %"_ZN4core5array4iter10iter_inner78PolymorphicIter$LT$$u5b$core..mem..maybe_uninit..MaybeUninit$LT$T$GT$$u5d$$GT$4next17hb49c9d1ba10adf46E.exit", label %bb1.i

bb1.i:                                            ; preds = %bb16
  %_11.i = add nuw nsw i64 %1, 1
  %_20.i = icmp ult i64 %1, 2
  tail call void @llvm.assume(i1 %_20.i)
  %self3.i = getelementptr inbounds nuw i64, ptr %_37.sroa.5.0.iter.sroa_idx, i64 %1
  %_15.i = load i64, ptr %self3.i, align 8, !alias.scope !1133, !noundef !37
  br label %"_ZN4core5array4iter10iter_inner78PolymorphicIter$LT$$u5b$core..mem..maybe_uninit..MaybeUninit$LT$T$GT$$u5d$$GT$4next17hb49c9d1ba10adf46E.exit"

"_ZN4core5array4iter10iter_inner78PolymorphicIter$LT$$u5b$core..mem..maybe_uninit..MaybeUninit$LT$T$GT$$u5d$$GT$4next17hb49c9d1ba10adf46E.exit": ; preds = %bb16, %bb1.i
  %_11.i19 = phi i64 [ %_11.i, %bb1.i ], [ %_11.i18, %bb16 ]
  %2 = phi i64 [ %_11.i, %bb1.i ], [ %1, %bb16 ]
  %_0.sroa.3.0.i = phi i64 [ %_15.i, %bb1.i ], [ undef, %bb16 ]
  br i1 %_5.not.i.not, label %bb19, label %bb18

bb18:                                             ; preds = %"_ZN4core5array4iter10iter_inner78PolymorphicIter$LT$$u5b$core..mem..maybe_uninit..MaybeUninit$LT$T$GT$$u5d$$GT$4next17hb49c9d1ba10adf46E.exit"
  %src5 = getelementptr inbounds nuw %"alloc::string::String", ptr %v.0, i64 %_0.sroa.3.0.i
  %dst6 = getelementptr inbounds nuw %"alloc::string::String", ptr %scratch.0, i64 %_0.sroa.3.0.i
  %_47 = icmp eq i64 %_0.sroa.3.0.i, 0
  %desired_len.sroa.0.0 = select i1 %_47, i64 %len_div_211, i64 %0
  %_8013 = icmp ult i64 %presorted_len.sroa.0.0, %desired_len.sroa.0.0
  br i1 %_8013, label %bb24, label %bb16.backedge

bb16.backedge:                                    ; preds = %_ZN4core5slice4sort6shared9smallsort11insert_tail17haddbce5dcdcd8aa9E.exit, %bb18
  br label %bb16

bb19:                                             ; preds = %"_ZN4core5array4iter10iter_inner78PolymorphicIter$LT$$u5b$core..mem..maybe_uninit..MaybeUninit$LT$T$GT$$u5d$$GT$4next17hb49c9d1ba10adf46E.exit"
  store i64 %_11.i19, ptr %iter, align 8
  call void @llvm.lifetime.end.p0(i64 32, ptr nonnull %iter)
; invoke core::slice::sort::shared::smallsort::bidirectional_merge
  invoke void @_ZN4core5slice4sort6shared9smallsort19bidirectional_merge17h5782bbec6bc4ca12E(ptr noalias noundef nonnull readonly align 8 captures(address, read_provenance) %scratch.0, i64 noundef %v.1, ptr noundef nonnull %v.0, ptr noalias nonnull align 1 poison)
          to label %bb29 unwind label %cleanup2

cleanup2:                                         ; preds = %bb19
  %3 = landingpad { ptr, i32 }
          cleanup
  %4 = mul nuw nsw i64 %v.1, 24
  tail call void @llvm.memcpy.p0.p0.i64(ptr nonnull align 8 %v.0, ptr nonnull align 8 %scratch.0, i64 %4, i1 false), !noalias !1136
  resume { ptr, i32 } %3

bb29:                                             ; preds = %bb19, %start
  ret void

bb24:                                             ; preds = %bb18, %_ZN4core5slice4sort6shared9smallsort11insert_tail17haddbce5dcdcd8aa9E.exit
  %iter1.sroa.0.117 = phi i64 [ %iter1.sroa.0.1, %_ZN4core5slice4sort6shared9smallsort11insert_tail17haddbce5dcdcd8aa9E.exit ], [ %iter1.sroa.0.115, %bb18 ]
  %iter1.sroa.0.016 = phi i64 [ %iter1.sroa.0.117, %_ZN4core5slice4sort6shared9smallsort11insert_tail17haddbce5dcdcd8aa9E.exit ], [ %presorted_len.sroa.0.0, %bb18 ]
  %_55 = getelementptr inbounds nuw %"alloc::string::String", ptr %src5, i64 %iter1.sroa.0.016
  %dst7 = getelementptr inbounds nuw %"alloc::string::String", ptr %dst6, i64 %iter1.sroa.0.016
  tail call void @llvm.memcpy.p0.p0.i64(ptr noundef nonnull align 8 dereferenceable(24) %dst7, ptr noundef nonnull align 8 dereferenceable(24) %_55, i64 24, i1 false)
  tail call void @llvm.experimental.noalias.scope.decl(metadata !1141)
  tail call void @llvm.experimental.noalias.scope.decl(metadata !1144)
  tail call void @llvm.experimental.noalias.scope.decl(metadata !1146)
  tail call void @llvm.experimental.noalias.scope.decl(metadata !1149)
  tail call void @llvm.experimental.noalias.scope.decl(metadata !1151)
  tail call void @llvm.experimental.noalias.scope.decl(metadata !1154)
  tail call void @llvm.experimental.noalias.scope.decl(metadata !1156)
  tail call void @llvm.experimental.noalias.scope.decl(metadata !1159)
  %5 = getelementptr inbounds nuw i8, ptr %dst7, i64 8
  %_7.i.i.i.i.i = load ptr, ptr %5, align 8, !alias.scope !1161, !noalias !1162, !nonnull !37, !noundef !37
  %6 = getelementptr inbounds nuw i8, ptr %dst7, i64 16
  %len1.i.i.i.i.i = load i64, ptr %6, align 8, !alias.scope !1161, !noalias !1162, !noundef !37
  %7 = getelementptr inbounds i8, ptr %dst7, i64 -16
  %_14.i.i.i.i.i = load ptr, ptr %7, align 8, !alias.scope !1162, !noalias !1161, !nonnull !37, !noundef !37
  %8 = getelementptr inbounds i8, ptr %dst7, i64 -8
  %9 = load i64, ptr %8, align 8, !alias.scope !1162, !noalias !1161, !noundef !37
  %spec.store.select.i.i.i.i.i.i.i = tail call i64 @llvm.umin.i64(i64 range(i64 0, -9223372036854775808) %len1.i.i.i.i.i, i64 range(i64 0, -9223372036854775808) %9)
  %10 = tail call i32 @memcmp(ptr nonnull readonly align 1 %_7.i.i.i.i.i, ptr nonnull readonly align 1 %_14.i.i.i.i.i, i64 %spec.store.select.i.i.i.i.i.i.i), !alias.scope !1163, !noalias !1170
  %11 = sext i32 %10 to i64
  %_15.i.i.i.i.i.i.i = icmp eq i32 %10, 0
  %diff.i.i.i.i.i.i.i = sub nsw i64 %len1.i.i.i.i.i, %9
  %spec.select.i.i.i.i.i.i.i = select i1 %_15.i.i.i.i.i.i.i, i64 %diff.i.i.i.i.i.i.i, i64 %11
  %12 = icmp slt i64 %spec.select.i.i.i.i.i.i.i, 0
  br i1 %12, label %bb2.i, label %_ZN4core5slice4sort6shared9smallsort11insert_tail17haddbce5dcdcd8aa9E.exit

bb2.i:                                            ; preds = %bb24
  %value.sroa.0.0.copyload.i = load i64, ptr %dst7, align 8
  br label %bb4.i

bb4.i:                                            ; preds = %bb6.i, %bb2.i
  %gap_guard.sroa.5.0.i = phi ptr [ %dst7, %bb2.i ], [ %sift.sroa.0.0.i, %bb6.i ]
  %sift.sroa.0.0.i = getelementptr inbounds i8, ptr %gap_guard.sroa.5.0.i, i64 -24
  tail call void @llvm.memcpy.p0.p0.i64(ptr noundef nonnull align 8 dereferenceable(24) %gap_guard.sroa.5.0.i, ptr noundef nonnull align 8 dereferenceable(24) %sift.sroa.0.0.i, i64 24, i1 false)
  %_18.i = icmp eq ptr %sift.sroa.0.0.i, %dst6
  br i1 %_18.i, label %bb10.i, label %bb6.i

bb6.i:                                            ; preds = %bb4.i
  tail call void @llvm.experimental.noalias.scope.decl(metadata !1171)
  tail call void @llvm.experimental.noalias.scope.decl(metadata !1174)
  tail call void @llvm.experimental.noalias.scope.decl(metadata !1177)
  tail call void @llvm.experimental.noalias.scope.decl(metadata !1180)
  %13 = getelementptr inbounds i8, ptr %gap_guard.sroa.5.0.i, i64 -40
  %_14.i.i.i.i3.i = load ptr, ptr %13, align 8, !alias.scope !1183, !noalias !1184, !nonnull !37, !noundef !37
  %14 = getelementptr inbounds i8, ptr %gap_guard.sroa.5.0.i, i64 -32
  %15 = load i64, ptr %14, align 8, !alias.scope !1183, !noalias !1184, !noundef !37
  %spec.store.select.i.i.i.i.i.i4.i = tail call i64 @llvm.umin.i64(i64 range(i64 0, -9223372036854775808) %len1.i.i.i.i.i, i64 range(i64 0, -9223372036854775808) %15)
  %16 = tail call i32 @memcmp(ptr nonnull readonly align 1 %_7.i.i.i.i.i, ptr nonnull readonly align 1 %_14.i.i.i.i3.i, i64 %spec.store.select.i.i.i.i.i.i4.i), !alias.scope !1189, !noalias !1196
  %17 = sext i32 %16 to i64
  %_15.i.i.i.i.i.i5.i = icmp eq i32 %16, 0
  %diff.i.i.i.i.i.i6.i = sub nsw i64 %len1.i.i.i.i.i, %15
  %spec.select.i.i.i.i.i.i7.i = select i1 %_15.i.i.i.i.i.i5.i, i64 %diff.i.i.i.i.i.i6.i, i64 %17
  %18 = icmp slt i64 %spec.select.i.i.i.i.i.i7.i, 0
  br i1 %18, label %bb4.i, label %bb10.i

bb10.i:                                           ; preds = %bb6.i, %bb4.i
  store i64 %value.sroa.0.0.copyload.i, ptr %sift.sroa.0.0.i, align 8, !noalias !1197
  %tmp.sroa.4.0.sift.sroa.0.0.lcssa.sroa_idx.i = getelementptr inbounds i8, ptr %gap_guard.sroa.5.0.i, i64 -16
  store ptr %_7.i.i.i.i.i, ptr %tmp.sroa.4.0.sift.sroa.0.0.lcssa.sroa_idx.i, align 8, !noalias !1197
  %tmp.sroa.5.0.sift.sroa.0.0.lcssa.sroa_idx.i = getelementptr inbounds i8, ptr %gap_guard.sroa.5.0.i, i64 -8
  store i64 %len1.i.i.i.i.i, ptr %tmp.sroa.5.0.sift.sroa.0.0.lcssa.sroa_idx.i, align 8, !noalias !1197
  br label %_ZN4core5slice4sort6shared9smallsort11insert_tail17haddbce5dcdcd8aa9E.exit

_ZN4core5slice4sort6shared9smallsort11insert_tail17haddbce5dcdcd8aa9E.exit: ; preds = %bb24, %bb10.i
  %_80 = icmp ult i64 %iter1.sroa.0.117, %desired_len.sroa.0.0
  %_84 = zext i1 %_80 to i64
  %iter1.sroa.0.1 = add nuw i64 %iter1.sroa.0.117, %_84
  br i1 %_80, label %bb24, label %bb16.backedge
}

; core::slice::sort::shared::smallsort::small_sort_general_with_scratch
; Function Attrs: nonlazybind uwtable
define void @_ZN4core5slice4sort6shared9smallsort31small_sort_general_with_scratch17hb45e4134945bd316E(ptr noalias noundef nonnull align 4 captures(none) %v.0, i64 noundef range(i64 0, 2305843009213693952) %v.1, ptr noalias noundef nonnull align 4 captures(address) %scratch.0, i64 noundef range(i64 0, 2305843009213693952) %scratch.1, ptr noalias readnone align 8 captures(none) %is_less) unnamed_addr #1 personality ptr @rust_eh_personality {
start:
  %iter = alloca [32 x i8], align 8
  %_5 = icmp samesign ult i64 %v.1, 2
  br i1 %_5, label %bb29, label %bb2

bb2:                                              ; preds = %start
  %_8 = add nuw nsw i64 %v.1, 16
  %_6 = icmp samesign ult i64 %scratch.1, %_8
  br i1 %_6, label %bb3, label %bb4

bb4:                                              ; preds = %bb2
  %len_div_211 = lshr i64 %v.1, 1
  %_14 = icmp samesign ugt i64 %v.1, 15
  br i1 %_14, label %bb6, label %bb9

bb3:                                              ; preds = %bb2
  tail call void @llvm.trap()
  unreachable

bb9:                                              ; preds = %bb4
  %_22 = icmp samesign ugt i64 %v.1, 7
  br i1 %_22, label %bb10, label %bb46

bb6:                                              ; preds = %bb4
  %_16 = getelementptr inbounds nuw i32, ptr %scratch.0, i64 %v.1
; call core::slice::sort::shared::smallsort::sort8_stable
  tail call void @_ZN4core5slice4sort6shared9smallsort12sort8_stable17hed0c5b8627756ff6E(ptr noundef nonnull %v.0, ptr noundef nonnull %scratch.0, ptr noundef nonnull %_16, ptr noalias align 8 poison)
  %_18 = getelementptr inbounds nuw i32, ptr %v.0, i64 %len_div_211
  %_19 = getelementptr inbounds nuw i32, ptr %scratch.0, i64 %len_div_211
  %_20 = getelementptr inbounds nuw i8, ptr %_16, i64 32
; call core::slice::sort::shared::smallsort::sort8_stable
  tail call void @_ZN4core5slice4sort6shared9smallsort12sort8_stable17hed0c5b8627756ff6E(ptr noundef nonnull %_18, ptr noundef nonnull %_19, ptr noundef nonnull %_20, ptr noalias align 8 poison)
  br label %bb15

bb10:                                             ; preds = %bb9
  %_7.i = getelementptr inbounds nuw i8, ptr %v.0, i64 4
  tail call void @llvm.experimental.noalias.scope.decl(metadata !1202)
  tail call void @llvm.experimental.noalias.scope.decl(metadata !1205)
  tail call void @llvm.experimental.noalias.scope.decl(metadata !1207)
  tail call void @llvm.experimental.noalias.scope.decl(metadata !1210)
  tail call void @llvm.experimental.noalias.scope.decl(metadata !1212)
  tail call void @llvm.experimental.noalias.scope.decl(metadata !1215)
  tail call void @llvm.experimental.noalias.scope.decl(metadata !1217)
  tail call void @llvm.experimental.noalias.scope.decl(metadata !1220)
  %_3.i.i.i.i.i = load i32, ptr %_7.i, align 4, !alias.scope !1222, !noalias !1223, !noundef !37
  %_4.i.i.i.i.i = load i32, ptr %v.0, align 4, !alias.scope !1223, !noalias !1222, !noundef !37
  %_0.i.i = icmp slt i32 %_3.i.i.i.i.i, %_4.i.i.i.i.i
  %_12.i = getelementptr inbounds nuw i8, ptr %v.0, i64 12
  %_14.i = getelementptr inbounds nuw i8, ptr %v.0, i64 8
  tail call void @llvm.experimental.noalias.scope.decl(metadata !1224)
  tail call void @llvm.experimental.noalias.scope.decl(metadata !1227)
  tail call void @llvm.experimental.noalias.scope.decl(metadata !1229)
  tail call void @llvm.experimental.noalias.scope.decl(metadata !1232)
  tail call void @llvm.experimental.noalias.scope.decl(metadata !1234)
  tail call void @llvm.experimental.noalias.scope.decl(metadata !1237)
  tail call void @llvm.experimental.noalias.scope.decl(metadata !1239)
  tail call void @llvm.experimental.noalias.scope.decl(metadata !1242)
  %_3.i.i.i.i7.i = load i32, ptr %_12.i, align 4, !alias.scope !1244, !noalias !1245, !noundef !37
  %_4.i.i.i.i8.i = load i32, ptr %_14.i, align 4, !alias.scope !1245, !noalias !1244, !noundef !37
  %_0.i9.i = icmp slt i32 %_3.i.i.i.i7.i, %_4.i.i.i.i8.i
  %count.i = zext i1 %_0.i.i to i64
  %a.i = getelementptr inbounds nuw i32, ptr %v.0, i64 %count.i
  %_19.i = xor i1 %_0.i.i, true
  %count2.i = zext i1 %_19.i to i64
  %b.i = getelementptr inbounds nuw i32, ptr %v.0, i64 %count2.i
  %count3.i = select i1 %_0.i9.i, i64 3, i64 2
  %c.i = getelementptr inbounds nuw i32, ptr %v.0, i64 %count3.i
  %count4.i = select i1 %_0.i9.i, i64 2, i64 3
  %d.i = getelementptr inbounds nuw i32, ptr %v.0, i64 %count4.i
  tail call void @llvm.experimental.noalias.scope.decl(metadata !1246)
  tail call void @llvm.experimental.noalias.scope.decl(metadata !1249)
  tail call void @llvm.experimental.noalias.scope.decl(metadata !1251)
  tail call void @llvm.experimental.noalias.scope.decl(metadata !1254)
  tail call void @llvm.experimental.noalias.scope.decl(metadata !1256)
  tail call void @llvm.experimental.noalias.scope.decl(metadata !1259)
  tail call void @llvm.experimental.noalias.scope.decl(metadata !1261)
  tail call void @llvm.experimental.noalias.scope.decl(metadata !1264)
  %_3.i.i.i.i10.i = load i32, ptr %c.i, align 4, !alias.scope !1266, !noalias !1267, !noundef !37
  %_4.i.i.i.i11.i = load i32, ptr %a.i, align 4, !alias.scope !1267, !noalias !1266, !noundef !37
  %_0.i12.i = icmp slt i32 %_3.i.i.i.i10.i, %_4.i.i.i.i11.i
  tail call void @llvm.experimental.noalias.scope.decl(metadata !1268)
  tail call void @llvm.experimental.noalias.scope.decl(metadata !1271)
  tail call void @llvm.experimental.noalias.scope.decl(metadata !1273)
  tail call void @llvm.experimental.noalias.scope.decl(metadata !1276)
  tail call void @llvm.experimental.noalias.scope.decl(metadata !1278)
  tail call void @llvm.experimental.noalias.scope.decl(metadata !1281)
  tail call void @llvm.experimental.noalias.scope.decl(metadata !1283)
  tail call void @llvm.experimental.noalias.scope.decl(metadata !1286)
  %_3.i.i.i.i13.i = load i32, ptr %d.i, align 4, !alias.scope !1288, !noalias !1289, !noundef !37
  %_4.i.i.i.i14.i = load i32, ptr %b.i, align 4, !alias.scope !1289, !noalias !1288, !noundef !37
  %_0.i15.i = icmp slt i32 %_3.i.i.i.i13.i, %_4.i.i.i.i14.i
  %0 = select i1 %_0.i12.i, ptr %c.i, ptr %a.i, !unpredictable !37
  %1 = select i1 %_0.i15.i, ptr %c.i, ptr %b.i, !unpredictable !37
  %2 = select i1 %_0.i12.i, ptr %a.i, ptr %1, !unpredictable !37
  %3 = select i1 %_0.i12.i, ptr %b.i, ptr %c.i, !unpredictable !37
  %4 = select i1 %_0.i15.i, ptr %d.i, ptr %3, !unpredictable !37
  tail call void @llvm.experimental.noalias.scope.decl(metadata !1290)
  tail call void @llvm.experimental.noalias.scope.decl(metadata !1293)
  tail call void @llvm.experimental.noalias.scope.decl(metadata !1295)
  tail call void @llvm.experimental.noalias.scope.decl(metadata !1298)
  tail call void @llvm.experimental.noalias.scope.decl(metadata !1300)
  tail call void @llvm.experimental.noalias.scope.decl(metadata !1303)
  tail call void @llvm.experimental.noalias.scope.decl(metadata !1305)
  tail call void @llvm.experimental.noalias.scope.decl(metadata !1308)
  %_3.i.i.i.i16.i = load i32, ptr %4, align 4, !alias.scope !1310, !noalias !1311, !noundef !37
  %_4.i.i.i.i17.i = load i32, ptr %2, align 4, !alias.scope !1311, !noalias !1310, !noundef !37
  %5 = load i32, ptr %0, align 4
  store i32 %5, ptr %scratch.0, align 4
  %dst5.i = getelementptr inbounds nuw i8, ptr %scratch.0, i64 4
  %6 = tail call i32 @llvm.smin.i32(i32 %_3.i.i.i.i16.i, i32 %_4.i.i.i.i17.i)
  store i32 %6, ptr %dst5.i, align 4
  %dst6.i = getelementptr inbounds nuw i8, ptr %scratch.0, i64 8
  %7 = tail call i32 @llvm.smax.i32(i32 %_3.i.i.i.i16.i, i32 %_4.i.i.i.i17.i)
  store i32 %7, ptr %dst6.i, align 4
  %8 = getelementptr inbounds nuw i8, ptr %scratch.0, i64 12
  %9 = tail call i32 @llvm.smax.i32(i32 %_3.i.i.i.i13.i, i32 %_4.i.i.i.i14.i)
  store i32 %9, ptr %8, align 4
  %_27 = getelementptr inbounds nuw i32, ptr %v.0, i64 %len_div_211
  %_28 = getelementptr inbounds nuw i32, ptr %scratch.0, i64 %len_div_211
  %_7.i13 = getelementptr inbounds nuw i8, ptr %_27, i64 4
  tail call void @llvm.experimental.noalias.scope.decl(metadata !1312)
  tail call void @llvm.experimental.noalias.scope.decl(metadata !1315)
  tail call void @llvm.experimental.noalias.scope.decl(metadata !1317)
  tail call void @llvm.experimental.noalias.scope.decl(metadata !1320)
  tail call void @llvm.experimental.noalias.scope.decl(metadata !1322)
  tail call void @llvm.experimental.noalias.scope.decl(metadata !1325)
  tail call void @llvm.experimental.noalias.scope.decl(metadata !1327)
  tail call void @llvm.experimental.noalias.scope.decl(metadata !1330)
  %_3.i.i.i.i.i14 = load i32, ptr %_7.i13, align 4, !alias.scope !1332, !noalias !1333, !noundef !37
  %_4.i.i.i.i.i15 = load i32, ptr %_27, align 4, !alias.scope !1333, !noalias !1332, !noundef !37
  %_0.i.i16 = icmp slt i32 %_3.i.i.i.i.i14, %_4.i.i.i.i.i15
  %_12.i17 = getelementptr inbounds nuw i8, ptr %_27, i64 12
  %_14.i18 = getelementptr inbounds nuw i8, ptr %_27, i64 8
  tail call void @llvm.experimental.noalias.scope.decl(metadata !1334)
  tail call void @llvm.experimental.noalias.scope.decl(metadata !1337)
  tail call void @llvm.experimental.noalias.scope.decl(metadata !1339)
  tail call void @llvm.experimental.noalias.scope.decl(metadata !1342)
  tail call void @llvm.experimental.noalias.scope.decl(metadata !1344)
  tail call void @llvm.experimental.noalias.scope.decl(metadata !1347)
  tail call void @llvm.experimental.noalias.scope.decl(metadata !1349)
  tail call void @llvm.experimental.noalias.scope.decl(metadata !1352)
  %_3.i.i.i.i7.i19 = load i32, ptr %_12.i17, align 4, !alias.scope !1354, !noalias !1355, !noundef !37
  %_4.i.i.i.i8.i20 = load i32, ptr %_14.i18, align 4, !alias.scope !1355, !noalias !1354, !noundef !37
  %_0.i9.i21 = icmp slt i32 %_3.i.i.i.i7.i19, %_4.i.i.i.i8.i20
  %count.i22 = zext i1 %_0.i.i16 to i64
  %a.i23 = getelementptr inbounds nuw i32, ptr %_27, i64 %count.i22
  %_19.i24 = xor i1 %_0.i.i16, true
  %count2.i25 = zext i1 %_19.i24 to i64
  %b.i26 = getelementptr inbounds nuw i32, ptr %_27, i64 %count2.i25
  %count3.i27 = select i1 %_0.i9.i21, i64 3, i64 2
  %c.i28 = getelementptr inbounds nuw i32, ptr %_27, i64 %count3.i27
  %count4.i29 = select i1 %_0.i9.i21, i64 2, i64 3
  %d.i30 = getelementptr inbounds nuw i32, ptr %_27, i64 %count4.i29
  tail call void @llvm.experimental.noalias.scope.decl(metadata !1356)
  tail call void @llvm.experimental.noalias.scope.decl(metadata !1359)
  tail call void @llvm.experimental.noalias.scope.decl(metadata !1361)
  tail call void @llvm.experimental.noalias.scope.decl(metadata !1364)
  tail call void @llvm.experimental.noalias.scope.decl(metadata !1366)
  tail call void @llvm.experimental.noalias.scope.decl(metadata !1369)
  tail call void @llvm.experimental.noalias.scope.decl(metadata !1371)
  tail call void @llvm.experimental.noalias.scope.decl(metadata !1374)
  %_3.i.i.i.i10.i31 = load i32, ptr %c.i28, align 4, !alias.scope !1376, !noalias !1377, !noundef !37
  %_4.i.i.i.i11.i32 = load i32, ptr %a.i23, align 4, !alias.scope !1377, !noalias !1376, !noundef !37
  %_0.i12.i33 = icmp slt i32 %_3.i.i.i.i10.i31, %_4.i.i.i.i11.i32
  tail call void @llvm.experimental.noalias.scope.decl(metadata !1378)
  tail call void @llvm.experimental.noalias.scope.decl(metadata !1381)
  tail call void @llvm.experimental.noalias.scope.decl(metadata !1383)
  tail call void @llvm.experimental.noalias.scope.decl(metadata !1386)
  tail call void @llvm.experimental.noalias.scope.decl(metadata !1388)
  tail call void @llvm.experimental.noalias.scope.decl(metadata !1391)
  tail call void @llvm.experimental.noalias.scope.decl(metadata !1393)
  tail call void @llvm.experimental.noalias.scope.decl(metadata !1396)
  %_3.i.i.i.i13.i34 = load i32, ptr %d.i30, align 4, !alias.scope !1398, !noalias !1399, !noundef !37
  %_4.i.i.i.i14.i35 = load i32, ptr %b.i26, align 4, !alias.scope !1399, !noalias !1398, !noundef !37
  %_0.i15.i36 = icmp slt i32 %_3.i.i.i.i13.i34, %_4.i.i.i.i14.i35
  %10 = select i1 %_0.i12.i33, ptr %c.i28, ptr %a.i23, !unpredictable !37
  %11 = select i1 %_0.i15.i36, ptr %c.i28, ptr %b.i26, !unpredictable !37
  %12 = select i1 %_0.i12.i33, ptr %a.i23, ptr %11, !unpredictable !37
  %13 = select i1 %_0.i12.i33, ptr %b.i26, ptr %c.i28, !unpredictable !37
  %14 = select i1 %_0.i15.i36, ptr %d.i30, ptr %13, !unpredictable !37
  tail call void @llvm.experimental.noalias.scope.decl(metadata !1400)
  tail call void @llvm.experimental.noalias.scope.decl(metadata !1403)
  tail call void @llvm.experimental.noalias.scope.decl(metadata !1405)
  tail call void @llvm.experimental.noalias.scope.decl(metadata !1408)
  tail call void @llvm.experimental.noalias.scope.decl(metadata !1410)
  tail call void @llvm.experimental.noalias.scope.decl(metadata !1413)
  tail call void @llvm.experimental.noalias.scope.decl(metadata !1415)
  tail call void @llvm.experimental.noalias.scope.decl(metadata !1418)
  %_3.i.i.i.i16.i37 = load i32, ptr %14, align 4, !alias.scope !1420, !noalias !1421, !noundef !37
  %_4.i.i.i.i17.i38 = load i32, ptr %12, align 4, !alias.scope !1421, !noalias !1420, !noundef !37
  %15 = load i32, ptr %10, align 4
  store i32 %15, ptr %_28, align 4
  %dst5.i40 = getelementptr inbounds nuw i8, ptr %_28, i64 4
  %16 = tail call i32 @llvm.smin.i32(i32 %_3.i.i.i.i16.i37, i32 %_4.i.i.i.i17.i38)
  store i32 %16, ptr %dst5.i40, align 4
  %dst6.i43 = getelementptr inbounds nuw i8, ptr %_28, i64 8
  %17 = tail call i32 @llvm.smax.i32(i32 %_3.i.i.i.i16.i37, i32 %_4.i.i.i.i17.i38)
  store i32 %17, ptr %dst6.i43, align 4
  %18 = getelementptr inbounds nuw i8, ptr %_28, i64 12
  %19 = tail call i32 @llvm.smax.i32(i32 %_3.i.i.i.i13.i34, i32 %_4.i.i.i.i14.i35)
  store i32 %19, ptr %18, align 4
  br label %bb15

bb46:                                             ; preds = %bb9
  %20 = load i32, ptr %v.0, align 4
  store i32 %20, ptr %scratch.0, align 4
  %_31 = getelementptr inbounds nuw i32, ptr %v.0, i64 %len_div_211
  %21 = getelementptr inbounds nuw i32, ptr %scratch.0, i64 %len_div_211
  %22 = load i32, ptr %_31, align 4
  store i32 %22, ptr %21, align 4
  br label %bb15

bb15:                                             ; preds = %bb46, %bb10, %bb6
  %presorted_len.sroa.0.0 = phi i64 [ 8, %bb6 ], [ 4, %bb10 ], [ 1, %bb46 ]
  call void @llvm.lifetime.start.p0(i64 32, ptr nonnull %iter)
  store i64 0, ptr %iter, align 8
  %_37.sroa.4.0.iter.sroa_idx = getelementptr inbounds nuw i8, ptr %iter, i64 8
  store i64 2, ptr %_37.sroa.4.0.iter.sroa_idx, align 8
  %_37.sroa.5.0.iter.sroa_idx = getelementptr inbounds nuw i8, ptr %iter, i64 16
  store i64 0, ptr %_37.sroa.5.0.iter.sroa_idx, align 8
  %_37.sroa.6.0.iter.sroa_idx = getelementptr inbounds nuw i8, ptr %iter, i64 24
  store i64 %len_div_211, ptr %_37.sroa.6.0.iter.sroa_idx, align 8
  %23 = sub nsw i64 %v.1, %len_div_211
  %iter1.sroa.0.161 = add nuw nsw i64 %presorted_len.sroa.0.0, 1
  br label %bb16

bb16:                                             ; preds = %bb16.backedge, %bb15
  %24 = phi i64 [ 0, %bb15 ], [ %25, %bb16.backedge ]
  %_5.not.i.not = icmp eq i64 %24, 2
  br i1 %_5.not.i.not, label %"_ZN4core5array4iter10iter_inner78PolymorphicIter$LT$$u5b$core..mem..maybe_uninit..MaybeUninit$LT$T$GT$$u5d$$GT$4next17hb49c9d1ba10adf46E.exit", label %bb1.i

bb1.i:                                            ; preds = %bb16
  %_11.i = add nuw nsw i64 %24, 1
  store i64 %_11.i, ptr %iter, align 8, !alias.scope !1422
  %_20.i = icmp ult i64 %24, 2
  tail call void @llvm.assume(i1 %_20.i)
  %self3.i = getelementptr inbounds nuw i64, ptr %_37.sroa.5.0.iter.sroa_idx, i64 %24
  %_15.i = load i64, ptr %self3.i, align 8, !alias.scope !1422, !noundef !37
  br label %"_ZN4core5array4iter10iter_inner78PolymorphicIter$LT$$u5b$core..mem..maybe_uninit..MaybeUninit$LT$T$GT$$u5d$$GT$4next17hb49c9d1ba10adf46E.exit"

"_ZN4core5array4iter10iter_inner78PolymorphicIter$LT$$u5b$core..mem..maybe_uninit..MaybeUninit$LT$T$GT$$u5d$$GT$4next17hb49c9d1ba10adf46E.exit": ; preds = %bb16, %bb1.i
  %25 = phi i64 [ %_11.i, %bb1.i ], [ %24, %bb16 ]
  %_0.sroa.3.0.i = phi i64 [ %_15.i, %bb1.i ], [ undef, %bb16 ]
  br i1 %_5.not.i.not, label %bb19, label %bb18

bb18:                                             ; preds = %"_ZN4core5array4iter10iter_inner78PolymorphicIter$LT$$u5b$core..mem..maybe_uninit..MaybeUninit$LT$T$GT$$u5d$$GT$4next17hb49c9d1ba10adf46E.exit"
  %src5 = getelementptr inbounds nuw i32, ptr %v.0, i64 %_0.sroa.3.0.i
  %dst6 = getelementptr inbounds nuw i32, ptr %scratch.0, i64 %_0.sroa.3.0.i
  %_47 = icmp eq i64 %_0.sroa.3.0.i, 0
  %desired_len.sroa.0.0 = select i1 %_47, i64 %len_div_211, i64 %23
  %_8059 = icmp ult i64 %presorted_len.sroa.0.0, %desired_len.sroa.0.0
  br i1 %_8059, label %bb24, label %bb16.backedge

bb16.backedge:                                    ; preds = %_ZN4core5slice4sort6shared9smallsort11insert_tail17h8d444b17020be90bE.exit, %bb18
  br label %bb16

bb19:                                             ; preds = %"_ZN4core5array4iter10iter_inner78PolymorphicIter$LT$$u5b$core..mem..maybe_uninit..MaybeUninit$LT$T$GT$$u5d$$GT$4next17hb49c9d1ba10adf46E.exit"
  call void @llvm.lifetime.end.p0(i64 32, ptr nonnull %iter)
  tail call void @llvm.experimental.noalias.scope.decl(metadata !1425)
  %count1.i = add nsw i64 %v.1, -1
  %26 = getelementptr inbounds nuw i32, ptr %v.0, i64 %count1.i
  %27 = getelementptr inbounds nuw i32, ptr %scratch.0, i64 %count1.i
  %28 = getelementptr i32, ptr %scratch.0, i64 %len_div_211
  %29 = getelementptr i8, ptr %28, i64 -4
  br label %bb15.i

bb16.i:                                           ; preds = %bb15.i
  %30 = getelementptr i8, ptr %35, i64 4
  %31 = getelementptr i8, ptr %34, i64 4
  %_44.i = and i64 %v.1, 1
  %_22.i = icmp eq i64 %_44.i, 0
  br i1 %_22.i, label %bb9.i, label %bb5.i

bb15.i:                                           ; preds = %bb15.i, %bb19
  %dst.sroa.0.029.i = phi ptr [ %_16.i.i, %bb15.i ], [ %v.0, %bb19 ]
  %iter.sroa.0.028.i = phi i64 [ %_39.i, %bb15.i ], [ 0, %bb19 ]
  %left.sroa.0.027.i = phi ptr [ %_14.i.i, %bb15.i ], [ %scratch.0, %bb19 ]
  %right.sroa.0.026.i = phi ptr [ %_12.i.i, %bb15.i ], [ %28, %bb19 ]
  %left_rev.sroa.0.025.i = phi ptr [ %35, %bb15.i ], [ %29, %bb19 ]
  %right_rev.sroa.0.024.i = phi ptr [ %34, %bb15.i ], [ %27, %bb19 ]
  %dst_rev.sroa.0.023.i = phi ptr [ %36, %bb15.i ], [ %26, %bb19 ]
  %_39.i = add nuw nsw i64 %iter.sroa.0.028.i, 1
  tail call void @llvm.experimental.noalias.scope.decl(metadata !1428)
  tail call void @llvm.experimental.noalias.scope.decl(metadata !1431)
  tail call void @llvm.experimental.noalias.scope.decl(metadata !1433), !noalias !1436
  tail call void @llvm.experimental.noalias.scope.decl(metadata !1439), !noalias !1436
  tail call void @llvm.experimental.noalias.scope.decl(metadata !1441), !noalias !1436
  tail call void @llvm.experimental.noalias.scope.decl(metadata !1444), !noalias !1436
  tail call void @llvm.experimental.noalias.scope.decl(metadata !1446), !noalias !1436
  tail call void @llvm.experimental.noalias.scope.decl(metadata !1449), !noalias !1436
  %_3.i.i.i.i.i49 = load i32, ptr %right.sroa.0.026.i, align 4, !alias.scope !1451, !noalias !1452, !noundef !37
  %_4.i.i.i.i.i50 = load i32, ptr %left.sroa.0.027.i, align 4, !alias.scope !1453, !noalias !1454, !noundef !37
  %_0.i.i51 = icmp slt i32 %_3.i.i.i.i.i49, %_4.i.i.i.i.i50
  %is_l.i18.i = xor i1 %_0.i.i51, true
  %32 = tail call i32 @llvm.smin.i32(i32 %_3.i.i.i.i.i49, i32 %_4.i.i.i.i.i50)
  store i32 %32, ptr %dst.sroa.0.029.i, align 4, !noalias !1455
  %count.i.i = zext i1 %_0.i.i51 to i64
  %_12.i.i = getelementptr inbounds nuw i32, ptr %right.sroa.0.026.i, i64 %count.i.i
  %count2.i.i = zext i1 %is_l.i18.i to i64
  %_14.i.i = getelementptr inbounds nuw i32, ptr %left.sroa.0.027.i, i64 %count2.i.i
  %_16.i.i = getelementptr inbounds nuw i8, ptr %dst.sroa.0.029.i, i64 4
  tail call void @llvm.experimental.noalias.scope.decl(metadata !1457)
  tail call void @llvm.experimental.noalias.scope.decl(metadata !1460)
  tail call void @llvm.experimental.noalias.scope.decl(metadata !1462), !noalias !1465
  tail call void @llvm.experimental.noalias.scope.decl(metadata !1468), !noalias !1465
  tail call void @llvm.experimental.noalias.scope.decl(metadata !1470), !noalias !1465
  tail call void @llvm.experimental.noalias.scope.decl(metadata !1473), !noalias !1465
  tail call void @llvm.experimental.noalias.scope.decl(metadata !1475), !noalias !1465
  tail call void @llvm.experimental.noalias.scope.decl(metadata !1478), !noalias !1465
  %_3.i.i.i.i19.i = load i32, ptr %right_rev.sroa.0.024.i, align 4, !alias.scope !1480, !noalias !1481, !noundef !37
  %_4.i.i.i.i20.i = load i32, ptr %left_rev.sroa.0.025.i, align 4, !alias.scope !1482, !noalias !1483, !noundef !37
  %_0.i21.i = icmp slt i32 %_3.i.i.i.i19.i, %_4.i.i.i.i20.i
  %is_l.i.i = xor i1 %_0.i21.i, true
  %33 = tail call i32 @llvm.smax.i32(i32 %_3.i.i.i.i19.i, i32 %_4.i.i.i.i20.i)
  store i32 %33, ptr %dst_rev.sroa.0.023.i, align 4, !noalias !1484
  %count.neg.i.i = sext i1 %is_l.i.i to i64
  %34 = getelementptr i32, ptr %right_rev.sroa.0.024.i, i64 %count.neg.i.i
  %count3.neg.i.i = sext i1 %_0.i21.i to i64
  %35 = getelementptr i32, ptr %left_rev.sroa.0.025.i, i64 %count3.neg.i.i
  %36 = getelementptr inbounds i8, ptr %dst_rev.sroa.0.023.i, i64 -4
  %exitcond.not.i = icmp eq i64 %_39.i, %len_div_211
  br i1 %exitcond.not.i, label %bb16.i, label %bb15.i

bb5.i:                                            ; preds = %bb16.i
  %left_nonempty.i = icmp ult ptr %_14.i.i, %30
  %left.sroa.0.0.right.sroa.0.0.i = select i1 %left_nonempty.i, ptr %_14.i.i, ptr %_12.i.i
  %37 = load i32, ptr %left.sroa.0.0.right.sroa.0.0.i, align 4, !alias.scope !1425
  store i32 %37, ptr %_16.i.i, align 4, !noalias !1425
  %count2.i52 = zext i1 %left_nonempty.i to i64
  %_26.i = getelementptr inbounds nuw i32, ptr %_14.i.i, i64 %count2.i52
  %_30.i = xor i1 %left_nonempty.i, true
  %count3.i53 = zext i1 %_30.i to i64
  %_28.i = getelementptr inbounds nuw i32, ptr %_12.i.i, i64 %count3.i53
  br label %bb9.i

bb9.i:                                            ; preds = %bb5.i, %bb16.i
  %right.sroa.0.1.i = phi ptr [ %_12.i.i, %bb16.i ], [ %_28.i, %bb5.i ]
  %left.sroa.0.1.i = phi ptr [ %_14.i.i, %bb16.i ], [ %_26.i, %bb5.i ]
  %_31.i = icmp ne ptr %left.sroa.0.1.i, %30
  %_32.i = icmp ne ptr %right.sroa.0.1.i, %31
  %or.cond.i = select i1 %_31.i, i1 true, i1 %_32.i
  br i1 %or.cond.i, label %bb13.i, label %bb29, !prof !898

bb13.i:                                           ; preds = %bb9.i
; invoke core::slice::sort::shared::smallsort::panic_on_ord_violation
  invoke void @_ZN4core5slice4sort6shared9smallsort22panic_on_ord_violation17hc77a22a2d50782cdE() #32
          to label %.noexc unwind label %cleanup2

.noexc:                                           ; preds = %bb13.i
  unreachable

cleanup2:                                         ; preds = %bb13.i
  %38 = landingpad { ptr, i32 }
          cleanup
  %39 = shl nuw nsw i64 %v.1, 2
  tail call void @llvm.memcpy.p0.p0.i64(ptr nonnull align 4 %v.0, ptr nonnull align 4 %scratch.0, i64 %39, i1 false), !noalias !1486
  resume { ptr, i32 } %38

bb29:                                             ; preds = %bb9.i, %start
  ret void

bb24:                                             ; preds = %bb18, %_ZN4core5slice4sort6shared9smallsort11insert_tail17h8d444b17020be90bE.exit
  %iter1.sroa.0.163 = phi i64 [ %iter1.sroa.0.1, %_ZN4core5slice4sort6shared9smallsort11insert_tail17h8d444b17020be90bE.exit ], [ %iter1.sroa.0.161, %bb18 ]
  %iter1.sroa.0.062 = phi i64 [ %iter1.sroa.0.163, %_ZN4core5slice4sort6shared9smallsort11insert_tail17h8d444b17020be90bE.exit ], [ %presorted_len.sroa.0.0, %bb18 ]
  %_55 = getelementptr inbounds nuw i32, ptr %src5, i64 %iter1.sroa.0.062
  %dst7 = getelementptr inbounds nuw i32, ptr %dst6, i64 %iter1.sroa.0.062
  %40 = load i32, ptr %_55, align 4
  store i32 %40, ptr %dst7, align 4
  %41 = getelementptr inbounds i8, ptr %dst7, i64 -4
  %_4.i.i.i.i.i56 = load i32, ptr %41, align 4, !alias.scope !1491, !noalias !1500, !noundef !37
  %_0.i.i57 = icmp slt i32 %40, %_4.i.i.i.i.i56
  br i1 %_0.i.i57, label %bb4.i, label %_ZN4core5slice4sort6shared9smallsort11insert_tail17h8d444b17020be90bE.exit

bb4.i:                                            ; preds = %bb24, %bb6.i
  %gap_guard.sroa.5.0.i = phi ptr [ %sift.sroa.0.0.i, %bb6.i ], [ %dst7, %bb24 ]
  %sift.sroa.0.0.i = phi ptr [ %43, %bb6.i ], [ %41, %bb24 ]
  %42 = load i32, ptr %sift.sroa.0.0.i, align 4
  store i32 %42, ptr %gap_guard.sroa.5.0.i, align 4
  %_18.i = icmp eq ptr %sift.sroa.0.0.i, %dst6
  br i1 %_18.i, label %bb10.i, label %bb6.i

bb6.i:                                            ; preds = %bb4.i
  %43 = getelementptr inbounds i8, ptr %sift.sroa.0.0.i, i64 -4
  %_4.i.i.i.i2.i = load i32, ptr %43, align 4, !alias.scope !1505, !noalias !1514, !noundef !37
  %_0.i3.i = icmp slt i32 %40, %_4.i.i.i.i2.i
  br i1 %_0.i3.i, label %bb4.i, label %bb10.i

bb10.i:                                           ; preds = %bb6.i, %bb4.i
  store i32 %40, ptr %sift.sroa.0.0.i, align 4, !noalias !1519
  br label %_ZN4core5slice4sort6shared9smallsort11insert_tail17h8d444b17020be90bE.exit

_ZN4core5slice4sort6shared9smallsort11insert_tail17h8d444b17020be90bE.exit: ; preds = %bb24, %bb10.i
  %_80 = icmp ult i64 %iter1.sroa.0.163, %desired_len.sroa.0.0
  %_84 = zext i1 %_80 to i64
  %iter1.sroa.0.1 = add nuw i64 %iter1.sroa.0.163, %_84
  br i1 %_80, label %bb24, label %bb16.backedge
}

; core::slice::sort::stable::driftsort_main
; Function Attrs: noinline nonlazybind uwtable
define void @_ZN4core5slice4sort6stable14driftsort_main17h4e47b3ce28504335E(ptr noalias noundef nonnull align 4 %v.0, i64 noundef range(i64 0, 2305843009213693952) %v.1, ptr noalias noundef align 8 dereferenceable(8) %is_less) unnamed_addr #9 personality ptr @rust_eh_personality {
start:
  %_4.i.i = alloca [24 x i8], align 8
  %heap_buf = alloca [24 x i8], align 8
  %stack_buf = alloca [4096 x i8], align 4
  %_105 = lshr i64 %v.1, 1
  %v1 = sub nsw i64 %v.1, %_105
  %_0.sroa.0.0.i = tail call noundef i64 @llvm.umin.i64(i64 %v.1, i64 2000000)
  %_0.sroa.0.0.i6 = tail call noundef i64 @llvm.umax.i64(i64 %_0.sroa.0.0.i, i64 %v1)
  %_0.sroa.0.0.i7 = tail call noundef i64 @llvm.umax.i64(i64 %_0.sroa.0.0.i6, i64 48)
  call void @llvm.lifetime.start.p0(i64 4096, ptr nonnull %stack_buf)
  call void @llvm.lifetime.start.p0(i64 24, ptr nonnull %heap_buf)
  %_15 = icmp ult i64 %_0.sroa.0.0.i6, 1025
  br i1 %_15, label %bb8, label %bb4

bb4:                                              ; preds = %start
  call void @llvm.lifetime.start.p0(i64 24, ptr nonnull %_4.i.i), !noalias !1524
; invoke alloc::raw_vec::RawVecInner<A>::try_allocate_in
  invoke void @"_ZN5alloc7raw_vec20RawVecInner$LT$A$GT$15try_allocate_in17had089b3ffc2704ecE"(ptr noalias noundef sret([24 x i8]) align 8 captures(none) dereferenceable(24) %_4.i.i, i64 noundef %_0.sroa.0.0.i7, i1 noundef zeroext false, i64 noundef 4, i64 noundef 4)
          to label %.noexc unwind label %cleanup

.noexc:                                           ; preds = %bb4
  %_5.i.i = load i64, ptr %_4.i.i, align 8, !range !1527, !noalias !1524, !noundef !37
  %0 = trunc nuw i64 %_5.i.i to i1
  %1 = getelementptr inbounds nuw i8, ptr %_4.i.i, i64 8
  %err.0.i.i = load i64, ptr %1, align 8, !range !1528, !noalias !1524, !noundef !37
  %2 = getelementptr inbounds nuw i8, ptr %_4.i.i, i64 16
  br i1 %0, label %bb3.i.i, label %"_ZN5alloc5slice99_$LT$impl$u20$core..slice..sort..stable..BufGuard$LT$T$GT$$u20$for$u20$alloc..vec..Vec$LT$T$GT$$GT$13with_capacity17h902fd1cdf4522e46E.exit", !prof !1529

bb3.i.i:                                          ; preds = %.noexc
  %err.1.i.i = load i64, ptr %2, align 8, !noalias !1524
; invoke alloc::raw_vec::handle_error
  invoke void @_ZN5alloc7raw_vec12handle_error17h3a8c375904e593b2E(i64 noundef %err.0.i.i, i64 %err.1.i.i) #33
          to label %.noexc8 unwind label %cleanup

.noexc8:                                          ; preds = %bb3.i.i
  unreachable

"_ZN5alloc5slice99_$LT$impl$u20$core..slice..sort..stable..BufGuard$LT$T$GT$$u20$for$u20$alloc..vec..Vec$LT$T$GT$$GT$13with_capacity17h902fd1cdf4522e46E.exit": ; preds = %.noexc
  %this.1.i.i = load ptr, ptr %2, align 8, !noalias !1524, !nonnull !37, !noundef !37
  %_7.i.i = icmp ule i64 %_0.sroa.0.0.i7, %err.0.i.i
  tail call void @llvm.assume(i1 %_7.i.i)
  call void @llvm.lifetime.end.p0(i64 24, ptr nonnull %_4.i.i), !noalias !1524
  store i64 %err.0.i.i, ptr %heap_buf, align 8
  %_18.sroa.4.0.heap_buf.sroa_idx = getelementptr inbounds nuw i8, ptr %heap_buf, i64 8
  store ptr %this.1.i.i, ptr %_18.sroa.4.0.heap_buf.sroa_idx, align 8
  %_18.sroa.5.0.heap_buf.sroa_idx = getelementptr inbounds nuw i8, ptr %heap_buf, i64 16
  store i64 0, ptr %_18.sroa.5.0.heap_buf.sroa_idx, align 8
  br label %bb8

cleanup:                                          ; preds = %bb3.i.i, %bb4, %bb8
  %_24.sroa.0.0 = phi i8 [ %_24.sroa.0.1, %bb8 ], [ 0, %bb4 ], [ 0, %bb3.i.i ]
  %3 = landingpad { ptr, i32 }
          cleanup
  %4 = trunc nuw i8 %_24.sroa.0.0 to i1
  br i1 %4, label %bb13, label %bb11

bb8:                                              ; preds = %"_ZN5alloc5slice99_$LT$impl$u20$core..slice..sort..stable..BufGuard$LT$T$GT$$u20$for$u20$alloc..vec..Vec$LT$T$GT$$GT$13with_capacity17h902fd1cdf4522e46E.exit", %start
  %_24.sroa.0.1 = phi i8 [ 0, %start ], [ 1, %"_ZN5alloc5slice99_$LT$impl$u20$core..slice..sort..stable..BufGuard$LT$T$GT$$u20$for$u20$alloc..vec..Vec$LT$T$GT$$GT$13with_capacity17h902fd1cdf4522e46E.exit" ]
  %stack_scratch.sroa.4.0 = phi i64 [ 1024, %start ], [ %err.0.i.i, %"_ZN5alloc5slice99_$LT$impl$u20$core..slice..sort..stable..BufGuard$LT$T$GT$$u20$for$u20$alloc..vec..Vec$LT$T$GT$$GT$13with_capacity17h902fd1cdf4522e46E.exit" ]
  %stack_buf.pn = phi ptr [ %stack_buf, %start ], [ %this.1.i.i, %"_ZN5alloc5slice99_$LT$impl$u20$core..slice..sort..stable..BufGuard$LT$T$GT$$u20$for$u20$alloc..vec..Vec$LT$T$GT$$GT$13with_capacity17h902fd1cdf4522e46E.exit" ]
  %eager_sort = icmp samesign ult i64 %v.1, 65
; invoke core::slice::sort::stable::drift::sort
  invoke void @_ZN4core5slice4sort6stable5drift4sort17h753da6aa311033faE(ptr noalias noundef nonnull align 4 %v.0, i64 noundef %v.1, ptr noalias noundef nonnull align 4 %stack_buf.pn, i64 noundef %stack_scratch.sroa.4.0, i1 noundef zeroext %eager_sort, ptr noalias noundef align 8 dereferenceable(8) %is_less)
          to label %bb9 unwind label %cleanup

bb9:                                              ; preds = %bb8
  %5 = trunc nuw i8 %_24.sroa.0.1 to i1
  br i1 %5, label %bb12, label %bb10

bb10:                                             ; preds = %bb12, %bb9
  call void @llvm.lifetime.end.p0(i64 24, ptr nonnull %heap_buf)
  call void @llvm.lifetime.end.p0(i64 4096, ptr nonnull %stack_buf)
  ret void

bb12:                                             ; preds = %bb9
; call alloc::raw_vec::RawVecInner<A>::deallocate
  call void @"_ZN5alloc7raw_vec20RawVecInner$LT$A$GT$10deallocate17h6ddf8733b0451bb9E"(ptr noalias noundef nonnull align 8 dereferenceable(24) %heap_buf, i64 noundef 4, i64 noundef 4)
  br label %bb10

bb11:                                             ; preds = %bb13, %cleanup
  resume { ptr, i32 } %3

bb13:                                             ; preds = %cleanup
; invoke alloc::raw_vec::RawVecInner<A>::deallocate
  invoke void @"_ZN5alloc7raw_vec20RawVecInner$LT$A$GT$10deallocate17h6ddf8733b0451bb9E"(ptr noalias noundef nonnull align 8 dereferenceable(24) %heap_buf, i64 noundef 4, i64 noundef 4)
          to label %bb11 unwind label %terminate

terminate:                                        ; preds = %bb13
  %6 = landingpad { ptr, i32 }
          filter [0 x ptr] zeroinitializer
; call core::panicking::panic_in_cleanup
  call void @_ZN4core9panicking16panic_in_cleanup17h5f6bde45d17ae243E() #31
  unreachable
}

; core::slice::sort::stable::driftsort_main
; Function Attrs: noinline nonlazybind uwtable
define void @_ZN4core5slice4sort6stable14driftsort_main17had053cf2c77a0b49E(ptr noalias noundef nonnull align 8 %v.0, i64 noundef range(i64 0, 384307168202282326) %v.1, ptr noalias noundef nonnull align 1 %is_less) unnamed_addr #9 personality ptr @rust_eh_personality {
start:
  %_4.i.i = alloca [24 x i8], align 8
  %heap_buf = alloca [24 x i8], align 8
  %stack_buf = alloca [4096 x i8], align 8
  %_105 = lshr i64 %v.1, 1
  %v1 = sub nsw i64 %v.1, %_105
  %_0.sroa.0.0.i = tail call noundef i64 @llvm.umin.i64(i64 %v.1, i64 333333)
  %_0.sroa.0.0.i6 = tail call noundef i64 @llvm.umax.i64(i64 %_0.sroa.0.0.i, i64 %v1)
  %_0.sroa.0.0.i7 = tail call noundef i64 @llvm.umax.i64(i64 %_0.sroa.0.0.i6, i64 48)
  call void @llvm.lifetime.start.p0(i64 4096, ptr nonnull %stack_buf)
  call void @llvm.lifetime.start.p0(i64 24, ptr nonnull %heap_buf)
  %_15 = icmp ult i64 %_0.sroa.0.0.i6, 171
  br i1 %_15, label %bb8, label %bb4

bb4:                                              ; preds = %start
  call void @llvm.lifetime.start.p0(i64 24, ptr nonnull %_4.i.i), !noalias !1530
; invoke alloc::raw_vec::RawVecInner<A>::try_allocate_in
  invoke void @"_ZN5alloc7raw_vec20RawVecInner$LT$A$GT$15try_allocate_in17had089b3ffc2704ecE"(ptr noalias noundef sret([24 x i8]) align 8 captures(none) dereferenceable(24) %_4.i.i, i64 noundef %_0.sroa.0.0.i7, i1 noundef zeroext false, i64 noundef 8, i64 noundef 24)
          to label %.noexc unwind label %cleanup

.noexc:                                           ; preds = %bb4
  %_5.i.i = load i64, ptr %_4.i.i, align 8, !range !1527, !noalias !1530, !noundef !37
  %0 = trunc nuw i64 %_5.i.i to i1
  %1 = getelementptr inbounds nuw i8, ptr %_4.i.i, i64 8
  %err.0.i.i = load i64, ptr %1, align 8, !range !1528, !noalias !1530, !noundef !37
  %2 = getelementptr inbounds nuw i8, ptr %_4.i.i, i64 16
  br i1 %0, label %bb3.i.i, label %"_ZN5alloc5slice99_$LT$impl$u20$core..slice..sort..stable..BufGuard$LT$T$GT$$u20$for$u20$alloc..vec..Vec$LT$T$GT$$GT$13with_capacity17h7c1b0be8a5f89fe9E.exit", !prof !1529

bb3.i.i:                                          ; preds = %.noexc
  %err.1.i.i = load i64, ptr %2, align 8, !noalias !1530
; invoke alloc::raw_vec::handle_error
  invoke void @_ZN5alloc7raw_vec12handle_error17h3a8c375904e593b2E(i64 noundef %err.0.i.i, i64 %err.1.i.i) #33
          to label %.noexc8 unwind label %cleanup

.noexc8:                                          ; preds = %bb3.i.i
  unreachable

"_ZN5alloc5slice99_$LT$impl$u20$core..slice..sort..stable..BufGuard$LT$T$GT$$u20$for$u20$alloc..vec..Vec$LT$T$GT$$GT$13with_capacity17h7c1b0be8a5f89fe9E.exit": ; preds = %.noexc
  %this.1.i.i = load ptr, ptr %2, align 8, !noalias !1530, !nonnull !37, !noundef !37
  %_7.i.i = icmp ule i64 %_0.sroa.0.0.i7, %err.0.i.i
  tail call void @llvm.assume(i1 %_7.i.i)
  call void @llvm.lifetime.end.p0(i64 24, ptr nonnull %_4.i.i), !noalias !1530
  store i64 %err.0.i.i, ptr %heap_buf, align 8
  %_18.sroa.4.0.heap_buf.sroa_idx = getelementptr inbounds nuw i8, ptr %heap_buf, i64 8
  store ptr %this.1.i.i, ptr %_18.sroa.4.0.heap_buf.sroa_idx, align 8
  %_18.sroa.5.0.heap_buf.sroa_idx = getelementptr inbounds nuw i8, ptr %heap_buf, i64 16
  store i64 0, ptr %_18.sroa.5.0.heap_buf.sroa_idx, align 8
  br label %bb8

cleanup:                                          ; preds = %bb3.i.i, %bb4, %bb8
  %_24.sroa.0.0 = phi i8 [ %_24.sroa.0.1, %bb8 ], [ 0, %bb4 ], [ 0, %bb3.i.i ]
  %3 = landingpad { ptr, i32 }
          cleanup
  %4 = trunc nuw i8 %_24.sroa.0.0 to i1
  br i1 %4, label %bb13, label %common.resume

bb8:                                              ; preds = %"_ZN5alloc5slice99_$LT$impl$u20$core..slice..sort..stable..BufGuard$LT$T$GT$$u20$for$u20$alloc..vec..Vec$LT$T$GT$$GT$13with_capacity17h7c1b0be8a5f89fe9E.exit", %start
  %_24.sroa.0.1 = phi i8 [ 0, %start ], [ 1, %"_ZN5alloc5slice99_$LT$impl$u20$core..slice..sort..stable..BufGuard$LT$T$GT$$u20$for$u20$alloc..vec..Vec$LT$T$GT$$GT$13with_capacity17h7c1b0be8a5f89fe9E.exit" ]
  %stack_scratch.sroa.4.0 = phi i64 [ 170, %start ], [ %err.0.i.i, %"_ZN5alloc5slice99_$LT$impl$u20$core..slice..sort..stable..BufGuard$LT$T$GT$$u20$for$u20$alloc..vec..Vec$LT$T$GT$$GT$13with_capacity17h7c1b0be8a5f89fe9E.exit" ]
  %stack_buf.pn = phi ptr [ %stack_buf, %start ], [ %this.1.i.i, %"_ZN5alloc5slice99_$LT$impl$u20$core..slice..sort..stable..BufGuard$LT$T$GT$$u20$for$u20$alloc..vec..Vec$LT$T$GT$$GT$13with_capacity17h7c1b0be8a5f89fe9E.exit" ]
  %eager_sort = icmp samesign ult i64 %v.1, 65
; invoke core::slice::sort::stable::drift::sort
  invoke void @_ZN4core5slice4sort6stable5drift4sort17h0c433fc08a1d1e26E(ptr noalias noundef nonnull align 8 %v.0, i64 noundef %v.1, ptr noalias noundef nonnull align 8 %stack_buf.pn, i64 noundef %stack_scratch.sroa.4.0, i1 noundef zeroext %eager_sort, ptr noalias noundef nonnull align 1 %is_less)
          to label %bb9 unwind label %cleanup

bb9:                                              ; preds = %bb8
  %5 = trunc nuw i8 %_24.sroa.0.1 to i1
  br i1 %5, label %bb12, label %bb10

bb10:                                             ; preds = %"_ZN4core3ptr65drop_in_place$LT$alloc..vec..Vec$LT$alloc..string..String$GT$$GT$17he3d388727106a310E.exit", %bb9
  call void @llvm.lifetime.end.p0(i64 24, ptr nonnull %heap_buf)
  call void @llvm.lifetime.end.p0(i64 4096, ptr nonnull %stack_buf)
  ret void

bb12:                                             ; preds = %bb9
; invoke <alloc::vec::Vec<T,A> as core::ops::drop::Drop>::drop
  invoke void @"_ZN70_$LT$alloc..vec..Vec$LT$T$C$A$GT$$u20$as$u20$core..ops..drop..Drop$GT$4drop17h3a1990cca6413e04E"(ptr noalias noundef nonnull align 8 dereferenceable(24) %heap_buf)
          to label %"_ZN4core3ptr65drop_in_place$LT$alloc..vec..Vec$LT$alloc..string..String$GT$$GT$17he3d388727106a310E.exit" unwind label %cleanup.i

cleanup.i:                                        ; preds = %bb12
  %6 = landingpad { ptr, i32 }
          cleanup
; invoke alloc::raw_vec::RawVecInner<A>::deallocate
  invoke void @"_ZN5alloc7raw_vec20RawVecInner$LT$A$GT$10deallocate17h6ddf8733b0451bb9E"(ptr noalias noundef nonnull align 8 dereferenceable(24) %heap_buf, i64 noundef 8, i64 noundef 24)
          to label %common.resume unwind label %terminate.i

terminate.i:                                      ; preds = %cleanup.i
  %7 = landingpad { ptr, i32 }
          filter [0 x ptr] zeroinitializer
; call core::panicking::panic_in_cleanup
  call void @_ZN4core9panicking16panic_in_cleanup17h5f6bde45d17ae243E() #31
  unreachable

common.resume:                                    ; preds = %cleanup, %bb13, %cleanup.i
  %common.resume.op = phi { ptr, i32 } [ %6, %cleanup.i ], [ %3, %bb13 ], [ %3, %cleanup ]
  resume { ptr, i32 } %common.resume.op

"_ZN4core3ptr65drop_in_place$LT$alloc..vec..Vec$LT$alloc..string..String$GT$$GT$17he3d388727106a310E.exit": ; preds = %bb12
; call alloc::raw_vec::RawVecInner<A>::deallocate
  call void @"_ZN5alloc7raw_vec20RawVecInner$LT$A$GT$10deallocate17h6ddf8733b0451bb9E"(ptr noalias noundef nonnull align 8 dereferenceable(24) %heap_buf, i64 noundef 8, i64 noundef 24)
  br label %bb10

bb13:                                             ; preds = %cleanup
; invoke core::ptr::drop_in_place<alloc::vec::Vec<alloc::string::String>>
  invoke fastcc void @"_ZN4core3ptr65drop_in_place$LT$alloc..vec..Vec$LT$alloc..string..String$GT$$GT$17he3d388727106a310E"(ptr noalias noundef align 8 dereferenceable(24) %heap_buf) #34
          to label %common.resume unwind label %terminate

terminate:                                        ; preds = %bb13
  %8 = landingpad { ptr, i32 }
          filter [0 x ptr] zeroinitializer
; call core::panicking::panic_in_cleanup
  call void @_ZN4core9panicking16panic_in_cleanup17h5f6bde45d17ae243E() #31
  unreachable
}

; core::slice::sort::stable::AlignedStorage<T,_>::as_uninit_slice_mut
; Function Attrs: mustprogress nofree norecurse nosync nounwind nonlazybind willreturn memory(none) uwtable
define { ptr, i64 } @"_ZN4core5slice4sort6stable27AlignedStorage$LT$T$C$_$GT$19as_uninit_slice_mut17h26c0b4b5889ad583E"(ptr noalias noundef align 4 dereferenceable(4096) %self) unnamed_addr #10 {
start:
  %0 = insertvalue { ptr, i64 } poison, ptr %self, 0
  %1 = insertvalue { ptr, i64 } %0, i64 1024, 1
  ret { ptr, i64 } %1
}

; core::slice::sort::stable::AlignedStorage<T,_>::as_uninit_slice_mut
; Function Attrs: mustprogress nofree norecurse nosync nounwind nonlazybind willreturn memory(none) uwtable
define { ptr, i64 } @"_ZN4core5slice4sort6stable27AlignedStorage$LT$T$C$_$GT$19as_uninit_slice_mut17haaff0ca1c4fa1fb7E"(ptr noalias noundef align 8 dereferenceable(4096) %self) unnamed_addr #10 {
start:
  %0 = insertvalue { ptr, i64 } poison, ptr %self, 0
  %1 = insertvalue { ptr, i64 } %0, i64 170, 1
  ret { ptr, i64 } %1
}

; core::slice::sort::stable::drift::create_run
; Function Attrs: nonlazybind uwtable
define noundef range(i64 0, -1) i64 @_ZN4core5slice4sort6stable5drift10create_run17h01028071545c4604E(ptr noalias noundef nonnull align 4 %v.0, i64 noundef range(i64 0, 2305843009213693952) %v.1, ptr noalias noundef nonnull align 4 %scratch.0, i64 noundef range(i64 0, 2305843009213693952) %scratch.1, i64 noundef %min_good_run_len, i1 noundef zeroext %eager_sort, ptr noalias noundef align 8 dereferenceable(8) %is_less) unnamed_addr #1 personality ptr @rust_eh_personality {
start:
  %_7.not = icmp ult i64 %v.1, %min_good_run_len
  br i1 %_7.not, label %bb7, label %bb1

bb7:                                              ; preds = %_ZN4core5slice4sort6shared17find_existing_run17h5487a28fb4abfd8fE.exit, %start
  br i1 %eager_sort, label %bb8, label %bb11

bb1:                                              ; preds = %start
  %_4.i = icmp samesign ult i64 %v.1, 2
  br i1 %_4.i, label %_ZN4core5slice4sort6shared17find_existing_run17h5487a28fb4abfd8fE.exit, label %bb2.i

bb2.i:                                            ; preds = %bb1
  %_28.i = getelementptr inbounds nuw i8, ptr %v.0, i64 4
  tail call void @llvm.experimental.noalias.scope.decl(metadata !1533)
  tail call void @llvm.experimental.noalias.scope.decl(metadata !1536)
  tail call void @llvm.experimental.noalias.scope.decl(metadata !1538)
  tail call void @llvm.experimental.noalias.scope.decl(metadata !1541)
  tail call void @llvm.experimental.noalias.scope.decl(metadata !1543)
  tail call void @llvm.experimental.noalias.scope.decl(metadata !1546)
  tail call void @llvm.experimental.noalias.scope.decl(metadata !1548)
  tail call void @llvm.experimental.noalias.scope.decl(metadata !1551)
  %_3.i.i.i.i = load i32, ptr %_28.i, align 4, !alias.scope !1553, !noalias !1554, !noundef !37
  %_4.i.i.i.i = load i32, ptr %v.0, align 4, !alias.scope !1554, !noalias !1553, !noundef !37
  %_0.i = icmp slt i32 %_3.i.i.i.i, %_4.i.i.i.i
  %_10.i13.not = icmp eq i64 %v.1, 2
  br i1 %_0.i, label %bb4.i.preheader, label %bb11.i.preheader

bb11.i.preheader:                                 ; preds = %bb2.i
  br i1 %_10.i13.not, label %_ZN4core5slice4sort6shared17find_existing_run17h5487a28fb4abfd8fE.exit, label %bb12.i.preheader

bb12.i.preheader:                                 ; preds = %bb11.i.preheader
  %invariant.gep = getelementptr i8, ptr %v.0, i64 -4
  br label %bb12.i

bb4.i.preheader:                                  ; preds = %bb2.i
  br i1 %_10.i13.not, label %_ZN4core5slice4sort6shared17find_existing_run17h5487a28fb4abfd8fE.exit, label %bb5.i.preheader

bb5.i.preheader:                                  ; preds = %bb4.i.preheader
  %invariant.gep24 = getelementptr i8, ptr %v.0, i64 -4
  br label %bb5.i

bb12.i:                                           ; preds = %bb12.i.preheader, %bb15.i
  %run_len.sroa.0.0.i11 = phi i64 [ %1, %bb15.i ], [ 2, %bb12.i.preheader ]
  %0 = getelementptr inbounds nuw i32, ptr %v.0, i64 %run_len.sroa.0.0.i11
  %gep = getelementptr i32, ptr %invariant.gep, i64 %run_len.sroa.0.0.i11
  tail call void @llvm.experimental.noalias.scope.decl(metadata !1555)
  tail call void @llvm.experimental.noalias.scope.decl(metadata !1558)
  tail call void @llvm.experimental.noalias.scope.decl(metadata !1560)
  tail call void @llvm.experimental.noalias.scope.decl(metadata !1563)
  tail call void @llvm.experimental.noalias.scope.decl(metadata !1565)
  tail call void @llvm.experimental.noalias.scope.decl(metadata !1568)
  tail call void @llvm.experimental.noalias.scope.decl(metadata !1570)
  tail call void @llvm.experimental.noalias.scope.decl(metadata !1573)
  %_3.i.i.i.i1 = load i32, ptr %0, align 4, !alias.scope !1575, !noalias !1576, !noundef !37
  %_4.i.i.i.i2 = load i32, ptr %gep, align 4, !alias.scope !1576, !noalias !1575, !noundef !37
  %_0.i3 = icmp slt i32 %_3.i.i.i.i1, %_4.i.i.i.i2
  br i1 %_0.i3, label %_ZN4core5slice4sort6shared17find_existing_run17h5487a28fb4abfd8fE.exit, label %bb15.i

bb15.i:                                           ; preds = %bb12.i
  %1 = add nuw nsw i64 %run_len.sroa.0.0.i11, 1
  %exitcond.not = icmp eq i64 %1, %v.1
  br i1 %exitcond.not, label %_ZN4core5slice4sort6shared17find_existing_run17h5487a28fb4abfd8fE.exit, label %bb12.i

bb5.i:                                            ; preds = %bb5.i.preheader, %bb7.i
  %run_len.sroa.0.1.i14 = phi i64 [ %3, %bb7.i ], [ 2, %bb5.i.preheader ]
  %2 = getelementptr inbounds nuw i32, ptr %v.0, i64 %run_len.sroa.0.1.i14
  %gep25 = getelementptr i32, ptr %invariant.gep24, i64 %run_len.sroa.0.1.i14
  tail call void @llvm.experimental.noalias.scope.decl(metadata !1577)
  tail call void @llvm.experimental.noalias.scope.decl(metadata !1580)
  tail call void @llvm.experimental.noalias.scope.decl(metadata !1582)
  tail call void @llvm.experimental.noalias.scope.decl(metadata !1585)
  tail call void @llvm.experimental.noalias.scope.decl(metadata !1587)
  tail call void @llvm.experimental.noalias.scope.decl(metadata !1590)
  tail call void @llvm.experimental.noalias.scope.decl(metadata !1592)
  tail call void @llvm.experimental.noalias.scope.decl(metadata !1595)
  %_3.i.i.i.i4 = load i32, ptr %2, align 4, !alias.scope !1597, !noalias !1598, !noundef !37
  %_4.i.i.i.i5 = load i32, ptr %gep25, align 4, !alias.scope !1598, !noalias !1597, !noundef !37
  %_0.i6 = icmp slt i32 %_3.i.i.i.i4, %_4.i.i.i.i5
  br i1 %_0.i6, label %bb7.i, label %_ZN4core5slice4sort6shared17find_existing_run17h5487a28fb4abfd8fE.exit

bb7.i:                                            ; preds = %bb5.i
  %3 = add nuw nsw i64 %run_len.sroa.0.1.i14, 1
  %exitcond19.not = icmp eq i64 %3, %v.1
  br i1 %exitcond19.not, label %_ZN4core5slice4sort6shared17find_existing_run17h5487a28fb4abfd8fE.exit, label %bb5.i

_ZN4core5slice4sort6shared17find_existing_run17h5487a28fb4abfd8fE.exit: ; preds = %bb12.i, %bb15.i, %bb5.i, %bb7.i, %bb11.i.preheader, %bb4.i.preheader, %bb1
  %_0.sroa.3.0.i = phi i1 [ false, %bb1 ], [ true, %bb4.i.preheader ], [ false, %bb11.i.preheader ], [ true, %bb7.i ], [ true, %bb5.i ], [ false, %bb15.i ], [ false, %bb12.i ]
  %_0.sroa.0.0.i = phi i64 [ %v.1, %bb1 ], [ 2, %bb4.i.preheader ], [ 2, %bb11.i.preheader ], [ %run_len.sroa.0.1.i14, %bb5.i ], [ %v.1, %bb7.i ], [ %run_len.sroa.0.0.i11, %bb12.i ], [ %v.1, %bb15.i ]
  %_12 = icmp samesign ule i64 %_0.sroa.0.0.i, %v.1
  tail call void @llvm.assume(i1 %_12)
  %_13.not = icmp ult i64 %_0.sroa.0.0.i, %min_good_run_len
  br i1 %_13.not, label %bb7, label %bb3

bb3:                                              ; preds = %_ZN4core5slice4sort6shared17find_existing_run17h5487a28fb4abfd8fE.exit
  br i1 %_0.sroa.3.0.i, label %bb14, label %bb5

bb11:                                             ; preds = %bb7
  %_0.sroa.0.0.i7 = tail call noundef i64 @llvm.umin.i64(i64 range(i64 -2305843009213693950, 2305843009213693952) %v.1, i64 %min_good_run_len)
  %_36 = shl nuw nsw i64 %_0.sroa.0.0.i7, 1
  br label %bb12

bb8:                                              ; preds = %bb7
  %_0.sroa.0.0.i8 = tail call noundef i64 @llvm.umin.i64(i64 range(i64 -2305843009213693950, 2305843009213693952) %v.1, i64 32)
; call core::slice::sort::stable::quicksort::quicksort
  tail call void @_ZN4core5slice4sort6stable9quicksort9quicksort17hdfb2cdee762e95a0E(ptr noalias noundef nonnull align 4 %v.0, i64 noundef %_0.sroa.0.0.i8, ptr noalias noundef nonnull align 4 %scratch.0, i64 noundef %scratch.1, i32 noundef 0, ptr noalias noundef readonly align 4 captures(address, read_provenance) dereferenceable_or_null(4) null, ptr noalias noundef align 8 dereferenceable(8) %is_less) #35
  %_35 = shl nuw nsw i64 %_0.sroa.0.0.i8, 1
  %_34 = or disjoint i64 %_35, 1
  br label %bb12

bb12:                                             ; preds = %bb5, %bb8, %bb11
  %_0.sroa.0.0 = phi i64 [ %_26, %bb5 ], [ %_34, %bb8 ], [ %_36, %bb11 ]
  ret i64 %_0.sroa.0.0

bb5.loopexit.unr-lcssa:                           ; preds = %bb5.i.i, %bb5.i.i.preheader
  %i.sroa.0.016.i.i.unr = phi i64 [ 0, %bb5.i.i.preheader ], [ %15, %bb5.i.i ]
  %4 = and i64 %_0.sroa.0.0.i, 2
  %lcmp.mod.not = icmp eq i64 %4, 0
  br i1 %lcmp.mod.not, label %bb5, label %bb5.i.i.epil

bb5.i.i.epil:                                     ; preds = %bb5.loopexit.unr-lcssa
  %5 = xor i64 %i.sroa.0.016.i.i.unr, -1
  %x.i.i.epil = getelementptr inbounds nuw i32, ptr %v.0, i64 %i.sroa.0.016.i.i.unr
  %y.i.i.epil = getelementptr i32, ptr %end.i, i64 %5
  %6 = load i32, ptr %x.i.i.epil, align 4, !alias.scope !1599, !noalias !1604, !noundef !37
  %7 = load i32, ptr %y.i.i.epil, align 4, !alias.scope !1606, !noalias !1607
  store i32 %7, ptr %x.i.i.epil, align 4, !alias.scope !1599, !noalias !1604
  store i32 %6, ptr %y.i.i.epil, align 4, !alias.scope !1606, !noalias !1607
  br label %bb5

bb5:                                              ; preds = %bb5.i.i.epil, %bb5.loopexit.unr-lcssa, %bb14, %bb3
  %_27 = shl nuw nsw i64 %_0.sroa.0.0.i, 1
  %_26 = or disjoint i64 %_27, 1
  br label %bb12

bb14:                                             ; preds = %bb3
  %half_len2.i = lshr i64 %_0.sroa.0.0.i, 1
  %end.i = getelementptr inbounds nuw i32, ptr %v.0, i64 %_0.sroa.0.0.i
  tail call void @llvm.experimental.noalias.scope.decl(metadata !1607)
  tail call void @llvm.experimental.noalias.scope.decl(metadata !1604)
  %_915.not.i.i = icmp samesign ult i64 %_0.sroa.0.0.i, 2
  br i1 %_915.not.i.i, label %bb5, label %bb5.i.i.preheader

bb5.i.i.preheader:                                ; preds = %bb14
  %8 = icmp eq i64 %half_len2.i, 1
  br i1 %8, label %bb5.loopexit.unr-lcssa, label %bb5.i.i.preheader.new

bb5.i.i.preheader.new:                            ; preds = %bb5.i.i.preheader
  %unroll_iter = and i64 %half_len2.i, 9223372036854775806
  %invariant.gep26 = getelementptr inbounds i8, ptr %v.0, i64 4
  br label %bb5.i.i

bb5.i.i:                                          ; preds = %bb5.i.i, %bb5.i.i.preheader.new
  %i.sroa.0.016.i.i = phi i64 [ 0, %bb5.i.i.preheader.new ], [ %15, %bb5.i.i ]
  %niter = phi i64 [ 0, %bb5.i.i.preheader.new ], [ %niter.next.1, %bb5.i.i ]
  %9 = xor i64 %i.sroa.0.016.i.i, -1
  %x.i.i = getelementptr inbounds nuw i32, ptr %v.0, i64 %i.sroa.0.016.i.i
  %y.i.i = getelementptr i32, ptr %end.i, i64 %9
  %10 = load i32, ptr %x.i.i, align 4, !alias.scope !1599, !noalias !1604, !noundef !37
  %11 = load i32, ptr %y.i.i, align 4, !alias.scope !1606, !noalias !1607
  store i32 %11, ptr %x.i.i, align 4, !alias.scope !1599, !noalias !1604
  store i32 %10, ptr %y.i.i, align 4, !alias.scope !1606, !noalias !1607
  %12 = xor i64 %i.sroa.0.016.i.i, -2
  %gep27 = getelementptr inbounds i32, ptr %invariant.gep26, i64 %i.sroa.0.016.i.i
  %y.i.i.1 = getelementptr i32, ptr %end.i, i64 %12
  %13 = load i32, ptr %gep27, align 4, !alias.scope !1599, !noalias !1604, !noundef !37
  %14 = load i32, ptr %y.i.i.1, align 4, !alias.scope !1606, !noalias !1607
  store i32 %14, ptr %gep27, align 4, !alias.scope !1599, !noalias !1604
  store i32 %13, ptr %y.i.i.1, align 4, !alias.scope !1606, !noalias !1607
  %15 = add nuw nsw i64 %i.sroa.0.016.i.i, 2
  %niter.next.1 = add i64 %niter, 2
  %niter.ncmp.1 = icmp eq i64 %niter.next.1, %unroll_iter
  br i1 %niter.ncmp.1, label %bb5.loopexit.unr-lcssa, label %bb5.i.i
}

; core::slice::sort::stable::drift::create_run
; Function Attrs: nonlazybind uwtable
define noundef range(i64 0, -1) i64 @_ZN4core5slice4sort6stable5drift10create_run17haa65d1d7eff1e388E(ptr noalias noundef nonnull align 8 %v.0, i64 noundef range(i64 0, 384307168202282326) %v.1, ptr noalias noundef nonnull align 8 %scratch.0, i64 noundef range(i64 0, 384307168202282326) %scratch.1, i64 noundef %min_good_run_len, i1 noundef zeroext %eager_sort, ptr noalias noundef nonnull align 1 %is_less) unnamed_addr #1 personality ptr @rust_eh_personality {
start:
  %_7.not = icmp ult i64 %v.1, %min_good_run_len
  br i1 %_7.not, label %bb7, label %bb1

bb7:                                              ; preds = %_ZN4core5slice4sort6shared17find_existing_run17ha85e74fa05112b79E.exit, %start
  br i1 %eager_sort, label %bb8, label %bb11

bb1:                                              ; preds = %start
  %_4.i = icmp samesign ult i64 %v.1, 2
  br i1 %_4.i, label %_ZN4core5slice4sort6shared17find_existing_run17ha85e74fa05112b79E.exit, label %bb2.i

bb2.i:                                            ; preds = %bb1
  tail call void @llvm.experimental.noalias.scope.decl(metadata !1608)
  tail call void @llvm.experimental.noalias.scope.decl(metadata !1611)
  tail call void @llvm.experimental.noalias.scope.decl(metadata !1613)
  tail call void @llvm.experimental.noalias.scope.decl(metadata !1616)
  tail call void @llvm.experimental.noalias.scope.decl(metadata !1618)
  tail call void @llvm.experimental.noalias.scope.decl(metadata !1621)
  tail call void @llvm.experimental.noalias.scope.decl(metadata !1623)
  tail call void @llvm.experimental.noalias.scope.decl(metadata !1626)
  %0 = getelementptr inbounds nuw i8, ptr %v.0, i64 32
  %_7.i.i.i.i = load ptr, ptr %0, align 8, !alias.scope !1628, !noalias !1629, !nonnull !37, !noundef !37
  %1 = getelementptr inbounds nuw i8, ptr %v.0, i64 40
  %len1.i.i.i.i = load i64, ptr %1, align 8, !alias.scope !1628, !noalias !1629, !noundef !37
  %2 = getelementptr inbounds nuw i8, ptr %v.0, i64 8
  %_14.i.i.i.i = load ptr, ptr %2, align 8, !alias.scope !1629, !noalias !1628, !nonnull !37, !noundef !37
  %3 = getelementptr inbounds nuw i8, ptr %v.0, i64 16
  %4 = load i64, ptr %3, align 8, !alias.scope !1629, !noalias !1628, !noundef !37
  %spec.store.select.i.i.i.i.i.i = tail call i64 @llvm.umin.i64(i64 range(i64 0, -9223372036854775808) %len1.i.i.i.i, i64 range(i64 0, -9223372036854775808) %4)
  %5 = tail call i32 @memcmp(ptr nonnull readonly align 1 %_7.i.i.i.i, ptr nonnull readonly align 1 %_14.i.i.i.i, i64 %spec.store.select.i.i.i.i.i.i), !alias.scope !1630, !noalias !1637
  %6 = sext i32 %5 to i64
  %_15.i.i.i.i.i.i = icmp eq i32 %5, 0
  %diff.i.i.i.i.i.i = sub nsw i64 %len1.i.i.i.i, %4
  %spec.select.i.i.i.i.i.i = select i1 %_15.i.i.i.i.i.i, i64 %diff.i.i.i.i.i.i, i64 %6
  %7 = icmp slt i64 %spec.select.i.i.i.i.i.i, 0
  %_10.i21.not = icmp eq i64 %v.1, 2
  br i1 %7, label %bb4.i.preheader, label %bb11.i.preheader

bb11.i.preheader:                                 ; preds = %bb2.i
  br i1 %_10.i21.not, label %_ZN4core5slice4sort6shared17find_existing_run17ha85e74fa05112b79E.exit, label %bb12.i

bb4.i.preheader:                                  ; preds = %bb2.i
  br i1 %_10.i21.not, label %_ZN4core5slice4sort6shared17find_existing_run17ha85e74fa05112b79E.exit, label %bb5.i

bb12.i:                                           ; preds = %bb11.i.preheader, %bb15.i
  %run_len.sroa.0.0.i19 = phi i64 [ %18, %bb15.i ], [ 2, %bb11.i.preheader ]
  %8 = getelementptr inbounds nuw %"alloc::string::String", ptr %v.0, i64 %run_len.sroa.0.0.i19
  %9 = getelementptr %"alloc::string::String", ptr %v.0, i64 %run_len.sroa.0.0.i19
  tail call void @llvm.experimental.noalias.scope.decl(metadata !1638)
  tail call void @llvm.experimental.noalias.scope.decl(metadata !1641)
  tail call void @llvm.experimental.noalias.scope.decl(metadata !1643)
  tail call void @llvm.experimental.noalias.scope.decl(metadata !1646)
  tail call void @llvm.experimental.noalias.scope.decl(metadata !1648)
  tail call void @llvm.experimental.noalias.scope.decl(metadata !1651)
  tail call void @llvm.experimental.noalias.scope.decl(metadata !1653)
  tail call void @llvm.experimental.noalias.scope.decl(metadata !1656)
  %10 = getelementptr inbounds nuw i8, ptr %8, i64 8
  %_7.i.i.i.i1 = load ptr, ptr %10, align 8, !alias.scope !1658, !noalias !1659, !nonnull !37, !noundef !37
  %11 = getelementptr inbounds nuw i8, ptr %8, i64 16
  %len1.i.i.i.i2 = load i64, ptr %11, align 8, !alias.scope !1658, !noalias !1659, !noundef !37
  %12 = getelementptr i8, ptr %9, i64 -16
  %_14.i.i.i.i3 = load ptr, ptr %12, align 8, !alias.scope !1659, !noalias !1658, !nonnull !37, !noundef !37
  %13 = getelementptr i8, ptr %9, i64 -8
  %14 = load i64, ptr %13, align 8, !alias.scope !1659, !noalias !1658, !noundef !37
  %spec.store.select.i.i.i.i.i.i4 = tail call i64 @llvm.umin.i64(i64 range(i64 0, -9223372036854775808) %len1.i.i.i.i2, i64 range(i64 0, -9223372036854775808) %14)
  %15 = tail call i32 @memcmp(ptr nonnull readonly align 1 %_7.i.i.i.i1, ptr nonnull readonly align 1 %_14.i.i.i.i3, i64 %spec.store.select.i.i.i.i.i.i4), !alias.scope !1660, !noalias !1667
  %16 = sext i32 %15 to i64
  %_15.i.i.i.i.i.i5 = icmp eq i32 %15, 0
  %diff.i.i.i.i.i.i6 = sub nsw i64 %len1.i.i.i.i2, %14
  %spec.select.i.i.i.i.i.i7 = select i1 %_15.i.i.i.i.i.i5, i64 %diff.i.i.i.i.i.i6, i64 %16
  %17 = icmp slt i64 %spec.select.i.i.i.i.i.i7, 0
  br i1 %17, label %_ZN4core5slice4sort6shared17find_existing_run17ha85e74fa05112b79E.exit, label %bb15.i

bb15.i:                                           ; preds = %bb12.i
  %18 = add nuw nsw i64 %run_len.sroa.0.0.i19, 1
  %exitcond.not = icmp eq i64 %18, %v.1
  br i1 %exitcond.not, label %_ZN4core5slice4sort6shared17find_existing_run17ha85e74fa05112b79E.exit, label %bb12.i

bb5.i:                                            ; preds = %bb4.i.preheader, %bb7.i
  %run_len.sroa.0.1.i22 = phi i64 [ %29, %bb7.i ], [ 2, %bb4.i.preheader ]
  %19 = getelementptr inbounds nuw %"alloc::string::String", ptr %v.0, i64 %run_len.sroa.0.1.i22
  %20 = getelementptr %"alloc::string::String", ptr %v.0, i64 %run_len.sroa.0.1.i22
  tail call void @llvm.experimental.noalias.scope.decl(metadata !1668)
  tail call void @llvm.experimental.noalias.scope.decl(metadata !1671)
  tail call void @llvm.experimental.noalias.scope.decl(metadata !1673)
  tail call void @llvm.experimental.noalias.scope.decl(metadata !1676)
  tail call void @llvm.experimental.noalias.scope.decl(metadata !1678)
  tail call void @llvm.experimental.noalias.scope.decl(metadata !1681)
  tail call void @llvm.experimental.noalias.scope.decl(metadata !1683)
  tail call void @llvm.experimental.noalias.scope.decl(metadata !1686)
  %21 = getelementptr inbounds nuw i8, ptr %19, i64 8
  %_7.i.i.i.i8 = load ptr, ptr %21, align 8, !alias.scope !1688, !noalias !1689, !nonnull !37, !noundef !37
  %22 = getelementptr inbounds nuw i8, ptr %19, i64 16
  %len1.i.i.i.i9 = load i64, ptr %22, align 8, !alias.scope !1688, !noalias !1689, !noundef !37
  %23 = getelementptr i8, ptr %20, i64 -16
  %_14.i.i.i.i10 = load ptr, ptr %23, align 8, !alias.scope !1689, !noalias !1688, !nonnull !37, !noundef !37
  %24 = getelementptr i8, ptr %20, i64 -8
  %25 = load i64, ptr %24, align 8, !alias.scope !1689, !noalias !1688, !noundef !37
  %spec.store.select.i.i.i.i.i.i11 = tail call i64 @llvm.umin.i64(i64 range(i64 0, -9223372036854775808) %len1.i.i.i.i9, i64 range(i64 0, -9223372036854775808) %25)
  %26 = tail call i32 @memcmp(ptr nonnull readonly align 1 %_7.i.i.i.i8, ptr nonnull readonly align 1 %_14.i.i.i.i10, i64 %spec.store.select.i.i.i.i.i.i11), !alias.scope !1690, !noalias !1697
  %27 = sext i32 %26 to i64
  %_15.i.i.i.i.i.i12 = icmp eq i32 %26, 0
  %diff.i.i.i.i.i.i13 = sub nsw i64 %len1.i.i.i.i9, %25
  %spec.select.i.i.i.i.i.i14 = select i1 %_15.i.i.i.i.i.i12, i64 %diff.i.i.i.i.i.i13, i64 %27
  %28 = icmp slt i64 %spec.select.i.i.i.i.i.i14, 0
  br i1 %28, label %bb7.i, label %_ZN4core5slice4sort6shared17find_existing_run17ha85e74fa05112b79E.exit

bb7.i:                                            ; preds = %bb5.i
  %29 = add nuw nsw i64 %run_len.sroa.0.1.i22, 1
  %exitcond27.not = icmp eq i64 %29, %v.1
  br i1 %exitcond27.not, label %_ZN4core5slice4sort6shared17find_existing_run17ha85e74fa05112b79E.exit, label %bb5.i

_ZN4core5slice4sort6shared17find_existing_run17ha85e74fa05112b79E.exit: ; preds = %bb12.i, %bb15.i, %bb5.i, %bb7.i, %bb11.i.preheader, %bb4.i.preheader, %bb1
  %_0.sroa.3.0.i = phi i1 [ false, %bb1 ], [ true, %bb4.i.preheader ], [ false, %bb11.i.preheader ], [ true, %bb7.i ], [ true, %bb5.i ], [ false, %bb15.i ], [ false, %bb12.i ]
  %_0.sroa.0.0.i = phi i64 [ %v.1, %bb1 ], [ 2, %bb4.i.preheader ], [ 2, %bb11.i.preheader ], [ %run_len.sroa.0.1.i22, %bb5.i ], [ %v.1, %bb7.i ], [ %run_len.sroa.0.0.i19, %bb12.i ], [ %v.1, %bb15.i ]
  %_12 = icmp samesign ule i64 %_0.sroa.0.0.i, %v.1
  tail call void @llvm.assume(i1 %_12)
  %_13.not = icmp ult i64 %_0.sroa.0.0.i, %min_good_run_len
  br i1 %_13.not, label %bb7, label %bb3

bb3:                                              ; preds = %_ZN4core5slice4sort6shared17find_existing_run17ha85e74fa05112b79E.exit
  br i1 %_0.sroa.3.0.i, label %bb14, label %bb5

bb11:                                             ; preds = %bb7
  %_0.sroa.0.0.i15 = tail call noundef i64 @llvm.umin.i64(i64 range(i64 -2305843009213693950, 2305843009213693952) %v.1, i64 %min_good_run_len)
  %_36 = shl nuw nsw i64 %_0.sroa.0.0.i15, 1
  br label %bb12

bb8:                                              ; preds = %bb7
  %_0.sroa.0.0.i16 = tail call noundef i64 @llvm.umin.i64(i64 range(i64 -2305843009213693950, 2305843009213693952) %v.1, i64 32)
; call core::slice::sort::stable::quicksort::quicksort
  tail call void @_ZN4core5slice4sort6stable9quicksort9quicksort17hd7748f61f1e7fd1dE(ptr noalias noundef nonnull align 8 %v.0, i64 noundef %_0.sroa.0.0.i16, ptr noalias noundef nonnull align 8 %scratch.0, i64 noundef %scratch.1, i32 noundef 0, ptr noalias noundef readonly align 8 captures(address, read_provenance) dereferenceable_or_null(24) null, ptr noalias noundef nonnull align 1 %is_less) #35
  %_35 = shl nuw nsw i64 %_0.sroa.0.0.i16, 1
  %_34 = or disjoint i64 %_35, 1
  br label %bb12

bb12:                                             ; preds = %bb5, %bb8, %bb11
  %_0.sroa.0.0 = phi i64 [ %_26, %bb5 ], [ %_34, %bb8 ], [ %_36, %bb11 ]
  ret i64 %_0.sroa.0.0

bb5:                                              ; preds = %bb5.i.i, %bb14, %bb3
  %_27 = shl nuw nsw i64 %_0.sroa.0.0.i, 1
  %_26 = or disjoint i64 %_27, 1
  br label %bb12

bb14:                                             ; preds = %bb3
  %half_len2.i = lshr i64 %_0.sroa.0.0.i, 1
  %end.i = getelementptr inbounds nuw %"alloc::string::String", ptr %v.0, i64 %_0.sroa.0.0.i
  tail call void @llvm.experimental.noalias.scope.decl(metadata !1698)
  tail call void @llvm.experimental.noalias.scope.decl(metadata !1701)
  %_915.not.i.i = icmp samesign ult i64 %_0.sroa.0.0.i, 2
  br i1 %_915.not.i.i, label %bb5, label %bb5.i.i

bb5.i.i:                                          ; preds = %bb14, %bb5.i.i
  %i.sroa.0.016.i.i = phi i64 [ %31, %bb5.i.i ], [ 0, %bb14 ]
  %30 = xor i64 %i.sroa.0.016.i.i, -1
  %x.i.i = getelementptr inbounds nuw %"alloc::string::String", ptr %v.0, i64 %i.sroa.0.016.i.i
  %y.i.i = getelementptr %"alloc::string::String", ptr %end.i, i64 %30
  tail call void @llvm.experimental.noalias.scope.decl(metadata !1703)
  tail call void @llvm.experimental.noalias.scope.decl(metadata !1706)
  %_3.sroa.0.0.copyload.i.i.i.i.i.i.i = load i64, ptr %x.i.i, align 8, !alias.scope !1708, !noalias !1711
  %_4.sroa.0.0.copyload.i.i.i.i.i.i.i = load i64, ptr %y.i.i, align 8, !alias.scope !1712, !noalias !1713
  store i64 %_4.sroa.0.0.copyload.i.i.i.i.i.i.i, ptr %x.i.i, align 8, !alias.scope !1708, !noalias !1711
  store i64 %_3.sroa.0.0.copyload.i.i.i.i.i.i.i, ptr %y.i.i, align 8, !alias.scope !1712, !noalias !1713
  %_11.i.1.i.i.i.i.i = getelementptr inbounds nuw i8, ptr %x.i.i, i64 8
  %_13.i.1.i.i.i.i.i = getelementptr inbounds nuw i8, ptr %y.i.i, i64 8
  tail call void @llvm.experimental.noalias.scope.decl(metadata !1714)
  tail call void @llvm.experimental.noalias.scope.decl(metadata !1716)
  %_3.sroa.0.0.copyload.i.i.1.i.i.i.i.i = load i64, ptr %_11.i.1.i.i.i.i.i, align 8, !alias.scope !1718, !noalias !1719
  %_4.sroa.0.0.copyload.i.i.1.i.i.i.i.i = load i64, ptr %_13.i.1.i.i.i.i.i, align 8, !alias.scope !1720, !noalias !1721
  store i64 %_4.sroa.0.0.copyload.i.i.1.i.i.i.i.i, ptr %_11.i.1.i.i.i.i.i, align 8, !alias.scope !1718, !noalias !1719
  store i64 %_3.sroa.0.0.copyload.i.i.1.i.i.i.i.i, ptr %_13.i.1.i.i.i.i.i, align 8, !alias.scope !1720, !noalias !1721
  %_11.i.2.i.i.i.i.i = getelementptr inbounds nuw i8, ptr %x.i.i, i64 16
  %_13.i.2.i.i.i.i.i = getelementptr inbounds nuw i8, ptr %y.i.i, i64 16
  tail call void @llvm.experimental.noalias.scope.decl(metadata !1722)
  tail call void @llvm.experimental.noalias.scope.decl(metadata !1724)
  %_3.sroa.0.0.copyload.i.i.2.i.i.i.i.i = load i64, ptr %_11.i.2.i.i.i.i.i, align 8, !alias.scope !1726, !noalias !1727
  %_4.sroa.0.0.copyload.i.i.2.i.i.i.i.i = load i64, ptr %_13.i.2.i.i.i.i.i, align 8, !alias.scope !1728, !noalias !1729
  store i64 %_4.sroa.0.0.copyload.i.i.2.i.i.i.i.i, ptr %_11.i.2.i.i.i.i.i, align 8, !alias.scope !1726, !noalias !1727
  store i64 %_3.sroa.0.0.copyload.i.i.2.i.i.i.i.i, ptr %_13.i.2.i.i.i.i.i, align 8, !alias.scope !1728, !noalias !1729
  %31 = add nuw nsw i64 %i.sroa.0.016.i.i, 1
  %exitcond.not.i.i = icmp eq i64 %31, %half_len2.i
  br i1 %exitcond.not.i.i, label %bb5, label %bb5.i.i
}

; core::slice::sort::stable::drift::stable_quicksort
; Function Attrs: nonlazybind uwtable
define void @_ZN4core5slice4sort6stable5drift16stable_quicksort17h9ded91ad7880dc0bE(ptr noalias noundef nonnull align 8 %v.0, i64 noundef range(i64 0, 384307168202282326) %v.1, ptr noalias noundef nonnull align 8 %scratch.0, i64 noundef range(i64 0, 384307168202282326) %scratch.1, ptr noalias noundef nonnull align 1 %is_less) unnamed_addr #1 {
start:
  %self = or i64 %v.1, 1
  %0 = tail call range(i64 5, 64) i64 @llvm.ctlz.i64(i64 %self, i1 true)
  %1 = trunc nuw nsw i64 %0 to i32
  %log = shl nuw nsw i32 %1, 1
  %limit = xor i32 %log, 126
; call core::slice::sort::stable::quicksort::quicksort
  tail call void @_ZN4core5slice4sort6stable9quicksort9quicksort17hd7748f61f1e7fd1dE(ptr noalias noundef nonnull align 8 %v.0, i64 noundef %v.1, ptr noalias noundef nonnull align 8 %scratch.0, i64 noundef %scratch.1, i32 noundef %limit, ptr noalias noundef readonly align 8 captures(address, read_provenance) dereferenceable_or_null(24) null, ptr noalias noundef nonnull align 1 %is_less) #35
  ret void
}

; core::slice::sort::stable::drift::stable_quicksort
; Function Attrs: nonlazybind uwtable
define void @_ZN4core5slice4sort6stable5drift16stable_quicksort17hcc1cf40f3d3ce6dfE(ptr noalias noundef nonnull align 4 %v.0, i64 noundef range(i64 0, 2305843009213693952) %v.1, ptr noalias noundef nonnull align 4 %scratch.0, i64 noundef range(i64 0, 2305843009213693952) %scratch.1, ptr noalias noundef align 8 dereferenceable(8) %is_less) unnamed_addr #1 {
start:
  %self = or i64 %v.1, 1
  %0 = tail call range(i64 3, 64) i64 @llvm.ctlz.i64(i64 %self, i1 true)
  %1 = trunc nuw nsw i64 %0 to i32
  %log = shl nuw nsw i32 %1, 1
  %limit = xor i32 %log, 126
; call core::slice::sort::stable::quicksort::quicksort
  tail call void @_ZN4core5slice4sort6stable9quicksort9quicksort17hdfb2cdee762e95a0E(ptr noalias noundef nonnull align 4 %v.0, i64 noundef %v.1, ptr noalias noundef nonnull align 4 %scratch.0, i64 noundef %scratch.1, i32 noundef %limit, ptr noalias noundef readonly align 4 captures(address, read_provenance) dereferenceable_or_null(4) null, ptr noalias noundef align 8 dereferenceable(8) %is_less) #35
  ret void
}

; core::slice::sort::stable::drift::sort
; Function Attrs: nonlazybind uwtable
define void @_ZN4core5slice4sort6stable5drift4sort17h0c433fc08a1d1e26E(ptr noalias noundef nonnull align 8 %v.0, i64 noundef range(i64 0, 384307168202282326) %v.1, ptr noalias noundef nonnull align 8 %scratch.0, i64 noundef range(i64 0, 384307168202282326) %scratch.1, i1 noundef zeroext %eager_sort, ptr noalias noundef nonnull align 1 %is_less) unnamed_addr #1 personality ptr @rust_eh_personality {
start:
  %desired_depth_storage = alloca [66 x i8], align 1
  %run_storage = alloca [528 x i8], align 8
  %_6 = icmp samesign ult i64 %v.1, 2
  br i1 %_6, label %bb22, label %bb2

bb2:                                              ; preds = %start
  %d = udiv i64 4611686018427387904, %v.1
  %r = urem i64 4611686018427387904, %v.1
  %_73.not = icmp ne i64 %r, 0
  %0 = zext i1 %_73.not to i64
  %scale_factor.sroa.0.0 = add nuw nsw i64 %d, %0
  %_9 = icmp samesign ult i64 %v.1, 4097
  br i1 %_9, label %bb3, label %bb4

bb4:                                              ; preds = %bb2
; call core::slice::sort::stable::drift::sqrt_approx
  %1 = tail call noundef i64 @_ZN4core5slice4sort6stable5drift11sqrt_approx17h72a4dc1ae46294f4E(i64 noundef %v.1)
  br label %bb5

bb3:                                              ; preds = %bb2
  %_1135 = lshr i64 %v.1, 1
  %v1 = sub nsw i64 %v.1, %_1135
  %_0.sroa.0.0.i36 = tail call noundef i64 @llvm.umin.i64(i64 %v1, i64 64)
  br label %bb5

bb5:                                              ; preds = %bb3, %bb4
  %min_good_run_len.sroa.0.0 = phi i64 [ %_0.sroa.0.0.i36, %bb3 ], [ %1, %bb4 ]
  call void @llvm.lifetime.start.p0(i64 528, ptr nonnull %run_storage)
  call void @llvm.lifetime.start.p0(i64 66, ptr nonnull %desired_depth_storage)
  br label %bb6

bb6:                                              ; preds = %bb19, %bb5
  %prev_run.sroa.0.0 = phi i64 [ 1, %bb5 ], [ %next_run.sroa.0.0, %bb19 ]
  %scan_idx.sroa.0.0 = phi i64 [ 0, %bb5 ], [ %13, %bb19 ]
  %stack_len.sroa.0.0 = phi i64 [ 0, %bb5 ], [ %12, %bb19 ]
  %_22 = icmp ult i64 %scan_idx.sroa.0.0, %v.1
  br i1 %_22, label %bb30, label %bb10

bb10:                                             ; preds = %bb6, %bb30
  %desired_depth.sroa.0.0 = phi i8 [ %4, %bb30 ], [ 0, %bb6 ]
  %next_run.sroa.0.0 = phi i64 [ %2, %bb30 ], [ 1, %bb6 ]
  %_3743 = icmp ugt i64 %stack_len.sroa.0.0, 1
  br i1 %_3743, label %bb12, label %bb17

bb30:                                             ; preds = %bb6
  %new_len = sub nuw nsw i64 %v.1, %scan_idx.sroa.0.0
  %_82 = getelementptr inbounds nuw %"alloc::string::String", ptr %v.0, i64 %scan_idx.sroa.0.0
; call core::slice::sort::stable::drift::create_run
  %2 = tail call noundef i64 @_ZN4core5slice4sort6stable5drift10create_run17haa65d1d7eff1e388E(ptr noalias noundef nonnull align 8 %_82, i64 noundef %new_len, ptr noalias noundef nonnull align 8 %scratch.0, i64 noundef %scratch.1, i64 noundef %min_good_run_len.sroa.0.0, i1 noundef zeroext %eager_sort, ptr noalias noundef nonnull align 1 %is_less)
  %_31 = lshr i64 %prev_run.sroa.0.0, 1
  %_35 = lshr i64 %2, 1
  %factor = shl i64 %scan_idx.sroa.0.0, 1
  %x = sub i64 %factor, %_31
  %reass.add = shl i64 %scan_idx.sroa.0.0, 1
  %y = add i64 %_35, %reass.add
  %_90 = mul i64 %x, %scale_factor.sroa.0.0
  %_91 = mul i64 %y, %scale_factor.sroa.0.0
  %self4 = xor i64 %_91, %_90
  %3 = tail call range(i64 0, 65) i64 @llvm.ctlz.i64(i64 %self4, i1 false)
  %4 = trunc nuw nsw i64 %3 to i8
  br label %bb10

bb12:                                             ; preds = %bb10, %_ZN4core5slice4sort6stable5drift13logical_merge17h7498cdca0d127bebE.exit
  %stack_len.sroa.0.145 = phi i64 [ %count, %_ZN4core5slice4sort6stable5drift13logical_merge17h7498cdca0d127bebE.exit ], [ %stack_len.sroa.0.0, %bb10 ]
  %prev_run.sroa.0.144 = phi i64 [ %_0.sroa.0.0.i, %_ZN4core5slice4sort6stable5drift13logical_merge17h7498cdca0d127bebE.exit ], [ %prev_run.sroa.0.0, %bb10 ]
  %count = add i64 %stack_len.sroa.0.145, -1
  %_41 = getelementptr inbounds nuw i8, ptr %desired_depth_storage, i64 %count
  %_40 = load i8, ptr %_41, align 1, !noundef !37
  %_39.not = icmp ult i8 %_40, %desired_depth.sroa.0.0
  br i1 %_39.not, label %bb17, label %bb13

bb17:                                             ; preds = %_ZN4core5slice4sort6stable5drift13logical_merge17h7498cdca0d127bebE.exit, %bb12, %bb10
  %prev_run.sroa.0.1.lcssa = phi i64 [ %prev_run.sroa.0.0, %bb10 ], [ %_0.sroa.0.0.i, %_ZN4core5slice4sort6stable5drift13logical_merge17h7498cdca0d127bebE.exit ], [ %prev_run.sroa.0.144, %bb12 ]
  %stack_len.sroa.0.1.lcssa = phi i64 [ %stack_len.sroa.0.0, %bb10 ], [ 1, %_ZN4core5slice4sort6stable5drift13logical_merge17h7498cdca0d127bebE.exit ], [ %stack_len.sroa.0.145, %bb12 ]
  %_59 = getelementptr inbounds nuw i64, ptr %run_storage, i64 %stack_len.sroa.0.1.lcssa
  store i64 %prev_run.sroa.0.1.lcssa, ptr %_59, align 8
  %_61 = getelementptr inbounds nuw i8, ptr %desired_depth_storage, i64 %stack_len.sroa.0.1.lcssa
  store i8 %desired_depth.sroa.0.0, ptr %_61, align 1
  br i1 %_22, label %bb19, label %bb18

bb13:                                             ; preds = %bb12
  %_46 = getelementptr inbounds nuw i64, ptr %run_storage, i64 %count
  %left10 = load i64, ptr %_46, align 8, !noundef !37
  %_50 = lshr i64 %left10, 1
  %_51 = lshr i64 %prev_run.sroa.0.144, 1
  %merged_len = add nuw i64 %_50, %_51
  %merge_start_idx = sub i64 %scan_idx.sroa.0.0, %merged_len
  %_98 = getelementptr inbounds nuw %"alloc::string::String", ptr %v.0, i64 %merge_start_idx
  %can_fit_in_scratch.i = icmp samesign ugt i64 %merged_len, %scratch.1
  %_22.i = and i64 %prev_run.sroa.0.144, 1
  %_10.not.i = icmp eq i64 %_22.i, 0
  %5 = or i64 %left10, %prev_run.sroa.0.144
  %6 = and i64 %5, 1
  %7 = icmp ne i64 %6, 0
  %or.cond2.i = or i1 %can_fit_in_scratch.i, %7
  br i1 %or.cond2.i, label %bb3.i, label %bb9.i

bb3.i:                                            ; preds = %bb13
  %_21.i = and i64 %left10, 1
  %_9.not.i = icmp eq i64 %_21.i, 0
  br i1 %_9.not.i, label %bb11.i, label %bb5.i

bb9.i:                                            ; preds = %bb13
  %_40.i = shl nuw nsw i64 %merged_len, 1
  br label %_ZN4core5slice4sort6stable5drift13logical_merge17h7498cdca0d127bebE.exit

bb5.i:                                            ; preds = %bb11.i, %bb3.i
  br i1 %_10.not.i, label %bb16.i, label %bb7.i

bb11.i:                                           ; preds = %bb3.i
  %self.i = or i64 %_50, 1
  %8 = tail call range(i64 5, 64) i64 @llvm.ctlz.i64(i64 %self.i, i1 true)
  %9 = trunc nuw nsw i64 %8 to i32
  %log.i = shl nuw nsw i32 %9, 1
  %limit.i = xor i32 %log.i, 126
; call core::slice::sort::stable::quicksort::quicksort
  tail call void @_ZN4core5slice4sort6stable9quicksort9quicksort17hd7748f61f1e7fd1dE(ptr noalias noundef nonnull align 8 %_98, i64 noundef range(i64 0, 384307168202282326) %_50, ptr noalias noundef nonnull align 8 %scratch.0, i64 noundef range(i64 0, 384307168202282326) %scratch.1, i32 noundef %limit.i, ptr noalias noundef readonly align 8 captures(address, read_provenance) dereferenceable_or_null(24) null, ptr noalias noundef nonnull align 1 %is_less) #35
  br label %bb5.i

bb7.i:                                            ; preds = %bb16.i, %bb5.i
; call core::slice::sort::stable::merge::merge
  tail call void @_ZN4core5slice4sort6stable5merge5merge17h6e59d25376e5c569E(ptr noalias noundef nonnull align 8 %_98, i64 noundef range(i64 0, 384307168202282326) %merged_len, ptr noalias noundef nonnull align 8 %scratch.0, i64 noundef range(i64 0, 384307168202282326) %scratch.1, i64 noundef %_50, ptr noalias nonnull align 1 poison)
  %_39.i = shl nuw nsw i64 %merged_len, 1
  %_38.i = or disjoint i64 %_39.i, 1
  br label %_ZN4core5slice4sort6stable5drift13logical_merge17h7498cdca0d127bebE.exit

bb16.i:                                           ; preds = %bb5.i
  %_37.i = getelementptr inbounds nuw %"alloc::string::String", ptr %_98, i64 %_50
  %self.i37 = or i64 %_51, 1
  %10 = tail call range(i64 5, 64) i64 @llvm.ctlz.i64(i64 %self.i37, i1 true)
  %11 = trunc nuw nsw i64 %10 to i32
  %log.i38 = shl nuw nsw i32 %11, 1
  %limit.i39 = xor i32 %log.i38, 126
; call core::slice::sort::stable::quicksort::quicksort
  tail call void @_ZN4core5slice4sort6stable9quicksort9quicksort17hd7748f61f1e7fd1dE(ptr noalias noundef nonnull align 8 %_37.i, i64 noundef range(i64 0, 384307168202282326) %_51, ptr noalias noundef nonnull align 8 %scratch.0, i64 noundef range(i64 0, 384307168202282326) %scratch.1, i32 noundef %limit.i39, ptr noalias noundef readonly align 8 captures(address, read_provenance) dereferenceable_or_null(24) null, ptr noalias noundef nonnull align 1 %is_less) #35
  br label %bb7.i

_ZN4core5slice4sort6stable5drift13logical_merge17h7498cdca0d127bebE.exit: ; preds = %bb9.i, %bb7.i
  %_0.sroa.0.0.i = phi i64 [ %_38.i, %bb7.i ], [ %_40.i, %bb9.i ]
  %_37 = icmp ugt i64 %count, 1
  br i1 %_37, label %bb12, label %bb17

bb19:                                             ; preds = %bb17
  %12 = add i64 %stack_len.sroa.0.1.lcssa, 1
  %_65 = lshr i64 %next_run.sroa.0.0, 1
  %13 = add nuw i64 %_65, %scan_idx.sroa.0.0
  br label %bb6

bb18:                                             ; preds = %bb17
  %_99 = and i64 %prev_run.sroa.0.1.lcssa, 1
  %_66.not = icmp eq i64 %_99, 0
  br i1 %_66.not, label %bb20, label %bb21

bb20:                                             ; preds = %bb18
  %self.i40 = or i64 %v.1, 1
  %14 = tail call range(i64 5, 64) i64 @llvm.ctlz.i64(i64 %self.i40, i1 true)
  %15 = trunc nuw nsw i64 %14 to i32
  %log.i41 = shl nuw nsw i32 %15, 1
  %limit.i42 = xor i32 %log.i41, 126
; call core::slice::sort::stable::quicksort::quicksort
  tail call void @_ZN4core5slice4sort6stable9quicksort9quicksort17hd7748f61f1e7fd1dE(ptr noalias noundef nonnull align 8 %v.0, i64 noundef range(i64 0, 384307168202282326) %v.1, ptr noalias noundef nonnull align 8 %scratch.0, i64 noundef range(i64 0, 384307168202282326) %scratch.1, i32 noundef %limit.i42, ptr noalias noundef readonly align 8 captures(address, read_provenance) dereferenceable_or_null(24) null, ptr noalias noundef nonnull align 1 %is_less) #35
  br label %bb21

bb21:                                             ; preds = %bb20, %bb18
  call void @llvm.lifetime.end.p0(i64 66, ptr nonnull %desired_depth_storage)
  call void @llvm.lifetime.end.p0(i64 528, ptr nonnull %run_storage)
  br label %bb22

bb22:                                             ; preds = %start, %bb21
  ret void
}

; core::slice::sort::stable::drift::sort
; Function Attrs: nonlazybind uwtable
define void @_ZN4core5slice4sort6stable5drift4sort17h753da6aa311033faE(ptr noalias noundef nonnull align 4 %v.0, i64 noundef range(i64 0, 2305843009213693952) %v.1, ptr noalias noundef nonnull align 4 %scratch.0, i64 noundef range(i64 0, 2305843009213693952) %scratch.1, i1 noundef zeroext %eager_sort, ptr noalias noundef align 8 dereferenceable(8) %is_less) unnamed_addr #1 personality ptr @rust_eh_personality {
start:
  %desired_depth_storage = alloca [66 x i8], align 1
  %run_storage = alloca [528 x i8], align 8
  %_6 = icmp samesign ult i64 %v.1, 2
  br i1 %_6, label %bb22, label %bb2

bb2:                                              ; preds = %start
  %d = udiv i64 4611686018427387904, %v.1
  %r = urem i64 4611686018427387904, %v.1
  %_73.not = icmp ne i64 %r, 0
  %0 = zext i1 %_73.not to i64
  %scale_factor.sroa.0.0 = add nuw nsw i64 %d, %0
  %_9 = icmp samesign ult i64 %v.1, 4097
  br i1 %_9, label %bb3, label %bb4

bb4:                                              ; preds = %bb2
; call core::slice::sort::stable::drift::sqrt_approx
  %1 = tail call noundef i64 @_ZN4core5slice4sort6stable5drift11sqrt_approx17h72a4dc1ae46294f4E(i64 noundef %v.1)
  br label %bb5

bb3:                                              ; preds = %bb2
  %_1135 = lshr i64 %v.1, 1
  %v1 = sub nsw i64 %v.1, %_1135
  %_0.sroa.0.0.i36 = tail call noundef i64 @llvm.umin.i64(i64 %v1, i64 64)
  br label %bb5

bb5:                                              ; preds = %bb3, %bb4
  %min_good_run_len.sroa.0.0 = phi i64 [ %_0.sroa.0.0.i36, %bb3 ], [ %1, %bb4 ]
  call void @llvm.lifetime.start.p0(i64 528, ptr nonnull %run_storage)
  call void @llvm.lifetime.start.p0(i64 66, ptr nonnull %desired_depth_storage)
  br label %bb6

bb6:                                              ; preds = %bb19, %bb5
  %prev_run.sroa.0.0 = phi i64 [ 1, %bb5 ], [ %next_run.sroa.0.0, %bb19 ]
  %scan_idx.sroa.0.0 = phi i64 [ 0, %bb5 ], [ %22, %bb19 ]
  %stack_len.sroa.0.0 = phi i64 [ 0, %bb5 ], [ %21, %bb19 ]
  %_22 = icmp ult i64 %scan_idx.sroa.0.0, %v.1
  br i1 %_22, label %bb30, label %bb10

bb10:                                             ; preds = %bb6, %bb30
  %desired_depth.sroa.0.0 = phi i8 [ %4, %bb30 ], [ 0, %bb6 ]
  %next_run.sroa.0.0 = phi i64 [ %2, %bb30 ], [ 1, %bb6 ]
  %_3748 = icmp ugt i64 %stack_len.sroa.0.0, 1
  br i1 %_3748, label %bb12.lr.ph, label %bb17

bb12.lr.ph:                                       ; preds = %bb10
  %v_end.i = getelementptr inbounds nuw i32, ptr %v.0, i64 %scan_idx.sroa.0.0
  br label %bb12

bb30:                                             ; preds = %bb6
  %new_len = sub nuw nsw i64 %v.1, %scan_idx.sroa.0.0
  %_82 = getelementptr inbounds nuw i32, ptr %v.0, i64 %scan_idx.sroa.0.0
; call core::slice::sort::stable::drift::create_run
  %2 = tail call noundef i64 @_ZN4core5slice4sort6stable5drift10create_run17h01028071545c4604E(ptr noalias noundef nonnull align 4 %_82, i64 noundef %new_len, ptr noalias noundef nonnull align 4 %scratch.0, i64 noundef %scratch.1, i64 noundef %min_good_run_len.sroa.0.0, i1 noundef zeroext %eager_sort, ptr noalias noundef align 8 dereferenceable(8) %is_less)
  %_31 = lshr i64 %prev_run.sroa.0.0, 1
  %_35 = lshr i64 %2, 1
  %factor = shl i64 %scan_idx.sroa.0.0, 1
  %x = sub i64 %factor, %_31
  %reass.add = shl i64 %scan_idx.sroa.0.0, 1
  %y = add i64 %_35, %reass.add
  %_90 = mul i64 %x, %scale_factor.sroa.0.0
  %_91 = mul i64 %y, %scale_factor.sroa.0.0
  %self4 = xor i64 %_91, %_90
  %3 = tail call range(i64 0, 65) i64 @llvm.ctlz.i64(i64 %self4, i1 false)
  %4 = trunc nuw nsw i64 %3 to i8
  br label %bb10

bb12:                                             ; preds = %bb12.lr.ph, %_ZN4core5slice4sort6stable5drift13logical_merge17h1088f9560b9ace83E.exit
  %stack_len.sroa.0.150 = phi i64 [ %stack_len.sroa.0.0, %bb12.lr.ph ], [ %count, %_ZN4core5slice4sort6stable5drift13logical_merge17h1088f9560b9ace83E.exit ]
  %prev_run.sroa.0.149 = phi i64 [ %prev_run.sroa.0.0, %bb12.lr.ph ], [ %_0.sroa.0.0.i, %_ZN4core5slice4sort6stable5drift13logical_merge17h1088f9560b9ace83E.exit ]
  %count = add i64 %stack_len.sroa.0.150, -1
  %_41 = getelementptr inbounds nuw i8, ptr %desired_depth_storage, i64 %count
  %_40 = load i8, ptr %_41, align 1, !noundef !37
  %_39.not = icmp ult i8 %_40, %desired_depth.sroa.0.0
  br i1 %_39.not, label %bb17, label %bb13

bb17:                                             ; preds = %_ZN4core5slice4sort6stable5drift13logical_merge17h1088f9560b9ace83E.exit, %bb12, %bb10
  %prev_run.sroa.0.1.lcssa = phi i64 [ %prev_run.sroa.0.0, %bb10 ], [ %_0.sroa.0.0.i, %_ZN4core5slice4sort6stable5drift13logical_merge17h1088f9560b9ace83E.exit ], [ %prev_run.sroa.0.149, %bb12 ]
  %stack_len.sroa.0.1.lcssa = phi i64 [ %stack_len.sroa.0.0, %bb10 ], [ 1, %_ZN4core5slice4sort6stable5drift13logical_merge17h1088f9560b9ace83E.exit ], [ %stack_len.sroa.0.150, %bb12 ]
  %_59 = getelementptr inbounds nuw i64, ptr %run_storage, i64 %stack_len.sroa.0.1.lcssa
  store i64 %prev_run.sroa.0.1.lcssa, ptr %_59, align 8
  %_61 = getelementptr inbounds nuw i8, ptr %desired_depth_storage, i64 %stack_len.sroa.0.1.lcssa
  store i8 %desired_depth.sroa.0.0, ptr %_61, align 1
  br i1 %_22, label %bb19, label %bb18

bb13:                                             ; preds = %bb12
  %_46 = getelementptr inbounds nuw i64, ptr %run_storage, i64 %count
  %left10 = load i64, ptr %_46, align 8, !noundef !37
  %_50 = lshr i64 %left10, 1
  %_51 = lshr i64 %prev_run.sroa.0.149, 1
  %merged_len = add nuw i64 %_50, %_51
  %merge_start_idx = sub i64 %scan_idx.sroa.0.0, %merged_len
  %_98 = getelementptr inbounds nuw i32, ptr %v.0, i64 %merge_start_idx
  %can_fit_in_scratch.i = icmp samesign ugt i64 %merged_len, %scratch.1
  %_22.i = and i64 %prev_run.sroa.0.149, 1
  %_10.not.i = icmp eq i64 %_22.i, 0
  %5 = or i64 %left10, %prev_run.sroa.0.149
  %6 = and i64 %5, 1
  %7 = icmp ne i64 %6, 0
  %or.cond2.i = or i1 %can_fit_in_scratch.i, %7
  br i1 %or.cond2.i, label %bb3.i, label %bb9.i

bb3.i:                                            ; preds = %bb13
  %_21.i = and i64 %left10, 1
  %_9.not.i = icmp eq i64 %_21.i, 0
  br i1 %_9.not.i, label %bb11.i, label %bb5.i

bb9.i:                                            ; preds = %bb13
  %_40.i = shl nuw nsw i64 %merged_len, 1
  br label %_ZN4core5slice4sort6stable5drift13logical_merge17h1088f9560b9ace83E.exit

bb5.i:                                            ; preds = %bb11.i, %bb3.i
  br i1 %_10.not.i, label %bb16.i, label %bb7.i

bb11.i:                                           ; preds = %bb3.i
  %self.i = or i64 %_50, 1
  %8 = tail call range(i64 3, 64) i64 @llvm.ctlz.i64(i64 %self.i, i1 true)
  %9 = trunc nuw nsw i64 %8 to i32
  %log.i = shl nuw nsw i32 %9, 1
  %limit.i = xor i32 %log.i, 126
; call core::slice::sort::stable::quicksort::quicksort
  tail call void @_ZN4core5slice4sort6stable9quicksort9quicksort17hdfb2cdee762e95a0E(ptr noalias noundef nonnull align 4 %_98, i64 noundef range(i64 0, 2305843009213693952) %_50, ptr noalias noundef nonnull align 4 %scratch.0, i64 noundef range(i64 0, 2305843009213693952) %scratch.1, i32 noundef %limit.i, ptr noalias noundef readonly align 4 captures(address, read_provenance) dereferenceable_or_null(4) null, ptr noalias noundef nonnull align 8 dereferenceable(8) %is_less) #35
  br label %bb5.i

bb7.i:                                            ; preds = %bb16.i, %bb5.i
  tail call void @llvm.experimental.noalias.scope.decl(metadata !1730)
  tail call void @llvm.experimental.noalias.scope.decl(metadata !1733)
  %_6.i = icmp ult i64 %left10, 2
  %_7.i = icmp ult i64 %prev_run.sroa.0.149, 2
  %or.cond.i = or i1 %_7.i, %_6.i
  br i1 %or.cond.i, label %_ZN4core5slice4sort6stable5merge5merge17h4968745bd835e12cE.exit, label %bb2.i

bb2.i:                                            ; preds = %bb7.i
  %_0.sroa.0.0.i.i = tail call i64 @llvm.umin.i64(i64 %_51, i64 %_50)
  %_8.i = icmp samesign ult i64 %scratch.1, %_0.sroa.0.0.i.i
  br i1 %_8.i, label %_ZN4core5slice4sort6stable5merge5merge17h4968745bd835e12cE.exit, label %bb5.i37

bb5.i37:                                          ; preds = %bb2.i
  %v_mid.i = getelementptr inbounds nuw i32, ptr %_98, i64 %_50
  %left_is_shorter.not.i = icmp samesign ugt i64 %_50, %_51
  %spec.select.i = select i1 %left_is_shorter.not.i, ptr %v_mid.i, ptr %_98
  %10 = shl nuw nsw i64 %_0.sroa.0.0.i.i, 2
  tail call void @llvm.memcpy.p0.p0.i64(ptr nonnull align 4 %scratch.0, ptr nonnull align 4 %spec.select.i, i64 %10, i1 false), !alias.scope !1735
  %_22.i38 = getelementptr inbounds nuw i8, ptr %scratch.0, i64 %10
  br i1 %left_is_shorter.not.i, label %bb1.i.i, label %bb3.i.i

bb1.i.i:                                          ; preds = %bb5.i37, %bb1.i.i
  %_2110.i.i = phi ptr [ %_21.i.i, %bb1.i.i ], [ %_22.i38, %bb5.i37 ]
  %_188.i.i = phi ptr [ %_18.i.i, %bb1.i.i ], [ %spec.select.i, %bb5.i37 ]
  %out.sroa.0.0.i.i = phi ptr [ %13, %bb1.i.i ], [ %v_end.i, %bb5.i37 ]
  %11 = getelementptr inbounds i8, ptr %_188.i.i, i64 -4
  %12 = getelementptr inbounds i8, ptr %_2110.i.i, i64 -4
  %13 = getelementptr inbounds i8, ptr %out.sroa.0.0.i.i, i64 -4
  tail call void @llvm.experimental.noalias.scope.decl(metadata !1736)
  tail call void @llvm.experimental.noalias.scope.decl(metadata !1739)
  tail call void @llvm.experimental.noalias.scope.decl(metadata !1741)
  tail call void @llvm.experimental.noalias.scope.decl(metadata !1744)
  tail call void @llvm.experimental.noalias.scope.decl(metadata !1746)
  tail call void @llvm.experimental.noalias.scope.decl(metadata !1749)
  tail call void @llvm.experimental.noalias.scope.decl(metadata !1751)
  tail call void @llvm.experimental.noalias.scope.decl(metadata !1754)
  %_3.i.i.i.i.i.i = load i32, ptr %12, align 4, !alias.scope !1756, !noalias !1757, !noundef !37
  %_4.i.i.i.i.i.i = load i32, ptr %11, align 4, !alias.scope !1760, !noalias !1761, !noundef !37
  %_0.i.i.i = icmp slt i32 %_3.i.i.i.i.i.i, %_4.i.i.i.i.i.i
  %14 = tail call i32 @llvm.smax.i32(i32 %_3.i.i.i.i.i.i, i32 %_4.i.i.i.i.i.i)
  store i32 %14, ptr %13, align 4, !alias.scope !1730, !noalias !1762
  %_20.i.i = xor i1 %_0.i.i.i, true
  %count.i.i = zext i1 %_20.i.i to i64
  %_18.i.i = getelementptr inbounds nuw i32, ptr %11, i64 %count.i.i
  %count4.i.i = zext i1 %_0.i.i.i to i64
  %_21.i.i = getelementptr inbounds nuw i32, ptr %12, i64 %count4.i.i
  %_23.i.i = icmp eq ptr %_18.i.i, %_98
  %_26.i.i = icmp eq ptr %_21.i.i, %scratch.0
  %or.cond.i.i = select i1 %_23.i.i, i1 true, i1 %_26.i.i
  br i1 %or.cond.i.i, label %bb16.i40, label %bb1.i.i

bb3.i.i:                                          ; preds = %bb5.i37, %bb3.i.i
  %_2511.i.i = phi ptr [ %_25.i.i, %bb3.i.i ], [ %spec.select.i, %bb5.i37 ]
  %right.sroa.0.010.i.i = phi ptr [ %_23.i17.i, %bb3.i.i ], [ %v_mid.i, %bb5.i37 ]
  %_2059.i.i = phi ptr [ %_20.i16.i, %bb3.i.i ], [ %scratch.0, %bb5.i37 ]
  tail call void @llvm.experimental.noalias.scope.decl(metadata !1763)
  tail call void @llvm.experimental.noalias.scope.decl(metadata !1766)
  tail call void @llvm.experimental.noalias.scope.decl(metadata !1768)
  tail call void @llvm.experimental.noalias.scope.decl(metadata !1771)
  tail call void @llvm.experimental.noalias.scope.decl(metadata !1773)
  tail call void @llvm.experimental.noalias.scope.decl(metadata !1776)
  tail call void @llvm.experimental.noalias.scope.decl(metadata !1778)
  tail call void @llvm.experimental.noalias.scope.decl(metadata !1781)
  %_3.i.i.i.i.i12.i = load i32, ptr %right.sroa.0.010.i.i, align 4, !alias.scope !1783, !noalias !1784, !noundef !37
  %_4.i.i.i.i.i13.i = load i32, ptr %_2059.i.i, align 4, !alias.scope !1787, !noalias !1788, !noundef !37
  %_0.i.i14.i = icmp slt i32 %_3.i.i.i.i.i12.i, %_4.i.i.i.i.i13.i
  %consume_left.i.i = xor i1 %_0.i.i14.i, true
  %15 = tail call i32 @llvm.smin.i32(i32 %_3.i.i.i.i.i12.i, i32 %_4.i.i.i.i.i13.i)
  store i32 %15, ptr %_2511.i.i, align 4, !alias.scope !1730, !noalias !1789
  %count.i15.i = zext i1 %consume_left.i.i to i64
  %_20.i16.i = getelementptr inbounds nuw i32, ptr %_2059.i.i, i64 %count.i15.i
  %count2.i.i = zext i1 %_0.i.i14.i to i64
  %_23.i17.i = getelementptr inbounds nuw i32, ptr %right.sroa.0.010.i.i, i64 %count2.i.i
  %_25.i.i = getelementptr inbounds nuw i8, ptr %_2511.i.i, i64 4
  %_7.i.i = icmp ne ptr %_20.i16.i, %_22.i38
  %_10.i.i = icmp ne ptr %_23.i17.i, %v_end.i
  %or.cond.i18.i = select i1 %_7.i.i, i1 %_10.i.i, i1 false
  br i1 %or.cond.i18.i, label %bb3.i.i, label %bb16.i40

bb16.i40:                                         ; preds = %bb3.i.i, %bb1.i.i
  %merge_state.sroa.13.0.i = phi ptr [ %_18.i.i, %bb1.i.i ], [ %_25.i.i, %bb3.i.i ]
  %merge_state.sroa.7.0.i = phi ptr [ %_21.i.i, %bb1.i.i ], [ %_22.i38, %bb3.i.i ]
  %merge_state.sroa.0.0.i = phi ptr [ %scratch.0, %bb1.i.i ], [ %_20.i16.i, %bb3.i.i ]
  %16 = ptrtoint ptr %merge_state.sroa.7.0.i to i64
  %17 = ptrtoint ptr %merge_state.sroa.0.0.i to i64
  %18 = sub nuw i64 %16, %17
  tail call void @llvm.memcpy.p0.p0.i64(ptr align 4 %merge_state.sroa.13.0.i, ptr align 4 %merge_state.sroa.0.0.i, i64 %18, i1 false), !alias.scope !1735, !noalias !1790
  br label %_ZN4core5slice4sort6stable5merge5merge17h4968745bd835e12cE.exit

_ZN4core5slice4sort6stable5merge5merge17h4968745bd835e12cE.exit: ; preds = %bb7.i, %bb2.i, %bb16.i40
  %_39.i = shl nuw nsw i64 %merged_len, 1
  %_38.i = or disjoint i64 %_39.i, 1
  br label %_ZN4core5slice4sort6stable5drift13logical_merge17h1088f9560b9ace83E.exit

bb16.i:                                           ; preds = %bb5.i
  %_37.i = getelementptr inbounds nuw i32, ptr %_98, i64 %_50
  %self.i41 = or i64 %_51, 1
  %19 = tail call range(i64 3, 64) i64 @llvm.ctlz.i64(i64 %self.i41, i1 true)
  %20 = trunc nuw nsw i64 %19 to i32
  %log.i42 = shl nuw nsw i32 %20, 1
  %limit.i43 = xor i32 %log.i42, 126
; call core::slice::sort::stable::quicksort::quicksort
  tail call void @_ZN4core5slice4sort6stable9quicksort9quicksort17hdfb2cdee762e95a0E(ptr noalias noundef nonnull align 4 %_37.i, i64 noundef range(i64 0, 2305843009213693952) %_51, ptr noalias noundef nonnull align 4 %scratch.0, i64 noundef range(i64 0, 2305843009213693952) %scratch.1, i32 noundef %limit.i43, ptr noalias noundef readonly align 4 captures(address, read_provenance) dereferenceable_or_null(4) null, ptr noalias noundef nonnull align 8 dereferenceable(8) %is_less) #35
  br label %bb7.i

_ZN4core5slice4sort6stable5drift13logical_merge17h1088f9560b9ace83E.exit: ; preds = %bb9.i, %_ZN4core5slice4sort6stable5merge5merge17h4968745bd835e12cE.exit
  %_0.sroa.0.0.i = phi i64 [ %_38.i, %_ZN4core5slice4sort6stable5merge5merge17h4968745bd835e12cE.exit ], [ %_40.i, %bb9.i ]
  %_37 = icmp ugt i64 %count, 1
  br i1 %_37, label %bb12, label %bb17

bb19:                                             ; preds = %bb17
  %21 = add i64 %stack_len.sroa.0.1.lcssa, 1
  %_65 = lshr i64 %next_run.sroa.0.0, 1
  %22 = add nuw i64 %_65, %scan_idx.sroa.0.0
  br label %bb6

bb18:                                             ; preds = %bb17
  %_99 = and i64 %prev_run.sroa.0.1.lcssa, 1
  %_66.not = icmp eq i64 %_99, 0
  br i1 %_66.not, label %bb20, label %bb21

bb20:                                             ; preds = %bb18
  %self.i44 = or i64 %v.1, 1
  %23 = tail call range(i64 3, 64) i64 @llvm.ctlz.i64(i64 %self.i44, i1 true)
  %24 = trunc nuw nsw i64 %23 to i32
  %log.i45 = shl nuw nsw i32 %24, 1
  %limit.i46 = xor i32 %log.i45, 126
; call core::slice::sort::stable::quicksort::quicksort
  tail call void @_ZN4core5slice4sort6stable9quicksort9quicksort17hdfb2cdee762e95a0E(ptr noalias noundef nonnull align 4 %v.0, i64 noundef range(i64 0, 2305843009213693952) %v.1, ptr noalias noundef nonnull align 4 %scratch.0, i64 noundef range(i64 0, 2305843009213693952) %scratch.1, i32 noundef %limit.i46, ptr noalias noundef readonly align 4 captures(address, read_provenance) dereferenceable_or_null(4) null, ptr noalias noundef align 8 dereferenceable(8) %is_less) #35
  br label %bb21

bb21:                                             ; preds = %bb20, %bb18
  call void @llvm.lifetime.end.p0(i64 66, ptr nonnull %desired_depth_storage)
  call void @llvm.lifetime.end.p0(i64 528, ptr nonnull %run_storage)
  br label %bb22

bb22:                                             ; preds = %start, %bb21
  ret void
}

; core::slice::sort::stable::merge::MergeState<T>::merge_down
; Function Attrs: nofree norecurse nounwind nonlazybind uwtable
define void @"_ZN4core5slice4sort6stable5merge19MergeState$LT$T$GT$10merge_down17h00af413aa662353fE"(ptr noalias noundef align 8 captures(none) dereferenceable(24) %self, ptr noundef readnone captures(address) %left_end, ptr noundef readnone captures(address) %right_end, ptr noundef writeonly captures(none) %0, ptr noalias noundef nonnull readnone align 1 captures(none) %is_less) unnamed_addr #11 {
start:
  %1 = getelementptr inbounds nuw i8, ptr %self, i64 16
  %2 = getelementptr inbounds nuw i8, ptr %self, i64 8
  %.promoted = load ptr, ptr %1, align 8
  %.promoted8 = load ptr, ptr %2, align 8
  br label %bb1

bb1:                                              ; preds = %bb1, %start
  %_219 = phi ptr [ %.promoted8, %start ], [ %_21, %bb1 ]
  %_187 = phi ptr [ %.promoted, %start ], [ %_18, %bb1 ]
  %out.sroa.0.0 = phi ptr [ %0, %start ], [ %5, %bb1 ]
  %3 = getelementptr inbounds i8, ptr %_187, i64 -24
  %4 = getelementptr inbounds i8, ptr %_219, i64 -24
  %5 = getelementptr inbounds i8, ptr %out.sroa.0.0, i64 -24
  tail call void @llvm.experimental.noalias.scope.decl(metadata !1795)
  tail call void @llvm.experimental.noalias.scope.decl(metadata !1798)
  tail call void @llvm.experimental.noalias.scope.decl(metadata !1800)
  tail call void @llvm.experimental.noalias.scope.decl(metadata !1803)
  tail call void @llvm.experimental.noalias.scope.decl(metadata !1805)
  tail call void @llvm.experimental.noalias.scope.decl(metadata !1808)
  tail call void @llvm.experimental.noalias.scope.decl(metadata !1810)
  tail call void @llvm.experimental.noalias.scope.decl(metadata !1813)
  %6 = getelementptr inbounds i8, ptr %_219, i64 -16
  %_7.i.i.i.i = load ptr, ptr %6, align 8, !alias.scope !1815, !noalias !1816, !nonnull !37, !noundef !37
  %7 = getelementptr inbounds i8, ptr %_219, i64 -8
  %len1.i.i.i.i = load i64, ptr %7, align 8, !alias.scope !1815, !noalias !1816, !noundef !37
  %8 = getelementptr inbounds i8, ptr %_187, i64 -16
  %_14.i.i.i.i = load ptr, ptr %8, align 8, !alias.scope !1816, !noalias !1815, !nonnull !37, !noundef !37
  %9 = getelementptr inbounds i8, ptr %_187, i64 -8
  %10 = load i64, ptr %9, align 8, !alias.scope !1816, !noalias !1815, !noundef !37
  %spec.store.select.i.i.i.i.i.i = tail call i64 @llvm.umin.i64(i64 range(i64 0, -9223372036854775808) %len1.i.i.i.i, i64 range(i64 0, -9223372036854775808) %10)
  %11 = tail call i32 @memcmp(ptr nonnull readonly align 1 %_7.i.i.i.i, ptr nonnull readonly align 1 %_14.i.i.i.i, i64 %spec.store.select.i.i.i.i.i.i), !alias.scope !1817, !noalias !1824
  %12 = sext i32 %11 to i64
  %_15.i.i.i.i.i.i = icmp eq i32 %11, 0
  %diff.i.i.i.i.i.i = sub nsw i64 %len1.i.i.i.i, %10
  %spec.select.i.i.i.i.i.i = select i1 %_15.i.i.i.i.i.i, i64 %diff.i.i.i.i.i.i, i64 %12
  %13 = icmp sgt i64 %spec.select.i.i.i.i.i.i, -1
  %. = select i1 %13, ptr %4, ptr %3
  tail call void @llvm.memcpy.p0.p0.i64(ptr noundef nonnull align 8 dereferenceable(24) %5, ptr noundef nonnull align 8 dereferenceable(24) %., i64 24, i1 false)
  %count = zext i1 %13 to i64
  %_18 = getelementptr inbounds nuw %"alloc::string::String", ptr %3, i64 %count
  %spec.select.i.i.i.i.i.i.lobit = lshr i64 %spec.select.i.i.i.i.i.i, 63
  %_21 = getelementptr inbounds nuw %"alloc::string::String", ptr %4, i64 %spec.select.i.i.i.i.i.i.lobit
  %_23 = icmp eq ptr %_18, %left_end
  %_26 = icmp eq ptr %_21, %right_end
  %or.cond = select i1 %_23, i1 true, i1 %_26
  br i1 %or.cond, label %bb7, label %bb1

bb7:                                              ; preds = %bb1
  store ptr %_18, ptr %1, align 8
  store ptr %_21, ptr %2, align 8
  ret void
}

; core::slice::sort::stable::merge::MergeState<T>::merge_down
; Function Attrs: nofree norecurse nosync nounwind nonlazybind memory(read, argmem: readwrite, inaccessiblemem: readwrite) uwtable
define void @"_ZN4core5slice4sort6stable5merge19MergeState$LT$T$GT$10merge_down17h483b621008603c76E"(ptr noalias noundef align 8 captures(none) dereferenceable(24) %self, ptr noundef readnone captures(address) %left_end, ptr noundef readnone captures(address) %right_end, ptr noundef writeonly captures(none) %0, ptr noalias noundef readnone align 8 captures(none) dereferenceable(8) %is_less) unnamed_addr #12 {
start:
  %1 = getelementptr inbounds nuw i8, ptr %self, i64 16
  %2 = getelementptr inbounds nuw i8, ptr %self, i64 8
  %.promoted = load ptr, ptr %1, align 8
  %.promoted9 = load ptr, ptr %2, align 8
  br label %bb1

bb1:                                              ; preds = %bb1, %start
  %_2110 = phi ptr [ %.promoted9, %start ], [ %_21, %bb1 ]
  %_188 = phi ptr [ %.promoted, %start ], [ %_18, %bb1 ]
  %out.sroa.0.0 = phi ptr [ %0, %start ], [ %5, %bb1 ]
  %3 = getelementptr inbounds i8, ptr %_188, i64 -4
  %4 = getelementptr inbounds i8, ptr %_2110, i64 -4
  %5 = getelementptr inbounds i8, ptr %out.sroa.0.0, i64 -4
  tail call void @llvm.experimental.noalias.scope.decl(metadata !1825)
  tail call void @llvm.experimental.noalias.scope.decl(metadata !1828)
  tail call void @llvm.experimental.noalias.scope.decl(metadata !1830)
  tail call void @llvm.experimental.noalias.scope.decl(metadata !1833)
  tail call void @llvm.experimental.noalias.scope.decl(metadata !1835)
  tail call void @llvm.experimental.noalias.scope.decl(metadata !1838)
  tail call void @llvm.experimental.noalias.scope.decl(metadata !1840)
  tail call void @llvm.experimental.noalias.scope.decl(metadata !1843)
  %_3.i.i.i.i = load i32, ptr %4, align 4, !alias.scope !1845, !noalias !1846, !noundef !37
  %_4.i.i.i.i = load i32, ptr %3, align 4, !alias.scope !1846, !noalias !1845, !noundef !37
  %_0.i = icmp slt i32 %_3.i.i.i.i, %_4.i.i.i.i
  %6 = tail call i32 @llvm.smax.i32(i32 %_3.i.i.i.i, i32 %_4.i.i.i.i)
  store i32 %6, ptr %5, align 4
  %_20 = xor i1 %_0.i, true
  %count = zext i1 %_20 to i64
  %_18 = getelementptr inbounds nuw i32, ptr %3, i64 %count
  %count4 = zext i1 %_0.i to i64
  %_21 = getelementptr inbounds nuw i32, ptr %4, i64 %count4
  %_23 = icmp eq ptr %_18, %left_end
  %_26 = icmp eq ptr %_21, %right_end
  %or.cond = select i1 %_23, i1 true, i1 %_26
  br i1 %or.cond, label %bb7, label %bb1

bb7:                                              ; preds = %bb1
  store ptr %_18, ptr %1, align 8
  store ptr %_21, ptr %2, align 8
  ret void
}

; core::slice::sort::stable::merge::MergeState<T>::merge_up
; Function Attrs: nofree norecurse nosync nounwind nonlazybind uwtable
define void @"_ZN4core5slice4sort6stable5merge19MergeState$LT$T$GT$8merge_up17h25e782789069064cE"(ptr noalias noundef align 8 captures(none) dereferenceable(24) %self, ptr noundef readonly captures(address) %0, ptr noundef readnone captures(address) %right_end, ptr noalias noundef readnone align 8 captures(none) dereferenceable(8) %is_less) unnamed_addr #13 {
start:
  %1 = getelementptr inbounds nuw i8, ptr %self, i64 8
  %_9 = load ptr, ptr %1, align 8, !noundef !37
  %self.promoted = load ptr, ptr %self, align 8
  %_76 = icmp ne ptr %self.promoted, %_9
  %_107 = icmp ne ptr %0, %right_end
  %or.cond8 = and i1 %_76, %_107
  br i1 %or.cond8, label %bb3.lr.ph, label %bb9

bb3.lr.ph:                                        ; preds = %start
  %2 = getelementptr inbounds nuw i8, ptr %self, i64 16
  %.promoted = load ptr, ptr %2, align 8
  br label %bb3

bb1.bb9_crit_edge:                                ; preds = %bb3
  store ptr %_25, ptr %2, align 8
  store ptr %_20, ptr %self, align 8
  br label %bb9

bb9:                                              ; preds = %bb1.bb9_crit_edge, %start
  ret void

bb3:                                              ; preds = %bb3.lr.ph, %bb3
  %_2511 = phi ptr [ %.promoted, %bb3.lr.ph ], [ %_25, %bb3 ]
  %right.sroa.0.010 = phi ptr [ %0, %bb3.lr.ph ], [ %_23, %bb3 ]
  %_2059 = phi ptr [ %self.promoted, %bb3.lr.ph ], [ %_20, %bb3 ]
  tail call void @llvm.experimental.noalias.scope.decl(metadata !1847)
  tail call void @llvm.experimental.noalias.scope.decl(metadata !1850)
  tail call void @llvm.experimental.noalias.scope.decl(metadata !1852)
  tail call void @llvm.experimental.noalias.scope.decl(metadata !1855)
  tail call void @llvm.experimental.noalias.scope.decl(metadata !1857)
  tail call void @llvm.experimental.noalias.scope.decl(metadata !1860)
  tail call void @llvm.experimental.noalias.scope.decl(metadata !1862)
  tail call void @llvm.experimental.noalias.scope.decl(metadata !1865)
  %_3.i.i.i.i = load i32, ptr %right.sroa.0.010, align 4, !alias.scope !1867, !noalias !1868, !noundef !37
  %_4.i.i.i.i = load i32, ptr %_2059, align 4, !alias.scope !1868, !noalias !1867, !noundef !37
  %_0.i = icmp slt i32 %_3.i.i.i.i, %_4.i.i.i.i
  %consume_left = xor i1 %_0.i, true
  %3 = tail call i32 @llvm.smin.i32(i32 %_3.i.i.i.i, i32 %_4.i.i.i.i)
  store i32 %3, ptr %_2511, align 4
  %count = zext i1 %consume_left to i64
  %_20 = getelementptr inbounds nuw i32, ptr %_2059, i64 %count
  %count2 = zext i1 %_0.i to i64
  %_23 = getelementptr inbounds nuw i32, ptr %right.sroa.0.010, i64 %count2
  %_25 = getelementptr inbounds nuw i8, ptr %_2511, i64 4
  %_7 = icmp ne ptr %_20, %_9
  %_10 = icmp ne ptr %_23, %right_end
  %or.cond = select i1 %_7, i1 %_10, i1 false
  br i1 %or.cond, label %bb3, label %bb1.bb9_crit_edge
}

; core::slice::sort::stable::merge::MergeState<T>::merge_up
; Function Attrs: nofree norecurse nounwind nonlazybind uwtable
define void @"_ZN4core5slice4sort6stable5merge19MergeState$LT$T$GT$8merge_up17hbe38bf00a951b59aE"(ptr noalias noundef align 8 captures(none) dereferenceable(24) %self, ptr noundef readonly captures(address) %0, ptr noundef readnone captures(address) %right_end, ptr noalias noundef nonnull readnone align 1 captures(none) %is_less) unnamed_addr #11 {
start:
  %1 = getelementptr inbounds nuw i8, ptr %self, i64 8
  %_9 = load ptr, ptr %1, align 8, !noundef !37
  %self.promoted = load ptr, ptr %self, align 8
  %_76 = icmp ne ptr %self.promoted, %_9
  %_107 = icmp ne ptr %0, %right_end
  %or.cond8 = and i1 %_76, %_107
  br i1 %or.cond8, label %bb3.lr.ph, label %bb9

bb3.lr.ph:                                        ; preds = %start
  %2 = getelementptr inbounds nuw i8, ptr %self, i64 16
  %.promoted = load ptr, ptr %2, align 8
  br label %bb3

bb1.bb9_crit_edge:                                ; preds = %bb3
  store ptr %_25, ptr %2, align 8
  store ptr %_20, ptr %self, align 8
  br label %bb9

bb9:                                              ; preds = %bb1.bb9_crit_edge, %start
  ret void

bb3:                                              ; preds = %bb3.lr.ph, %bb3
  %_2511 = phi ptr [ %.promoted, %bb3.lr.ph ], [ %_25, %bb3 ]
  %right.sroa.0.010 = phi ptr [ %0, %bb3.lr.ph ], [ %_23, %bb3 ]
  %_2059 = phi ptr [ %self.promoted, %bb3.lr.ph ], [ %_20, %bb3 ]
  tail call void @llvm.experimental.noalias.scope.decl(metadata !1869)
  tail call void @llvm.experimental.noalias.scope.decl(metadata !1872)
  tail call void @llvm.experimental.noalias.scope.decl(metadata !1874)
  tail call void @llvm.experimental.noalias.scope.decl(metadata !1877)
  tail call void @llvm.experimental.noalias.scope.decl(metadata !1879)
  tail call void @llvm.experimental.noalias.scope.decl(metadata !1882)
  tail call void @llvm.experimental.noalias.scope.decl(metadata !1884)
  tail call void @llvm.experimental.noalias.scope.decl(metadata !1887)
  %3 = getelementptr inbounds nuw i8, ptr %right.sroa.0.010, i64 8
  %_7.i.i.i.i = load ptr, ptr %3, align 8, !alias.scope !1889, !noalias !1890, !nonnull !37, !noundef !37
  %4 = getelementptr inbounds nuw i8, ptr %right.sroa.0.010, i64 16
  %len1.i.i.i.i = load i64, ptr %4, align 8, !alias.scope !1889, !noalias !1890, !noundef !37
  %5 = getelementptr inbounds nuw i8, ptr %_2059, i64 8
  %_14.i.i.i.i = load ptr, ptr %5, align 8, !alias.scope !1890, !noalias !1889, !nonnull !37, !noundef !37
  %6 = getelementptr inbounds nuw i8, ptr %_2059, i64 16
  %7 = load i64, ptr %6, align 8, !alias.scope !1890, !noalias !1889, !noundef !37
  %spec.store.select.i.i.i.i.i.i = tail call i64 @llvm.umin.i64(i64 range(i64 0, -9223372036854775808) %len1.i.i.i.i, i64 range(i64 0, -9223372036854775808) %7)
  %8 = tail call i32 @memcmp(ptr nonnull readonly align 1 %_7.i.i.i.i, ptr nonnull readonly align 1 %_14.i.i.i.i, i64 %spec.store.select.i.i.i.i.i.i), !alias.scope !1891, !noalias !1898
  %9 = sext i32 %8 to i64
  %_15.i.i.i.i.i.i = icmp eq i32 %8, 0
  %diff.i.i.i.i.i.i = sub nsw i64 %len1.i.i.i.i, %7
  %spec.select.i.i.i.i.i.i = select i1 %_15.i.i.i.i.i.i, i64 %diff.i.i.i.i.i.i, i64 %9
  %10 = icmp sgt i64 %spec.select.i.i.i.i.i.i, -1
  %src.sroa.0.0 = select i1 %10, ptr %_2059, ptr %right.sroa.0.010
  tail call void @llvm.memcpy.p0.p0.i64(ptr noundef nonnull align 8 dereferenceable(24) %_2511, ptr noundef nonnull align 8 dereferenceable(24) %src.sroa.0.0, i64 24, i1 false)
  %count = zext i1 %10 to i64
  %_20 = getelementptr inbounds nuw %"alloc::string::String", ptr %_2059, i64 %count
  %spec.select.i.i.i.i.i.i.lobit = lshr i64 %spec.select.i.i.i.i.i.i, 63
  %_23 = getelementptr inbounds nuw %"alloc::string::String", ptr %right.sroa.0.010, i64 %spec.select.i.i.i.i.i.i.lobit
  %_25 = getelementptr inbounds nuw i8, ptr %_2511, i64 24
  %_7 = icmp ne ptr %_20, %_9
  %_10 = icmp ne ptr %_23, %right_end
  %or.cond = select i1 %_7, i1 %_10, i1 false
  br i1 %or.cond, label %bb3, label %bb1.bb9_crit_edge
}

; core::slice::sort::stable::merge::merge
; Function Attrs: nofree norecurse nosync nounwind nonlazybind memory(argmem: readwrite, inaccessiblemem: readwrite) uwtable
define void @_ZN4core5slice4sort6stable5merge5merge17h4968745bd835e12cE(ptr noalias noundef nonnull align 4 captures(address) %v.0, i64 noundef range(i64 0, 2305843009213693952) %v.1, ptr noalias noundef nonnull align 4 %scratch.0, i64 noundef range(i64 0, 2305843009213693952) %scratch.1, i64 noundef %0, ptr noalias noundef readnone align 8 captures(none) dereferenceable(8) %is_less) unnamed_addr #0 personality ptr @rust_eh_personality {
start:
  %_6 = icmp eq i64 %0, 0
  %_7 = icmp uge i64 %0, %v.1
  %or.cond = or i1 %_6, %_7
  br i1 %or.cond, label %bb18, label %bb2

bb2:                                              ; preds = %start
  %right_len = sub nuw nsw i64 %v.1, %0
  %_0.sroa.0.0.i = tail call noundef i64 @llvm.umin.i64(i64 range(i64 -2305843009213693950, 2305843009213693952) %right_len, i64 %0)
  %_8 = icmp samesign ult i64 %scratch.1, %_0.sroa.0.0.i
  br i1 %_8, label %bb18, label %bb5

bb5:                                              ; preds = %bb2
  %v_mid = getelementptr inbounds nuw i32, ptr %v.0, i64 %0
  %v_end = getelementptr inbounds nuw i32, ptr %v.0, i64 %v.1
  %left_is_shorter.not = icmp ugt i64 %0, %right_len
  %spec.select = select i1 %left_is_shorter.not, ptr %v_mid, ptr %v.0
  %spec.select10 = tail call i64 @llvm.umin.i64(i64 %0, i64 %right_len)
  %1 = shl nuw nsw i64 %spec.select10, 2
  tail call void @llvm.memcpy.p0.p0.i64(ptr nonnull align 4 %scratch.0, ptr nonnull align 4 %spec.select, i64 %1, i1 false)
  %_22.idx = shl nuw nsw i64 %spec.select10, 2
  %_22 = getelementptr inbounds nuw i8, ptr %scratch.0, i64 %_22.idx
  br i1 %left_is_shorter.not, label %bb1.i, label %bb12

bb1.i:                                            ; preds = %bb5, %bb1.i
  %_2110.i = phi ptr [ %_21.i, %bb1.i ], [ %_22, %bb5 ]
  %_188.i = phi ptr [ %_18.i, %bb1.i ], [ %spec.select, %bb5 ]
  %out.sroa.0.0.i = phi ptr [ %4, %bb1.i ], [ %v_end, %bb5 ]
  %2 = getelementptr inbounds i8, ptr %_188.i, i64 -4
  %3 = getelementptr inbounds i8, ptr %_2110.i, i64 -4
  %4 = getelementptr inbounds i8, ptr %out.sroa.0.0.i, i64 -4
  tail call void @llvm.experimental.noalias.scope.decl(metadata !1899)
  tail call void @llvm.experimental.noalias.scope.decl(metadata !1902)
  tail call void @llvm.experimental.noalias.scope.decl(metadata !1904)
  tail call void @llvm.experimental.noalias.scope.decl(metadata !1907)
  tail call void @llvm.experimental.noalias.scope.decl(metadata !1909)
  tail call void @llvm.experimental.noalias.scope.decl(metadata !1912)
  tail call void @llvm.experimental.noalias.scope.decl(metadata !1914)
  tail call void @llvm.experimental.noalias.scope.decl(metadata !1917)
  %_3.i.i.i.i.i = load i32, ptr %3, align 4, !alias.scope !1919, !noalias !1920, !noundef !37
  %_4.i.i.i.i.i = load i32, ptr %2, align 4, !alias.scope !1923, !noalias !1924, !noundef !37
  %_0.i.i = icmp slt i32 %_3.i.i.i.i.i, %_4.i.i.i.i.i
  %5 = tail call i32 @llvm.smax.i32(i32 %_3.i.i.i.i.i, i32 %_4.i.i.i.i.i)
  store i32 %5, ptr %4, align 4, !noalias !1925
  %_20.i = xor i1 %_0.i.i, true
  %count.i = zext i1 %_20.i to i64
  %_18.i = getelementptr inbounds nuw i32, ptr %2, i64 %count.i
  %count4.i = zext i1 %_0.i.i to i64
  %_21.i = getelementptr inbounds nuw i32, ptr %3, i64 %count4.i
  %_23.i = icmp eq ptr %_18.i, %v.0
  %_26.i = icmp eq ptr %_21.i, %scratch.0
  %or.cond.i = select i1 %_23.i, i1 true, i1 %_26.i
  br i1 %or.cond.i, label %bb16, label %bb1.i

bb12:                                             ; preds = %bb5
  %_76.i.not = icmp eq i64 %0, 0
  br i1 %_76.i.not, label %bb16, label %bb3.i

bb3.i:                                            ; preds = %bb12, %bb3.i
  %_2511.i = phi ptr [ %_25.i, %bb3.i ], [ %spec.select, %bb12 ]
  %right.sroa.0.010.i = phi ptr [ %_23.i17, %bb3.i ], [ %v_mid, %bb12 ]
  %_2059.i = phi ptr [ %_20.i16, %bb3.i ], [ %scratch.0, %bb12 ]
  tail call void @llvm.experimental.noalias.scope.decl(metadata !1926)
  tail call void @llvm.experimental.noalias.scope.decl(metadata !1929)
  tail call void @llvm.experimental.noalias.scope.decl(metadata !1931)
  tail call void @llvm.experimental.noalias.scope.decl(metadata !1934)
  tail call void @llvm.experimental.noalias.scope.decl(metadata !1936)
  tail call void @llvm.experimental.noalias.scope.decl(metadata !1939)
  tail call void @llvm.experimental.noalias.scope.decl(metadata !1941)
  tail call void @llvm.experimental.noalias.scope.decl(metadata !1944)
  %_3.i.i.i.i.i12 = load i32, ptr %right.sroa.0.010.i, align 4, !alias.scope !1946, !noalias !1947, !noundef !37
  %_4.i.i.i.i.i13 = load i32, ptr %_2059.i, align 4, !alias.scope !1950, !noalias !1951, !noundef !37
  %_0.i.i14 = icmp slt i32 %_3.i.i.i.i.i12, %_4.i.i.i.i.i13
  %consume_left.i = xor i1 %_0.i.i14, true
  %6 = tail call i32 @llvm.smin.i32(i32 %_3.i.i.i.i.i12, i32 %_4.i.i.i.i.i13)
  store i32 %6, ptr %_2511.i, align 4, !noalias !1952
  %count.i15 = zext i1 %consume_left.i to i64
  %_20.i16 = getelementptr inbounds nuw i32, ptr %_2059.i, i64 %count.i15
  %count2.i = zext i1 %_0.i.i14 to i64
  %_23.i17 = getelementptr inbounds nuw i32, ptr %right.sroa.0.010.i, i64 %count2.i
  %_25.i = getelementptr inbounds nuw i8, ptr %_2511.i, i64 4
  %_7.i = icmp ne ptr %_20.i16, %_22
  %_10.i = icmp ne ptr %_23.i17, %v_end
  %or.cond.i18 = select i1 %_7.i, i1 %_10.i, i1 false
  br i1 %or.cond.i18, label %bb3.i, label %bb16

bb16:                                             ; preds = %bb3.i, %bb1.i, %bb12
  %merge_state.sroa.13.0 = phi ptr [ %spec.select, %bb12 ], [ %_18.i, %bb1.i ], [ %_25.i, %bb3.i ]
  %merge_state.sroa.7.0 = phi ptr [ %_22, %bb12 ], [ %_21.i, %bb1.i ], [ %_22, %bb3.i ]
  %merge_state.sroa.0.0 = phi ptr [ %scratch.0, %bb12 ], [ %scratch.0, %bb1.i ], [ %_20.i16, %bb3.i ]
  %7 = ptrtoint ptr %merge_state.sroa.7.0 to i64
  %8 = ptrtoint ptr %merge_state.sroa.0.0 to i64
  %9 = sub nuw i64 %7, %8
  tail call void @llvm.memcpy.p0.p0.i64(ptr align 4 %merge_state.sroa.13.0, ptr align 4 %merge_state.sroa.0.0, i64 %9, i1 false), !noalias !1953
  br label %bb18

bb18:                                             ; preds = %bb2, %start, %bb16
  ret void
}

; core::slice::sort::stable::merge::merge
; Function Attrs: nofree norecurse nounwind nonlazybind uwtable
define void @_ZN4core5slice4sort6stable5merge5merge17h6e59d25376e5c569E(ptr noalias noundef nonnull align 8 captures(address) %v.0, i64 noundef range(i64 0, 384307168202282326) %v.1, ptr noalias noundef nonnull align 8 %scratch.0, i64 noundef range(i64 0, 384307168202282326) %scratch.1, i64 noundef %0, ptr noalias nonnull readnone align 1 captures(none) %is_less) unnamed_addr #11 personality ptr @rust_eh_personality {
start:
  %_6 = icmp eq i64 %0, 0
  %_7 = icmp uge i64 %0, %v.1
  %or.cond = or i1 %_6, %_7
  br i1 %or.cond, label %bb18, label %bb2

bb2:                                              ; preds = %start
  %right_len = sub nuw nsw i64 %v.1, %0
  %_0.sroa.0.0.i = tail call noundef i64 @llvm.umin.i64(i64 range(i64 -2305843009213693950, 2305843009213693952) %right_len, i64 %0)
  %_8 = icmp samesign ult i64 %scratch.1, %_0.sroa.0.0.i
  br i1 %_8, label %bb18, label %bb5

bb5:                                              ; preds = %bb2
  %v_mid = getelementptr inbounds nuw %"alloc::string::String", ptr %v.0, i64 %0
  %v_end = getelementptr inbounds nuw %"alloc::string::String", ptr %v.0, i64 %v.1
  %left_is_shorter.not = icmp ugt i64 %0, %right_len
  %spec.select = select i1 %left_is_shorter.not, ptr %v_mid, ptr %v.0
  %spec.select10 = tail call i64 @llvm.umin.i64(i64 %0, i64 %right_len)
  %1 = mul nuw nsw i64 %spec.select10, 24
  tail call void @llvm.memcpy.p0.p0.i64(ptr nonnull align 8 %scratch.0, ptr nonnull align 8 %spec.select, i64 %1, i1 false)
  %_22.idx = mul nuw nsw i64 %spec.select10, 24
  %_22 = getelementptr inbounds nuw i8, ptr %scratch.0, i64 %_22.idx
  br i1 %left_is_shorter.not, label %bb1.i, label %bb12

bb1.i:                                            ; preds = %bb5, %bb1.i
  %_219.i = phi ptr [ %_21.i, %bb1.i ], [ %_22, %bb5 ]
  %_187.i = phi ptr [ %_18.i, %bb1.i ], [ %spec.select, %bb5 ]
  %out.sroa.0.0.i = phi ptr [ %4, %bb1.i ], [ %v_end, %bb5 ]
  %2 = getelementptr inbounds i8, ptr %_187.i, i64 -24
  %3 = getelementptr inbounds i8, ptr %_219.i, i64 -24
  %4 = getelementptr inbounds i8, ptr %out.sroa.0.0.i, i64 -24
  tail call void @llvm.experimental.noalias.scope.decl(metadata !1958)
  tail call void @llvm.experimental.noalias.scope.decl(metadata !1961)
  tail call void @llvm.experimental.noalias.scope.decl(metadata !1963)
  tail call void @llvm.experimental.noalias.scope.decl(metadata !1966)
  tail call void @llvm.experimental.noalias.scope.decl(metadata !1968)
  tail call void @llvm.experimental.noalias.scope.decl(metadata !1971)
  tail call void @llvm.experimental.noalias.scope.decl(metadata !1973)
  tail call void @llvm.experimental.noalias.scope.decl(metadata !1976)
  %5 = getelementptr inbounds i8, ptr %_219.i, i64 -16
  %_7.i.i.i.i.i = load ptr, ptr %5, align 8, !alias.scope !1978, !noalias !1979, !nonnull !37, !noundef !37
  %6 = getelementptr inbounds i8, ptr %_219.i, i64 -8
  %len1.i.i.i.i.i = load i64, ptr %6, align 8, !alias.scope !1978, !noalias !1979, !noundef !37
  %7 = getelementptr inbounds i8, ptr %_187.i, i64 -16
  %_14.i.i.i.i.i = load ptr, ptr %7, align 8, !alias.scope !1982, !noalias !1983, !nonnull !37, !noundef !37
  %8 = getelementptr inbounds i8, ptr %_187.i, i64 -8
  %9 = load i64, ptr %8, align 8, !alias.scope !1982, !noalias !1983, !noundef !37
  %spec.store.select.i.i.i.i.i.i.i = tail call i64 @llvm.umin.i64(i64 range(i64 0, -9223372036854775808) %len1.i.i.i.i.i, i64 range(i64 0, -9223372036854775808) %9)
  %10 = tail call i32 @memcmp(ptr nonnull readonly align 1 %_7.i.i.i.i.i, ptr nonnull readonly align 1 %_14.i.i.i.i.i, i64 %spec.store.select.i.i.i.i.i.i.i), !alias.scope !1984, !noalias !1991
  %11 = sext i32 %10 to i64
  %_15.i.i.i.i.i.i.i = icmp eq i32 %10, 0
  %diff.i.i.i.i.i.i.i = sub nsw i64 %len1.i.i.i.i.i, %9
  %spec.select.i.i.i.i.i.i.i = select i1 %_15.i.i.i.i.i.i.i, i64 %diff.i.i.i.i.i.i.i, i64 %11
  %12 = icmp sgt i64 %spec.select.i.i.i.i.i.i.i, -1
  %..i = select i1 %12, ptr %3, ptr %2
  tail call void @llvm.memcpy.p0.p0.i64(ptr noundef nonnull align 8 dereferenceable(24) %4, ptr noundef nonnull align 8 dereferenceable(24) %..i, i64 24, i1 false), !noalias !1992
  %count.i = zext i1 %12 to i64
  %_18.i = getelementptr inbounds nuw %"alloc::string::String", ptr %2, i64 %count.i
  %spec.select.i.i.i.i.i.i.lobit.i = lshr i64 %spec.select.i.i.i.i.i.i.i, 63
  %_21.i = getelementptr inbounds nuw %"alloc::string::String", ptr %3, i64 %spec.select.i.i.i.i.i.i.lobit.i
  %_23.i = icmp eq ptr %_18.i, %v.0
  %_26.i = icmp eq ptr %_21.i, %scratch.0
  %or.cond.i = select i1 %_23.i, i1 true, i1 %_26.i
  br i1 %or.cond.i, label %bb16, label %bb1.i

bb12:                                             ; preds = %bb5
  %_76.i.not = icmp eq i64 %0, 0
  br i1 %_76.i.not, label %bb16, label %bb3.i

bb3.i:                                            ; preds = %bb12, %bb3.i
  %_2511.i = phi ptr [ %_25.i, %bb3.i ], [ %spec.select, %bb12 ]
  %right.sroa.0.010.i = phi ptr [ %_23.i21, %bb3.i ], [ %v_mid, %bb12 ]
  %_2059.i = phi ptr [ %_20.i, %bb3.i ], [ %scratch.0, %bb12 ]
  tail call void @llvm.experimental.noalias.scope.decl(metadata !1993)
  tail call void @llvm.experimental.noalias.scope.decl(metadata !1996)
  tail call void @llvm.experimental.noalias.scope.decl(metadata !1998)
  tail call void @llvm.experimental.noalias.scope.decl(metadata !2001)
  tail call void @llvm.experimental.noalias.scope.decl(metadata !2003)
  tail call void @llvm.experimental.noalias.scope.decl(metadata !2006)
  tail call void @llvm.experimental.noalias.scope.decl(metadata !2008)
  tail call void @llvm.experimental.noalias.scope.decl(metadata !2011)
  %13 = getelementptr inbounds nuw i8, ptr %right.sroa.0.010.i, i64 8
  %_7.i.i.i.i.i12 = load ptr, ptr %13, align 8, !alias.scope !2013, !noalias !2014, !nonnull !37, !noundef !37
  %14 = getelementptr inbounds nuw i8, ptr %right.sroa.0.010.i, i64 16
  %len1.i.i.i.i.i13 = load i64, ptr %14, align 8, !alias.scope !2013, !noalias !2014, !noundef !37
  %15 = getelementptr inbounds nuw i8, ptr %_2059.i, i64 8
  %_14.i.i.i.i.i14 = load ptr, ptr %15, align 8, !alias.scope !2017, !noalias !2018, !nonnull !37, !noundef !37
  %16 = getelementptr inbounds nuw i8, ptr %_2059.i, i64 16
  %17 = load i64, ptr %16, align 8, !alias.scope !2017, !noalias !2018, !noundef !37
  %spec.store.select.i.i.i.i.i.i.i15 = tail call i64 @llvm.umin.i64(i64 range(i64 0, -9223372036854775808) %len1.i.i.i.i.i13, i64 range(i64 0, -9223372036854775808) %17)
  %18 = tail call i32 @memcmp(ptr nonnull readonly align 1 %_7.i.i.i.i.i12, ptr nonnull readonly align 1 %_14.i.i.i.i.i14, i64 %spec.store.select.i.i.i.i.i.i.i15), !alias.scope !2019, !noalias !2026
  %19 = sext i32 %18 to i64
  %_15.i.i.i.i.i.i.i16 = icmp eq i32 %18, 0
  %diff.i.i.i.i.i.i.i17 = sub nsw i64 %len1.i.i.i.i.i13, %17
  %spec.select.i.i.i.i.i.i.i18 = select i1 %_15.i.i.i.i.i.i.i16, i64 %diff.i.i.i.i.i.i.i17, i64 %19
  %20 = icmp sgt i64 %spec.select.i.i.i.i.i.i.i18, -1
  %src.sroa.0.0.i = select i1 %20, ptr %_2059.i, ptr %right.sroa.0.010.i
  tail call void @llvm.memcpy.p0.p0.i64(ptr noundef nonnull align 8 dereferenceable(24) %_2511.i, ptr noundef nonnull align 8 dereferenceable(24) %src.sroa.0.0.i, i64 24, i1 false), !noalias !2027
  %count.i19 = zext i1 %20 to i64
  %_20.i = getelementptr inbounds nuw %"alloc::string::String", ptr %_2059.i, i64 %count.i19
  %spec.select.i.i.i.i.i.i.lobit.i20 = lshr i64 %spec.select.i.i.i.i.i.i.i18, 63
  %_23.i21 = getelementptr inbounds nuw %"alloc::string::String", ptr %right.sroa.0.010.i, i64 %spec.select.i.i.i.i.i.i.lobit.i20
  %_25.i = getelementptr inbounds nuw i8, ptr %_2511.i, i64 24
  %_7.i = icmp ne ptr %_20.i, %_22
  %_10.i = icmp ne ptr %_23.i21, %v_end
  %or.cond.i22 = select i1 %_7.i, i1 %_10.i, i1 false
  br i1 %or.cond.i22, label %bb3.i, label %bb16

bb16:                                             ; preds = %bb3.i, %bb1.i, %bb12
  %merge_state.sroa.13.0 = phi ptr [ %spec.select, %bb12 ], [ %_18.i, %bb1.i ], [ %_25.i, %bb3.i ]
  %merge_state.sroa.7.0 = phi ptr [ %_22, %bb12 ], [ %_21.i, %bb1.i ], [ %_22, %bb3.i ]
  %merge_state.sroa.0.0 = phi ptr [ %scratch.0, %bb12 ], [ %scratch.0, %bb1.i ], [ %_20.i, %bb3.i ]
  %21 = ptrtoint ptr %merge_state.sroa.7.0 to i64
  %22 = ptrtoint ptr %merge_state.sroa.0.0 to i64
  %23 = sub nuw i64 %21, %22
  tail call void @llvm.memcpy.p0.p0.i64(ptr align 8 %merge_state.sroa.13.0, ptr align 8 %merge_state.sroa.0.0, i64 %23, i1 false), !noalias !2028
  br label %bb18

bb18:                                             ; preds = %bb2, %start, %bb16
  ret void
}

; core::slice::sort::stable::quicksort::stable_partition
; Function Attrs: nounwind nonlazybind memory(argmem: readwrite, inaccessiblemem: readwrite) uwtable
define noundef i64 @_ZN4core5slice4sort6stable9quicksort16stable_partition17h4eb5a3e8e16257b0E(ptr noalias noundef nonnull align 4 captures(address) %v.0, i64 noundef range(i64 0, 2305843009213693952) %v.1, ptr noalias noundef nonnull align 4 captures(none) %scratch.0, i64 noundef range(i64 0, 2305843009213693952) %scratch.1, i64 noundef %0, i1 noundef zeroext %pivot_goes_left, ptr noalias readnone align 8 captures(none) %is_less) unnamed_addr #7 {
start:
  %_8 = icmp samesign uge i64 %scratch.1, %v.1
  %.not = icmp ult i64 %0, %v.1
  %or.cond = and i1 %_8, %.not
  br i1 %or.cond, label %bb33, label %bb31, !prof !2033

bb33:                                             ; preds = %start
  %pivot = getelementptr inbounds nuw i32, ptr %v.0, i64 %0
  %_86 = getelementptr i32, ptr %scratch.0, i64 %v.1
  %_8.i70 = zext i1 %pivot_goes_left to i64
  br label %bb3

bb31:                                             ; preds = %start
  tail call void @llvm.trap()
  unreachable

bb3:                                              ; preds = %bb23, %bb33
  %state.sroa.27.0 = phi i64 [ 0, %bb33 ], [ %14, %bb23 ]
  %state.sroa.9.0 = phi ptr [ %v.0, %bb33 ], [ %_9.i71, %bb23 ]
  %state.sroa.43.0 = phi ptr [ %_86, %bb33 ], [ %12, %bb23 ]
  %pivot_pos.sroa.0.0 = phi i64 [ %0, %bb33 ], [ %v.1, %bb23 ]
  %1 = tail call i64 @llvm.usub.sat.i64(i64 %pivot_pos.sroa.0.0, i64 3)
  %unroll_end = getelementptr inbounds nuw i32, ptr %v.0, i64 %1
  %_1985 = icmp ult ptr %state.sroa.9.0, %unroll_end
  br i1 %_1985, label %bb6, label %bb16

bb6:                                              ; preds = %bb3, %bb6
  %state.sroa.43.188 = phi ptr [ %8, %bb6 ], [ %state.sroa.43.0, %bb3 ]
  %state.sroa.9.187 = phi ptr [ %_9.i54, %bb6 ], [ %state.sroa.9.0, %bb3 ]
  %state.sroa.27.186 = phi i64 [ %9, %bb6 ], [ %state.sroa.27.0, %bb3 ]
  tail call void @llvm.experimental.noalias.scope.decl(metadata !2034)
  tail call void @llvm.experimental.noalias.scope.decl(metadata !2037)
  tail call void @llvm.experimental.noalias.scope.decl(metadata !2039)
  tail call void @llvm.experimental.noalias.scope.decl(metadata !2042)
  tail call void @llvm.experimental.noalias.scope.decl(metadata !2044)
  tail call void @llvm.experimental.noalias.scope.decl(metadata !2047)
  tail call void @llvm.experimental.noalias.scope.decl(metadata !2049)
  tail call void @llvm.experimental.noalias.scope.decl(metadata !2052)
  %_3.i.i.i.i = load i32, ptr %state.sroa.9.187, align 4, !alias.scope !2054, !noalias !2055, !noundef !37
  %_4.i.i.i.i = load i32, ptr %pivot, align 4, !alias.scope !2055, !noalias !2054, !noundef !37
  %_0.i = icmp slt i32 %_3.i.i.i.i, %_4.i.i.i.i
  %2 = getelementptr inbounds i8, ptr %state.sroa.43.188, i64 -4
  %dst_base.sroa.0.0.i = select i1 %_0.i, ptr %scratch.0, ptr %2
  %dst.i = getelementptr inbounds nuw i32, ptr %dst_base.sroa.0.0.i, i64 %state.sroa.27.186
  store i32 %_3.i.i.i.i, ptr %dst.i, align 4, !noalias !2056
  %_8.i = zext i1 %_0.i to i64
  %3 = add i64 %state.sroa.27.186, %_8.i
  %_9.i = getelementptr inbounds nuw i8, ptr %state.sroa.9.187, i64 4
  tail call void @llvm.experimental.noalias.scope.decl(metadata !2059)
  tail call void @llvm.experimental.noalias.scope.decl(metadata !2062)
  tail call void @llvm.experimental.noalias.scope.decl(metadata !2064)
  tail call void @llvm.experimental.noalias.scope.decl(metadata !2067)
  tail call void @llvm.experimental.noalias.scope.decl(metadata !2069)
  tail call void @llvm.experimental.noalias.scope.decl(metadata !2072)
  tail call void @llvm.experimental.noalias.scope.decl(metadata !2074)
  tail call void @llvm.experimental.noalias.scope.decl(metadata !2077)
  %_3.i.i.i.i25 = load i32, ptr %_9.i, align 4, !alias.scope !2079, !noalias !2080, !noundef !37
  %_4.i.i.i.i26 = load i32, ptr %pivot, align 4, !alias.scope !2080, !noalias !2079, !noundef !37
  %_0.i27 = icmp slt i32 %_3.i.i.i.i25, %_4.i.i.i.i26
  %4 = getelementptr inbounds i8, ptr %state.sroa.43.188, i64 -8
  %dst_base.sroa.0.0.i29 = select i1 %_0.i27, ptr %scratch.0, ptr %4
  %dst.i31 = getelementptr inbounds nuw i32, ptr %dst_base.sroa.0.0.i29, i64 %3
  store i32 %_3.i.i.i.i25, ptr %dst.i31, align 4, !noalias !2081
  %_8.i33 = zext i1 %_0.i27 to i64
  %5 = add i64 %3, %_8.i33
  %_9.i34 = getelementptr inbounds nuw i8, ptr %state.sroa.9.187, i64 8
  tail call void @llvm.experimental.noalias.scope.decl(metadata !2084)
  tail call void @llvm.experimental.noalias.scope.decl(metadata !2087)
  tail call void @llvm.experimental.noalias.scope.decl(metadata !2089)
  tail call void @llvm.experimental.noalias.scope.decl(metadata !2092)
  tail call void @llvm.experimental.noalias.scope.decl(metadata !2094)
  tail call void @llvm.experimental.noalias.scope.decl(metadata !2097)
  tail call void @llvm.experimental.noalias.scope.decl(metadata !2099)
  tail call void @llvm.experimental.noalias.scope.decl(metadata !2102)
  %_3.i.i.i.i35 = load i32, ptr %_9.i34, align 4, !alias.scope !2104, !noalias !2105, !noundef !37
  %_4.i.i.i.i36 = load i32, ptr %pivot, align 4, !alias.scope !2105, !noalias !2104, !noundef !37
  %_0.i37 = icmp slt i32 %_3.i.i.i.i35, %_4.i.i.i.i36
  %6 = getelementptr inbounds i8, ptr %state.sroa.43.188, i64 -12
  %dst_base.sroa.0.0.i39 = select i1 %_0.i37, ptr %scratch.0, ptr %6
  %dst.i41 = getelementptr inbounds nuw i32, ptr %dst_base.sroa.0.0.i39, i64 %5
  store i32 %_3.i.i.i.i35, ptr %dst.i41, align 4, !noalias !2106
  %_8.i43 = zext i1 %_0.i37 to i64
  %7 = add i64 %5, %_8.i43
  %_9.i44 = getelementptr inbounds nuw i8, ptr %state.sroa.9.187, i64 12
  tail call void @llvm.experimental.noalias.scope.decl(metadata !2109)
  tail call void @llvm.experimental.noalias.scope.decl(metadata !2112)
  tail call void @llvm.experimental.noalias.scope.decl(metadata !2114)
  tail call void @llvm.experimental.noalias.scope.decl(metadata !2117)
  tail call void @llvm.experimental.noalias.scope.decl(metadata !2119)
  tail call void @llvm.experimental.noalias.scope.decl(metadata !2122)
  tail call void @llvm.experimental.noalias.scope.decl(metadata !2124)
  tail call void @llvm.experimental.noalias.scope.decl(metadata !2127)
  %_3.i.i.i.i45 = load i32, ptr %_9.i44, align 4, !alias.scope !2129, !noalias !2130, !noundef !37
  %_4.i.i.i.i46 = load i32, ptr %pivot, align 4, !alias.scope !2130, !noalias !2129, !noundef !37
  %_0.i47 = icmp slt i32 %_3.i.i.i.i45, %_4.i.i.i.i46
  %8 = getelementptr inbounds i8, ptr %state.sroa.43.188, i64 -16
  %dst_base.sroa.0.0.i49 = select i1 %_0.i47, ptr %scratch.0, ptr %8
  %dst.i51 = getelementptr inbounds nuw i32, ptr %dst_base.sroa.0.0.i49, i64 %7
  store i32 %_3.i.i.i.i45, ptr %dst.i51, align 4, !noalias !2131
  %_8.i53 = zext i1 %_0.i47 to i64
  %9 = add i64 %7, %_8.i53
  %_9.i54 = getelementptr inbounds nuw i8, ptr %state.sroa.9.187, i64 16
  %_19 = icmp ult ptr %_9.i54, %unroll_end
  br i1 %_19, label %bb6, label %bb16

bb16:                                             ; preds = %bb6, %bb3
  %state.sroa.27.1.lcssa = phi i64 [ %state.sroa.27.0, %bb3 ], [ %9, %bb6 ]
  %state.sroa.9.1.lcssa = phi ptr [ %state.sroa.9.0, %bb3 ], [ %_9.i54, %bb6 ]
  %state.sroa.43.1.lcssa = phi ptr [ %state.sroa.43.0, %bb3 ], [ %8, %bb6 ]
  %loop_end = getelementptr inbounds nuw i32, ptr %v.0, i64 %pivot_pos.sroa.0.0
  %_4791 = icmp ult ptr %state.sroa.9.1.lcssa, %loop_end
  br i1 %_4791, label %bb18, label %bb21

bb21:                                             ; preds = %bb18, %bb16
  %state.sroa.27.2.lcssa = phi i64 [ %state.sroa.27.1.lcssa, %bb16 ], [ %11, %bb18 ]
  %state.sroa.9.2.lcssa = phi ptr [ %state.sroa.9.1.lcssa, %bb16 ], [ %_9.i64, %bb18 ]
  %state.sroa.43.2.lcssa = phi ptr [ %state.sroa.43.1.lcssa, %bb16 ], [ %10, %bb18 ]
  %_55 = icmp eq i64 %pivot_pos.sroa.0.0, %v.1
  br i1 %_55, label %bb22, label %bb23

bb18:                                             ; preds = %bb16, %bb18
  %state.sroa.43.294 = phi ptr [ %10, %bb18 ], [ %state.sroa.43.1.lcssa, %bb16 ]
  %state.sroa.9.293 = phi ptr [ %_9.i64, %bb18 ], [ %state.sroa.9.1.lcssa, %bb16 ]
  %state.sroa.27.292 = phi i64 [ %11, %bb18 ], [ %state.sroa.27.1.lcssa, %bb16 ]
  tail call void @llvm.experimental.noalias.scope.decl(metadata !2134)
  tail call void @llvm.experimental.noalias.scope.decl(metadata !2137)
  tail call void @llvm.experimental.noalias.scope.decl(metadata !2139)
  tail call void @llvm.experimental.noalias.scope.decl(metadata !2142)
  tail call void @llvm.experimental.noalias.scope.decl(metadata !2144)
  tail call void @llvm.experimental.noalias.scope.decl(metadata !2147)
  tail call void @llvm.experimental.noalias.scope.decl(metadata !2149)
  tail call void @llvm.experimental.noalias.scope.decl(metadata !2152)
  %_3.i.i.i.i55 = load i32, ptr %state.sroa.9.293, align 4, !alias.scope !2154, !noalias !2155, !noundef !37
  %_4.i.i.i.i56 = load i32, ptr %pivot, align 4, !alias.scope !2155, !noalias !2154, !noundef !37
  %_0.i57 = icmp slt i32 %_3.i.i.i.i55, %_4.i.i.i.i56
  %10 = getelementptr inbounds i8, ptr %state.sroa.43.294, i64 -4
  %dst_base.sroa.0.0.i59 = select i1 %_0.i57, ptr %scratch.0, ptr %10
  %dst.i61 = getelementptr inbounds nuw i32, ptr %dst_base.sroa.0.0.i59, i64 %state.sroa.27.292
  store i32 %_3.i.i.i.i55, ptr %dst.i61, align 4, !noalias !2156
  %_8.i63 = zext i1 %_0.i57 to i64
  %11 = add i64 %state.sroa.27.292, %_8.i63
  %_9.i64 = getelementptr inbounds nuw i8, ptr %state.sroa.9.293, i64 4
  %_47 = icmp ult ptr %_9.i64, %loop_end
  br i1 %_47, label %bb18, label %bb21

bb23:                                             ; preds = %bb21
  %12 = getelementptr inbounds i8, ptr %state.sroa.43.2.lcssa, i64 -4
  %dst_base.sroa.0.0.i66 = select i1 %pivot_goes_left, ptr %scratch.0, ptr %12
  %dst.i68 = getelementptr inbounds nuw i32, ptr %dst_base.sroa.0.0.i66, i64 %state.sroa.27.2.lcssa
  %13 = load i32, ptr %state.sroa.9.2.lcssa, align 4, !noalias !2159
  store i32 %13, ptr %dst.i68, align 4, !noalias !2159
  %14 = add i64 %state.sroa.27.2.lcssa, %_8.i70
  %_9.i71 = getelementptr inbounds nuw i8, ptr %state.sroa.9.2.lcssa, i64 4
  br label %bb3

bb22:                                             ; preds = %bb21
  %15 = shl i64 %state.sroa.27.2.lcssa, 2
  tail call void @llvm.memcpy.p0.p0.i64(ptr nonnull align 4 %v.0, ptr nonnull align 4 %scratch.0, i64 %15, i1 false)
  %_63 = sub i64 %v.1, %state.sroa.27.2.lcssa
  %_9798.not = icmp eq i64 %v.1, %state.sroa.27.2.lcssa
  br i1 %_9798.not, label %bb30, label %bb42.lr.ph

bb42.lr.ph:                                       ; preds = %bb22
  %16 = getelementptr i32, ptr %v.0, i64 %state.sroa.27.2.lcssa
  %xtraiter = and i64 %_63, 3
  %17 = sub i64 %state.sroa.27.2.lcssa, %v.1
  %18 = icmp ugt i64 %17, -4
  br i1 %18, label %bb30.loopexit.unr-lcssa, label %bb42.lr.ph.new

bb42.lr.ph.new:                                   ; preds = %bb42.lr.ph
  %unroll_iter = and i64 %_63, -4
  %invariant.gep = getelementptr i8, ptr %16, i64 4
  %invariant.gep114 = getelementptr i8, ptr %16, i64 8
  %invariant.gep116 = getelementptr i8, ptr %16, i64 12
  br label %bb42

bb42:                                             ; preds = %bb42, %bb42.lr.ph.new
  %iter.sroa.0.099 = phi i64 [ 0, %bb42.lr.ph.new ], [ %29, %bb42 ]
  %niter = phi i64 [ 0, %bb42.lr.ph.new ], [ %niter.next.3, %bb42 ]
  %19 = getelementptr i32, ptr %16, i64 %iter.sroa.0.099
  %20 = xor i64 %iter.sroa.0.099, -1
  %21 = getelementptr i32, ptr %_86, i64 %20
  %22 = load i32, ptr %21, align 4
  store i32 %22, ptr %19, align 4
  %gep = getelementptr i32, ptr %invariant.gep, i64 %iter.sroa.0.099
  %23 = xor i64 %iter.sroa.0.099, -2
  %24 = getelementptr i32, ptr %_86, i64 %23
  %25 = load i32, ptr %24, align 4
  store i32 %25, ptr %gep, align 4
  %gep115 = getelementptr i32, ptr %invariant.gep114, i64 %iter.sroa.0.099
  %26 = xor i64 %iter.sroa.0.099, -3
  %27 = getelementptr i32, ptr %_86, i64 %26
  %28 = load i32, ptr %27, align 4
  store i32 %28, ptr %gep115, align 4
  %29 = add nuw i64 %iter.sroa.0.099, 4
  %gep117 = getelementptr i32, ptr %invariant.gep116, i64 %iter.sroa.0.099
  %30 = xor i64 %iter.sroa.0.099, -4
  %31 = getelementptr i32, ptr %_86, i64 %30
  %32 = load i32, ptr %31, align 4
  store i32 %32, ptr %gep117, align 4
  %niter.next.3 = add i64 %niter, 4
  %niter.ncmp.3 = icmp eq i64 %niter.next.3, %unroll_iter
  br i1 %niter.ncmp.3, label %bb30.loopexit.unr-lcssa, label %bb42

bb30.loopexit.unr-lcssa:                          ; preds = %bb42, %bb42.lr.ph
  %iter.sroa.0.099.unr = phi i64 [ 0, %bb42.lr.ph ], [ %29, %bb42 ]
  %lcmp.mod.not = icmp eq i64 %xtraiter, 0
  br i1 %lcmp.mod.not, label %bb30, label %bb42.epil

bb42.epil:                                        ; preds = %bb30.loopexit.unr-lcssa, %bb42.epil
  %iter.sroa.0.099.epil = phi i64 [ %33, %bb42.epil ], [ %iter.sroa.0.099.unr, %bb30.loopexit.unr-lcssa ]
  %epil.iter = phi i64 [ %epil.iter.next, %bb42.epil ], [ 0, %bb30.loopexit.unr-lcssa ]
  %33 = add nuw i64 %iter.sroa.0.099.epil, 1
  %34 = getelementptr i32, ptr %16, i64 %iter.sroa.0.099.epil
  %35 = xor i64 %iter.sroa.0.099.epil, -1
  %36 = getelementptr i32, ptr %_86, i64 %35
  %37 = load i32, ptr %36, align 4
  store i32 %37, ptr %34, align 4
  %epil.iter.next = add i64 %epil.iter, 1
  %epil.iter.cmp.not = icmp eq i64 %epil.iter.next, %xtraiter
  br i1 %epil.iter.cmp.not, label %bb30, label %bb42.epil, !llvm.loop !2162

bb30:                                             ; preds = %bb30.loopexit.unr-lcssa, %bb42.epil, %bb22
  ret i64 %state.sroa.27.2.lcssa
}

; core::slice::sort::stable::quicksort::stable_partition
; Function Attrs: nounwind nonlazybind memory(argmem: readwrite, inaccessiblemem: readwrite) uwtable
define noundef i64 @_ZN4core5slice4sort6stable9quicksort16stable_partition17h5440239c8a650de6E(ptr noalias noundef nonnull align 4 captures(address) %v.0, i64 noundef range(i64 0, 2305843009213693952) %v.1, ptr noalias noundef nonnull align 4 captures(none) %scratch.0, i64 noundef range(i64 0, 2305843009213693952) %scratch.1, i64 noundef %0, i1 noundef zeroext %pivot_goes_left, ptr noalias readnone align 8 captures(none) %is_less) unnamed_addr #7 {
start:
  %_8 = icmp samesign uge i64 %scratch.1, %v.1
  %.not = icmp ult i64 %0, %v.1
  %or.cond = and i1 %_8, %.not
  br i1 %or.cond, label %bb33, label %bb31, !prof !2033

bb33:                                             ; preds = %start
  %pivot = getelementptr inbounds nuw i32, ptr %v.0, i64 %0
  %_86 = getelementptr i32, ptr %scratch.0, i64 %v.1
  %_8.i70 = zext i1 %pivot_goes_left to i64
  br label %bb3

bb31:                                             ; preds = %start
  tail call void @llvm.trap()
  unreachable

bb3:                                              ; preds = %bb23, %bb33
  %state.sroa.27.0 = phi i64 [ 0, %bb33 ], [ %14, %bb23 ]
  %state.sroa.9.0 = phi ptr [ %v.0, %bb33 ], [ %_9.i71, %bb23 ]
  %state.sroa.43.0 = phi ptr [ %_86, %bb33 ], [ %12, %bb23 ]
  %pivot_pos.sroa.0.0 = phi i64 [ %0, %bb33 ], [ %v.1, %bb23 ]
  %1 = tail call i64 @llvm.usub.sat.i64(i64 %pivot_pos.sroa.0.0, i64 3)
  %unroll_end = getelementptr inbounds nuw i32, ptr %v.0, i64 %1
  %_1985 = icmp ult ptr %state.sroa.9.0, %unroll_end
  br i1 %_1985, label %bb6, label %bb16

bb6:                                              ; preds = %bb3, %bb6
  %state.sroa.43.188 = phi ptr [ %8, %bb6 ], [ %state.sroa.43.0, %bb3 ]
  %state.sroa.9.187 = phi ptr [ %_9.i54, %bb6 ], [ %state.sroa.9.0, %bb3 ]
  %state.sroa.27.186 = phi i64 [ %9, %bb6 ], [ %state.sroa.27.0, %bb3 ]
  tail call void @llvm.experimental.noalias.scope.decl(metadata !2164)
  tail call void @llvm.experimental.noalias.scope.decl(metadata !2167)
  tail call void @llvm.experimental.noalias.scope.decl(metadata !2169)
  tail call void @llvm.experimental.noalias.scope.decl(metadata !2172)
  tail call void @llvm.experimental.noalias.scope.decl(metadata !2174)
  tail call void @llvm.experimental.noalias.scope.decl(metadata !2177)
  tail call void @llvm.experimental.noalias.scope.decl(metadata !2179)
  tail call void @llvm.experimental.noalias.scope.decl(metadata !2182)
  tail call void @llvm.experimental.noalias.scope.decl(metadata !2184)
  tail call void @llvm.experimental.noalias.scope.decl(metadata !2187)
  %_3.i.i.i.i.i = load i32, ptr %pivot, align 4, !alias.scope !2189, !noalias !2190, !noundef !37
  %_4.i.i.i.i.i = load i32, ptr %state.sroa.9.187, align 4, !alias.scope !2190, !noalias !2189, !noundef !37
  %_0.i.i = icmp sge i32 %_3.i.i.i.i.i, %_4.i.i.i.i.i
  %2 = getelementptr inbounds i8, ptr %state.sroa.43.188, i64 -4
  %dst_base.sroa.0.0.i = select i1 %_0.i.i, ptr %scratch.0, ptr %2
  %dst.i = getelementptr inbounds nuw i32, ptr %dst_base.sroa.0.0.i, i64 %state.sroa.27.186
  store i32 %_4.i.i.i.i.i, ptr %dst.i, align 4, !noalias !2191
  %_8.i = zext i1 %_0.i.i to i64
  %3 = add i64 %state.sroa.27.186, %_8.i
  %_9.i = getelementptr inbounds nuw i8, ptr %state.sroa.9.187, i64 4
  tail call void @llvm.experimental.noalias.scope.decl(metadata !2194)
  tail call void @llvm.experimental.noalias.scope.decl(metadata !2197)
  tail call void @llvm.experimental.noalias.scope.decl(metadata !2199)
  tail call void @llvm.experimental.noalias.scope.decl(metadata !2202)
  tail call void @llvm.experimental.noalias.scope.decl(metadata !2204)
  tail call void @llvm.experimental.noalias.scope.decl(metadata !2207)
  tail call void @llvm.experimental.noalias.scope.decl(metadata !2209)
  tail call void @llvm.experimental.noalias.scope.decl(metadata !2212)
  tail call void @llvm.experimental.noalias.scope.decl(metadata !2214)
  tail call void @llvm.experimental.noalias.scope.decl(metadata !2217)
  %_3.i.i.i.i.i25 = load i32, ptr %pivot, align 4, !alias.scope !2219, !noalias !2220, !noundef !37
  %_4.i.i.i.i.i26 = load i32, ptr %_9.i, align 4, !alias.scope !2220, !noalias !2219, !noundef !37
  %_0.i.i27 = icmp sge i32 %_3.i.i.i.i.i25, %_4.i.i.i.i.i26
  %4 = getelementptr inbounds i8, ptr %state.sroa.43.188, i64 -8
  %dst_base.sroa.0.0.i29 = select i1 %_0.i.i27, ptr %scratch.0, ptr %4
  %dst.i31 = getelementptr inbounds nuw i32, ptr %dst_base.sroa.0.0.i29, i64 %3
  store i32 %_4.i.i.i.i.i26, ptr %dst.i31, align 4, !noalias !2221
  %_8.i33 = zext i1 %_0.i.i27 to i64
  %5 = add i64 %3, %_8.i33
  %_9.i34 = getelementptr inbounds nuw i8, ptr %state.sroa.9.187, i64 8
  tail call void @llvm.experimental.noalias.scope.decl(metadata !2224)
  tail call void @llvm.experimental.noalias.scope.decl(metadata !2227)
  tail call void @llvm.experimental.noalias.scope.decl(metadata !2229)
  tail call void @llvm.experimental.noalias.scope.decl(metadata !2232)
  tail call void @llvm.experimental.noalias.scope.decl(metadata !2234)
  tail call void @llvm.experimental.noalias.scope.decl(metadata !2237)
  tail call void @llvm.experimental.noalias.scope.decl(metadata !2239)
  tail call void @llvm.experimental.noalias.scope.decl(metadata !2242)
  tail call void @llvm.experimental.noalias.scope.decl(metadata !2244)
  tail call void @llvm.experimental.noalias.scope.decl(metadata !2247)
  %_3.i.i.i.i.i35 = load i32, ptr %pivot, align 4, !alias.scope !2249, !noalias !2250, !noundef !37
  %_4.i.i.i.i.i36 = load i32, ptr %_9.i34, align 4, !alias.scope !2250, !noalias !2249, !noundef !37
  %_0.i.i37 = icmp sge i32 %_3.i.i.i.i.i35, %_4.i.i.i.i.i36
  %6 = getelementptr inbounds i8, ptr %state.sroa.43.188, i64 -12
  %dst_base.sroa.0.0.i39 = select i1 %_0.i.i37, ptr %scratch.0, ptr %6
  %dst.i41 = getelementptr inbounds nuw i32, ptr %dst_base.sroa.0.0.i39, i64 %5
  store i32 %_4.i.i.i.i.i36, ptr %dst.i41, align 4, !noalias !2251
  %_8.i43 = zext i1 %_0.i.i37 to i64
  %7 = add i64 %5, %_8.i43
  %_9.i44 = getelementptr inbounds nuw i8, ptr %state.sroa.9.187, i64 12
  tail call void @llvm.experimental.noalias.scope.decl(metadata !2254)
  tail call void @llvm.experimental.noalias.scope.decl(metadata !2257)
  tail call void @llvm.experimental.noalias.scope.decl(metadata !2259)
  tail call void @llvm.experimental.noalias.scope.decl(metadata !2262)
  tail call void @llvm.experimental.noalias.scope.decl(metadata !2264)
  tail call void @llvm.experimental.noalias.scope.decl(metadata !2267)
  tail call void @llvm.experimental.noalias.scope.decl(metadata !2269)
  tail call void @llvm.experimental.noalias.scope.decl(metadata !2272)
  tail call void @llvm.experimental.noalias.scope.decl(metadata !2274)
  tail call void @llvm.experimental.noalias.scope.decl(metadata !2277)
  %_3.i.i.i.i.i45 = load i32, ptr %pivot, align 4, !alias.scope !2279, !noalias !2280, !noundef !37
  %_4.i.i.i.i.i46 = load i32, ptr %_9.i44, align 4, !alias.scope !2280, !noalias !2279, !noundef !37
  %_0.i.i47 = icmp sge i32 %_3.i.i.i.i.i45, %_4.i.i.i.i.i46
  %8 = getelementptr inbounds i8, ptr %state.sroa.43.188, i64 -16
  %dst_base.sroa.0.0.i49 = select i1 %_0.i.i47, ptr %scratch.0, ptr %8
  %dst.i51 = getelementptr inbounds nuw i32, ptr %dst_base.sroa.0.0.i49, i64 %7
  store i32 %_4.i.i.i.i.i46, ptr %dst.i51, align 4, !noalias !2281
  %_8.i53 = zext i1 %_0.i.i47 to i64
  %9 = add i64 %7, %_8.i53
  %_9.i54 = getelementptr inbounds nuw i8, ptr %state.sroa.9.187, i64 16
  %_19 = icmp ult ptr %_9.i54, %unroll_end
  br i1 %_19, label %bb6, label %bb16

bb16:                                             ; preds = %bb6, %bb3
  %state.sroa.27.1.lcssa = phi i64 [ %state.sroa.27.0, %bb3 ], [ %9, %bb6 ]
  %state.sroa.9.1.lcssa = phi ptr [ %state.sroa.9.0, %bb3 ], [ %_9.i54, %bb6 ]
  %state.sroa.43.1.lcssa = phi ptr [ %state.sroa.43.0, %bb3 ], [ %8, %bb6 ]
  %loop_end = getelementptr inbounds nuw i32, ptr %v.0, i64 %pivot_pos.sroa.0.0
  %_4791 = icmp ult ptr %state.sroa.9.1.lcssa, %loop_end
  br i1 %_4791, label %bb18, label %bb21

bb21:                                             ; preds = %bb18, %bb16
  %state.sroa.27.2.lcssa = phi i64 [ %state.sroa.27.1.lcssa, %bb16 ], [ %11, %bb18 ]
  %state.sroa.9.2.lcssa = phi ptr [ %state.sroa.9.1.lcssa, %bb16 ], [ %_9.i64, %bb18 ]
  %state.sroa.43.2.lcssa = phi ptr [ %state.sroa.43.1.lcssa, %bb16 ], [ %10, %bb18 ]
