; ModuleID = 'LEXICOGRAPHICAL_CONCATENATION_SUBSTRINGS_STRING_emit.aa11a84f957bb06-cgu.0'
source_filename = "LEXICOGRAPHICAL_CONCATENATION_SUBSTRINGS_STRING_emit.aa11a84f957bb06-cgu.0"
target datalayout = "e-m:e-p270:32:32-p271:32:32-p272:64:64-i64:64-i128:128-f80:128-n8:16:32:64-S128"
target triple = "x86_64-unknown-linux-gnu"

%"alloc::string::String" = type { %"alloc::vec::Vec<u8>" }
%"alloc::vec::Vec<u8>" = type { %"alloc::raw_vec::RawVec<u8>", i64 }
%"alloc::raw_vec::RawVec<u8>" = type { %"alloc::raw_vec::RawVecInner", %"core::marker::PhantomData<u8>" }
%"alloc::raw_vec::RawVecInner" = type { i64, ptr, %"alloc::alloc::Global" }
%"alloc::alloc::Global" = type {}
%"core::marker::PhantomData<u8>" = type {}

@alloc_d1084648e479974e70c9329824bf76f9 = private unnamed_addr constant [9 x i8] c"mid > len", align 1
@alloc_e8e5fd9f509afcb950667480b3e3e42a = private unnamed_addr constant [126 x i8] c"/root/.rustup/toolchains/stable-x86_64-unknown-linux-gnu/lib/rustlib/src/rust/library/core/src/slice/sort/stable/quicksort.rs\00", align 1
@alloc_58d434a1e795f965ef82c8e9c5db822a = private unnamed_addr constant <{ ptr, [16 x i8] }> <{ ptr @alloc_e8e5fd9f509afcb950667480b3e3e42a, [16 x i8] c"}\00\00\00\00\00\00\00J\00\00\00\1F\00\00\00" }>, align 8
@alloc_0766b232215672ee1bd2195fdb153938 = private unnamed_addr constant <{ ptr, [16 x i8] }> <{ ptr @alloc_e8e5fd9f509afcb950667480b3e3e42a, [16 x i8] c"}\00\00\00\00\00\00\00D\00\00\00\17\00\00\00" }>, align 8
@alloc_b70df69cce52d7d76923f104d33422fb = private unnamed_addr constant [149 x i8] c"/root/es/vert/vert/rust_funcs/cpp_transcoder/LEXICOGRAPHICAL_CONCATENATION_SUBSTRINGS_STRING/LEXICOGRAPHICAL_CONCATENATION_SUBSTRINGS_STRING_emit.rs\00", align 1
@alloc_4cce44244d9639ad41a74bd16b875a27 = private unnamed_addr constant <{ ptr, [16 x i8] }> <{ ptr @alloc_b70df69cce52d7d76923f104d33422fb, [16 x i8] c"\94\00\00\00\00\00\00\00#\00\00\00\1A\00\00\00" }>, align 8
@alloc_04774e36529a2f0ec64e4c14b859aaab = private unnamed_addr constant <{ ptr, [16 x i8] }> <{ ptr @alloc_b70df69cce52d7d76923f104d33422fb, [16 x i8] c"\94\00\00\00\00\00\00\00\1C\00\00\00\17\00\00\00" }>, align 8

; core::ptr::drop_in_place<alloc::vec::Vec<alloc::string::String>>
; Function Attrs: nounwind nonlazybind uwtable
define internal fastcc void @"_ZN4core3ptr65drop_in_place$LT$alloc..vec..Vec$LT$alloc..string..String$GT$$GT$17he3d388727106a310E"(ptr noalias noundef nonnull readonly align 8 captures(none) dereferenceable(24) %_1) unnamed_addr #0 personality ptr @rust_eh_personality {
start:
  tail call void @llvm.experimental.noalias.scope.decl(metadata !3)
  %0 = getelementptr inbounds nuw i8, ptr %_1, i64 8
  %_5.i = load ptr, ptr %0, align 8, !alias.scope !3, !nonnull !6, !noundef !6
  %1 = getelementptr inbounds nuw i8, ptr %_1, i64 16
  %len.i = load i64, ptr %1, align 8, !alias.scope !3, !noundef !6
  tail call void @llvm.experimental.noalias.scope.decl(metadata !7)
  %_711.i.i = icmp eq i64 %len.i, 0
  br i1 %_711.i.i, label %bb4, label %bb5.i.i

bb5.i.i:                                          ; preds = %start, %"_ZN4core3ptr42drop_in_place$LT$alloc..string..String$GT$17hde14ea688b292269E.exit.i.i"
  %_3.sroa.0.012.i.i = phi i64 [ %2, %"_ZN4core3ptr42drop_in_place$LT$alloc..string..String$GT$17hde14ea688b292269E.exit.i.i" ], [ 0, %start ]
  %_6.i.i = getelementptr inbounds nuw %"alloc::string::String", ptr %_5.i, i64 %_3.sroa.0.012.i.i
  %2 = add nuw i64 %_3.sroa.0.012.i.i, 1
  tail call void @llvm.experimental.noalias.scope.decl(metadata !10)
  tail call void @llvm.experimental.noalias.scope.decl(metadata !13)
  tail call void @llvm.experimental.noalias.scope.decl(metadata !16)
  tail call void @llvm.experimental.noalias.scope.decl(metadata !19)
  tail call void @llvm.experimental.noalias.scope.decl(metadata !22)
  %self1.i.i.i.i1.i.i.i.i = load i64, ptr %_6.i.i, align 8, !range !25, !alias.scope !26, !noalias !29, !noundef !6
  %_6.i.i.i.i2.i.i.i.i = icmp eq i64 %self1.i.i.i.i1.i.i.i.i, 0
  br i1 %_6.i.i.i.i2.i.i.i.i, label %"_ZN4core3ptr42drop_in_place$LT$alloc..string..String$GT$17hde14ea688b292269E.exit.i.i", label %bb2.i.i.i3.i.i.i.i

bb2.i.i.i3.i.i.i.i:                               ; preds = %bb5.i.i
  %3 = getelementptr inbounds nuw i8, ptr %_6.i.i, i64 8
  %self3.i.i.i.i4.i.i.i.i = load ptr, ptr %3, align 8, !alias.scope !26, !noalias !29, !nonnull !6, !noundef !6
; call __rustc::__rust_dealloc
  tail call void @_RNvCsdBezzDwma51_7___rustc14___rust_dealloc(ptr noundef nonnull %self3.i.i.i.i4.i.i.i.i, i64 noundef %self1.i.i.i.i1.i.i.i.i, i64 noundef range(i64 1, -9223372036854775807) 1) #25, !noalias !31
  br label %"_ZN4core3ptr42drop_in_place$LT$alloc..string..String$GT$17hde14ea688b292269E.exit.i.i"

"_ZN4core3ptr42drop_in_place$LT$alloc..string..String$GT$17hde14ea688b292269E.exit.i.i": ; preds = %bb2.i.i.i3.i.i.i.i, %bb5.i.i
  %_7.i.i = icmp eq i64 %2, %len.i
  br i1 %_7.i.i, label %bb4, label %bb5.i.i

bb4:                                              ; preds = %"_ZN4core3ptr42drop_in_place$LT$alloc..string..String$GT$17hde14ea688b292269E.exit.i.i", %start
  tail call void @llvm.experimental.noalias.scope.decl(metadata !32)
  tail call void @llvm.experimental.noalias.scope.decl(metadata !35)
  tail call void @llvm.experimental.noalias.scope.decl(metadata !38)
  %self1.i.i.i.i1 = load i64, ptr %_1, align 8, !range !25, !alias.scope !41, !noalias !44, !noundef !6
  %_6.i.i.i.i2 = icmp eq i64 %self1.i.i.i.i1, 0
  br i1 %_6.i.i.i.i2, label %"_ZN4core3ptr72drop_in_place$LT$alloc..raw_vec..RawVec$LT$alloc..string..String$GT$$GT$17hf3d24620272a5909E.exit5", label %bb2.i.i.i3

bb2.i.i.i3:                                       ; preds = %bb4
  %4 = mul nuw i64 %self1.i.i.i.i1, 24
; call __rustc::__rust_dealloc
  tail call void @_RNvCsdBezzDwma51_7___rustc14___rust_dealloc(ptr noundef nonnull %_5.i, i64 noundef %4, i64 noundef range(i64 1, -9223372036854775807) 8) #25, !noalias !46
  br label %"_ZN4core3ptr72drop_in_place$LT$alloc..raw_vec..RawVec$LT$alloc..string..String$GT$$GT$17hf3d24620272a5909E.exit5"

"_ZN4core3ptr72drop_in_place$LT$alloc..raw_vec..RawVec$LT$alloc..string..String$GT$$GT$17hf3d24620272a5909E.exit5": ; preds = %bb4, %bb2.i.i.i3
  ret void
}

; core::slice::sort::shared::pivot::median3_rec
; Function Attrs: nofree nosync nounwind nonlazybind memory(read, inaccessiblemem: readwrite) uwtable
define internal fastcc noundef nonnull ptr @_ZN4core5slice4sort6shared5pivot11median3_rec17h0a600e94c9b56343E(ptr noundef nonnull %0, ptr noundef nonnull %1, ptr noundef nonnull %2, i64 noundef range(i64 0, 288230376151711744) %n) unnamed_addr #1 {
start:
  %_6 = icmp samesign ugt i64 %n, 7
  br i1 %_6, label %bb1, label %bb6

bb1:                                              ; preds = %start
  %n84 = lshr i64 %n, 3
  %count = shl nuw nsw i64 %n84, 2
  %_10 = getelementptr inbounds nuw i32, ptr %0, i64 %count
  %count1 = mul nuw nsw i64 %n84, 7
  %_13 = getelementptr inbounds nuw i32, ptr %0, i64 %count1
; call core::slice::sort::shared::pivot::median3_rec
  %3 = tail call fastcc noundef ptr @_ZN4core5slice4sort6shared5pivot11median3_rec17h0a600e94c9b56343E(ptr noundef %0, ptr noundef %_10, ptr noundef %_13, i64 noundef %n84)
  %_16 = getelementptr inbounds nuw i32, ptr %1, i64 %count
  %_18 = getelementptr inbounds nuw i32, ptr %1, i64 %count1
; call core::slice::sort::shared::pivot::median3_rec
  %4 = tail call fastcc noundef ptr @_ZN4core5slice4sort6shared5pivot11median3_rec17h0a600e94c9b56343E(ptr noundef %1, ptr noundef %_16, ptr noundef %_18, i64 noundef %n84)
  %_20 = getelementptr inbounds nuw i32, ptr %2, i64 %count
  %_22 = getelementptr inbounds nuw i32, ptr %2, i64 %count1
; call core::slice::sort::shared::pivot::median3_rec
  %5 = tail call fastcc noundef ptr @_ZN4core5slice4sort6shared5pivot11median3_rec17h0a600e94c9b56343E(ptr noundef %2, ptr noundef %_20, ptr noundef %_22, i64 noundef %n84)
  br label %bb6

bb6:                                              ; preds = %start, %bb1
  %c.sroa.0.0 = phi ptr [ %5, %bb1 ], [ %2, %start ]
  %b.sroa.0.0 = phi ptr [ %4, %bb1 ], [ %1, %start ]
  %a.sroa.0.0 = phi ptr [ %3, %bb1 ], [ %0, %start ]
  tail call void @llvm.experimental.noalias.scope.decl(metadata !47)
  tail call void @llvm.experimental.noalias.scope.decl(metadata !50)
  tail call void @llvm.experimental.noalias.scope.decl(metadata !52), !noalias !55
  tail call void @llvm.experimental.noalias.scope.decl(metadata !58), !noalias !55
  tail call void @llvm.experimental.noalias.scope.decl(metadata !60), !noalias !55
  tail call void @llvm.experimental.noalias.scope.decl(metadata !63), !noalias !55
  %_3.i.i.i = load i32, ptr %a.sroa.0.0, align 4, !alias.scope !65, !noalias !66, !noundef !6
  %_4.i.i.i = load i32, ptr %b.sroa.0.0, align 4, !alias.scope !67, !noalias !68, !noundef !6
  %_0.i = icmp slt i32 %_3.i.i.i, %_4.i.i.i
  %_4.i.i.i6 = load i32, ptr %c.sroa.0.0, align 4, !alias.scope !69, !noalias !76, !noundef !6
  %_0.i7 = icmp slt i32 %_3.i.i.i, %_4.i.i.i6
  %6 = xor i1 %_0.i, %_0.i7
  %_0.i10 = icmp slt i32 %_4.i.i.i, %_4.i.i.i6
  %_12.i = xor i1 %_0.i, %_0.i10
  %c.b.i = select i1 %_12.i, ptr %c.sroa.0.0, ptr %b.sroa.0.0
  %_0.sroa.0.0.i = select i1 %6, ptr %a.sroa.0.0, ptr %c.b.i
  ret ptr %_0.sroa.0.0.i
}

; core::slice::sort::shared::pivot::median3_rec
; Function Attrs: nofree nounwind nonlazybind memory(read, inaccessiblemem: readwrite) uwtable
define internal fastcc noundef nonnull ptr @_ZN4core5slice4sort6shared5pivot11median3_rec17h99e7361c9dd75cc6E(ptr noundef nonnull %0, ptr noundef nonnull %1, ptr noundef nonnull %2, i64 noundef range(i64 0, 48038396025285291) %n) unnamed_addr #2 {
start:
  %_6 = icmp samesign ugt i64 %n, 7
  br i1 %_6, label %bb1, label %bb6

bb1:                                              ; preds = %start
  %n84 = lshr i64 %n, 3
  %count = shl nuw nsw i64 %n84, 2
  %_10 = getelementptr inbounds nuw %"alloc::string::String", ptr %0, i64 %count
  %count1 = mul nuw nsw i64 %n84, 7
  %_13 = getelementptr inbounds nuw %"alloc::string::String", ptr %0, i64 %count1
; call core::slice::sort::shared::pivot::median3_rec
  %3 = tail call fastcc noundef ptr @_ZN4core5slice4sort6shared5pivot11median3_rec17h99e7361c9dd75cc6E(ptr noundef %0, ptr noundef %_10, ptr noundef %_13, i64 noundef %n84)
  %_16 = getelementptr inbounds nuw %"alloc::string::String", ptr %1, i64 %count
  %_18 = getelementptr inbounds nuw %"alloc::string::String", ptr %1, i64 %count1
; call core::slice::sort::shared::pivot::median3_rec
  %4 = tail call fastcc noundef ptr @_ZN4core5slice4sort6shared5pivot11median3_rec17h99e7361c9dd75cc6E(ptr noundef %1, ptr noundef %_16, ptr noundef %_18, i64 noundef %n84)
  %_20 = getelementptr inbounds nuw %"alloc::string::String", ptr %2, i64 %count
  %_22 = getelementptr inbounds nuw %"alloc::string::String", ptr %2, i64 %count1
; call core::slice::sort::shared::pivot::median3_rec
  %5 = tail call fastcc noundef ptr @_ZN4core5slice4sort6shared5pivot11median3_rec17h99e7361c9dd75cc6E(ptr noundef %2, ptr noundef %_20, ptr noundef %_22, i64 noundef %n84)
  br label %bb6

bb6:                                              ; preds = %start, %bb1
  %c.sroa.0.0 = phi ptr [ %5, %bb1 ], [ %2, %start ]
  %b.sroa.0.0 = phi ptr [ %4, %bb1 ], [ %1, %start ]
  %a.sroa.0.0 = phi ptr [ %3, %bb1 ], [ %0, %start ]
  tail call void @llvm.experimental.noalias.scope.decl(metadata !80)
  tail call void @llvm.experimental.noalias.scope.decl(metadata !83)
  tail call void @llvm.experimental.noalias.scope.decl(metadata !85), !noalias !88
  tail call void @llvm.experimental.noalias.scope.decl(metadata !91), !noalias !88
  tail call void @llvm.experimental.noalias.scope.decl(metadata !93), !noalias !88
  tail call void @llvm.experimental.noalias.scope.decl(metadata !96), !noalias !88
  tail call void @llvm.experimental.noalias.scope.decl(metadata !98), !noalias !88
  tail call void @llvm.experimental.noalias.scope.decl(metadata !101), !noalias !88
  %6 = getelementptr inbounds nuw i8, ptr %a.sroa.0.0, i64 8
  %_7.i.i.i.i = load ptr, ptr %6, align 8, !alias.scope !103, !noalias !104, !nonnull !6, !noundef !6
  %7 = getelementptr inbounds nuw i8, ptr %a.sroa.0.0, i64 16
  %len1.i.i.i.i = load i64, ptr %7, align 8, !alias.scope !103, !noalias !104, !noundef !6
  %8 = getelementptr inbounds nuw i8, ptr %b.sroa.0.0, i64 8
  %_14.i.i.i.i = load ptr, ptr %8, align 8, !alias.scope !105, !noalias !106, !nonnull !6, !noundef !6
  %9 = getelementptr inbounds nuw i8, ptr %b.sroa.0.0, i64 16
  %10 = load i64, ptr %9, align 8, !alias.scope !105, !noalias !106, !noundef !6
  %spec.store.select.i.i.i.i.i.i = tail call i64 @llvm.umin.i64(i64 range(i64 0, -9223372036854775808) %len1.i.i.i.i, i64 range(i64 0, -9223372036854775808) %10)
  %11 = tail call i32 @memcmp(ptr nonnull readonly align 1 %_7.i.i.i.i, ptr nonnull readonly align 1 %_14.i.i.i.i, i64 %spec.store.select.i.i.i.i.i.i), !alias.scope !107, !noalias !114
  %12 = sext i32 %11 to i64
  %_15.i.i.i.i.i.i = icmp eq i32 %11, 0
  %diff.i.i.i.i.i.i = sub nsw i64 %len1.i.i.i.i, %10
  %spec.select.i.i.i.i.i.i = select i1 %_15.i.i.i.i.i.i, i64 %diff.i.i.i.i.i.i, i64 %12
  tail call void @llvm.experimental.noalias.scope.decl(metadata !115)
  tail call void @llvm.experimental.noalias.scope.decl(metadata !118)
  tail call void @llvm.experimental.noalias.scope.decl(metadata !121)
  tail call void @llvm.experimental.noalias.scope.decl(metadata !124)
  %13 = getelementptr inbounds nuw i8, ptr %c.sroa.0.0, i64 8
  %_14.i.i.i.i7 = load ptr, ptr %13, align 8, !alias.scope !127, !noalias !128, !nonnull !6, !noundef !6
  %14 = getelementptr inbounds nuw i8, ptr %c.sroa.0.0, i64 16
  %15 = load i64, ptr %14, align 8, !alias.scope !127, !noalias !128, !noundef !6
  %spec.store.select.i.i.i.i.i.i8 = tail call i64 @llvm.umin.i64(i64 range(i64 0, -9223372036854775808) %len1.i.i.i.i, i64 range(i64 0, -9223372036854775808) %15)
  %16 = tail call i32 @memcmp(ptr nonnull readonly align 1 %_7.i.i.i.i, ptr nonnull readonly align 1 %_14.i.i.i.i7, i64 %spec.store.select.i.i.i.i.i.i8), !alias.scope !133, !noalias !140
  %17 = sext i32 %16 to i64
  %_15.i.i.i.i.i.i9 = icmp eq i32 %16, 0
  %diff.i.i.i.i.i.i10 = sub nsw i64 %len1.i.i.i.i, %15
  %spec.select.i.i.i.i.i.i11 = select i1 %_15.i.i.i.i.i.i9, i64 %diff.i.i.i.i.i.i10, i64 %17
  %18 = xor i64 %spec.select.i.i.i.i.i.i11, %spec.select.i.i.i.i.i.i
  %19 = icmp slt i64 %18, 0
  br i1 %19, label %_ZN4core5slice4sort6shared5pivot7median317h22c231397570fc7bE.exit, label %bb3.i

bb3.i:                                            ; preds = %bb6
  %spec.store.select.i.i.i.i.i.i15 = tail call i64 @llvm.umin.i64(i64 range(i64 0, -9223372036854775808) %10, i64 range(i64 0, -9223372036854775808) %15)
  %20 = tail call i32 @memcmp(ptr nonnull readonly align 1 %_14.i.i.i.i, ptr nonnull readonly align 1 %_14.i.i.i.i7, i64 %spec.store.select.i.i.i.i.i.i15), !alias.scope !141, !noalias !148
  %21 = sext i32 %20 to i64
  %_15.i.i.i.i.i.i16 = icmp eq i32 %20, 0
  %diff.i.i.i.i.i.i17 = sub nsw i64 %10, %15
  %spec.select.i.i.i.i.i.i18 = select i1 %_15.i.i.i.i.i.i16, i64 %diff.i.i.i.i.i.i17, i64 %21
  %22 = xor i64 %spec.select.i.i.i.i.i.i18, %spec.select.i.i.i.i.i.i
  %_12.i = icmp slt i64 %22, 0
  %c.b.i = select i1 %_12.i, ptr %c.sroa.0.0, ptr %b.sroa.0.0
  br label %_ZN4core5slice4sort6shared5pivot7median317h22c231397570fc7bE.exit

_ZN4core5slice4sort6shared5pivot7median317h22c231397570fc7bE.exit: ; preds = %bb6, %bb3.i
  %_0.sroa.0.0.i = phi ptr [ %a.sroa.0.0, %bb6 ], [ %c.b.i, %bb3.i ]
  ret ptr %_0.sroa.0.0.i
}

; core::slice::sort::shared::smallsort::sort4_stable
; Function Attrs: mustprogress nofree norecurse nounwind nonlazybind willreturn memory(read, argmem: readwrite, inaccessiblemem: readwrite) uwtable
define internal fastcc void @_ZN4core5slice4sort6shared9smallsort12sort4_stable17h8dbcb2c0d021ad35E(ptr noundef nonnull readonly captures(none) %v_base, ptr noundef nonnull writeonly captures(none) initializes((0, 96)) %dst) unnamed_addr #3 personality ptr @rust_eh_personality {
start:
  tail call void @llvm.experimental.noalias.scope.decl(metadata !161)
  tail call void @llvm.experimental.noalias.scope.decl(metadata !164)
  tail call void @llvm.experimental.noalias.scope.decl(metadata !166)
  tail call void @llvm.experimental.noalias.scope.decl(metadata !169)
  tail call void @llvm.experimental.noalias.scope.decl(metadata !171)
  tail call void @llvm.experimental.noalias.scope.decl(metadata !174)
  tail call void @llvm.experimental.noalias.scope.decl(metadata !176)
  tail call void @llvm.experimental.noalias.scope.decl(metadata !179)
  %0 = getelementptr inbounds nuw i8, ptr %v_base, i64 32
  %_7.i.i.i.i = load ptr, ptr %0, align 8, !alias.scope !181, !noalias !182, !nonnull !6, !noundef !6
  %1 = getelementptr inbounds nuw i8, ptr %v_base, i64 40
  %len1.i.i.i.i = load i64, ptr %1, align 8, !alias.scope !181, !noalias !182, !noundef !6
  %2 = getelementptr inbounds nuw i8, ptr %v_base, i64 8
  %_14.i.i.i.i = load ptr, ptr %2, align 8, !alias.scope !182, !noalias !181, !nonnull !6, !noundef !6
  %3 = getelementptr inbounds nuw i8, ptr %v_base, i64 16
  %4 = load i64, ptr %3, align 8, !alias.scope !182, !noalias !181, !noundef !6
  %spec.store.select.i.i.i.i.i.i = tail call i64 @llvm.umin.i64(i64 range(i64 0, -9223372036854775808) %len1.i.i.i.i, i64 range(i64 0, -9223372036854775808) %4)
  %5 = tail call i32 @memcmp(ptr nonnull readonly align 1 %_7.i.i.i.i, ptr nonnull readonly align 1 %_14.i.i.i.i, i64 %spec.store.select.i.i.i.i.i.i), !alias.scope !183, !noalias !190
  %6 = sext i32 %5 to i64
  %_15.i.i.i.i.i.i = icmp eq i32 %5, 0
  %diff.i.i.i.i.i.i = sub nsw i64 %len1.i.i.i.i, %4
  %spec.select.i.i.i.i.i.i = select i1 %_15.i.i.i.i.i.i, i64 %diff.i.i.i.i.i.i, i64 %6
  %7 = icmp sgt i64 %spec.select.i.i.i.i.i.i, -1
  tail call void @llvm.experimental.noalias.scope.decl(metadata !191)
  tail call void @llvm.experimental.noalias.scope.decl(metadata !194)
  tail call void @llvm.experimental.noalias.scope.decl(metadata !196)
  tail call void @llvm.experimental.noalias.scope.decl(metadata !199)
  tail call void @llvm.experimental.noalias.scope.decl(metadata !201)
  tail call void @llvm.experimental.noalias.scope.decl(metadata !204)
  tail call void @llvm.experimental.noalias.scope.decl(metadata !206)
  tail call void @llvm.experimental.noalias.scope.decl(metadata !209)
  %8 = getelementptr inbounds nuw i8, ptr %v_base, i64 80
  %_7.i.i.i.i7 = load ptr, ptr %8, align 8, !alias.scope !211, !noalias !212, !nonnull !6, !noundef !6
  %9 = getelementptr inbounds nuw i8, ptr %v_base, i64 88
  %len1.i.i.i.i8 = load i64, ptr %9, align 8, !alias.scope !211, !noalias !212, !noundef !6
  %10 = getelementptr inbounds nuw i8, ptr %v_base, i64 56
  %_14.i.i.i.i9 = load ptr, ptr %10, align 8, !alias.scope !212, !noalias !211, !nonnull !6, !noundef !6
  %11 = getelementptr inbounds nuw i8, ptr %v_base, i64 64
  %12 = load i64, ptr %11, align 8, !alias.scope !212, !noalias !211, !noundef !6
  %spec.store.select.i.i.i.i.i.i10 = tail call i64 @llvm.umin.i64(i64 range(i64 0, -9223372036854775808) %len1.i.i.i.i8, i64 range(i64 0, -9223372036854775808) %12)
  %13 = tail call i32 @memcmp(ptr nonnull readonly align 1 %_7.i.i.i.i7, ptr nonnull readonly align 1 %_14.i.i.i.i9, i64 %spec.store.select.i.i.i.i.i.i10), !alias.scope !213, !noalias !220
  %14 = sext i32 %13 to i64
  %_15.i.i.i.i.i.i11 = icmp eq i32 %13, 0
  %diff.i.i.i.i.i.i12 = sub nsw i64 %len1.i.i.i.i8, %12
  %spec.select.i.i.i.i.i.i13 = select i1 %_15.i.i.i.i.i.i11, i64 %diff.i.i.i.i.i.i12, i64 %14
  %15 = icmp slt i64 %spec.select.i.i.i.i.i.i13, 0
  %spec.select.i.i.i.i.i.i.lobit = lshr i64 %spec.select.i.i.i.i.i.i, 63
  %a = getelementptr inbounds nuw %"alloc::string::String", ptr %v_base, i64 %spec.select.i.i.i.i.i.i.lobit
  %count2 = zext i1 %7 to i64
  %b = getelementptr inbounds nuw %"alloc::string::String", ptr %v_base, i64 %count2
  %count3 = select i1 %15, i64 3, i64 2
  %c = getelementptr inbounds nuw %"alloc::string::String", ptr %v_base, i64 %count3
  %count4 = select i1 %15, i64 2, i64 3
  %d = getelementptr inbounds nuw %"alloc::string::String", ptr %v_base, i64 %count4
  tail call void @llvm.experimental.noalias.scope.decl(metadata !221)
  tail call void @llvm.experimental.noalias.scope.decl(metadata !224)
  tail call void @llvm.experimental.noalias.scope.decl(metadata !226)
  tail call void @llvm.experimental.noalias.scope.decl(metadata !229)
  tail call void @llvm.experimental.noalias.scope.decl(metadata !231)
  tail call void @llvm.experimental.noalias.scope.decl(metadata !234)
  tail call void @llvm.experimental.noalias.scope.decl(metadata !236)
  tail call void @llvm.experimental.noalias.scope.decl(metadata !239)
  %16 = getelementptr inbounds nuw i8, ptr %c, i64 8
  %_7.i.i.i.i14 = load ptr, ptr %16, align 8, !alias.scope !241, !noalias !242, !nonnull !6, !noundef !6
  %17 = getelementptr inbounds nuw i8, ptr %c, i64 16
  %len1.i.i.i.i15 = load i64, ptr %17, align 8, !alias.scope !241, !noalias !242, !noundef !6
  %18 = getelementptr inbounds nuw i8, ptr %a, i64 8
  %_14.i.i.i.i16 = load ptr, ptr %18, align 8, !alias.scope !242, !noalias !241, !nonnull !6, !noundef !6
  %19 = getelementptr inbounds nuw i8, ptr %a, i64 16
  %20 = load i64, ptr %19, align 8, !alias.scope !242, !noalias !241, !noundef !6
  %spec.store.select.i.i.i.i.i.i17 = tail call i64 @llvm.umin.i64(i64 range(i64 0, -9223372036854775808) %len1.i.i.i.i15, i64 range(i64 0, -9223372036854775808) %20)
  %21 = tail call i32 @memcmp(ptr nonnull readonly align 1 %_7.i.i.i.i14, ptr nonnull readonly align 1 %_14.i.i.i.i16, i64 %spec.store.select.i.i.i.i.i.i17), !alias.scope !243, !noalias !250
  %22 = sext i32 %21 to i64
  %_15.i.i.i.i.i.i18 = icmp eq i32 %21, 0
  %diff.i.i.i.i.i.i19 = sub nsw i64 %len1.i.i.i.i15, %20
  %spec.select.i.i.i.i.i.i20 = select i1 %_15.i.i.i.i.i.i18, i64 %diff.i.i.i.i.i.i19, i64 %22
  %23 = icmp slt i64 %spec.select.i.i.i.i.i.i20, 0
  tail call void @llvm.experimental.noalias.scope.decl(metadata !251)
  tail call void @llvm.experimental.noalias.scope.decl(metadata !254)
  tail call void @llvm.experimental.noalias.scope.decl(metadata !256)
  tail call void @llvm.experimental.noalias.scope.decl(metadata !259)
  tail call void @llvm.experimental.noalias.scope.decl(metadata !261)
  tail call void @llvm.experimental.noalias.scope.decl(metadata !264)
  tail call void @llvm.experimental.noalias.scope.decl(metadata !266)
  tail call void @llvm.experimental.noalias.scope.decl(metadata !269)
  %24 = getelementptr inbounds nuw i8, ptr %d, i64 8
  %_7.i.i.i.i21 = load ptr, ptr %24, align 8, !alias.scope !271, !noalias !272, !nonnull !6, !noundef !6
  %25 = getelementptr inbounds nuw i8, ptr %d, i64 16
  %len1.i.i.i.i22 = load i64, ptr %25, align 8, !alias.scope !271, !noalias !272, !noundef !6
  %26 = getelementptr inbounds nuw i8, ptr %b, i64 8
  %_14.i.i.i.i23 = load ptr, ptr %26, align 8, !alias.scope !272, !noalias !271, !nonnull !6, !noundef !6
  %27 = getelementptr inbounds nuw i8, ptr %b, i64 16
  %28 = load i64, ptr %27, align 8, !alias.scope !272, !noalias !271, !noundef !6
  %spec.store.select.i.i.i.i.i.i24 = tail call i64 @llvm.umin.i64(i64 range(i64 0, -9223372036854775808) %len1.i.i.i.i22, i64 range(i64 0, -9223372036854775808) %28)
  %29 = tail call i32 @memcmp(ptr nonnull readonly align 1 %_7.i.i.i.i21, ptr nonnull readonly align 1 %_14.i.i.i.i23, i64 %spec.store.select.i.i.i.i.i.i24), !alias.scope !273, !noalias !280
  %30 = sext i32 %29 to i64
  %_15.i.i.i.i.i.i25 = icmp eq i32 %29, 0
  %diff.i.i.i.i.i.i26 = sub nsw i64 %len1.i.i.i.i22, %28
  %spec.select.i.i.i.i.i.i27 = select i1 %_15.i.i.i.i.i.i25, i64 %diff.i.i.i.i.i.i26, i64 %30
  %31 = icmp slt i64 %spec.select.i.i.i.i.i.i27, 0
  %32 = select i1 %23, ptr %c, ptr %a, !unpredictable !6
  %33 = select i1 %31, ptr %b, ptr %d, !unpredictable !6
  %34 = select i1 %31, ptr %c, ptr %b, !unpredictable !6
  %35 = select i1 %23, ptr %a, ptr %34, !unpredictable !6
  %36 = select i1 %23, ptr %b, ptr %c, !unpredictable !6
  %37 = select i1 %31, ptr %d, ptr %36, !unpredictable !6
  tail call void @llvm.experimental.noalias.scope.decl(metadata !281)
  tail call void @llvm.experimental.noalias.scope.decl(metadata !284)
  tail call void @llvm.experimental.noalias.scope.decl(metadata !286)
  tail call void @llvm.experimental.noalias.scope.decl(metadata !289)
  tail call void @llvm.experimental.noalias.scope.decl(metadata !291)
  tail call void @llvm.experimental.noalias.scope.decl(metadata !294)
  tail call void @llvm.experimental.noalias.scope.decl(metadata !296)
  tail call void @llvm.experimental.noalias.scope.decl(metadata !299)
  %38 = getelementptr inbounds nuw i8, ptr %37, i64 8
  %_7.i.i.i.i28 = load ptr, ptr %38, align 8, !alias.scope !301, !noalias !302, !nonnull !6, !noundef !6
  %39 = getelementptr inbounds nuw i8, ptr %37, i64 16
  %len1.i.i.i.i29 = load i64, ptr %39, align 8, !alias.scope !301, !noalias !302, !noundef !6
  %40 = getelementptr inbounds nuw i8, ptr %35, i64 8
  %_14.i.i.i.i30 = load ptr, ptr %40, align 8, !alias.scope !302, !noalias !301, !nonnull !6, !noundef !6
  %41 = getelementptr inbounds nuw i8, ptr %35, i64 16
  %42 = load i64, ptr %41, align 8, !alias.scope !302, !noalias !301, !noundef !6
  %spec.store.select.i.i.i.i.i.i31 = tail call i64 @llvm.umin.i64(i64 range(i64 0, -9223372036854775808) %len1.i.i.i.i29, i64 range(i64 0, -9223372036854775808) %42)
  %43 = tail call i32 @memcmp(ptr nonnull readonly align 1 %_7.i.i.i.i28, ptr nonnull readonly align 1 %_14.i.i.i.i30, i64 %spec.store.select.i.i.i.i.i.i31), !alias.scope !303, !noalias !310
  %44 = sext i32 %43 to i64
  %_15.i.i.i.i.i.i32 = icmp eq i32 %43, 0
  %diff.i.i.i.i.i.i33 = sub nsw i64 %len1.i.i.i.i29, %42
  %spec.select.i.i.i.i.i.i34 = select i1 %_15.i.i.i.i.i.i32, i64 %diff.i.i.i.i.i.i33, i64 %44
  %45 = icmp slt i64 %spec.select.i.i.i.i.i.i34, 0
  %46 = select i1 %45, ptr %37, ptr %35, !unpredictable !6
  %47 = select i1 %45, ptr %35, ptr %37, !unpredictable !6
  tail call void @llvm.memcpy.p0.p0.i64(ptr noundef nonnull align 8 dereferenceable(24) %dst, ptr noundef nonnull align 8 dereferenceable(24) %32, i64 24, i1 false)
  %dst5 = getelementptr inbounds nuw i8, ptr %dst, i64 24
  tail call void @llvm.memcpy.p0.p0.i64(ptr noundef nonnull align 8 dereferenceable(24) %dst5, ptr noundef nonnull align 8 dereferenceable(24) %46, i64 24, i1 false)
  %dst6 = getelementptr inbounds nuw i8, ptr %dst, i64 48
  tail call void @llvm.memcpy.p0.p0.i64(ptr noundef nonnull align 8 dereferenceable(24) %dst6, ptr noundef nonnull align 8 dereferenceable(24) %47, i64 24, i1 false)
  %48 = getelementptr inbounds nuw i8, ptr %dst, i64 72
  tail call void @llvm.memcpy.p0.p0.i64(ptr noundef nonnull align 8 dereferenceable(24) %48, ptr noundef nonnull align 8 dereferenceable(24) %33, i64 24, i1 false)
  ret void
}

; core::slice::sort::shared::smallsort::sort8_stable
; Function Attrs: nonlazybind uwtable
define internal fastcc void @_ZN4core5slice4sort6shared9smallsort12sort8_stable17hed0c5b8627756ff6E(ptr noundef nonnull readonly captures(none) %v_base, ptr noundef nonnull writeonly captures(none) initializes((0, 32)) %dst, ptr noundef nonnull captures(address) initializes((0, 32)) %scratch_base) unnamed_addr #4 personality ptr @rust_eh_personality {
start:
  %_7.i = getelementptr inbounds nuw i8, ptr %v_base, i64 4
  tail call void @llvm.experimental.noalias.scope.decl(metadata !311)
  tail call void @llvm.experimental.noalias.scope.decl(metadata !314)
  tail call void @llvm.experimental.noalias.scope.decl(metadata !316)
  tail call void @llvm.experimental.noalias.scope.decl(metadata !319)
  tail call void @llvm.experimental.noalias.scope.decl(metadata !321)
  tail call void @llvm.experimental.noalias.scope.decl(metadata !324)
  %_3.i.i.i.i = load i32, ptr %_7.i, align 4, !alias.scope !326, !noalias !327, !noundef !6
  %_4.i.i.i.i = load i32, ptr %v_base, align 4, !alias.scope !327, !noalias !326, !noundef !6
  %_0.i.i = icmp slt i32 %_3.i.i.i.i, %_4.i.i.i.i
  %_12.i = getelementptr inbounds nuw i8, ptr %v_base, i64 12
  %_14.i = getelementptr inbounds nuw i8, ptr %v_base, i64 8
  tail call void @llvm.experimental.noalias.scope.decl(metadata !328)
  tail call void @llvm.experimental.noalias.scope.decl(metadata !331)
  tail call void @llvm.experimental.noalias.scope.decl(metadata !333)
  tail call void @llvm.experimental.noalias.scope.decl(metadata !336)
  tail call void @llvm.experimental.noalias.scope.decl(metadata !338)
  tail call void @llvm.experimental.noalias.scope.decl(metadata !341)
  %_3.i.i.i7.i = load i32, ptr %_12.i, align 4, !alias.scope !343, !noalias !344, !noundef !6
  %_4.i.i.i8.i = load i32, ptr %_14.i, align 4, !alias.scope !344, !noalias !343, !noundef !6
  %_0.i9.i = icmp slt i32 %_3.i.i.i7.i, %_4.i.i.i8.i
  %count.i = zext i1 %_0.i.i to i64
  %a.i = getelementptr inbounds nuw i32, ptr %v_base, i64 %count.i
  %_19.i = xor i1 %_0.i.i, true
  %count2.i = zext i1 %_19.i to i64
  %b.i = getelementptr inbounds nuw i32, ptr %v_base, i64 %count2.i
  %count3.i = select i1 %_0.i9.i, i64 3, i64 2
  %c.i = getelementptr inbounds nuw i32, ptr %v_base, i64 %count3.i
  %count4.i = select i1 %_0.i9.i, i64 2, i64 3
  %d.i = getelementptr inbounds nuw i32, ptr %v_base, i64 %count4.i
  tail call void @llvm.experimental.noalias.scope.decl(metadata !345)
  tail call void @llvm.experimental.noalias.scope.decl(metadata !348)
  tail call void @llvm.experimental.noalias.scope.decl(metadata !350)
  tail call void @llvm.experimental.noalias.scope.decl(metadata !353)
  tail call void @llvm.experimental.noalias.scope.decl(metadata !355)
  tail call void @llvm.experimental.noalias.scope.decl(metadata !358)
  %_3.i.i.i10.i = load i32, ptr %c.i, align 4, !alias.scope !360, !noalias !361, !noundef !6
  %_4.i.i.i11.i = load i32, ptr %a.i, align 4, !alias.scope !361, !noalias !360, !noundef !6
  %_0.i12.i = icmp slt i32 %_3.i.i.i10.i, %_4.i.i.i11.i
  tail call void @llvm.experimental.noalias.scope.decl(metadata !362)
  tail call void @llvm.experimental.noalias.scope.decl(metadata !365)
  tail call void @llvm.experimental.noalias.scope.decl(metadata !367)
  tail call void @llvm.experimental.noalias.scope.decl(metadata !370)
  tail call void @llvm.experimental.noalias.scope.decl(metadata !372)
  tail call void @llvm.experimental.noalias.scope.decl(metadata !375)
  %_3.i.i.i13.i = load i32, ptr %d.i, align 4, !alias.scope !377, !noalias !378, !noundef !6
  %_4.i.i.i14.i = load i32, ptr %b.i, align 4, !alias.scope !378, !noalias !377, !noundef !6
  %_0.i15.i = icmp slt i32 %_3.i.i.i13.i, %_4.i.i.i14.i
  %0 = tail call i32 @llvm.smin.i32(i32 %_3.i.i.i10.i, i32 %_4.i.i.i11.i)
  %1 = select i1 %_0.i15.i, ptr %c.i, ptr %b.i, !unpredictable !6
  %2 = select i1 %_0.i12.i, ptr %a.i, ptr %1, !unpredictable !6
  %3 = select i1 %_0.i12.i, ptr %b.i, ptr %c.i, !unpredictable !6
  %4 = select i1 %_0.i15.i, ptr %d.i, ptr %3, !unpredictable !6
  tail call void @llvm.experimental.noalias.scope.decl(metadata !379)
  tail call void @llvm.experimental.noalias.scope.decl(metadata !382)
  tail call void @llvm.experimental.noalias.scope.decl(metadata !384)
  tail call void @llvm.experimental.noalias.scope.decl(metadata !387)
  tail call void @llvm.experimental.noalias.scope.decl(metadata !389)
  tail call void @llvm.experimental.noalias.scope.decl(metadata !392)
  %_3.i.i.i16.i = load i32, ptr %4, align 4, !alias.scope !394, !noalias !395, !noundef !6
  %_4.i.i.i17.i = load i32, ptr %2, align 4, !alias.scope !395, !noalias !394, !noundef !6
  %_0.i18.i = icmp slt i32 %_3.i.i.i16.i, %_4.i.i.i17.i
  store i32 %0, ptr %scratch_base, align 4
  %dst5.i = getelementptr inbounds nuw i8, ptr %scratch_base, i64 4
  %.val.i = load i32, ptr %4, align 4
  %.val19.i = load i32, ptr %2, align 4
  %5 = select i1 %_0.i18.i, i32 %.val.i, i32 %.val19.i
  store i32 %5, ptr %dst5.i, align 4
  %dst6.i = getelementptr inbounds nuw i8, ptr %scratch_base, i64 8
  %.val20.i = load i32, ptr %2, align 4
  %.val21.i = load i32, ptr %4, align 4
  %6 = select i1 %_0.i18.i, i32 %.val20.i, i32 %.val21.i
  store i32 %6, ptr %dst6.i, align 4
  %7 = getelementptr i8, ptr %scratch_base, i64 12
  %b.val.i = load i32, ptr %b.i, align 4
  %d.val.i = load i32, ptr %d.i, align 4
  %8 = select i1 %_0.i15.i, i32 %b.val.i, i32 %d.val.i
  store i32 %8, ptr %7, align 4
  %_9 = getelementptr inbounds nuw i8, ptr %v_base, i64 16
  %_10 = getelementptr i8, ptr %scratch_base, i64 16
  %_7.i1 = getelementptr inbounds nuw i8, ptr %v_base, i64 20
  tail call void @llvm.experimental.noalias.scope.decl(metadata !396)
  tail call void @llvm.experimental.noalias.scope.decl(metadata !399)
  tail call void @llvm.experimental.noalias.scope.decl(metadata !401)
  tail call void @llvm.experimental.noalias.scope.decl(metadata !404)
  tail call void @llvm.experimental.noalias.scope.decl(metadata !406)
  tail call void @llvm.experimental.noalias.scope.decl(metadata !409)
  %_3.i.i.i.i2 = load i32, ptr %_7.i1, align 4, !alias.scope !411, !noalias !412, !noundef !6
  %_4.i.i.i.i3 = load i32, ptr %_9, align 4, !alias.scope !412, !noalias !411, !noundef !6
  %_0.i.i4 = icmp slt i32 %_3.i.i.i.i2, %_4.i.i.i.i3
  %_12.i5 = getelementptr inbounds nuw i8, ptr %v_base, i64 28
  %_14.i6 = getelementptr inbounds nuw i8, ptr %v_base, i64 24
  tail call void @llvm.experimental.noalias.scope.decl(metadata !413)
  tail call void @llvm.experimental.noalias.scope.decl(metadata !416)
  tail call void @llvm.experimental.noalias.scope.decl(metadata !418)
  tail call void @llvm.experimental.noalias.scope.decl(metadata !421)
  tail call void @llvm.experimental.noalias.scope.decl(metadata !423)
  tail call void @llvm.experimental.noalias.scope.decl(metadata !426)
  %_3.i.i.i7.i7 = load i32, ptr %_12.i5, align 4, !alias.scope !428, !noalias !429, !noundef !6
  %_4.i.i.i8.i8 = load i32, ptr %_14.i6, align 4, !alias.scope !429, !noalias !428, !noundef !6
  %_0.i9.i9 = icmp slt i32 %_3.i.i.i7.i7, %_4.i.i.i8.i8
  %count.i10 = zext i1 %_0.i.i4 to i64
  %a.i11 = getelementptr inbounds nuw i32, ptr %_9, i64 %count.i10
  %_19.i12 = xor i1 %_0.i.i4, true
  %count2.i13 = zext i1 %_19.i12 to i64
  %b.i14 = getelementptr inbounds nuw i32, ptr %_9, i64 %count2.i13
  %count3.i15 = select i1 %_0.i9.i9, i64 3, i64 2
  %c.i16 = getelementptr inbounds nuw i32, ptr %_9, i64 %count3.i15
  %count4.i17 = select i1 %_0.i9.i9, i64 2, i64 3
  %d.i18 = getelementptr inbounds nuw i32, ptr %_9, i64 %count4.i17
  tail call void @llvm.experimental.noalias.scope.decl(metadata !430)
  tail call void @llvm.experimental.noalias.scope.decl(metadata !433)
  tail call void @llvm.experimental.noalias.scope.decl(metadata !435)
  tail call void @llvm.experimental.noalias.scope.decl(metadata !438)
  tail call void @llvm.experimental.noalias.scope.decl(metadata !440)
  tail call void @llvm.experimental.noalias.scope.decl(metadata !443)
  %_3.i.i.i10.i19 = load i32, ptr %c.i16, align 4, !alias.scope !445, !noalias !446, !noundef !6
  %_4.i.i.i11.i20 = load i32, ptr %a.i11, align 4, !alias.scope !446, !noalias !445, !noundef !6
  %_0.i12.i21 = icmp slt i32 %_3.i.i.i10.i19, %_4.i.i.i11.i20
  tail call void @llvm.experimental.noalias.scope.decl(metadata !447)
  tail call void @llvm.experimental.noalias.scope.decl(metadata !450)
  tail call void @llvm.experimental.noalias.scope.decl(metadata !452)
  tail call void @llvm.experimental.noalias.scope.decl(metadata !455)
  tail call void @llvm.experimental.noalias.scope.decl(metadata !457)
  tail call void @llvm.experimental.noalias.scope.decl(metadata !460)
  %_3.i.i.i13.i22 = load i32, ptr %d.i18, align 4, !alias.scope !462, !noalias !463, !noundef !6
  %_4.i.i.i14.i23 = load i32, ptr %b.i14, align 4, !alias.scope !463, !noalias !462, !noundef !6
  %_0.i15.i24 = icmp slt i32 %_3.i.i.i13.i22, %_4.i.i.i14.i23
  %9 = tail call i32 @llvm.smin.i32(i32 %_3.i.i.i10.i19, i32 %_4.i.i.i11.i20)
  %10 = select i1 %_0.i15.i24, ptr %c.i16, ptr %b.i14, !unpredictable !6
  %11 = select i1 %_0.i12.i21, ptr %a.i11, ptr %10, !unpredictable !6
  %12 = select i1 %_0.i12.i21, ptr %b.i14, ptr %c.i16, !unpredictable !6
  %13 = select i1 %_0.i15.i24, ptr %d.i18, ptr %12, !unpredictable !6
  tail call void @llvm.experimental.noalias.scope.decl(metadata !464)
  tail call void @llvm.experimental.noalias.scope.decl(metadata !467)
  tail call void @llvm.experimental.noalias.scope.decl(metadata !469)
  tail call void @llvm.experimental.noalias.scope.decl(metadata !472)
  tail call void @llvm.experimental.noalias.scope.decl(metadata !474)
  tail call void @llvm.experimental.noalias.scope.decl(metadata !477)
  %_3.i.i.i16.i25 = load i32, ptr %13, align 4, !alias.scope !479, !noalias !480, !noundef !6
  %_4.i.i.i17.i26 = load i32, ptr %11, align 4, !alias.scope !480, !noalias !479, !noundef !6
  %_0.i18.i27 = icmp slt i32 %_3.i.i.i16.i25, %_4.i.i.i17.i26
  store i32 %9, ptr %_10, align 4
  %dst5.i28 = getelementptr i8, ptr %scratch_base, i64 20
  %.val.i29 = load i32, ptr %13, align 4
  %.val19.i30 = load i32, ptr %11, align 4
  %14 = select i1 %_0.i18.i27, i32 %.val.i29, i32 %.val19.i30
  store i32 %14, ptr %dst5.i28, align 4
  %dst6.i31 = getelementptr i8, ptr %scratch_base, i64 24
  %.val20.i32 = load i32, ptr %11, align 4
  %.val21.i33 = load i32, ptr %13, align 4
  %15 = select i1 %_0.i18.i27, i32 %.val20.i32, i32 %.val21.i33
  store i32 %15, ptr %dst6.i31, align 4
  %16 = getelementptr i8, ptr %scratch_base, i64 28
  %b.val.i34 = load i32, ptr %b.i14, align 4
  %d.val.i35 = load i32, ptr %d.i18, align 4
  %17 = select i1 %_0.i15.i24, i32 %b.val.i34, i32 %d.val.i35
  store i32 %17, ptr %16, align 4
  tail call void @llvm.experimental.noalias.scope.decl(metadata !481)
  %18 = getelementptr inbounds nuw i8, ptr %dst, i64 28
  %_4.i.i.i.i37 = load i32, ptr %scratch_base, align 4, !alias.scope !484, !noalias !491, !noundef !6
  %_0.i.i38 = icmp slt i32 %9, %_4.i.i.i.i37
  %is_l.i18.i = xor i1 %_0.i.i38, true
  %19 = tail call i32 @llvm.smin.i32(i32 %9, i32 %_4.i.i.i.i37)
  store i32 %19, ptr %dst, align 4, !noalias !497
  %count.i.i = zext i1 %_0.i.i38 to i64
  %_12.i.i = getelementptr inbounds nuw i32, ptr %_10, i64 %count.i.i
  %count2.i.i = zext i1 %is_l.i18.i to i64
  %_14.i.i = getelementptr inbounds nuw i32, ptr %scratch_base, i64 %count2.i.i
  %_16.i.i = getelementptr inbounds nuw i8, ptr %dst, i64 4
  %_4.i.i.i20.i = load i32, ptr %7, align 4, !alias.scope !499, !noalias !506, !noundef !6
  %_0.i21.i = icmp slt i32 %17, %_4.i.i.i20.i
  %is_l.i.i = xor i1 %_0.i21.i, true
  %20 = tail call i32 @llvm.smax.i32(i32 %17, i32 %_4.i.i.i20.i)
  store i32 %20, ptr %18, align 4, !noalias !512
  %count.neg.i.i = sext i1 %is_l.i.i to i64
  %21 = getelementptr i32, ptr %16, i64 %count.neg.i.i
  %count3.neg.i.i = sext i1 %_0.i21.i to i64
  %22 = getelementptr i32, ptr %7, i64 %count3.neg.i.i
  %23 = getelementptr inbounds nuw i8, ptr %dst, i64 24
  tail call void @llvm.experimental.noalias.scope.decl(metadata !514)
  tail call void @llvm.experimental.noalias.scope.decl(metadata !516)
  tail call void @llvm.experimental.noalias.scope.decl(metadata !518), !noalias !520
  tail call void @llvm.experimental.noalias.scope.decl(metadata !521), !noalias !520
  tail call void @llvm.experimental.noalias.scope.decl(metadata !523), !noalias !520
  tail call void @llvm.experimental.noalias.scope.decl(metadata !525), !noalias !520
  %_3.i.i.i.i36.1 = load i32, ptr %_12.i.i, align 4, !alias.scope !527, !noalias !528, !noundef !6
  %_4.i.i.i.i37.1 = load i32, ptr %_14.i.i, align 4, !alias.scope !529, !noalias !530, !noundef !6
  %_0.i.i38.1 = icmp slt i32 %_3.i.i.i.i36.1, %_4.i.i.i.i37.1
  %is_l.i18.i.1 = xor i1 %_0.i.i38.1, true
  %24 = tail call i32 @llvm.smin.i32(i32 %_3.i.i.i.i36.1, i32 %_4.i.i.i.i37.1)
  store i32 %24, ptr %_16.i.i, align 4, !noalias !497
  %count.i.i.1 = zext i1 %_0.i.i38.1 to i64
  %_12.i.i.1 = getelementptr inbounds nuw i32, ptr %_12.i.i, i64 %count.i.i.1
  %count2.i.i.1 = zext i1 %is_l.i18.i.1 to i64
  %_14.i.i.1 = getelementptr inbounds nuw i32, ptr %_14.i.i, i64 %count2.i.i.1
  %_16.i.i.1 = getelementptr inbounds nuw i8, ptr %dst, i64 8
  tail call void @llvm.experimental.noalias.scope.decl(metadata !531)
  tail call void @llvm.experimental.noalias.scope.decl(metadata !533)
  tail call void @llvm.experimental.noalias.scope.decl(metadata !535), !noalias !537
  tail call void @llvm.experimental.noalias.scope.decl(metadata !538), !noalias !537
  tail call void @llvm.experimental.noalias.scope.decl(metadata !540), !noalias !537
  tail call void @llvm.experimental.noalias.scope.decl(metadata !542), !noalias !537
  %_3.i.i.i19.i.1 = load i32, ptr %21, align 4, !alias.scope !544, !noalias !545, !noundef !6
  %_4.i.i.i20.i.1 = load i32, ptr %22, align 4, !alias.scope !546, !noalias !547, !noundef !6
  %_0.i21.i.1 = icmp slt i32 %_3.i.i.i19.i.1, %_4.i.i.i20.i.1
  %is_l.i.i.1 = xor i1 %_0.i21.i.1, true
  %25 = tail call i32 @llvm.smax.i32(i32 %_3.i.i.i19.i.1, i32 %_4.i.i.i20.i.1)
  store i32 %25, ptr %23, align 4, !noalias !512
  %count.neg.i.i.1 = sext i1 %is_l.i.i.1 to i64
  %26 = getelementptr i32, ptr %21, i64 %count.neg.i.i.1
  %count3.neg.i.i.1 = sext i1 %_0.i21.i.1 to i64
  %27 = getelementptr i32, ptr %22, i64 %count3.neg.i.i.1
  %28 = getelementptr inbounds nuw i8, ptr %dst, i64 20
  tail call void @llvm.experimental.noalias.scope.decl(metadata !548)
  tail call void @llvm.experimental.noalias.scope.decl(metadata !550)
  tail call void @llvm.experimental.noalias.scope.decl(metadata !552), !noalias !520
  tail call void @llvm.experimental.noalias.scope.decl(metadata !554), !noalias !520
  tail call void @llvm.experimental.noalias.scope.decl(metadata !556), !noalias !520
  tail call void @llvm.experimental.noalias.scope.decl(metadata !558), !noalias !520
  %_3.i.i.i.i36.2 = load i32, ptr %_12.i.i.1, align 4, !alias.scope !560, !noalias !561, !noundef !6
  %_4.i.i.i.i37.2 = load i32, ptr %_14.i.i.1, align 4, !alias.scope !562, !noalias !563, !noundef !6
  %_0.i.i38.2 = icmp slt i32 %_3.i.i.i.i36.2, %_4.i.i.i.i37.2
  %is_l.i18.i.2 = xor i1 %_0.i.i38.2, true
  %29 = tail call i32 @llvm.smin.i32(i32 %_3.i.i.i.i36.2, i32 %_4.i.i.i.i37.2)
  store i32 %29, ptr %_16.i.i.1, align 4, !noalias !497
  %count.i.i.2 = zext i1 %_0.i.i38.2 to i64
  %_12.i.i.2 = getelementptr inbounds nuw i32, ptr %_12.i.i.1, i64 %count.i.i.2
  %count2.i.i.2 = zext i1 %is_l.i18.i.2 to i64
  %_14.i.i.2 = getelementptr inbounds nuw i32, ptr %_14.i.i.1, i64 %count2.i.i.2
  %_16.i.i.2 = getelementptr inbounds nuw i8, ptr %dst, i64 12
  tail call void @llvm.experimental.noalias.scope.decl(metadata !564)
  tail call void @llvm.experimental.noalias.scope.decl(metadata !566)
  tail call void @llvm.experimental.noalias.scope.decl(metadata !568), !noalias !537
  tail call void @llvm.experimental.noalias.scope.decl(metadata !570), !noalias !537
  tail call void @llvm.experimental.noalias.scope.decl(metadata !572), !noalias !537
  tail call void @llvm.experimental.noalias.scope.decl(metadata !574), !noalias !537
  %_3.i.i.i19.i.2 = load i32, ptr %26, align 4, !alias.scope !576, !noalias !577, !noundef !6
  %_4.i.i.i20.i.2 = load i32, ptr %27, align 4, !alias.scope !578, !noalias !579, !noundef !6
  %_0.i21.i.2 = icmp slt i32 %_3.i.i.i19.i.2, %_4.i.i.i20.i.2
  %is_l.i.i.2 = xor i1 %_0.i21.i.2, true
  %30 = tail call i32 @llvm.smax.i32(i32 %_3.i.i.i19.i.2, i32 %_4.i.i.i20.i.2)
  store i32 %30, ptr %28, align 4, !noalias !512
  %count.neg.i.i.2 = sext i1 %is_l.i.i.2 to i64
  %31 = getelementptr i32, ptr %26, i64 %count.neg.i.i.2
  %count3.neg.i.i.2 = sext i1 %_0.i21.i.2 to i64
  %32 = getelementptr i32, ptr %27, i64 %count3.neg.i.i.2
  %33 = getelementptr inbounds nuw i8, ptr %dst, i64 16
  tail call void @llvm.experimental.noalias.scope.decl(metadata !580)
  tail call void @llvm.experimental.noalias.scope.decl(metadata !582)
  tail call void @llvm.experimental.noalias.scope.decl(metadata !584), !noalias !520
  tail call void @llvm.experimental.noalias.scope.decl(metadata !586), !noalias !520
  tail call void @llvm.experimental.noalias.scope.decl(metadata !588), !noalias !520
  tail call void @llvm.experimental.noalias.scope.decl(metadata !590), !noalias !520
  %_3.i.i.i.i36.3 = load i32, ptr %_12.i.i.2, align 4, !alias.scope !592, !noalias !593, !noundef !6
  %_4.i.i.i.i37.3 = load i32, ptr %_14.i.i.2, align 4, !alias.scope !594, !noalias !595, !noundef !6
  %_0.i.i38.3 = icmp slt i32 %_3.i.i.i.i36.3, %_4.i.i.i.i37.3
  %is_l.i18.i.3 = xor i1 %_0.i.i38.3, true
  %34 = tail call i32 @llvm.smin.i32(i32 %_3.i.i.i.i36.3, i32 %_4.i.i.i.i37.3)
  store i32 %34, ptr %_16.i.i.2, align 4, !noalias !497
  %count.i.i.3 = zext i1 %_0.i.i38.3 to i64
  %_12.i.i.3 = getelementptr inbounds nuw i32, ptr %_12.i.i.2, i64 %count.i.i.3
  %count2.i.i.3 = zext i1 %is_l.i18.i.3 to i64
  %_14.i.i.3 = getelementptr inbounds nuw i32, ptr %_14.i.i.2, i64 %count2.i.i.3
  tail call void @llvm.experimental.noalias.scope.decl(metadata !596)
  tail call void @llvm.experimental.noalias.scope.decl(metadata !598)
  tail call void @llvm.experimental.noalias.scope.decl(metadata !600), !noalias !537
  tail call void @llvm.experimental.noalias.scope.decl(metadata !602), !noalias !537
  tail call void @llvm.experimental.noalias.scope.decl(metadata !604), !noalias !537
  tail call void @llvm.experimental.noalias.scope.decl(metadata !606), !noalias !537
  %_3.i.i.i19.i.3 = load i32, ptr %31, align 4, !alias.scope !608, !noalias !609, !noundef !6
  %_4.i.i.i20.i.3 = load i32, ptr %32, align 4, !alias.scope !610, !noalias !611, !noundef !6
  %_0.i21.i.3 = icmp slt i32 %_3.i.i.i19.i.3, %_4.i.i.i20.i.3
  %is_l.i.i.3 = xor i1 %_0.i21.i.3, true
  %35 = tail call i32 @llvm.smax.i32(i32 %_3.i.i.i19.i.3, i32 %_4.i.i.i20.i.3)
  store i32 %35, ptr %33, align 4, !noalias !512
  %count.neg.i.i.3 = sext i1 %is_l.i.i.3 to i64
  %36 = getelementptr i32, ptr %31, i64 %count.neg.i.i.3
  %count3.neg.i.i.3 = sext i1 %_0.i21.i.3 to i64
  %37 = getelementptr i32, ptr %32, i64 %count3.neg.i.i.3
  %38 = getelementptr i8, ptr %37, i64 4
  %39 = getelementptr i8, ptr %36, i64 4
  %_31.i = icmp ne ptr %_14.i.i.3, %38
  %_32.i = icmp ne ptr %_12.i.i.3, %39
  %or.cond.i = select i1 %_31.i, i1 true, i1 %_32.i
  br i1 %or.cond.i, label %bb13.i, label %_ZN4core5slice4sort6shared9smallsort19bidirectional_merge17he3b0c15c05973dbcE.exit, !prof !612

bb13.i:                                           ; preds = %start
; call core::slice::sort::shared::smallsort::panic_on_ord_violation
  tail call void @_ZN4core5slice4sort6shared9smallsort22panic_on_ord_violation17hc77a22a2d50782cdE() #26, !noalias !481
  unreachable

_ZN4core5slice4sort6shared9smallsort19bidirectional_merge17he3b0c15c05973dbcE.exit: ; preds = %start
  ret void
}

; core::slice::sort::shared::smallsort::insertion_sort_shift_left
; Function Attrs: nofree norecurse nounwind nonlazybind memory(read, argmem: readwrite, inaccessiblemem: readwrite) uwtable
define internal fastcc void @_ZN4core5slice4sort6shared9smallsort25insertion_sort_shift_left17h5881bc39b88732acE(ptr noalias noundef nonnull align 8 captures(address) %v.0, i64 noundef range(i64 2, 21) %v.1) unnamed_addr #5 personality ptr @rust_eh_personality {
bb5.preheader:
  %v_end.idx = mul nuw nsw i64 %v.1, 24
  %v_end = getelementptr inbounds nuw i8, ptr %v.0, i64 %v_end.idx
  %tail.sroa.0.01 = getelementptr inbounds nuw i8, ptr %v.0, i64 24
  br label %bb5

bb7:                                              ; preds = %_ZN4core5slice4sort6shared9smallsort11insert_tail17haddbce5dcdcd8aa9E.exit
  ret void

bb5:                                              ; preds = %bb5.preheader, %_ZN4core5slice4sort6shared9smallsort11insert_tail17haddbce5dcdcd8aa9E.exit
  %tail.sroa.0.04 = phi ptr [ %tail.sroa.0.0, %_ZN4core5slice4sort6shared9smallsort11insert_tail17haddbce5dcdcd8aa9E.exit ], [ %tail.sroa.0.01, %bb5.preheader ]
  %v.0.pn3 = phi ptr [ %tail.sroa.0.04, %_ZN4core5slice4sort6shared9smallsort11insert_tail17haddbce5dcdcd8aa9E.exit ], [ %v.0, %bb5.preheader ]
  tail call void @llvm.experimental.noalias.scope.decl(metadata !613)
  tail call void @llvm.experimental.noalias.scope.decl(metadata !616)
  tail call void @llvm.experimental.noalias.scope.decl(metadata !618)
  tail call void @llvm.experimental.noalias.scope.decl(metadata !621)
  tail call void @llvm.experimental.noalias.scope.decl(metadata !623)
  tail call void @llvm.experimental.noalias.scope.decl(metadata !626)
  tail call void @llvm.experimental.noalias.scope.decl(metadata !628)
  tail call void @llvm.experimental.noalias.scope.decl(metadata !631)
  %0 = getelementptr inbounds nuw i8, ptr %v.0.pn3, i64 32
  %_7.i.i.i.i.i = load ptr, ptr %0, align 8, !alias.scope !633, !noalias !634, !nonnull !6, !noundef !6
  %1 = getelementptr inbounds nuw i8, ptr %v.0.pn3, i64 40
  %len1.i.i.i.i.i = load i64, ptr %1, align 8, !alias.scope !633, !noalias !634, !noundef !6
  %2 = getelementptr inbounds nuw i8, ptr %v.0.pn3, i64 8
  %_14.i.i.i.i.i = load ptr, ptr %2, align 8, !alias.scope !634, !noalias !633, !nonnull !6, !noundef !6
  %3 = getelementptr inbounds nuw i8, ptr %v.0.pn3, i64 16
  %4 = load i64, ptr %3, align 8, !alias.scope !634, !noalias !633, !noundef !6
  %spec.store.select.i.i.i.i.i.i.i = tail call i64 @llvm.umin.i64(i64 range(i64 0, -9223372036854775808) %len1.i.i.i.i.i, i64 range(i64 0, -9223372036854775808) %4)
  %5 = tail call i32 @memcmp(ptr nonnull readonly align 1 %_7.i.i.i.i.i, ptr nonnull readonly align 1 %_14.i.i.i.i.i, i64 %spec.store.select.i.i.i.i.i.i.i), !alias.scope !635, !noalias !642
  %6 = sext i32 %5 to i64
  %_15.i.i.i.i.i.i.i = icmp eq i32 %5, 0
  %diff.i.i.i.i.i.i.i = sub nsw i64 %len1.i.i.i.i.i, %4
  %spec.select.i.i.i.i.i.i.i = select i1 %_15.i.i.i.i.i.i.i, i64 %diff.i.i.i.i.i.i.i, i64 %6
  %7 = icmp slt i64 %spec.select.i.i.i.i.i.i.i, 0
  br i1 %7, label %bb2.i, label %_ZN4core5slice4sort6shared9smallsort11insert_tail17haddbce5dcdcd8aa9E.exit

bb2.i:                                            ; preds = %bb5
  %value.sroa.0.0.copyload.i = load i64, ptr %tail.sroa.0.04, align 8
  br label %bb4.i

bb4.i:                                            ; preds = %bb7.i, %bb2.i
  %gap_guard.sroa.5.0.i = phi ptr [ %tail.sroa.0.04, %bb2.i ], [ %sift.sroa.0.0.i, %bb7.i ]
  %sift.sroa.0.0.i = getelementptr inbounds i8, ptr %gap_guard.sroa.5.0.i, i64 -24
  tail call void @llvm.memcpy.p0.p0.i64(ptr noundef nonnull align 8 dereferenceable(24) %gap_guard.sroa.5.0.i, ptr noundef nonnull align 8 dereferenceable(24) %sift.sroa.0.0.i, i64 24, i1 false)
  %_18.i = icmp eq ptr %sift.sroa.0.0.i, %v.0
  br i1 %_18.i, label %bb10.i, label %bb7.i

bb7.i:                                            ; preds = %bb4.i
  tail call void @llvm.experimental.noalias.scope.decl(metadata !643)
  tail call void @llvm.experimental.noalias.scope.decl(metadata !646)
  tail call void @llvm.experimental.noalias.scope.decl(metadata !649)
  tail call void @llvm.experimental.noalias.scope.decl(metadata !652)
  %8 = getelementptr inbounds i8, ptr %gap_guard.sroa.5.0.i, i64 -40
  %_14.i.i.i.i3.i = load ptr, ptr %8, align 8, !alias.scope !655, !noalias !656, !nonnull !6, !noundef !6
  %9 = getelementptr inbounds i8, ptr %gap_guard.sroa.5.0.i, i64 -32
  %10 = load i64, ptr %9, align 8, !alias.scope !655, !noalias !656, !noundef !6
  %spec.store.select.i.i.i.i.i.i4.i = tail call i64 @llvm.umin.i64(i64 range(i64 0, -9223372036854775808) %len1.i.i.i.i.i, i64 range(i64 0, -9223372036854775808) %10)
  %11 = tail call i32 @memcmp(ptr nonnull readonly align 1 %_7.i.i.i.i.i, ptr nonnull readonly align 1 %_14.i.i.i.i3.i, i64 %spec.store.select.i.i.i.i.i.i4.i), !alias.scope !661, !noalias !668
  %12 = sext i32 %11 to i64
  %_15.i.i.i.i.i.i5.i = icmp eq i32 %11, 0
  %diff.i.i.i.i.i.i6.i = sub nsw i64 %len1.i.i.i.i.i, %10
  %spec.select.i.i.i.i.i.i7.i = select i1 %_15.i.i.i.i.i.i5.i, i64 %diff.i.i.i.i.i.i6.i, i64 %12
  %13 = icmp slt i64 %spec.select.i.i.i.i.i.i7.i, 0
  br i1 %13, label %bb4.i, label %bb10.i

bb10.i:                                           ; preds = %bb7.i, %bb4.i
  %sift.sroa.0.0.i.lcssa = phi ptr [ %sift.sroa.0.0.i, %bb7.i ], [ %v.0, %bb4.i ]
  store i64 %value.sroa.0.0.copyload.i, ptr %sift.sroa.0.0.i.lcssa, align 8, !noalias !669
  %tmp.sroa.4.0.sift.sroa.0.0.lcssa.sroa_idx.i = getelementptr inbounds i8, ptr %gap_guard.sroa.5.0.i, i64 -16
  store ptr %_7.i.i.i.i.i, ptr %tmp.sroa.4.0.sift.sroa.0.0.lcssa.sroa_idx.i, align 8, !noalias !669
  %tmp.sroa.5.0.sift.sroa.0.0.lcssa.sroa_idx.i = getelementptr inbounds i8, ptr %gap_guard.sroa.5.0.i, i64 -8
  store i64 %len1.i.i.i.i.i, ptr %tmp.sroa.5.0.sift.sroa.0.0.lcssa.sroa_idx.i, align 8, !noalias !669
  br label %_ZN4core5slice4sort6shared9smallsort11insert_tail17haddbce5dcdcd8aa9E.exit

_ZN4core5slice4sort6shared9smallsort11insert_tail17haddbce5dcdcd8aa9E.exit: ; preds = %bb5, %bb10.i
  %tail.sroa.0.0 = getelementptr inbounds nuw i8, ptr %tail.sroa.0.04, i64 24
  %_11.not = icmp eq ptr %tail.sroa.0.0, %v_end
  br i1 %_11.not, label %bb7, label %bb5
}

; core::slice::sort::stable::driftsort_main
; Function Attrs: noinline nonlazybind uwtable
define void @_ZN4core5slice4sort6stable14driftsort_main17h4e47b3ce28504335E(ptr noalias noundef nonnull align 4 %v.0, i64 noundef range(i64 0, 2305843009213693952) %v.1, ptr noalias noundef align 8 dereferenceable(8) %is_less) unnamed_addr #6 personality ptr @rust_eh_personality {
start:
  %stack_buf = alloca [4096 x i8], align 4
  %_105 = lshr i64 %v.1, 1
  %v1 = sub nsw i64 %v.1, %_105
  %_0.sroa.0.0.i = tail call noundef i64 @llvm.umin.i64(i64 %v.1, i64 2000000)
  %_0.sroa.0.0.i6 = tail call noundef i64 @llvm.umax.i64(i64 %_0.sroa.0.0.i, i64 %v1)
  %_0.sroa.0.0.i7 = tail call noundef i64 @llvm.umax.i64(i64 %_0.sroa.0.0.i6, i64 48)
  call void @llvm.lifetime.start.p0(i64 4096, ptr nonnull %stack_buf)
  %_15 = icmp ugt i64 %_0.sroa.0.0.i6, 1024
  br i1 %_15, label %bb4, label %bb8

bb4:                                              ; preds = %start
  %_21.0.i.i.i.i = shl i64 %_0.sroa.0.0.i7, 2
  %_21.1.i.i.i.i = icmp ugt i64 %v1, 4611686018427387903
  %_26.i.i.i.i = icmp ugt i64 %_21.0.i.i.i.i, 9223372036854775804
  %or.cond.i.i.i.i = or i1 %_21.1.i.i.i.i, %_26.i.i.i.i
  br i1 %or.cond.i.i.i.i, label %bb3.i.i, label %"_ZN63_$LT$alloc..alloc..Global$u20$as$u20$core..alloc..Allocator$GT$8allocate17h02618852de544ee2E.exit.i.i.i", !prof !674

"_ZN63_$LT$alloc..alloc..Global$u20$as$u20$core..alloc..Allocator$GT$8allocate17h02618852de544ee2E.exit.i.i.i": ; preds = %bb4
; call __rustc::__rust_no_alloc_shim_is_unstable_v2
  tail call void @_RNvCsdBezzDwma51_7___rustc35___rust_no_alloc_shim_is_unstable_v2() #25, !noalias !675
; call __rustc::__rust_alloc
  %0 = tail call noundef align 4 ptr @_RNvCsdBezzDwma51_7___rustc12___rust_alloc(i64 noundef %_21.0.i.i.i.i, i64 noundef range(i64 1, 9) 4) #25, !noalias !675
  %1 = icmp eq ptr %0, null
  br i1 %1, label %bb3.i.i, label %bb8

bb3.i.i:                                          ; preds = %"_ZN63_$LT$alloc..alloc..Global$u20$as$u20$core..alloc..Allocator$GT$8allocate17h02618852de544ee2E.exit.i.i.i", %bb4
  %_4.sroa.4.0.ph.i.i = phi i64 [ 4, %"_ZN63_$LT$alloc..alloc..Global$u20$as$u20$core..alloc..Allocator$GT$8allocate17h02618852de544ee2E.exit.i.i.i" ], [ 0, %bb4 ]
; call alloc::raw_vec::handle_error
  tail call void @_ZN5alloc7raw_vec12handle_error17h3a8c375904e593b2E(i64 noundef %_4.sroa.4.0.ph.i.i, i64 %_21.0.i.i.i.i) #27
  unreachable

cleanup:                                          ; preds = %bb8
  %2 = landingpad { ptr, i32 }
          cleanup
  br i1 %_15, label %"_ZN4core3ptr47drop_in_place$LT$alloc..vec..Vec$LT$i32$GT$$GT$17h5b77a2858f5db887E.exit12", label %bb11

bb8:                                              ; preds = %"_ZN63_$LT$alloc..alloc..Global$u20$as$u20$core..alloc..Allocator$GT$8allocate17h02618852de544ee2E.exit.i.i.i", %start
  %heap_buf.sroa.6.1 = phi ptr [ undef, %start ], [ %0, %"_ZN63_$LT$alloc..alloc..Global$u20$as$u20$core..alloc..Allocator$GT$8allocate17h02618852de544ee2E.exit.i.i.i" ]
  %stack_scratch.sroa.4.0 = phi i64 [ 1024, %start ], [ %_0.sroa.0.0.i7, %"_ZN63_$LT$alloc..alloc..Global$u20$as$u20$core..alloc..Allocator$GT$8allocate17h02618852de544ee2E.exit.i.i.i" ]
  %stack_buf.pn = phi ptr [ %stack_buf, %start ], [ %0, %"_ZN63_$LT$alloc..alloc..Global$u20$as$u20$core..alloc..Allocator$GT$8allocate17h02618852de544ee2E.exit.i.i.i" ]
  %eager_sort = icmp samesign ult i64 %v.1, 65
; invoke core::slice::sort::stable::drift::sort
  invoke fastcc void @_ZN4core5slice4sort6stable5drift4sort17h753da6aa311033faE(ptr noalias noundef nonnull align 4 %v.0, i64 noundef %v.1, ptr noalias noundef nonnull align 4 %stack_buf.pn, i64 noundef %stack_scratch.sroa.4.0, i1 noundef zeroext %eager_sort, ptr noalias noundef align 8 dereferenceable(8) %is_less)
          to label %bb9 unwind label %cleanup

bb9:                                              ; preds = %bb8
  br i1 %_15, label %"_ZN4core3ptr47drop_in_place$LT$alloc..vec..Vec$LT$i32$GT$$GT$17h5b77a2858f5db887E.exit", label %bb10

bb10:                                             ; preds = %"_ZN4core3ptr47drop_in_place$LT$alloc..vec..Vec$LT$i32$GT$$GT$17h5b77a2858f5db887E.exit", %bb9
  call void @llvm.lifetime.end.p0(i64 4096, ptr nonnull %stack_buf)
  ret void

"_ZN4core3ptr47drop_in_place$LT$alloc..vec..Vec$LT$i32$GT$$GT$17h5b77a2858f5db887E.exit": ; preds = %bb9
  %3 = shl nuw i64 %_0.sroa.0.0.i7, 2
  %4 = icmp ne ptr %heap_buf.sroa.6.1, null
  call void @llvm.assume(i1 %4)
; call __rustc::__rust_dealloc
  call void @_RNvCsdBezzDwma51_7___rustc14___rust_dealloc(ptr noundef nonnull %heap_buf.sroa.6.1, i64 noundef %3, i64 noundef range(i64 1, -9223372036854775807) 4) #25, !noalias !680
  br label %bb10

bb11:                                             ; preds = %"_ZN4core3ptr47drop_in_place$LT$alloc..vec..Vec$LT$i32$GT$$GT$17h5b77a2858f5db887E.exit12", %cleanup
  resume { ptr, i32 } %2

"_ZN4core3ptr47drop_in_place$LT$alloc..vec..Vec$LT$i32$GT$$GT$17h5b77a2858f5db887E.exit12": ; preds = %cleanup
  %5 = shl nuw i64 %_0.sroa.0.0.i7, 2
  %6 = icmp ne ptr %heap_buf.sroa.6.1, null
  call void @llvm.assume(i1 %6)
; call __rustc::__rust_dealloc
  call void @_RNvCsdBezzDwma51_7___rustc14___rust_dealloc(ptr noundef nonnull %heap_buf.sroa.6.1, i64 noundef %5, i64 noundef range(i64 1, -9223372036854775807) 4) #25, !noalias !689
  br label %bb11
}

; core::slice::sort::stable::driftsort_main
; Function Attrs: noinline nonlazybind uwtable
define void @_ZN4core5slice4sort6stable14driftsort_main17had053cf2c77a0b49E(ptr noalias noundef nonnull align 8 %v.0, i64 noundef range(i64 0, 384307168202282326) %v.1, ptr noalias noundef nonnull align 1 %is_less) unnamed_addr #6 personality ptr @rust_eh_personality {
start:
  %heap_buf = alloca [24 x i8], align 8
  %stack_buf = alloca [4096 x i8], align 8
  %_105 = lshr i64 %v.1, 1
  %v1 = sub nsw i64 %v.1, %_105
  %_0.sroa.0.0.i = tail call noundef i64 @llvm.umin.i64(i64 %v.1, i64 333333)
  %_0.sroa.0.0.i6 = tail call noundef i64 @llvm.umax.i64(i64 %_0.sroa.0.0.i, i64 %v1)
  %_0.sroa.0.0.i7 = tail call noundef i64 @llvm.umax.i64(i64 %_0.sroa.0.0.i6, i64 48)
  call void @llvm.lifetime.start.p0(i64 4096, ptr nonnull %stack_buf)
  call void @llvm.lifetime.start.p0(i64 24, ptr nonnull %heap_buf)
  %_15 = icmp ult i64 %_0.sroa.0.0.i6, 171
  br i1 %_15, label %bb8, label %bb4

bb4:                                              ; preds = %start
  %_21.0.i.i.i.i = mul i64 %_0.sroa.0.0.i7, 24
  %or.cond.i.i.i.i = icmp ugt i64 %v1, 384307168202282325
  br i1 %or.cond.i.i.i.i, label %bb3.i.i, label %bb17.i.i.i, !prof !674

bb17.i.i.i:                                       ; preds = %bb4
  %_8.i.i.i = icmp eq i64 %_21.0.i.i.i.i, 0
  br i1 %_8.i.i.i, label %bb6, label %"_ZN63_$LT$alloc..alloc..Global$u20$as$u20$core..alloc..Allocator$GT$8allocate17h02618852de544ee2E.exit.i.i.i"

"_ZN63_$LT$alloc..alloc..Global$u20$as$u20$core..alloc..Allocator$GT$8allocate17h02618852de544ee2E.exit.i.i.i": ; preds = %bb17.i.i.i
; call __rustc::__rust_no_alloc_shim_is_unstable_v2
  tail call void @_RNvCsdBezzDwma51_7___rustc35___rust_no_alloc_shim_is_unstable_v2() #25, !noalias !698
; call __rustc::__rust_alloc
  %0 = tail call noundef align 8 ptr @_RNvCsdBezzDwma51_7___rustc12___rust_alloc(i64 noundef %_21.0.i.i.i.i, i64 noundef range(i64 1, 9) 8) #25, !noalias !698
  %1 = icmp eq ptr %0, null
  br i1 %1, label %bb3.i.i, label %bb6

bb3.i.i:                                          ; preds = %"_ZN63_$LT$alloc..alloc..Global$u20$as$u20$core..alloc..Allocator$GT$8allocate17h02618852de544ee2E.exit.i.i.i", %bb4
  %_4.sroa.4.0.ph.i.i = phi i64 [ 8, %"_ZN63_$LT$alloc..alloc..Global$u20$as$u20$core..alloc..Allocator$GT$8allocate17h02618852de544ee2E.exit.i.i.i" ], [ 0, %bb4 ]
; call alloc::raw_vec::handle_error
  tail call void @_ZN5alloc7raw_vec12handle_error17h3a8c375904e593b2E(i64 noundef %_4.sroa.4.0.ph.i.i, i64 %_21.0.i.i.i.i) #27
  unreachable

cleanup:                                          ; preds = %bb8
  %2 = landingpad { ptr, i32 }
          cleanup
  br i1 %_15, label %bb11, label %bb13

bb6:                                              ; preds = %bb17.i.i.i, %"_ZN63_$LT$alloc..alloc..Global$u20$as$u20$core..alloc..Allocator$GT$8allocate17h02618852de544ee2E.exit.i.i.i"
  %_4.sroa.4.0.i.i = phi i64 [ 0, %bb17.i.i.i ], [ %_0.sroa.0.0.i7, %"_ZN63_$LT$alloc..alloc..Global$u20$as$u20$core..alloc..Allocator$GT$8allocate17h02618852de544ee2E.exit.i.i.i" ]
  %_4.sroa.10.0.i.i = phi ptr [ inttoptr (i64 8 to ptr), %bb17.i.i.i ], [ %0, %"_ZN63_$LT$alloc..alloc..Global$u20$as$u20$core..alloc..Allocator$GT$8allocate17h02618852de544ee2E.exit.i.i.i" ]
  %_7.i.i = icmp samesign ule i64 %_0.sroa.0.0.i7, %_4.sroa.4.0.i.i
  tail call void @llvm.assume(i1 %_7.i.i)
  store i64 %_4.sroa.4.0.i.i, ptr %heap_buf, align 8
  %_18.sroa.4.0.heap_buf.sroa_idx = getelementptr inbounds nuw i8, ptr %heap_buf, i64 8
  store ptr %_4.sroa.10.0.i.i, ptr %_18.sroa.4.0.heap_buf.sroa_idx, align 8
  %_18.sroa.5.0.heap_buf.sroa_idx = getelementptr inbounds nuw i8, ptr %heap_buf, i64 16
  store i64 0, ptr %_18.sroa.5.0.heap_buf.sroa_idx, align 8
  br label %bb8

bb8:                                              ; preds = %bb6, %start
  %_10.i9 = phi ptr [ undef, %start ], [ %_4.sroa.10.0.i.i, %bb6 ]
  %self1.i8 = phi i64 [ undef, %start ], [ %_4.sroa.4.0.i.i, %bb6 ]
  %stack_scratch.sroa.4.0 = phi i64 [ 170, %start ], [ %_4.sroa.4.0.i.i, %bb6 ]
  %stack_buf.pn = phi ptr [ %stack_buf, %start ], [ %_4.sroa.10.0.i.i, %bb6 ]
  %eager_sort = icmp samesign ult i64 %v.1, 65
; invoke core::slice::sort::stable::drift::sort
  invoke fastcc void @_ZN4core5slice4sort6stable5drift4sort17h0c433fc08a1d1e26E(ptr noalias noundef nonnull align 8 %v.0, i64 noundef %v.1, ptr noalias noundef nonnull align 8 %stack_buf.pn, i64 noundef %stack_scratch.sroa.4.0, i1 noundef zeroext %eager_sort, ptr noalias noundef nonnull align 1 %is_less)
          to label %bb9 unwind label %cleanup

bb9:                                              ; preds = %bb8
  %_6.i.i.i.i2.i = icmp eq i64 %self1.i8, 0
  %or.cond = or i1 %_15, %_6.i.i.i.i2.i
  br i1 %or.cond, label %bb10, label %bb2.i.i.i3.i

bb10:                                             ; preds = %bb2.i.i.i3.i, %bb9
  call void @llvm.lifetime.end.p0(i64 24, ptr nonnull %heap_buf)
  call void @llvm.lifetime.end.p0(i64 4096, ptr nonnull %stack_buf)
  ret void

bb2.i.i.i3.i:                                     ; preds = %bb9
  %3 = mul nuw i64 %self1.i8, 24
; call __rustc::__rust_dealloc
  call void @_RNvCsdBezzDwma51_7___rustc14___rust_dealloc(ptr noundef nonnull %_10.i9, i64 noundef %3, i64 noundef range(i64 1, -9223372036854775807) 8) #25, !noalias !703
  br label %bb10

bb11:                                             ; preds = %bb13, %cleanup
  resume { ptr, i32 } %2

bb13:                                             ; preds = %cleanup
; call core::ptr::drop_in_place<alloc::vec::Vec<alloc::string::String>>
  call fastcc void @"_ZN4core3ptr65drop_in_place$LT$alloc..vec..Vec$LT$alloc..string..String$GT$$GT$17he3d388727106a310E"(ptr noalias noundef align 8 dereferenceable(24) %heap_buf) #28
  br label %bb11
}

; core::slice::sort::stable::drift::sort
; Function Attrs: nonlazybind uwtable
define internal fastcc void @_ZN4core5slice4sort6stable5drift4sort17h0c433fc08a1d1e26E(ptr noalias noundef nonnull align 8 %v.0, i64 noundef range(i64 0, 384307168202282326) %v.1, ptr noalias noundef nonnull align 8 %scratch.0, i64 noundef range(i64 0, 384307168202282326) %scratch.1, i1 noundef zeroext %eager_sort, ptr noalias noundef nonnull align 1 %is_less) unnamed_addr #4 personality ptr @rust_eh_personality {
start:
  %desired_depth_storage = alloca [66 x i8], align 1
  %run_storage = alloca [528 x i8], align 8
  %_6 = icmp samesign ult i64 %v.1, 2
  br i1 %_6, label %bb22, label %bb2

bb2:                                              ; preds = %start
  %d = udiv i64 4611686018427387904, %v.1
  %r = urem i64 4611686018427387904, %v.1
  %_73.not = icmp ne i64 %r, 0
  %0 = zext i1 %_73.not to i64
  %scale_factor.sroa.0.0 = add nuw nsw i64 %d, %0
  %_9 = icmp samesign ult i64 %v.1, 4097
  br i1 %_9, label %bb3, label %bb4

bb4:                                              ; preds = %bb2
; call core::slice::sort::stable::drift::sqrt_approx
  %1 = tail call noundef i64 @_ZN4core5slice4sort6stable5drift11sqrt_approx17h72a4dc1ae46294f4E(i64 noundef %v.1)
  br label %bb5

bb3:                                              ; preds = %bb2
  %_1135 = lshr i64 %v.1, 1
  %v1 = sub nsw i64 %v.1, %_1135
  %_0.sroa.0.0.i36 = tail call noundef i64 @llvm.umin.i64(i64 %v1, i64 64)
  br label %bb5

bb5:                                              ; preds = %bb3, %bb4
  %min_good_run_len.sroa.0.0 = phi i64 [ %_0.sroa.0.0.i36, %bb3 ], [ %1, %bb4 ]
  call void @llvm.lifetime.start.p0(i64 528, ptr nonnull %run_storage)
  call void @llvm.lifetime.start.p0(i64 66, ptr nonnull %desired_depth_storage)
  %_13.not.i109 = icmp ugt i64 %min_good_run_len.sroa.0.0, 2
  %_13.not.i115 = icmp ugt i64 %min_good_run_len.sroa.0.0, 2
  br label %bb6

bb6:                                              ; preds = %bb19, %bb5
  %prev_run.sroa.0.0 = phi i64 [ 1, %bb5 ], [ %next_run.sroa.0.0, %bb19 ]
  %scan_idx.sroa.0.0 = phi i64 [ 0, %bb5 ], [ %61, %bb19 ]
  %stack_len.sroa.0.0 = phi i64 [ 0, %bb5 ], [ %60, %bb19 ]
  %_22 = icmp ult i64 %scan_idx.sroa.0.0, %v.1
  br i1 %_22, label %bb30, label %bb10

bb10:                                             ; preds = %bb6, %_ZN4core5slice4sort6stable5drift10create_run17haa65d1d7eff1e388E.exit
  %desired_depth.sroa.0.0 = phi i8 [ %29, %_ZN4core5slice4sort6stable5drift10create_run17haa65d1d7eff1e388E.exit ], [ 0, %bb6 ]
  %next_run.sroa.0.0 = phi i64 [ %_0.sroa.0.0.i40, %_ZN4core5slice4sort6stable5drift10create_run17haa65d1d7eff1e388E.exit ], [ 1, %bb6 ]
  %_3790 = icmp ugt i64 %stack_len.sroa.0.0, 1
  br i1 %_3790, label %bb12.lr.ph, label %bb17

bb12.lr.ph:                                       ; preds = %bb10
  %v_end.i = getelementptr inbounds nuw %"alloc::string::String", ptr %v.0, i64 %scan_idx.sroa.0.0
  br label %bb12

bb30:                                             ; preds = %bb6
  %new_len = sub nuw nsw i64 %v.1, %scan_idx.sroa.0.0
  %_82 = getelementptr inbounds nuw %"alloc::string::String", ptr %v.0, i64 %scan_idx.sroa.0.0
  %_7.not.i = icmp ult i64 %new_len, %min_good_run_len.sroa.0.0
  br i1 %_7.not.i, label %bb7.i41, label %bb1.i

bb7.i41:                                          ; preds = %_ZN4core5slice4sort6shared17find_existing_run17ha85e74fa05112b79E.exit.i.thread112, %_ZN4core5slice4sort6shared17find_existing_run17ha85e74fa05112b79E.exit.i.thread, %_ZN4core5slice4sort6shared17find_existing_run17ha85e74fa05112b79E.exit.i, %bb30
  br i1 %eager_sort, label %bb16.i43, label %bb11.i42

bb1.i:                                            ; preds = %bb30
  %_4.i.i = icmp samesign ult i64 %new_len, 2
  br i1 %_4.i.i, label %bb5.i38, label %bb2.i.i

bb2.i.i:                                          ; preds = %bb1.i
  tail call void @llvm.experimental.noalias.scope.decl(metadata !712)
  tail call void @llvm.experimental.noalias.scope.decl(metadata !715)
  tail call void @llvm.experimental.noalias.scope.decl(metadata !717), !noalias !720
  tail call void @llvm.experimental.noalias.scope.decl(metadata !723), !noalias !720
  tail call void @llvm.experimental.noalias.scope.decl(metadata !725), !noalias !720
  tail call void @llvm.experimental.noalias.scope.decl(metadata !728), !noalias !720
  tail call void @llvm.experimental.noalias.scope.decl(metadata !730), !noalias !720
  tail call void @llvm.experimental.noalias.scope.decl(metadata !733), !noalias !720
  %2 = getelementptr inbounds nuw i8, ptr %_82, i64 32
  %_7.i.i.i.i65 = load ptr, ptr %2, align 8, !alias.scope !735, !noalias !736, !nonnull !6, !noundef !6
  %3 = getelementptr inbounds nuw i8, ptr %_82, i64 40
  %len1.i.i.i.i66 = load i64, ptr %3, align 8, !alias.scope !735, !noalias !736, !noundef !6
  %4 = getelementptr inbounds nuw i8, ptr %_82, i64 8
  %_14.i.i.i.i67 = load ptr, ptr %4, align 8, !alias.scope !737, !noalias !738, !nonnull !6, !noundef !6
  %5 = getelementptr inbounds nuw i8, ptr %_82, i64 16
  %6 = load i64, ptr %5, align 8, !alias.scope !737, !noalias !738, !noundef !6
  %spec.store.select.i.i.i.i.i.i68 = tail call i64 @llvm.umin.i64(i64 range(i64 0, -9223372036854775808) %len1.i.i.i.i66, i64 range(i64 0, -9223372036854775808) %6)
  %7 = tail call i32 @memcmp(ptr nonnull readonly align 1 %_7.i.i.i.i65, ptr nonnull readonly align 1 %_14.i.i.i.i67, i64 %spec.store.select.i.i.i.i.i.i68), !alias.scope !739, !noalias !746
  %8 = sext i32 %7 to i64
  %_15.i.i.i.i.i.i69 = icmp eq i32 %7, 0
  %diff.i.i.i.i.i.i70 = sub nsw i64 %len1.i.i.i.i66, %6
  %spec.select.i.i.i.i.i.i71 = select i1 %_15.i.i.i.i.i.i69, i64 %diff.i.i.i.i.i.i70, i64 %8
  %9 = icmp slt i64 %spec.select.i.i.i.i.i.i71, 0
  %_10.i.i86.not = icmp eq i64 %new_len, 2
  br i1 %9, label %bb4.i.i.preheader, label %bb11.i.i.preheader

bb11.i.i.preheader:                               ; preds = %bb2.i.i
  br i1 %_10.i.i86.not, label %_ZN4core5slice4sort6shared17find_existing_run17ha85e74fa05112b79E.exit.i.thread, label %bb12.i.i

bb4.i.i.preheader:                                ; preds = %bb2.i.i
  br i1 %_10.i.i86.not, label %_ZN4core5slice4sort6shared17find_existing_run17ha85e74fa05112b79E.exit.i.thread112, label %bb5.i.i

bb12.i.i:                                         ; preds = %bb11.i.i.preheader, %bb15.i.i
  %10 = phi i64 [ %len1.i.i.i.i59, %bb15.i.i ], [ %len1.i.i.i.i66, %bb11.i.i.preheader ]
  %_14.i.i.i.i60 = phi ptr [ %_7.i.i.i.i58, %bb15.i.i ], [ %_7.i.i.i.i65, %bb11.i.i.preheader ]
  %run_len.sroa.0.0.i.i84 = phi i64 [ %17, %bb15.i.i ], [ 2, %bb11.i.i.preheader ]
  %11 = getelementptr inbounds nuw %"alloc::string::String", ptr %_82, i64 %run_len.sroa.0.0.i.i84
  tail call void @llvm.experimental.noalias.scope.decl(metadata !747)
  tail call void @llvm.experimental.noalias.scope.decl(metadata !750), !noalias !720
  tail call void @llvm.experimental.noalias.scope.decl(metadata !753), !noalias !720
  tail call void @llvm.experimental.noalias.scope.decl(metadata !756), !noalias !720
  %12 = getelementptr inbounds nuw i8, ptr %11, i64 8
  %_7.i.i.i.i58 = load ptr, ptr %12, align 8, !alias.scope !759, !noalias !760, !nonnull !6, !noundef !6
  %13 = getelementptr inbounds nuw i8, ptr %11, i64 16
  %len1.i.i.i.i59 = load i64, ptr %13, align 8, !alias.scope !759, !noalias !760, !noundef !6
  %spec.store.select.i.i.i.i.i.i61 = tail call i64 @llvm.umin.i64(i64 range(i64 0, -9223372036854775808) %len1.i.i.i.i59, i64 range(i64 0, -9223372036854775808) %10)
  %14 = tail call i32 @memcmp(ptr nonnull readonly align 1 %_7.i.i.i.i58, ptr nonnull readonly align 1 %_14.i.i.i.i60, i64 %spec.store.select.i.i.i.i.i.i61), !alias.scope !765, !noalias !772
  %15 = sext i32 %14 to i64
  %_15.i.i.i.i.i.i62 = icmp eq i32 %14, 0
  %diff.i.i.i.i.i.i63 = sub nsw i64 %len1.i.i.i.i59, %10
  %spec.select.i.i.i.i.i.i64 = select i1 %_15.i.i.i.i.i.i62, i64 %diff.i.i.i.i.i.i63, i64 %15
  %16 = icmp slt i64 %spec.select.i.i.i.i.i.i64, 0
  br i1 %16, label %_ZN4core5slice4sort6shared17find_existing_run17ha85e74fa05112b79E.exit.i, label %bb15.i.i

bb15.i.i:                                         ; preds = %bb12.i.i
  %17 = add nuw i64 %run_len.sroa.0.0.i.i84, 1
  %exitcond.not = icmp eq i64 %17, %new_len
  br i1 %exitcond.not, label %_ZN4core5slice4sort6shared17find_existing_run17ha85e74fa05112b79E.exit.i, label %bb12.i.i

bb5.i.i:                                          ; preds = %bb4.i.i.preheader, %bb7.i.i
  %18 = phi i64 [ %len1.i.i.i.i, %bb7.i.i ], [ %len1.i.i.i.i66, %bb4.i.i.preheader ]
  %_14.i.i.i.i = phi ptr [ %_7.i.i.i.i, %bb7.i.i ], [ %_7.i.i.i.i65, %bb4.i.i.preheader ]
  %run_len.sroa.0.1.i.i87 = phi i64 [ %25, %bb7.i.i ], [ 2, %bb4.i.i.preheader ]
  %19 = getelementptr inbounds nuw %"alloc::string::String", ptr %_82, i64 %run_len.sroa.0.1.i.i87
  tail call void @llvm.experimental.noalias.scope.decl(metadata !773)
  tail call void @llvm.experimental.noalias.scope.decl(metadata !776), !noalias !720
  tail call void @llvm.experimental.noalias.scope.decl(metadata !779), !noalias !720
  tail call void @llvm.experimental.noalias.scope.decl(metadata !782), !noalias !720
  %20 = getelementptr inbounds nuw i8, ptr %19, i64 8
  %_7.i.i.i.i = load ptr, ptr %20, align 8, !alias.scope !785, !noalias !786, !nonnull !6, !noundef !6
  %21 = getelementptr inbounds nuw i8, ptr %19, i64 16
  %len1.i.i.i.i = load i64, ptr %21, align 8, !alias.scope !785, !noalias !786, !noundef !6
  %spec.store.select.i.i.i.i.i.i = tail call i64 @llvm.umin.i64(i64 range(i64 0, -9223372036854775808) %len1.i.i.i.i, i64 range(i64 0, -9223372036854775808) %18)
  %22 = tail call i32 @memcmp(ptr nonnull readonly align 1 %_7.i.i.i.i, ptr nonnull readonly align 1 %_14.i.i.i.i, i64 %spec.store.select.i.i.i.i.i.i), !alias.scope !791, !noalias !798
  %23 = sext i32 %22 to i64
  %_15.i.i.i.i.i.i = icmp eq i32 %22, 0
  %diff.i.i.i.i.i.i = sub nsw i64 %len1.i.i.i.i, %18
  %spec.select.i.i.i.i.i.i = select i1 %_15.i.i.i.i.i.i, i64 %diff.i.i.i.i.i.i, i64 %23
  %24 = icmp slt i64 %spec.select.i.i.i.i.i.i, 0
  br i1 %24, label %bb7.i.i, label %_ZN4core5slice4sort6shared17find_existing_run17ha85e74fa05112b79E.exit.i

bb7.i.i:                                          ; preds = %bb5.i.i
  %25 = add nuw i64 %run_len.sroa.0.1.i.i87, 1
  %exitcond100.not = icmp eq i64 %25, %new_len
  br i1 %exitcond100.not, label %_ZN4core5slice4sort6shared17find_existing_run17ha85e74fa05112b79E.exit.i, label %bb5.i.i

_ZN4core5slice4sort6shared17find_existing_run17ha85e74fa05112b79E.exit.i: ; preds = %bb15.i.i, %bb12.i.i, %bb7.i.i, %bb5.i.i
  %_0.sroa.0.0.i.i = phi i64 [ %new_len, %bb7.i.i ], [ %run_len.sroa.0.1.i.i87, %bb5.i.i ], [ %new_len, %bb15.i.i ], [ %run_len.sroa.0.0.i.i84, %bb12.i.i ]
  %_12.i = icmp samesign ule i64 %_0.sroa.0.0.i.i, %new_len
  tail call void @llvm.assume(i1 %_12.i)
  %_13.not.i = icmp ult i64 %_0.sroa.0.0.i.i, %min_good_run_len.sroa.0.0
  br i1 %_13.not.i, label %bb7.i41, label %bb3.i37

_ZN4core5slice4sort6shared17find_existing_run17ha85e74fa05112b79E.exit.i.thread112: ; preds = %bb4.i.i.preheader
  br i1 %_13.not.i115, label %bb7.i41, label %bb5.preheader.i.i

_ZN4core5slice4sort6shared17find_existing_run17ha85e74fa05112b79E.exit.i.thread: ; preds = %bb11.i.i.preheader
  br i1 %_13.not.i109, label %bb7.i41, label %bb5.i38

bb3.i37:                                          ; preds = %_ZN4core5slice4sort6shared17find_existing_run17ha85e74fa05112b79E.exit.i
  br i1 %9, label %bb14.i, label %bb5.i38

bb11.i42:                                         ; preds = %bb7.i41
  %_0.sroa.0.0.i57 = tail call noundef i64 @llvm.umin.i64(i64 range(i64 0, 384307168202282326) %new_len, i64 %min_good_run_len.sroa.0.0)
  %_36.i = shl nuw nsw i64 %_0.sroa.0.0.i57, 1
  br label %_ZN4core5slice4sort6stable5drift10create_run17haa65d1d7eff1e388E.exit

bb16.i43:                                         ; preds = %bb7.i41
  %_0.sroa.0.0.i56 = tail call noundef i64 @llvm.umin.i64(i64 range(i64 0, 384307168202282326) %new_len, i64 32)
; call core::slice::sort::stable::quicksort::quicksort
  tail call void @_ZN4core5slice4sort6stable9quicksort9quicksort17hd7748f61f1e7fd1dE(ptr noalias noundef nonnull align 8 %_82, i64 noundef %_0.sroa.0.0.i56, ptr noalias noundef nonnull align 8 %scratch.0, i64 noundef range(i64 0, 384307168202282326) %scratch.1, i32 noundef 0, ptr noalias noundef readonly align 8 captures(address, read_provenance) dereferenceable_or_null(24) null, ptr noalias noundef nonnull align 1 %is_less) #29
  %_35.i = shl nuw nsw i64 %_0.sroa.0.0.i56, 1
  %_34.i = or disjoint i64 %_35.i, 1
  br label %_ZN4core5slice4sort6stable5drift10create_run17haa65d1d7eff1e388E.exit

bb5.i38:                                          ; preds = %bb6.i.i, %_ZN4core5slice4sort6shared17find_existing_run17ha85e74fa05112b79E.exit.i.thread, %bb1.i, %bb14.i, %bb3.i37
  %_0.sroa.0.0.i.i7780 = phi i64 [ %_0.sroa.0.0.i.i, %bb3.i37 ], [ 1, %bb14.i ], [ %new_len, %bb1.i ], [ 2, %_ZN4core5slice4sort6shared17find_existing_run17ha85e74fa05112b79E.exit.i.thread ], [ %_0.sroa.0.0.i.i110118122, %bb6.i.i ]
  %_27.i = shl nuw nsw i64 %_0.sroa.0.0.i.i7780, 1
  %_26.i = or disjoint i64 %_27.i, 1
  br label %_ZN4core5slice4sort6stable5drift10create_run17haa65d1d7eff1e388E.exit

bb14.i:                                           ; preds = %bb3.i37
  %half_len2.i = lshr i64 %_0.sroa.0.0.i.i, 1
  tail call void @llvm.experimental.noalias.scope.decl(metadata !799), !noalias !802
  tail call void @llvm.experimental.noalias.scope.decl(metadata !804), !noalias !802
  %_915.not.i.i = icmp samesign ult i64 %_0.sroa.0.0.i.i, 2
  br i1 %_915.not.i.i, label %bb5.i38, label %bb5.preheader.i.i

bb5.preheader.i.i:                                ; preds = %_ZN4core5slice4sort6shared17find_existing_run17ha85e74fa05112b79E.exit.i.thread112, %bb14.i
  %half_len2.i123 = phi i64 [ %half_len2.i, %bb14.i ], [ 1, %_ZN4core5slice4sort6shared17find_existing_run17ha85e74fa05112b79E.exit.i.thread112 ]
  %_0.sroa.0.0.i.i110118122 = phi i64 [ %_0.sroa.0.0.i.i, %bb14.i ], [ 2, %_ZN4core5slice4sort6shared17find_existing_run17ha85e74fa05112b79E.exit.i.thread112 ]
  %end.i = getelementptr inbounds nuw %"alloc::string::String", ptr %_82, i64 %_0.sroa.0.0.i.i110118122
  br label %bb6.i.i

bb6.i.i:                                          ; preds = %bb6.i.i, %bb5.preheader.i.i
  %i.sroa.0.016.i.i = phi i64 [ %27, %bb6.i.i ], [ 0, %bb5.preheader.i.i ]
  %26 = xor i64 %i.sroa.0.016.i.i, -1
  %x.i.i = getelementptr inbounds nuw %"alloc::string::String", ptr %_82, i64 %i.sroa.0.016.i.i
  %y.i.i = getelementptr %"alloc::string::String", ptr %end.i, i64 %26
  tail call void @llvm.experimental.noalias.scope.decl(metadata !806), !noalias !802
  tail call void @llvm.experimental.noalias.scope.decl(metadata !809), !noalias !802
  %_3.sroa.0.0.copyload.i.i.i.i.i.i.i = load i64, ptr %x.i.i, align 8, !alias.scope !811, !noalias !814
  %_4.sroa.0.0.copyload.i.i.i.i.i.i.i = load i64, ptr %y.i.i, align 8, !alias.scope !815, !noalias !816
  store i64 %_4.sroa.0.0.copyload.i.i.i.i.i.i.i, ptr %x.i.i, align 8, !alias.scope !811, !noalias !814
  store i64 %_3.sroa.0.0.copyload.i.i.i.i.i.i.i, ptr %y.i.i, align 8, !alias.scope !815, !noalias !816
  %_11.1.i.i.i.i.i.i = getelementptr inbounds nuw i8, ptr %x.i.i, i64 8
  %_13.1.i.i.i.i.i.i = getelementptr inbounds nuw i8, ptr %y.i.i, i64 8
  tail call void @llvm.experimental.noalias.scope.decl(metadata !817), !noalias !802
  tail call void @llvm.experimental.noalias.scope.decl(metadata !819), !noalias !802
  %_3.sroa.0.0.copyload.i.1.i.i.i.i.i.i = load i64, ptr %_11.1.i.i.i.i.i.i, align 8, !alias.scope !821, !noalias !822
  %_4.sroa.0.0.copyload.i.1.i.i.i.i.i.i = load i64, ptr %_13.1.i.i.i.i.i.i, align 8, !alias.scope !823, !noalias !824
  store i64 %_4.sroa.0.0.copyload.i.1.i.i.i.i.i.i, ptr %_11.1.i.i.i.i.i.i, align 8, !alias.scope !821, !noalias !822
  store i64 %_3.sroa.0.0.copyload.i.1.i.i.i.i.i.i, ptr %_13.1.i.i.i.i.i.i, align 8, !alias.scope !823, !noalias !824
  %_11.2.i.i.i.i.i.i = getelementptr inbounds nuw i8, ptr %x.i.i, i64 16
  %_13.2.i.i.i.i.i.i = getelementptr inbounds nuw i8, ptr %y.i.i, i64 16
  tail call void @llvm.experimental.noalias.scope.decl(metadata !825), !noalias !802
  tail call void @llvm.experimental.noalias.scope.decl(metadata !827), !noalias !802
  %_3.sroa.0.0.copyload.i.2.i.i.i.i.i.i = load i64, ptr %_11.2.i.i.i.i.i.i, align 8, !alias.scope !829, !noalias !830
  %_4.sroa.0.0.copyload.i.2.i.i.i.i.i.i = load i64, ptr %_13.2.i.i.i.i.i.i, align 8, !alias.scope !831, !noalias !832
  store i64 %_4.sroa.0.0.copyload.i.2.i.i.i.i.i.i, ptr %_11.2.i.i.i.i.i.i, align 8, !alias.scope !829, !noalias !830
  store i64 %_3.sroa.0.0.copyload.i.2.i.i.i.i.i.i, ptr %_13.2.i.i.i.i.i.i, align 8, !alias.scope !831, !noalias !832
  %27 = add nuw nsw i64 %i.sroa.0.016.i.i, 1
  %exitcond.not.i.i = icmp eq i64 %27, %half_len2.i123
  br i1 %exitcond.not.i.i, label %bb5.i38, label %bb6.i.i

_ZN4core5slice4sort6stable5drift10create_run17haa65d1d7eff1e388E.exit: ; preds = %bb11.i42, %bb16.i43, %bb5.i38
  %_0.sroa.0.0.i40 = phi i64 [ %_26.i, %bb5.i38 ], [ %_34.i, %bb16.i43 ], [ %_36.i, %bb11.i42 ]
  %_31 = lshr i64 %prev_run.sroa.0.0, 1
  %_35 = lshr i64 %_0.sroa.0.0.i40, 1
  %factor = shl i64 %scan_idx.sroa.0.0, 1
  %x = sub i64 %factor, %_31
  %y = add i64 %_35, %factor
  %_90 = mul i64 %x, %scale_factor.sroa.0.0
  %_91 = mul i64 %y, %scale_factor.sroa.0.0
  %self4 = xor i64 %_91, %_90
  %28 = tail call range(i64 0, 65) i64 @llvm.ctlz.i64(i64 %self4, i1 false)
  %29 = trunc nuw nsw i64 %28 to i8
  br label %bb10

bb12:                                             ; preds = %bb12.lr.ph, %_ZN4core5slice4sort6stable5drift13logical_merge17h7498cdca0d127bebE.exit
  %stack_len.sroa.0.192 = phi i64 [ %stack_len.sroa.0.0, %bb12.lr.ph ], [ %count, %_ZN4core5slice4sort6stable5drift13logical_merge17h7498cdca0d127bebE.exit ]
  %prev_run.sroa.0.191 = phi i64 [ %prev_run.sroa.0.0, %bb12.lr.ph ], [ %_0.sroa.0.0.i, %_ZN4core5slice4sort6stable5drift13logical_merge17h7498cdca0d127bebE.exit ]
  %count = add i64 %stack_len.sroa.0.192, -1
  %_41 = getelementptr inbounds nuw i8, ptr %desired_depth_storage, i64 %count
  %_40 = load i8, ptr %_41, align 1, !noundef !6
  %_39.not = icmp ult i8 %_40, %desired_depth.sroa.0.0
  br i1 %_39.not, label %bb17, label %bb13

bb17:                                             ; preds = %_ZN4core5slice4sort6stable5drift13logical_merge17h7498cdca0d127bebE.exit, %bb12, %bb10
  %prev_run.sroa.0.1.lcssa = phi i64 [ %prev_run.sroa.0.0, %bb10 ], [ %prev_run.sroa.0.191, %bb12 ], [ %_0.sroa.0.0.i, %_ZN4core5slice4sort6stable5drift13logical_merge17h7498cdca0d127bebE.exit ]
  %stack_len.sroa.0.1.lcssa = phi i64 [ %stack_len.sroa.0.0, %bb10 ], [ %stack_len.sroa.0.192, %bb12 ], [ 1, %_ZN4core5slice4sort6stable5drift13logical_merge17h7498cdca0d127bebE.exit ]
  %_59 = getelementptr inbounds nuw i64, ptr %run_storage, i64 %stack_len.sroa.0.1.lcssa
  store i64 %prev_run.sroa.0.1.lcssa, ptr %_59, align 8
  %_61 = getelementptr inbounds nuw i8, ptr %desired_depth_storage, i64 %stack_len.sroa.0.1.lcssa
  store i8 %desired_depth.sroa.0.0, ptr %_61, align 1
  br i1 %_22, label %bb19, label %bb18

bb13:                                             ; preds = %bb12
  %_46 = getelementptr inbounds nuw i64, ptr %run_storage, i64 %count
  %left10 = load i64, ptr %_46, align 8, !noundef !6
  %_50 = lshr i64 %left10, 1
  %_51 = lshr i64 %prev_run.sroa.0.191, 1
  %merged_len = add nuw i64 %_50, %_51
  %merge_start_idx = sub i64 %scan_idx.sroa.0.0, %merged_len
  %_98 = getelementptr inbounds nuw %"alloc::string::String", ptr %v.0, i64 %merge_start_idx
  %can_fit_in_scratch.i = icmp samesign ugt i64 %merged_len, %scratch.1
  %_22.i = and i64 %prev_run.sroa.0.191, 1
  %_10.not.i = icmp eq i64 %_22.i, 0
  %30 = or i64 %left10, %prev_run.sroa.0.191
  %31 = and i64 %30, 1
  %32 = icmp ne i64 %31, 0
  %or.cond2.i = or i1 %can_fit_in_scratch.i, %32
  br i1 %or.cond2.i, label %bb3.i, label %bb9.i

bb3.i:                                            ; preds = %bb13
  %_21.i = and i64 %left10, 1
  %_9.not.i = icmp eq i64 %_21.i, 0
  br i1 %_9.not.i, label %bb11.i, label %bb5.i

bb9.i:                                            ; preds = %bb13
  %_40.i = shl nuw nsw i64 %merged_len, 1
  br label %_ZN4core5slice4sort6stable5drift13logical_merge17h7498cdca0d127bebE.exit

bb5.i:                                            ; preds = %bb11.i, %bb3.i
  br i1 %_10.not.i, label %bb16.i, label %bb7.i

bb11.i:                                           ; preds = %bb3.i
  %self.i = or i64 %_50, 1
  %33 = tail call range(i64 5, 64) i64 @llvm.ctlz.i64(i64 %self.i, i1 true)
  %34 = trunc nuw nsw i64 %33 to i32
  %log.i = shl nuw nsw i32 %34, 1
  %limit.i = xor i32 %log.i, 126
; call core::slice::sort::stable::quicksort::quicksort
  tail call void @_ZN4core5slice4sort6stable9quicksort9quicksort17hd7748f61f1e7fd1dE(ptr noalias noundef nonnull align 8 %_98, i64 noundef range(i64 0, 384307168202282326) %_50, ptr noalias noundef nonnull align 8 %scratch.0, i64 noundef range(i64 0, 384307168202282326) %scratch.1, i32 noundef %limit.i, ptr noalias noundef readonly align 8 captures(address, read_provenance) dereferenceable_or_null(24) null, ptr noalias noundef nonnull align 1 %is_less) #29
  br label %bb5.i

bb7.i:                                            ; preds = %bb16.i, %bb5.i
  tail call void @llvm.experimental.noalias.scope.decl(metadata !833)
  tail call void @llvm.experimental.noalias.scope.decl(metadata !836)
  %_6.i = icmp ult i64 %left10, 2
  %_7.i = icmp ult i64 %prev_run.sroa.0.191, 2
  %or.cond.i = select i1 %_6.i, i1 true, i1 %_7.i
  br i1 %or.cond.i, label %_ZN4core5slice4sort6stable5merge5merge17h6e59d25376e5c569E.exit, label %bb2.i

bb2.i:                                            ; preds = %bb7.i
  %_0.sroa.0.0.i.i44 = tail call i64 @llvm.umin.i64(i64 %_51, i64 range(i64 0, -9223372036854775808) %_50)
  %_8.i = icmp samesign ult i64 %scratch.1, %_0.sroa.0.0.i.i44
  br i1 %_8.i, label %_ZN4core5slice4sort6stable5merge5merge17h6e59d25376e5c569E.exit, label %bb5.i45

bb5.i45:                                          ; preds = %bb2.i
  %v_mid.i = getelementptr inbounds nuw %"alloc::string::String", ptr %_98, i64 %_50
  %left_is_shorter.not.i = icmp samesign ugt i64 %_50, %_51
  %spec.select.i = select i1 %left_is_shorter.not.i, ptr %v_mid.i, ptr %_98
  %35 = mul nuw nsw i64 %_0.sroa.0.0.i.i44, 24
  tail call void @llvm.memcpy.p0.p0.i64(ptr nonnull align 8 %scratch.0, ptr nonnull align 8 %spec.select.i, i64 %35, i1 false), !alias.scope !838
  %_22.i46 = getelementptr inbounds nuw i8, ptr %scratch.0, i64 %35
  br i1 %left_is_shorter.not.i, label %bb1.i.i, label %bb3.i.i

bb1.i.i:                                          ; preds = %bb5.i45, %bb1.i.i
  %_219.i.i = phi ptr [ %_21.i.i49, %bb1.i.i ], [ %_22.i46, %bb5.i45 ]
  %_187.i.i = phi ptr [ %_18.i.i, %bb1.i.i ], [ %v_mid.i, %bb5.i45 ]
  %out.sroa.0.0.i.i = phi ptr [ %38, %bb1.i.i ], [ %v_end.i, %bb5.i45 ]
  %36 = getelementptr inbounds i8, ptr %_187.i.i, i64 -24
  %37 = getelementptr inbounds i8, ptr %_219.i.i, i64 -24
  %38 = getelementptr inbounds i8, ptr %out.sroa.0.0.i.i, i64 -24
  tail call void @llvm.experimental.noalias.scope.decl(metadata !839)
  tail call void @llvm.experimental.noalias.scope.decl(metadata !842)
  tail call void @llvm.experimental.noalias.scope.decl(metadata !844)
  tail call void @llvm.experimental.noalias.scope.decl(metadata !847)
  tail call void @llvm.experimental.noalias.scope.decl(metadata !849)
  tail call void @llvm.experimental.noalias.scope.decl(metadata !852)
  tail call void @llvm.experimental.noalias.scope.decl(metadata !854)
  tail call void @llvm.experimental.noalias.scope.decl(metadata !857)
  %39 = getelementptr inbounds i8, ptr %_219.i.i, i64 -16
  %_7.i.i.i.i.i.i = load ptr, ptr %39, align 8, !alias.scope !859, !noalias !860, !nonnull !6, !noundef !6
  %40 = getelementptr inbounds i8, ptr %_219.i.i, i64 -8
  %len1.i.i.i.i.i.i = load i64, ptr %40, align 8, !alias.scope !859, !noalias !860, !noundef !6
  %41 = getelementptr inbounds i8, ptr %_187.i.i, i64 -16
  %_14.i.i.i.i.i.i = load ptr, ptr %41, align 8, !alias.scope !863, !noalias !864, !nonnull !6, !noundef !6
  %42 = getelementptr inbounds i8, ptr %_187.i.i, i64 -8
  %43 = load i64, ptr %42, align 8, !alias.scope !863, !noalias !864, !noundef !6
  %spec.store.select.i.i.i.i.i.i.i.i = tail call i64 @llvm.umin.i64(i64 range(i64 0, -9223372036854775808) %len1.i.i.i.i.i.i, i64 range(i64 0, -9223372036854775808) %43)
  %44 = tail call i32 @memcmp(ptr nonnull readonly align 1 %_7.i.i.i.i.i.i, ptr nonnull readonly align 1 %_14.i.i.i.i.i.i, i64 %spec.store.select.i.i.i.i.i.i.i.i), !alias.scope !865, !noalias !872
  %45 = sext i32 %44 to i64
  %_15.i.i.i.i.i.i.i.i = icmp eq i32 %44, 0
  %diff.i.i.i.i.i.i.i.i = sub nsw i64 %len1.i.i.i.i.i.i, %43
  %spec.select.i.i.i.i.i.i.i.i = select i1 %_15.i.i.i.i.i.i.i.i, i64 %diff.i.i.i.i.i.i.i.i, i64 %45
  %46 = icmp sgt i64 %spec.select.i.i.i.i.i.i.i.i, -1
  %..i.i = select i1 %46, ptr %37, ptr %36
  tail call void @llvm.memcpy.p0.p0.i64(ptr noundef nonnull align 8 dereferenceable(24) %38, ptr noundef nonnull align 8 dereferenceable(24) %..i.i, i64 24, i1 false), !alias.scope !838, !noalias !873
  %count.i.i = zext i1 %46 to i64
  %_18.i.i = getelementptr inbounds nuw %"alloc::string::String", ptr %36, i64 %count.i.i
  %spec.select.i.i.i.i.i.i.lobit.i.i = lshr i64 %spec.select.i.i.i.i.i.i.i.i, 63
  %_21.i.i49 = getelementptr inbounds nuw %"alloc::string::String", ptr %37, i64 %spec.select.i.i.i.i.i.i.lobit.i.i
  %_23.i.i = icmp eq ptr %_18.i.i, %_98
  %_26.i.i = icmp eq ptr %_21.i.i49, %scratch.0
  %or.cond.i.i = select i1 %_23.i.i, i1 true, i1 %_26.i.i
  br i1 %or.cond.i.i, label %bb16.i48, label %bb1.i.i

bb3.i.i:                                          ; preds = %bb5.i45, %bb3.i.i
  %_2511.i.i = phi ptr [ %_25.i.i, %bb3.i.i ], [ %_98, %bb5.i45 ]
  %right.sroa.0.010.i.i = phi ptr [ %_23.i21.i, %bb3.i.i ], [ %v_mid.i, %bb5.i45 ]
  %_2059.i.i = phi ptr [ %_20.i.i, %bb3.i.i ], [ %scratch.0, %bb5.i45 ]
  tail call void @llvm.experimental.noalias.scope.decl(metadata !874)
  tail call void @llvm.experimental.noalias.scope.decl(metadata !877)
  tail call void @llvm.experimental.noalias.scope.decl(metadata !879)
  tail call void @llvm.experimental.noalias.scope.decl(metadata !882)
  tail call void @llvm.experimental.noalias.scope.decl(metadata !884)
  tail call void @llvm.experimental.noalias.scope.decl(metadata !887)
  tail call void @llvm.experimental.noalias.scope.decl(metadata !889)
  tail call void @llvm.experimental.noalias.scope.decl(metadata !892)
  %47 = getelementptr inbounds nuw i8, ptr %right.sroa.0.010.i.i, i64 8
  %_7.i.i.i.i.i12.i = load ptr, ptr %47, align 8, !alias.scope !894, !noalias !895, !nonnull !6, !noundef !6
  %48 = getelementptr inbounds nuw i8, ptr %right.sroa.0.010.i.i, i64 16
  %len1.i.i.i.i.i13.i = load i64, ptr %48, align 8, !alias.scope !894, !noalias !895, !noundef !6
  %49 = getelementptr inbounds nuw i8, ptr %_2059.i.i, i64 8
  %_14.i.i.i.i.i14.i = load ptr, ptr %49, align 8, !alias.scope !898, !noalias !899, !nonnull !6, !noundef !6
  %50 = getelementptr inbounds nuw i8, ptr %_2059.i.i, i64 16
  %51 = load i64, ptr %50, align 8, !alias.scope !898, !noalias !899, !noundef !6
  %spec.store.select.i.i.i.i.i.i.i15.i = tail call i64 @llvm.umin.i64(i64 range(i64 0, -9223372036854775808) %len1.i.i.i.i.i13.i, i64 range(i64 0, -9223372036854775808) %51)
  %52 = tail call i32 @memcmp(ptr nonnull readonly align 1 %_7.i.i.i.i.i12.i, ptr nonnull readonly align 1 %_14.i.i.i.i.i14.i, i64 %spec.store.select.i.i.i.i.i.i.i15.i), !alias.scope !900, !noalias !907
  %53 = sext i32 %52 to i64
  %_15.i.i.i.i.i.i.i16.i = icmp eq i32 %52, 0
  %diff.i.i.i.i.i.i.i17.i = sub nsw i64 %len1.i.i.i.i.i13.i, %51
  %spec.select.i.i.i.i.i.i.i18.i = select i1 %_15.i.i.i.i.i.i.i16.i, i64 %diff.i.i.i.i.i.i.i17.i, i64 %53
  %54 = icmp sgt i64 %spec.select.i.i.i.i.i.i.i18.i, -1
  %src.sroa.0.0.i.i = select i1 %54, ptr %_2059.i.i, ptr %right.sroa.0.010.i.i
  tail call void @llvm.memcpy.p0.p0.i64(ptr noundef nonnull align 8 dereferenceable(24) %_2511.i.i, ptr noundef nonnull align 8 dereferenceable(24) %src.sroa.0.0.i.i, i64 24, i1 false), !alias.scope !838, !noalias !908
  %count.i19.i = zext i1 %54 to i64
  %_20.i.i = getelementptr inbounds nuw %"alloc::string::String", ptr %_2059.i.i, i64 %count.i19.i
  %spec.select.i.i.i.i.i.i.lobit.i20.i = lshr i64 %spec.select.i.i.i.i.i.i.i18.i, 63
  %_23.i21.i = getelementptr inbounds nuw %"alloc::string::String", ptr %right.sroa.0.010.i.i, i64 %spec.select.i.i.i.i.i.i.lobit.i20.i
  %_25.i.i = getelementptr inbounds nuw i8, ptr %_2511.i.i, i64 24
  %_7.i.i = icmp ne ptr %_20.i.i, %_22.i46
  %_10.i.i47 = icmp ne ptr %_23.i21.i, %v_end.i
  %or.cond.i22.i = select i1 %_7.i.i, i1 %_10.i.i47, i1 false
  br i1 %or.cond.i22.i, label %bb3.i.i, label %bb16.i48

bb16.i48:                                         ; preds = %bb3.i.i, %bb1.i.i
  %merge_state.sroa.13.0.i = phi ptr [ %_18.i.i, %bb1.i.i ], [ %_25.i.i, %bb3.i.i ]
  %merge_state.sroa.7.0.i = phi ptr [ %_21.i.i49, %bb1.i.i ], [ %_22.i46, %bb3.i.i ]
  %merge_state.sroa.0.0.i = phi ptr [ %scratch.0, %bb1.i.i ], [ %_20.i.i, %bb3.i.i ]
  %55 = ptrtoint ptr %merge_state.sroa.7.0.i to i64
  %56 = ptrtoint ptr %merge_state.sroa.0.0.i to i64
  %57 = sub nuw i64 %55, %56
  tail call void @llvm.memcpy.p0.p0.i64(ptr nonnull align 8 %merge_state.sroa.13.0.i, ptr align 8 %merge_state.sroa.0.0.i, i64 %57, i1 false), !alias.scope !838, !noalias !909
  br label %_ZN4core5slice4sort6stable5merge5merge17h6e59d25376e5c569E.exit

_ZN4core5slice4sort6stable5merge5merge17h6e59d25376e5c569E.exit: ; preds = %bb7.i, %bb2.i, %bb16.i48
  %_39.i = shl nuw nsw i64 %merged_len, 1
  %_38.i = or disjoint i64 %_39.i, 1
  br label %_ZN4core5slice4sort6stable5drift13logical_merge17h7498cdca0d127bebE.exit

bb16.i:                                           ; preds = %bb5.i
  %_37.i = getelementptr inbounds nuw %"alloc::string::String", ptr %_98, i64 %_50
  %self.i50 = or i64 %_51, 1
  %58 = tail call range(i64 5, 64) i64 @llvm.ctlz.i64(i64 %self.i50, i1 true)
  %59 = trunc nuw nsw i64 %58 to i32
  %log.i51 = shl nuw nsw i32 %59, 1
  %limit.i52 = xor i32 %log.i51, 126
; call core::slice::sort::stable::quicksort::quicksort
  tail call void @_ZN4core5slice4sort6stable9quicksort9quicksort17hd7748f61f1e7fd1dE(ptr noalias noundef nonnull align 8 %_37.i, i64 noundef range(i64 0, 384307168202282326) %_51, ptr noalias noundef nonnull align 8 %scratch.0, i64 noundef range(i64 0, 384307168202282326) %scratch.1, i32 noundef %limit.i52, ptr noalias noundef readonly align 8 captures(address, read_provenance) dereferenceable_or_null(24) null, ptr noalias noundef nonnull align 1 %is_less) #29
  br label %bb7.i

_ZN4core5slice4sort6stable5drift13logical_merge17h7498cdca0d127bebE.exit: ; preds = %bb9.i, %_ZN4core5slice4sort6stable5merge5merge17h6e59d25376e5c569E.exit
  %_0.sroa.0.0.i = phi i64 [ %_38.i, %_ZN4core5slice4sort6stable5merge5merge17h6e59d25376e5c569E.exit ], [ %_40.i, %bb9.i ]
  %_37 = icmp ugt i64 %count, 1
  br i1 %_37, label %bb12, label %bb17

bb19:                                             ; preds = %bb17
  %60 = add i64 %stack_len.sroa.0.1.lcssa, 1
  %_65 = lshr i64 %next_run.sroa.0.0, 1
  %61 = add nuw i64 %_65, %scan_idx.sroa.0.0
  br label %bb6

bb18:                                             ; preds = %bb17
  %_99 = and i64 %prev_run.sroa.0.1.lcssa, 1
  %_66.not = icmp eq i64 %_99, 0
  br i1 %_66.not, label %bb20, label %bb21

bb20:                                             ; preds = %bb18
  %self.i53 = or i64 %v.1, 1
  %62 = tail call range(i64 5, 64) i64 @llvm.ctlz.i64(i64 %self.i53, i1 true)
  %63 = trunc nuw nsw i64 %62 to i32
  %log.i54 = shl nuw nsw i32 %63, 1
  %limit.i55 = xor i32 %log.i54, 126
; call core::slice::sort::stable::quicksort::quicksort
  tail call void @_ZN4core5slice4sort6stable9quicksort9quicksort17hd7748f61f1e7fd1dE(ptr noalias noundef nonnull align 8 %v.0, i64 noundef range(i64 0, 384307168202282326) %v.1, ptr noalias noundef nonnull align 8 %scratch.0, i64 noundef range(i64 0, 384307168202282326) %scratch.1, i32 noundef %limit.i55, ptr noalias noundef readonly align 8 captures(address, read_provenance) dereferenceable_or_null(24) null, ptr noalias noundef nonnull align 1 %is_less) #29
  br label %bb21

bb21:                                             ; preds = %bb20, %bb18
  call void @llvm.lifetime.end.p0(i64 66, ptr nonnull %desired_depth_storage)
  call void @llvm.lifetime.end.p0(i64 528, ptr nonnull %run_storage)
  br label %bb22

bb22:                                             ; preds = %start, %bb21
  ret void
}

; core::slice::sort::stable::drift::sort
; Function Attrs: nonlazybind uwtable
define internal fastcc void @_ZN4core5slice4sort6stable5drift4sort17h753da6aa311033faE(ptr noalias noundef nonnull align 4 %v.0, i64 noundef range(i64 0, 2305843009213693952) %v.1, ptr noalias noundef nonnull align 4 %scratch.0, i64 noundef range(i64 0, 2305843009213693952) %scratch.1, i1 noundef zeroext %eager_sort, ptr noalias noundef nonnull align 8 dereferenceable(8) %is_less) unnamed_addr #4 personality ptr @rust_eh_personality {
start:
  %desired_depth_storage = alloca [66 x i8], align 1
  %run_storage = alloca [528 x i8], align 8
  %_6 = icmp samesign ult i64 %v.1, 2
  br i1 %_6, label %bb22, label %bb2

bb2:                                              ; preds = %start
  %d = udiv i64 4611686018427387904, %v.1
  %r = urem i64 4611686018427387904, %v.1
  %_73.not = icmp ne i64 %r, 0
  %0 = zext i1 %_73.not to i64
  %scale_factor.sroa.0.0 = add nuw nsw i64 %d, %0
  %_9 = icmp samesign ult i64 %v.1, 4097
  br i1 %_9, label %bb3, label %bb4

bb4:                                              ; preds = %bb2
; call core::slice::sort::stable::drift::sqrt_approx
  %1 = tail call noundef i64 @_ZN4core5slice4sort6stable5drift11sqrt_approx17h72a4dc1ae46294f4E(i64 noundef %v.1)
  br label %bb5

bb3:                                              ; preds = %bb2
  %_1135 = lshr i64 %v.1, 1
  %v1 = sub nsw i64 %v.1, %_1135
  %_0.sroa.0.0.i36 = tail call noundef i64 @llvm.umin.i64(i64 %v1, i64 64)
  br label %bb5

bb5:                                              ; preds = %bb3, %bb4
  %min_good_run_len.sroa.0.0 = phi i64 [ %_0.sroa.0.0.i36, %bb3 ], [ %1, %bb4 ]
  call void @llvm.lifetime.start.p0(i64 528, ptr nonnull %run_storage)
  call void @llvm.lifetime.start.p0(i64 66, ptr nonnull %desired_depth_storage)
  %_13.not.i97 = icmp ugt i64 %min_good_run_len.sroa.0.0, 2
  %_13.not.i103 = icmp ugt i64 %min_good_run_len.sroa.0.0, 2
  br label %bb6

bb6:                                              ; preds = %bb19, %bb5
  %prev_run.sroa.0.0 = phi i64 [ 1, %bb5 ], [ %next_run.sroa.0.0, %bb19 ]
  %scan_idx.sroa.0.0 = phi i64 [ 0, %bb5 ], [ %36, %bb19 ]
  %stack_len.sroa.0.0 = phi i64 [ 0, %bb5 ], [ %35, %bb19 ]
  %_22 = icmp ult i64 %scan_idx.sroa.0.0, %v.1
  br i1 %_22, label %bb30, label %bb10

bb10:                                             ; preds = %bb6, %_ZN4core5slice4sort6stable5drift10create_run17h01028071545c4604E.exit
  %desired_depth.sroa.0.0 = phi i8 [ %18, %_ZN4core5slice4sort6stable5drift10create_run17h01028071545c4604E.exit ], [ 0, %bb6 ]
  %next_run.sroa.0.0 = phi i64 [ %_0.sroa.0.0.i40, %_ZN4core5slice4sort6stable5drift10create_run17h01028071545c4604E.exit ], [ 1, %bb6 ]
  %_3782 = icmp ugt i64 %stack_len.sroa.0.0, 1
  br i1 %_3782, label %bb12.lr.ph, label %bb17

bb12.lr.ph:                                       ; preds = %bb10
  %v_end.i = getelementptr inbounds nuw i32, ptr %v.0, i64 %scan_idx.sroa.0.0
  br label %bb12

bb30:                                             ; preds = %bb6
  %new_len = sub nuw nsw i64 %v.1, %scan_idx.sroa.0.0
  %_82 = getelementptr inbounds nuw i32, ptr %v.0, i64 %scan_idx.sroa.0.0
  %_7.not.i = icmp ult i64 %new_len, %min_good_run_len.sroa.0.0
  br i1 %_7.not.i, label %bb7.i41, label %bb1.i

bb7.i41:                                          ; preds = %_ZN4core5slice4sort6shared17find_existing_run17h5487a28fb4abfd8fE.exit.i.thread100, %_ZN4core5slice4sort6shared17find_existing_run17h5487a28fb4abfd8fE.exit.i.thread, %_ZN4core5slice4sort6shared17find_existing_run17h5487a28fb4abfd8fE.exit.i, %bb30
  br i1 %eager_sort, label %bb16.i43, label %bb11.i42

bb1.i:                                            ; preds = %bb30
  %_4.i.i = icmp samesign ult i64 %new_len, 2
  br i1 %_4.i.i, label %bb5.i38, label %bb2.i.i

bb2.i.i:                                          ; preds = %bb1.i
  %_28.i.i = getelementptr inbounds nuw i8, ptr %_82, i64 4
  tail call void @llvm.experimental.noalias.scope.decl(metadata !914)
  tail call void @llvm.experimental.noalias.scope.decl(metadata !917)
  tail call void @llvm.experimental.noalias.scope.decl(metadata !919), !noalias !922
  tail call void @llvm.experimental.noalias.scope.decl(metadata !925), !noalias !922
  tail call void @llvm.experimental.noalias.scope.decl(metadata !927), !noalias !922
  tail call void @llvm.experimental.noalias.scope.decl(metadata !930), !noalias !922
  %_3.i.i.i61 = load i32, ptr %_28.i.i, align 4, !alias.scope !932, !noalias !933, !noundef !6
  %_4.i.i.i62 = load i32, ptr %_82, align 4, !alias.scope !934, !noalias !935, !noundef !6
  %_0.i63 = icmp slt i32 %_3.i.i.i61, %_4.i.i.i62
  %_10.i.i78.not = icmp eq i64 %new_len, 2
  br i1 %_0.i63, label %bb4.i.i.preheader, label %bb11.i.i.preheader

bb11.i.i.preheader:                               ; preds = %bb2.i.i
  br i1 %_10.i.i78.not, label %_ZN4core5slice4sort6shared17find_existing_run17h5487a28fb4abfd8fE.exit.i.thread, label %bb12.i.i

bb4.i.i.preheader:                                ; preds = %bb2.i.i
  br i1 %_10.i.i78.not, label %_ZN4core5slice4sort6shared17find_existing_run17h5487a28fb4abfd8fE.exit.i.thread100, label %bb5.i.i

bb12.i.i:                                         ; preds = %bb11.i.i.preheader, %bb15.i.i
  %_4.i.i.i59 = phi i32 [ %_3.i.i.i58, %bb15.i.i ], [ %_3.i.i.i61, %bb11.i.i.preheader ]
  %run_len.sroa.0.0.i.i76 = phi i64 [ %3, %bb15.i.i ], [ 2, %bb11.i.i.preheader ]
  %2 = getelementptr inbounds nuw i32, ptr %_82, i64 %run_len.sroa.0.0.i.i76
  %_3.i.i.i58 = load i32, ptr %2, align 4, !alias.scope !936, !noalias !943, !noundef !6
  %_0.i60 = icmp slt i32 %_3.i.i.i58, %_4.i.i.i59
  br i1 %_0.i60, label %_ZN4core5slice4sort6shared17find_existing_run17h5487a28fb4abfd8fE.exit.i, label %bb15.i.i

bb15.i.i:                                         ; preds = %bb12.i.i
  %3 = add nuw i64 %run_len.sroa.0.0.i.i76, 1
  %exitcond.not = icmp eq i64 %3, %new_len
  br i1 %exitcond.not, label %_ZN4core5slice4sort6shared17find_existing_run17h5487a28fb4abfd8fE.exit.i, label %bb12.i.i

bb5.i.i:                                          ; preds = %bb4.i.i.preheader, %bb7.i.i
  %_4.i.i.i = phi i32 [ %_3.i.i.i, %bb7.i.i ], [ %_3.i.i.i61, %bb4.i.i.preheader ]
  %run_len.sroa.0.1.i.i79 = phi i64 [ %5, %bb7.i.i ], [ 2, %bb4.i.i.preheader ]
  %4 = getelementptr inbounds nuw i32, ptr %_82, i64 %run_len.sroa.0.1.i.i79
  %_3.i.i.i = load i32, ptr %4, align 4, !alias.scope !947, !noalias !954, !noundef !6
  %_0.i = icmp slt i32 %_3.i.i.i, %_4.i.i.i
  br i1 %_0.i, label %bb7.i.i, label %_ZN4core5slice4sort6shared17find_existing_run17h5487a28fb4abfd8fE.exit.i

bb7.i.i:                                          ; preds = %bb5.i.i
  %5 = add nuw i64 %run_len.sroa.0.1.i.i79, 1
  %exitcond92.not = icmp eq i64 %5, %new_len
  br i1 %exitcond92.not, label %_ZN4core5slice4sort6shared17find_existing_run17h5487a28fb4abfd8fE.exit.i, label %bb5.i.i

_ZN4core5slice4sort6shared17find_existing_run17h5487a28fb4abfd8fE.exit.i: ; preds = %bb15.i.i, %bb12.i.i, %bb7.i.i, %bb5.i.i
  %_0.sroa.0.0.i.i = phi i64 [ %new_len, %bb7.i.i ], [ %run_len.sroa.0.1.i.i79, %bb5.i.i ], [ %new_len, %bb15.i.i ], [ %run_len.sroa.0.0.i.i76, %bb12.i.i ]
  %_12.i = icmp samesign ule i64 %_0.sroa.0.0.i.i, %new_len
  tail call void @llvm.assume(i1 %_12.i)
  %_13.not.i = icmp ult i64 %_0.sroa.0.0.i.i, %min_good_run_len.sroa.0.0
  br i1 %_13.not.i, label %bb7.i41, label %bb3.i37

_ZN4core5slice4sort6shared17find_existing_run17h5487a28fb4abfd8fE.exit.i.thread100: ; preds = %bb4.i.i.preheader
  br i1 %_13.not.i103, label %bb7.i41, label %bb5.preheader.i.i

_ZN4core5slice4sort6shared17find_existing_run17h5487a28fb4abfd8fE.exit.i.thread: ; preds = %bb11.i.i.preheader
  br i1 %_13.not.i97, label %bb7.i41, label %bb5.i38

bb3.i37:                                          ; preds = %_ZN4core5slice4sort6shared17find_existing_run17h5487a28fb4abfd8fE.exit.i
  br i1 %_0.i63, label %bb14.i, label %bb5.i38

bb11.i42:                                         ; preds = %bb7.i41
  %_0.sroa.0.0.i57 = tail call noundef i64 @llvm.umin.i64(i64 range(i64 0, 2305843009213693952) %new_len, i64 %min_good_run_len.sroa.0.0)
  %_36.i = shl nuw nsw i64 %_0.sroa.0.0.i57, 1
  br label %_ZN4core5slice4sort6stable5drift10create_run17h01028071545c4604E.exit

bb16.i43:                                         ; preds = %bb7.i41
  %_0.sroa.0.0.i56 = tail call noundef i64 @llvm.umin.i64(i64 range(i64 0, 2305843009213693952) %new_len, i64 32)
; call core::slice::sort::stable::quicksort::quicksort
  tail call void @_ZN4core5slice4sort6stable9quicksort9quicksort17hdfb2cdee762e95a0E(ptr noalias noundef nonnull align 4 %_82, i64 noundef %_0.sroa.0.0.i56, ptr noalias noundef nonnull align 4 %scratch.0, i64 noundef range(i64 0, 2305843009213693952) %scratch.1, i32 noundef 0, ptr noalias noundef readonly align 4 captures(address, read_provenance) dereferenceable_or_null(4) null, ptr noalias noundef nonnull align 8 dereferenceable(8) %is_less) #29
  %_35.i = shl nuw nsw i64 %_0.sroa.0.0.i56, 1
  %_34.i = or disjoint i64 %_35.i, 1
  br label %_ZN4core5slice4sort6stable5drift10create_run17h01028071545c4604E.exit

bb5.i38:                                          ; preds = %bb6.i.i, %middle.block, %_ZN4core5slice4sort6shared17find_existing_run17h5487a28fb4abfd8fE.exit.i.thread, %bb1.i, %bb14.i, %bb3.i37
  %_0.sroa.0.0.i.i6972 = phi i64 [ %_0.sroa.0.0.i.i, %bb3.i37 ], [ 1, %bb14.i ], [ %new_len, %bb1.i ], [ 2, %_ZN4core5slice4sort6shared17find_existing_run17h5487a28fb4abfd8fE.exit.i.thread ], [ %_0.sroa.0.0.i.i98106110, %middle.block ], [ %_0.sroa.0.0.i.i98106110, %bb6.i.i ]
  %_27.i = shl nuw nsw i64 %_0.sroa.0.0.i.i6972, 1
  %_26.i = or disjoint i64 %_27.i, 1
  br label %_ZN4core5slice4sort6stable5drift10create_run17h01028071545c4604E.exit

bb14.i:                                           ; preds = %bb3.i37
  %half_len2.i = lshr i64 %_0.sroa.0.0.i.i, 1
  tail call void @llvm.experimental.noalias.scope.decl(metadata !958), !noalias !961
  tail call void @llvm.experimental.noalias.scope.decl(metadata !963), !noalias !961
  %_915.not.i.i = icmp samesign ult i64 %_0.sroa.0.0.i.i, 2
  br i1 %_915.not.i.i, label %bb5.i38, label %bb5.preheader.i.i

bb5.preheader.i.i:                                ; preds = %_ZN4core5slice4sort6shared17find_existing_run17h5487a28fb4abfd8fE.exit.i.thread100, %bb14.i
  %half_len2.i111 = phi i64 [ %half_len2.i, %bb14.i ], [ 1, %_ZN4core5slice4sort6shared17find_existing_run17h5487a28fb4abfd8fE.exit.i.thread100 ]
  %_0.sroa.0.0.i.i98106110 = phi i64 [ %_0.sroa.0.0.i.i, %bb14.i ], [ 2, %_ZN4core5slice4sort6shared17find_existing_run17h5487a28fb4abfd8fE.exit.i.thread100 ]
  %end.i = getelementptr inbounds nuw i32, ptr %_82, i64 %_0.sroa.0.0.i.i98106110
  %min.iters.check = icmp samesign ult i64 %half_len2.i111, 8
  br i1 %min.iters.check, label %bb6.i.i.preheader, label %vector.ph

vector.ph:                                        ; preds = %bb5.preheader.i.i
  %n.vec = and i64 %half_len2.i111, 9223372036854775800
  br label %vector.body

vector.body:                                      ; preds = %vector.body, %vector.ph
  %index = phi i64 [ 0, %vector.ph ], [ %index.next, %vector.body ]
  %6 = xor i64 %index, -1
  %7 = getelementptr inbounds nuw i32, ptr %_82, i64 %index
  %8 = getelementptr i32, ptr %end.i, i64 %6
  %9 = getelementptr inbounds nuw i8, ptr %7, i64 16
  %wide.load = load <4 x i32>, ptr %7, align 4, !alias.scope !965, !noalias !968
  %wide.load118 = load <4 x i32>, ptr %9, align 4, !alias.scope !965, !noalias !968
  %10 = getelementptr i8, ptr %8, i64 -12
  %11 = getelementptr i8, ptr %8, i64 -28
  %wide.load119 = load <4 x i32>, ptr %10, align 4, !alias.scope !969, !noalias !970
  %reverse = shufflevector <4 x i32> %wide.load119, <4 x i32> poison, <4 x i32> <i32 3, i32 2, i32 1, i32 0>
  %wide.load120 = load <4 x i32>, ptr %11, align 4, !alias.scope !969, !noalias !970
  %reverse121 = shufflevector <4 x i32> %wide.load120, <4 x i32> poison, <4 x i32> <i32 3, i32 2, i32 1, i32 0>
  store <4 x i32> %reverse, ptr %7, align 4, !alias.scope !965, !noalias !968
  store <4 x i32> %reverse121, ptr %9, align 4, !alias.scope !965, !noalias !968
  %reverse122 = shufflevector <4 x i32> %wide.load, <4 x i32> poison, <4 x i32> <i32 3, i32 2, i32 1, i32 0>
  store <4 x i32> %reverse122, ptr %10, align 4, !alias.scope !969, !noalias !970
  %reverse123 = shufflevector <4 x i32> %wide.load118, <4 x i32> poison, <4 x i32> <i32 3, i32 2, i32 1, i32 0>
  store <4 x i32> %reverse123, ptr %11, align 4, !alias.scope !969, !noalias !970
  %index.next = add nuw i64 %index, 8
  %12 = icmp eq i64 %index.next, %n.vec
  br i1 %12, label %middle.block, label %vector.body, !llvm.loop !971

middle.block:                                     ; preds = %vector.body
  %cmp.n = icmp eq i64 %half_len2.i111, %n.vec
  br i1 %cmp.n, label %bb5.i38, label %bb6.i.i.preheader

bb6.i.i.preheader:                                ; preds = %bb5.preheader.i.i, %middle.block
  %i.sroa.0.016.i.i.ph = phi i64 [ 0, %bb5.preheader.i.i ], [ %n.vec, %middle.block ]
  br label %bb6.i.i

bb6.i.i:                                          ; preds = %bb6.i.i.preheader, %bb6.i.i
  %i.sroa.0.016.i.i = phi i64 [ %16, %bb6.i.i ], [ %i.sroa.0.016.i.i.ph, %bb6.i.i.preheader ]
  %13 = xor i64 %i.sroa.0.016.i.i, -1
  %x.i.i = getelementptr inbounds nuw i32, ptr %_82, i64 %i.sroa.0.016.i.i
  %y.i.i = getelementptr i32, ptr %end.i, i64 %13
  %14 = load i32, ptr %x.i.i, align 4, !alias.scope !965, !noalias !968, !noundef !6
  %15 = load i32, ptr %y.i.i, align 4, !alias.scope !969, !noalias !970
  store i32 %15, ptr %x.i.i, align 4, !alias.scope !965, !noalias !968
  store i32 %14, ptr %y.i.i, align 4, !alias.scope !969, !noalias !970
  %16 = add nuw nsw i64 %i.sroa.0.016.i.i, 1
  %exitcond.not.i.i = icmp eq i64 %16, %half_len2.i111
  br i1 %exitcond.not.i.i, label %bb5.i38, label %bb6.i.i, !llvm.loop !974

_ZN4core5slice4sort6stable5drift10create_run17h01028071545c4604E.exit: ; preds = %bb11.i42, %bb16.i43, %bb5.i38
  %_0.sroa.0.0.i40 = phi i64 [ %_26.i, %bb5.i38 ], [ %_34.i, %bb16.i43 ], [ %_36.i, %bb11.i42 ]
  %_31 = lshr i64 %prev_run.sroa.0.0, 1
  %_35 = lshr i64 %_0.sroa.0.0.i40, 1
  %factor = shl i64 %scan_idx.sroa.0.0, 1
  %x = sub i64 %factor, %_31
  %y = add i64 %_35, %factor
  %_90 = mul i64 %x, %scale_factor.sroa.0.0
  %_91 = mul i64 %y, %scale_factor.sroa.0.0
  %self4 = xor i64 %_91, %_90
  %17 = tail call range(i64 0, 65) i64 @llvm.ctlz.i64(i64 %self4, i1 false)
  %18 = trunc nuw nsw i64 %17 to i8
  br label %bb10

bb12:                                             ; preds = %bb12.lr.ph, %_ZN4core5slice4sort6stable5drift13logical_merge17h1088f9560b9ace83E.exit
  %stack_len.sroa.0.184 = phi i64 [ %stack_len.sroa.0.0, %bb12.lr.ph ], [ %count, %_ZN4core5slice4sort6stable5drift13logical_merge17h1088f9560b9ace83E.exit ]
  %prev_run.sroa.0.183 = phi i64 [ %prev_run.sroa.0.0, %bb12.lr.ph ], [ %_0.sroa.0.0.i, %_ZN4core5slice4sort6stable5drift13logical_merge17h1088f9560b9ace83E.exit ]
  %count = add i64 %stack_len.sroa.0.184, -1
  %_41 = getelementptr inbounds nuw i8, ptr %desired_depth_storage, i64 %count
  %_40 = load i8, ptr %_41, align 1, !noundef !6
  %_39.not = icmp ult i8 %_40, %desired_depth.sroa.0.0
  br i1 %_39.not, label %bb17, label %bb13

bb17:                                             ; preds = %_ZN4core5slice4sort6stable5drift13logical_merge17h1088f9560b9ace83E.exit, %bb12, %bb10
  %prev_run.sroa.0.1.lcssa = phi i64 [ %prev_run.sroa.0.0, %bb10 ], [ %prev_run.sroa.0.183, %bb12 ], [ %_0.sroa.0.0.i, %_ZN4core5slice4sort6stable5drift13logical_merge17h1088f9560b9ace83E.exit ]
  %stack_len.sroa.0.1.lcssa = phi i64 [ %stack_len.sroa.0.0, %bb10 ], [ %stack_len.sroa.0.184, %bb12 ], [ 1, %_ZN4core5slice4sort6stable5drift13logical_merge17h1088f9560b9ace83E.exit ]
  %_59 = getelementptr inbounds nuw i64, ptr %run_storage, i64 %stack_len.sroa.0.1.lcssa
  store i64 %prev_run.sroa.0.1.lcssa, ptr %_59, align 8
  %_61 = getelementptr inbounds nuw i8, ptr %desired_depth_storage, i64 %stack_len.sroa.0.1.lcssa
  store i8 %desired_depth.sroa.0.0, ptr %_61, align 1
  br i1 %_22, label %bb19, label %bb18

bb13:                                             ; preds = %bb12
  %_46 = getelementptr inbounds nuw i64, ptr %run_storage, i64 %count
  %left10 = load i64, ptr %_46, align 8, !noundef !6
  %_50 = lshr i64 %left10, 1
  %_51 = lshr i64 %prev_run.sroa.0.183, 1
  %merged_len = add nuw i64 %_50, %_51
  %merge_start_idx = sub i64 %scan_idx.sroa.0.0, %merged_len
  %_98 = getelementptr inbounds nuw i32, ptr %v.0, i64 %merge_start_idx
  %can_fit_in_scratch.i = icmp samesign ugt i64 %merged_len, %scratch.1
  %_22.i = and i64 %prev_run.sroa.0.183, 1
  %_10.not.i = icmp eq i64 %_22.i, 0
  %19 = or i64 %left10, %prev_run.sroa.0.183
  %20 = and i64 %19, 1
  %21 = icmp ne i64 %20, 0
  %or.cond2.i = or i1 %can_fit_in_scratch.i, %21
  br i1 %or.cond2.i, label %bb3.i, label %bb9.i

bb3.i:                                            ; preds = %bb13
  %_21.i = and i64 %left10, 1
  %_9.not.i = icmp eq i64 %_21.i, 0
  br i1 %_9.not.i, label %bb11.i, label %bb5.i

bb9.i:                                            ; preds = %bb13
  %_40.i = shl nuw nsw i64 %merged_len, 1
  br label %_ZN4core5slice4sort6stable5drift13logical_merge17h1088f9560b9ace83E.exit

bb5.i:                                            ; preds = %bb11.i, %bb3.i
  br i1 %_10.not.i, label %bb16.i, label %bb7.i

bb11.i:                                           ; preds = %bb3.i
  %self.i = or i64 %_50, 1
  %22 = tail call range(i64 3, 64) i64 @llvm.ctlz.i64(i64 %self.i, i1 true)
  %23 = trunc nuw nsw i64 %22 to i32
  %log.i = shl nuw nsw i32 %23, 1
  %limit.i = xor i32 %log.i, 126
; call core::slice::sort::stable::quicksort::quicksort
  tail call void @_ZN4core5slice4sort6stable9quicksort9quicksort17hdfb2cdee762e95a0E(ptr noalias noundef nonnull align 4 %_98, i64 noundef range(i64 0, 2305843009213693952) %_50, ptr noalias noundef nonnull align 4 %scratch.0, i64 noundef range(i64 0, 2305843009213693952) %scratch.1, i32 noundef %limit.i, ptr noalias noundef readonly align 4 captures(address, read_provenance) dereferenceable_or_null(4) null, ptr noalias noundef nonnull align 8 dereferenceable(8) %is_less) #29
  br label %bb5.i

bb7.i:                                            ; preds = %bb16.i, %bb5.i
  tail call void @llvm.experimental.noalias.scope.decl(metadata !975)
  tail call void @llvm.experimental.noalias.scope.decl(metadata !978)
  %_6.i = icmp ult i64 %left10, 2
  %_7.i = icmp ult i64 %prev_run.sroa.0.183, 2
  %or.cond.i = select i1 %_6.i, i1 true, i1 %_7.i
  br i1 %or.cond.i, label %_ZN4core5slice4sort6stable5merge5merge17h4968745bd835e12cE.exit, label %bb2.i

bb2.i:                                            ; preds = %bb7.i
  %_0.sroa.0.0.i.i44 = tail call i64 @llvm.umin.i64(i64 %_51, i64 range(i64 0, -9223372036854775808) %_50)
  %_8.i = icmp samesign ult i64 %scratch.1, %_0.sroa.0.0.i.i44
  br i1 %_8.i, label %_ZN4core5slice4sort6stable5merge5merge17h4968745bd835e12cE.exit, label %bb5.i45

bb5.i45:                                          ; preds = %bb2.i
  %v_mid.i = getelementptr inbounds nuw i32, ptr %_98, i64 %_50
  %left_is_shorter.not.i = icmp samesign ugt i64 %_50, %_51
  %spec.select.i = select i1 %left_is_shorter.not.i, ptr %v_mid.i, ptr %_98
  %24 = shl nuw nsw i64 %_0.sroa.0.0.i.i44, 2
  tail call void @llvm.memcpy.p0.p0.i64(ptr nonnull align 4 %scratch.0, ptr nonnull align 4 %spec.select.i, i64 %24, i1 false), !alias.scope !980
  %_22.i46 = getelementptr inbounds nuw i8, ptr %scratch.0, i64 %24
  br i1 %left_is_shorter.not.i, label %bb1.i.i, label %bb3.i.i

bb1.i.i:                                          ; preds = %bb5.i45, %bb1.i.i
  %_2110.i.i = phi ptr [ %_21.i.i49, %bb1.i.i ], [ %_22.i46, %bb5.i45 ]
  %_188.i.i = phi ptr [ %_18.i.i, %bb1.i.i ], [ %v_mid.i, %bb5.i45 ]
  %out.sroa.0.0.i.i = phi ptr [ %27, %bb1.i.i ], [ %v_end.i, %bb5.i45 ]
  %25 = getelementptr inbounds i8, ptr %_188.i.i, i64 -4
  %26 = getelementptr inbounds i8, ptr %_2110.i.i, i64 -4
  %27 = getelementptr inbounds i8, ptr %out.sroa.0.0.i.i, i64 -4
  tail call void @llvm.experimental.noalias.scope.decl(metadata !981)
  tail call void @llvm.experimental.noalias.scope.decl(metadata !984)
  tail call void @llvm.experimental.noalias.scope.decl(metadata !986)
  tail call void @llvm.experimental.noalias.scope.decl(metadata !989)
  tail call void @llvm.experimental.noalias.scope.decl(metadata !991)
  tail call void @llvm.experimental.noalias.scope.decl(metadata !994)
  %_3.i.i.i.i.i = load i32, ptr %26, align 4, !alias.scope !996, !noalias !997, !noundef !6
  %_4.i.i.i.i.i = load i32, ptr %25, align 4, !alias.scope !1000, !noalias !1001, !noundef !6
  %_0.i.i.i = icmp slt i32 %_3.i.i.i.i.i, %_4.i.i.i.i.i
  %28 = tail call i32 @llvm.smax.i32(i32 %_3.i.i.i.i.i, i32 %_4.i.i.i.i.i)
  store i32 %28, ptr %27, align 4, !alias.scope !975, !noalias !1002
  %_20.i.i = xor i1 %_0.i.i.i, true
  %count.i.i = zext i1 %_20.i.i to i64
  %_18.i.i = getelementptr inbounds nuw i32, ptr %25, i64 %count.i.i
  %count4.i.i = zext i1 %_0.i.i.i to i64
  %_21.i.i49 = getelementptr inbounds nuw i32, ptr %26, i64 %count4.i.i
  %_23.i.i = icmp eq ptr %_18.i.i, %_98
  %_26.i.i = icmp eq ptr %_21.i.i49, %scratch.0
  %or.cond.i.i = select i1 %_23.i.i, i1 true, i1 %_26.i.i
  br i1 %or.cond.i.i, label %bb16.i48, label %bb1.i.i

bb3.i.i:                                          ; preds = %bb5.i45, %bb3.i.i
  %_2511.i.i = phi ptr [ %_25.i.i, %bb3.i.i ], [ %_98, %bb5.i45 ]
  %right.sroa.0.010.i.i = phi ptr [ %_23.i17.i, %bb3.i.i ], [ %v_mid.i, %bb5.i45 ]
  %_2059.i.i = phi ptr [ %_20.i16.i, %bb3.i.i ], [ %scratch.0, %bb5.i45 ]
  tail call void @llvm.experimental.noalias.scope.decl(metadata !1003)
  tail call void @llvm.experimental.noalias.scope.decl(metadata !1006)
  tail call void @llvm.experimental.noalias.scope.decl(metadata !1008)
  tail call void @llvm.experimental.noalias.scope.decl(metadata !1011)
  tail call void @llvm.experimental.noalias.scope.decl(metadata !1013)
  tail call void @llvm.experimental.noalias.scope.decl(metadata !1016)
  %_3.i.i.i.i12.i = load i32, ptr %right.sroa.0.010.i.i, align 4, !alias.scope !1018, !noalias !1019, !noundef !6
  %_4.i.i.i.i13.i = load i32, ptr %_2059.i.i, align 4, !alias.scope !1022, !noalias !1023, !noundef !6
  %_0.i.i14.i = icmp slt i32 %_3.i.i.i.i12.i, %_4.i.i.i.i13.i
  %consume_left.i.i = xor i1 %_0.i.i14.i, true
  %29 = tail call i32 @llvm.smin.i32(i32 %_3.i.i.i.i12.i, i32 %_4.i.i.i.i13.i)
  store i32 %29, ptr %_2511.i.i, align 4, !alias.scope !975, !noalias !1024
  %count.i15.i = zext i1 %consume_left.i.i to i64
  %_20.i16.i = getelementptr inbounds nuw i32, ptr %_2059.i.i, i64 %count.i15.i
  %count2.i.i = zext i1 %_0.i.i14.i to i64
  %_23.i17.i = getelementptr inbounds nuw i32, ptr %right.sroa.0.010.i.i, i64 %count2.i.i
  %_25.i.i = getelementptr inbounds nuw i8, ptr %_2511.i.i, i64 4
  %_7.i.i = icmp ne ptr %_20.i16.i, %_22.i46
  %_10.i.i47 = icmp ne ptr %_23.i17.i, %v_end.i
  %or.cond.i18.i = select i1 %_7.i.i, i1 %_10.i.i47, i1 false
  br i1 %or.cond.i18.i, label %bb3.i.i, label %bb16.i48

bb16.i48:                                         ; preds = %bb3.i.i, %bb1.i.i
  %merge_state.sroa.13.0.i = phi ptr [ %_18.i.i, %bb1.i.i ], [ %_25.i.i, %bb3.i.i ]
  %merge_state.sroa.7.0.i = phi ptr [ %_21.i.i49, %bb1.i.i ], [ %_22.i46, %bb3.i.i ]
  %merge_state.sroa.0.0.i = phi ptr [ %scratch.0, %bb1.i.i ], [ %_20.i16.i, %bb3.i.i ]
  %30 = ptrtoint ptr %merge_state.sroa.7.0.i to i64
  %31 = ptrtoint ptr %merge_state.sroa.0.0.i to i64
  %32 = sub nuw i64 %30, %31
  tail call void @llvm.memcpy.p0.p0.i64(ptr nonnull align 4 %merge_state.sroa.13.0.i, ptr align 4 %merge_state.sroa.0.0.i, i64 %32, i1 false), !alias.scope !980, !noalias !1025
  br label %_ZN4core5slice4sort6stable5merge5merge17h4968745bd835e12cE.exit

_ZN4core5slice4sort6stable5merge5merge17h4968745bd835e12cE.exit: ; preds = %bb7.i, %bb2.i, %bb16.i48
  %_39.i = shl nuw nsw i64 %merged_len, 1
  %_38.i = or disjoint i64 %_39.i, 1
  br label %_ZN4core5slice4sort6stable5drift13logical_merge17h1088f9560b9ace83E.exit

bb16.i:                                           ; preds = %bb5.i
  %_37.i = getelementptr inbounds nuw i32, ptr %_98, i64 %_50
  %self.i50 = or i64 %_51, 1
  %33 = tail call range(i64 3, 64) i64 @llvm.ctlz.i64(i64 %self.i50, i1 true)
  %34 = trunc nuw nsw i64 %33 to i32
  %log.i51 = shl nuw nsw i32 %34, 1
  %limit.i52 = xor i32 %log.i51, 126
; call core::slice::sort::stable::quicksort::quicksort
  tail call void @_ZN4core5slice4sort6stable9quicksort9quicksort17hdfb2cdee762e95a0E(ptr noalias noundef nonnull align 4 %_37.i, i64 noundef range(i64 0, 2305843009213693952) %_51, ptr noalias noundef nonnull align 4 %scratch.0, i64 noundef range(i64 0, 2305843009213693952) %scratch.1, i32 noundef %limit.i52, ptr noalias noundef readonly align 4 captures(address, read_provenance) dereferenceable_or_null(4) null, ptr noalias noundef nonnull align 8 dereferenceable(8) %is_less) #29
  br label %bb7.i

_ZN4core5slice4sort6stable5drift13logical_merge17h1088f9560b9ace83E.exit: ; preds = %bb9.i, %_ZN4core5slice4sort6stable5merge5merge17h4968745bd835e12cE.exit
  %_0.sroa.0.0.i = phi i64 [ %_38.i, %_ZN4core5slice4sort6stable5merge5merge17h4968745bd835e12cE.exit ], [ %_40.i, %bb9.i ]
  %_37 = icmp ugt i64 %count, 1
  br i1 %_37, label %bb12, label %bb17

bb19:                                             ; preds = %bb17
  %35 = add i64 %stack_len.sroa.0.1.lcssa, 1
  %_65 = lshr i64 %next_run.sroa.0.0, 1
  %36 = add nuw i64 %_65, %scan_idx.sroa.0.0
  br label %bb6

bb18:                                             ; preds = %bb17
  %_99 = and i64 %prev_run.sroa.0.1.lcssa, 1
  %_66.not = icmp eq i64 %_99, 0
  br i1 %_66.not, label %bb20, label %bb21

bb20:                                             ; preds = %bb18
  %self.i53 = or i64 %v.1, 1
  %37 = tail call range(i64 3, 64) i64 @llvm.ctlz.i64(i64 %self.i53, i1 true)
  %38 = trunc nuw nsw i64 %37 to i32
  %log.i54 = shl nuw nsw i32 %38, 1
  %limit.i55 = xor i32 %log.i54, 126
; call core::slice::sort::stable::quicksort::quicksort
  tail call void @_ZN4core5slice4sort6stable9quicksort9quicksort17hdfb2cdee762e95a0E(ptr noalias noundef nonnull align 4 %v.0, i64 noundef range(i64 0, 2305843009213693952) %v.1, ptr noalias noundef nonnull align 4 %scratch.0, i64 noundef range(i64 0, 2305843009213693952) %scratch.1, i32 noundef %limit.i55, ptr noalias noundef readonly align 4 captures(address, read_provenance) dereferenceable_or_null(4) null, ptr noalias noundef nonnull align 8 dereferenceable(8) %is_less) #29
  br label %bb21

bb21:                                             ; preds = %bb20, %bb18
  call void @llvm.lifetime.end.p0(i64 66, ptr nonnull %desired_depth_storage)
  call void @llvm.lifetime.end.p0(i64 528, ptr nonnull %run_storage)
  br label %bb22

bb22:                                             ; preds = %start, %bb21
  ret void
}

; core::slice::sort::stable::quicksort::quicksort
; Function Attrs: noinline nonlazybind uwtable
define void @_ZN4core5slice4sort6stable9quicksort9quicksort17hd7748f61f1e7fd1dE(ptr noalias noundef nonnull align 8 %0, i64 noundef range(i64 0, 384307168202282326) %1, ptr noalias noundef nonnull align 8 %scratch.0, i64 noundef range(i64 0, 384307168202282326) %scratch.1, i32 noundef %2, ptr noalias noundef readonly align 8 captures(address) dereferenceable_or_null(24) %3, ptr noalias noundef nonnull align 1 %is_less) unnamed_addr #6 personality ptr @rust_eh_personality {
start:
  %pivot_copy = alloca [24 x i8], align 8
  %_8103109 = icmp samesign ult i64 %1, 33
  br i1 %_8103109, label %bb3, label %bb5.lr.ph

bb5.lr.ph:                                        ; preds = %start, %bb28
  %v.sroa.0.0.ph113 = phi ptr [ %_54, %bb28 ], [ %0, %start ]
  %v.sroa.16.0.ph112 = phi i64 [ %_63.i58, %bb28 ], [ %1, %start ]
  %limit.sroa.0.0.ph111 = phi i32 [ %64, %bb28 ], [ %2, %start ]
  %left_ancestor_pivot.sroa.0.0.ph110 = phi ptr [ null, %bb28 ], [ %3, %start ]
  %4 = getelementptr inbounds nuw i8, ptr %v.sroa.0.0.ph113, i64 8
  %5 = getelementptr inbounds nuw i8, ptr %v.sroa.0.0.ph113, i64 16
  %6 = ptrtoint ptr %v.sroa.0.0.ph113 to i64
  %.not = icmp eq ptr %left_ancestor_pivot.sroa.0.0.ph110, null
  %7 = getelementptr inbounds nuw i8, ptr %left_ancestor_pivot.sroa.0.0.ph110, i64 8
  %8 = getelementptr inbounds nuw i8, ptr %left_ancestor_pivot.sroa.0.0.ph110, i64 16
  br label %bb5

bb5:                                              ; preds = %bb5.lr.ph, %"_ZN4core5slice29_$LT$impl$u20$$u5b$T$u5d$$GT$12split_at_mut17h4435b8972d6cd45dE.exit"
  %v.sroa.16.0105 = phi i64 [ %v.sroa.16.0.ph112, %bb5.lr.ph ], [ %state.sroa.11.1.lcssa.i, %"_ZN4core5slice29_$LT$impl$u20$$u5b$T$u5d$$GT$12split_at_mut17h4435b8972d6cd45dE.exit" ]
  %limit.sroa.0.0104 = phi i32 [ %limit.sroa.0.0.ph111, %bb5.lr.ph ], [ %64, %"_ZN4core5slice29_$LT$impl$u20$$u5b$T$u5d$$GT$12split_at_mut17h4435b8972d6cd45dE.exit" ]
  %_11 = icmp eq i32 %limit.sroa.0.0104, 0
  br i1 %_11, label %bb6, label %bb7

bb3:                                              ; preds = %bb28, %"_ZN4core5slice29_$LT$impl$u20$$u5b$T$u5d$$GT$12split_at_mut17h4435b8972d6cd45dE.exit", %start
  %v.sroa.0.0.ph.lcssa102 = phi ptr [ %0, %start ], [ %v.sroa.0.0.ph113, %"_ZN4core5slice29_$LT$impl$u20$$u5b$T$u5d$$GT$12split_at_mut17h4435b8972d6cd45dE.exit" ], [ %_54, %bb28 ]
  %v.sroa.16.0.lcssa = phi i64 [ %1, %start ], [ %state.sroa.11.1.lcssa.i, %"_ZN4core5slice29_$LT$impl$u20$$u5b$T$u5d$$GT$12split_at_mut17h4435b8972d6cd45dE.exit" ], [ %_63.i58, %bb28 ]
  call void @llvm.experimental.noalias.scope.decl(metadata !1030)
  %_5.i = icmp samesign ult i64 %v.sroa.16.0.lcssa, 2
  br i1 %_5.i, label %bb22, label %bb2.i

bb2.i:                                            ; preds = %bb3
  %_8.i = add nuw nsw i64 %v.sroa.16.0.lcssa, 16
  %_6.i = icmp samesign ult i64 %scratch.1, %_8.i
  br i1 %_6.i, label %bb3.i, label %bb4.i

bb4.i:                                            ; preds = %bb2.i
  %len_div_211.i = lshr i64 %v.sroa.16.0.lcssa, 1
  %_22.i = icmp samesign ugt i64 %v.sroa.16.0.lcssa, 7
  %_27.i = getelementptr inbounds nuw %"alloc::string::String", ptr %v.sroa.0.0.ph.lcssa102, i64 %len_div_211.i
  %_28.i = getelementptr %"alloc::string::String", ptr %scratch.0, i64 %len_div_211.i
  br i1 %_22.i, label %bb10.i, label %bb46.i

bb3.i:                                            ; preds = %bb2.i
  call void @llvm.trap()
  unreachable

bb10.i:                                           ; preds = %bb4.i
; call core::slice::sort::shared::smallsort::sort4_stable
  call fastcc void @_ZN4core5slice4sort6shared9smallsort12sort4_stable17h8dbcb2c0d021ad35E(ptr noundef nonnull align 8 %v.sroa.0.0.ph.lcssa102, ptr noundef nonnull align 8 %scratch.0)
; call core::slice::sort::shared::smallsort::sort4_stable
  call fastcc void @_ZN4core5slice4sort6shared9smallsort12sort4_stable17h8dbcb2c0d021ad35E(ptr noundef %_27.i, ptr noundef %_28.i)
  br label %bb15.i

bb46.i:                                           ; preds = %bb4.i
  call void @llvm.memcpy.p0.p0.i64(ptr noundef nonnull align 8 dereferenceable(24) %scratch.0, ptr noundef nonnull align 8 dereferenceable(24) %v.sroa.0.0.ph.lcssa102, i64 24, i1 false), !alias.scope !1033, !noalias !1035
  call void @llvm.memcpy.p0.p0.i64(ptr noundef nonnull align 8 dereferenceable(24) %_28.i, ptr noundef nonnull align 8 dereferenceable(24) %_27.i, i64 24, i1 false), !alias.scope !1033, !noalias !1035
  br label %bb15.i

bb15.i:                                           ; preds = %bb46.i, %bb10.i
  %presorted_len.sroa.0.0.i = phi i64 [ 4, %bb10.i ], [ 1, %bb46.i ]
  %9 = sub nsw i64 %v.sroa.16.0.lcssa, %len_div_211.i
  %_8024.i = icmp samesign ult i64 %presorted_len.sroa.0.0.i, %len_div_211.i
  br i1 %_8024.i, label %bb24.preheader.i, label %bb16.loopexit.i

bb16.loopexit.i:                                  ; preds = %_ZN4core5slice4sort6shared9smallsort11insert_tail17haddbce5dcdcd8aa9E.exit.i, %bb15.i
  %_8024.1.i = icmp ult i64 %presorted_len.sroa.0.0.i, %9
  br i1 %_8024.1.i, label %bb24.preheader.1.i, label %bb16.loopexit.1.i

bb24.preheader.1.i:                               ; preds = %bb16.loopexit.i
  %iter1.sroa.0.126.1.i = add nuw nsw i64 %presorted_len.sroa.0.0.i, 1
  br label %bb24.1.i

bb24.1.i:                                         ; preds = %_ZN4core5slice4sort6shared9smallsort11insert_tail17haddbce5dcdcd8aa9E.exit.1.i, %bb24.preheader.1.i
  %iter1.sroa.0.128.1.i = phi i64 [ %iter1.sroa.0.1.1.i, %_ZN4core5slice4sort6shared9smallsort11insert_tail17haddbce5dcdcd8aa9E.exit.1.i ], [ %iter1.sroa.0.126.1.i, %bb24.preheader.1.i ]
  %iter1.sroa.0.027.1.i = phi i64 [ %iter1.sroa.0.128.1.i, %_ZN4core5slice4sort6shared9smallsort11insert_tail17haddbce5dcdcd8aa9E.exit.1.i ], [ %presorted_len.sroa.0.0.i, %bb24.preheader.1.i ]
  %_55.1.i = getelementptr inbounds nuw %"alloc::string::String", ptr %_27.i, i64 %iter1.sroa.0.027.1.i
  %dst7.1.i = getelementptr inbounds nuw %"alloc::string::String", ptr %_28.i, i64 %iter1.sroa.0.027.1.i
  call void @llvm.memcpy.p0.p0.i64(ptr noundef nonnull align 8 dereferenceable(24) %dst7.1.i, ptr noundef nonnull align 8 dereferenceable(24) %_55.1.i, i64 24, i1 false), !alias.scope !1033, !noalias !1035
  call void @llvm.experimental.noalias.scope.decl(metadata !1037)
  call void @llvm.experimental.noalias.scope.decl(metadata !1040)
  call void @llvm.experimental.noalias.scope.decl(metadata !1042)
  call void @llvm.experimental.noalias.scope.decl(metadata !1045)
  call void @llvm.experimental.noalias.scope.decl(metadata !1047)
  call void @llvm.experimental.noalias.scope.decl(metadata !1050)
  call void @llvm.experimental.noalias.scope.decl(metadata !1052)
  call void @llvm.experimental.noalias.scope.decl(metadata !1055)
  %10 = getelementptr inbounds nuw i8, ptr %dst7.1.i, i64 8
  %_7.i.i.i.i.i13.1.i = load ptr, ptr %10, align 8, !alias.scope !1057, !noalias !1058, !nonnull !6, !noundef !6
  %11 = getelementptr inbounds nuw i8, ptr %dst7.1.i, i64 16
  %len1.i.i.i.i.i14.1.i = load i64, ptr %11, align 8, !alias.scope !1057, !noalias !1058, !noundef !6
  %12 = getelementptr inbounds i8, ptr %dst7.1.i, i64 -16
  %_14.i.i.i.i.i15.1.i = load ptr, ptr %12, align 8, !alias.scope !1059, !noalias !1060, !nonnull !6, !noundef !6
  %13 = getelementptr inbounds i8, ptr %dst7.1.i, i64 -8
  %14 = load i64, ptr %13, align 8, !alias.scope !1059, !noalias !1060, !noundef !6
  %spec.store.select.i.i.i.i.i.i.i16.1.i = call i64 @llvm.umin.i64(i64 range(i64 0, -9223372036854775808) %len1.i.i.i.i.i14.1.i, i64 range(i64 0, -9223372036854775808) %14)
  %15 = call i32 @memcmp(ptr nonnull readonly align 1 %_7.i.i.i.i.i13.1.i, ptr nonnull readonly align 1 %_14.i.i.i.i.i15.1.i, i64 %spec.store.select.i.i.i.i.i.i.i16.1.i), !alias.scope !1061, !noalias !1068
  %16 = sext i32 %15 to i64
  %_15.i.i.i.i.i.i.i17.1.i = icmp eq i32 %15, 0
  %diff.i.i.i.i.i.i.i18.1.i = sub nsw i64 %len1.i.i.i.i.i14.1.i, %14
  %spec.select.i.i.i.i.i.i.i19.1.i = select i1 %_15.i.i.i.i.i.i.i17.1.i, i64 %diff.i.i.i.i.i.i.i18.1.i, i64 %16
  %17 = icmp slt i64 %spec.select.i.i.i.i.i.i.i19.1.i, 0
  br i1 %17, label %bb2.i.1.i, label %_ZN4core5slice4sort6shared9smallsort11insert_tail17haddbce5dcdcd8aa9E.exit.1.i

bb2.i.1.i:                                        ; preds = %bb24.1.i
  %value.sroa.0.0.copyload.i.1.i = load i64, ptr %dst7.1.i, align 8, !alias.scope !1069, !noalias !1070
  br label %bb4.i.1.i

bb4.i.1.i:                                        ; preds = %bb7.i.1.i, %bb2.i.1.i
  %gap_guard.sroa.5.0.i.1.i = phi ptr [ %dst7.1.i, %bb2.i.1.i ], [ %sift.sroa.0.0.i.1.i, %bb7.i.1.i ]
  %sift.sroa.0.0.i.1.i = getelementptr inbounds i8, ptr %gap_guard.sroa.5.0.i.1.i, i64 -24
  call void @llvm.memcpy.p0.p0.i64(ptr noundef nonnull align 8 dereferenceable(24) %gap_guard.sroa.5.0.i.1.i, ptr noundef nonnull align 8 dereferenceable(24) %sift.sroa.0.0.i.1.i, i64 24, i1 false), !alias.scope !1069, !noalias !1070
  %_18.i.1.i = icmp eq ptr %sift.sroa.0.0.i.1.i, %_28.i
  br i1 %_18.i.1.i, label %bb10.i.1.i, label %bb7.i.1.i

bb7.i.1.i:                                        ; preds = %bb4.i.1.i
  call void @llvm.experimental.noalias.scope.decl(metadata !1071)
  call void @llvm.experimental.noalias.scope.decl(metadata !1074)
  call void @llvm.experimental.noalias.scope.decl(metadata !1077)
  call void @llvm.experimental.noalias.scope.decl(metadata !1080)
  %18 = getelementptr inbounds i8, ptr %gap_guard.sroa.5.0.i.1.i, i64 -40
  %_14.i.i.i.i3.i.1.i = load ptr, ptr %18, align 8, !alias.scope !1083, !noalias !1084, !nonnull !6, !noundef !6
  %19 = getelementptr inbounds i8, ptr %gap_guard.sroa.5.0.i.1.i, i64 -32
  %20 = load i64, ptr %19, align 8, !alias.scope !1083, !noalias !1084, !noundef !6
  %spec.store.select.i.i.i.i.i.i4.i.1.i = call i64 @llvm.umin.i64(i64 range(i64 0, -9223372036854775808) %len1.i.i.i.i.i14.1.i, i64 range(i64 0, -9223372036854775808) %20)
  %21 = call i32 @memcmp(ptr nonnull readonly align 1 %_7.i.i.i.i.i13.1.i, ptr nonnull readonly align 1 %_14.i.i.i.i3.i.1.i, i64 %spec.store.select.i.i.i.i.i.i4.i.1.i), !alias.scope !1089, !noalias !1096
  %22 = sext i32 %21 to i64
  %_15.i.i.i.i.i.i5.i.1.i = icmp eq i32 %21, 0
  %diff.i.i.i.i.i.i6.i.1.i = sub nsw i64 %len1.i.i.i.i.i14.1.i, %20
  %spec.select.i.i.i.i.i.i7.i.1.i = select i1 %_15.i.i.i.i.i.i5.i.1.i, i64 %diff.i.i.i.i.i.i6.i.1.i, i64 %22
  %23 = icmp slt i64 %spec.select.i.i.i.i.i.i7.i.1.i, 0
  br i1 %23, label %bb4.i.1.i, label %bb10.i.1.i

bb10.i.1.i:                                       ; preds = %bb7.i.1.i, %bb4.i.1.i
  %sift.sroa.0.0.i.lcssa.1.i = phi ptr [ %sift.sroa.0.0.i.1.i, %bb7.i.1.i ], [ %_28.i, %bb4.i.1.i ]
  store i64 %value.sroa.0.0.copyload.i.1.i, ptr %sift.sroa.0.0.i.lcssa.1.i, align 8, !alias.scope !1069, !noalias !1097
  %tmp.sroa.4.0.sift.sroa.0.0.lcssa.sroa_idx.i.1.i = getelementptr inbounds i8, ptr %gap_guard.sroa.5.0.i.1.i, i64 -16
  store ptr %_7.i.i.i.i.i13.1.i, ptr %tmp.sroa.4.0.sift.sroa.0.0.lcssa.sroa_idx.i.1.i, align 8, !alias.scope !1069, !noalias !1097
  %tmp.sroa.5.0.sift.sroa.0.0.lcssa.sroa_idx.i.1.i = getelementptr inbounds i8, ptr %gap_guard.sroa.5.0.i.1.i, i64 -8
  store i64 %len1.i.i.i.i.i14.1.i, ptr %tmp.sroa.5.0.sift.sroa.0.0.lcssa.sroa_idx.i.1.i, align 8, !alias.scope !1069, !noalias !1097
  br label %_ZN4core5slice4sort6shared9smallsort11insert_tail17haddbce5dcdcd8aa9E.exit.1.i

_ZN4core5slice4sort6shared9smallsort11insert_tail17haddbce5dcdcd8aa9E.exit.1.i: ; preds = %bb10.i.1.i, %bb24.1.i
  %_80.1.i = icmp ult i64 %iter1.sroa.0.128.1.i, %9
  %_84.1.i = zext i1 %_80.1.i to i64
  %iter1.sroa.0.1.1.i = add nuw i64 %iter1.sroa.0.128.1.i, %_84.1.i
  br i1 %_80.1.i, label %bb24.1.i, label %bb16.loopexit.1.i

bb16.loopexit.1.i:                                ; preds = %_ZN4core5slice4sort6shared9smallsort11insert_tail17haddbce5dcdcd8aa9E.exit.1.i, %bb16.loopexit.i
  call void @llvm.experimental.noalias.scope.decl(metadata !1102)
  %count1.i.i = add nsw i64 %v.sroa.16.0.lcssa, -1
  %24 = getelementptr inbounds nuw %"alloc::string::String", ptr %v.sroa.0.0.ph.lcssa102, i64 %count1.i.i
  %25 = getelementptr inbounds nuw %"alloc::string::String", ptr %scratch.0, i64 %count1.i.i
  %26 = getelementptr i8, ptr %_28.i, i64 -24
  br label %bb15.i.i

bb24.preheader.i:                                 ; preds = %bb15.i
  %iter1.sroa.0.126.i = add nuw nsw i64 %presorted_len.sroa.0.0.i, 1
  br label %bb24.i

bb16.i.i:                                         ; preds = %bb15.i.i
  %27 = getelementptr i8, ptr %46, i64 24
  %28 = getelementptr i8, ptr %45, i64 24
  %_44.i.i = and i64 %v.sroa.16.0.lcssa, 1
  %_22.i.i = icmp eq i64 %_44.i.i, 0
  br i1 %_22.i.i, label %bb9.i.i, label %bb5.i.i

bb15.i.i:                                         ; preds = %bb15.i.i, %bb16.loopexit.1.i
  %dst.sroa.0.033.i.i = phi ptr [ %_16.i.i.i, %bb15.i.i ], [ %v.sroa.0.0.ph.lcssa102, %bb16.loopexit.1.i ]
  %iter.sroa.0.032.i.i = phi i64 [ %_39.i.i, %bb15.i.i ], [ 0, %bb16.loopexit.1.i ]
  %left.sroa.0.031.i.i = phi ptr [ %_14.i.i.i, %bb15.i.i ], [ %scratch.0, %bb16.loopexit.1.i ]
  %right.sroa.0.030.i.i = phi ptr [ %_12.i.i.i, %bb15.i.i ], [ %_28.i, %bb16.loopexit.1.i ]
  %left_rev.sroa.0.029.i.i = phi ptr [ %46, %bb15.i.i ], [ %26, %bb16.loopexit.1.i ]
  %right_rev.sroa.0.028.i.i = phi ptr [ %45, %bb15.i.i ], [ %25, %bb16.loopexit.1.i ]
  %dst_rev.sroa.0.027.i.i = phi ptr [ %47, %bb15.i.i ], [ %24, %bb16.loopexit.1.i ]
  %_39.i.i = add nuw nsw i64 %iter.sroa.0.032.i.i, 1
  call void @llvm.experimental.noalias.scope.decl(metadata !1105)
  call void @llvm.experimental.noalias.scope.decl(metadata !1108)
  call void @llvm.experimental.noalias.scope.decl(metadata !1110), !noalias !1113
  call void @llvm.experimental.noalias.scope.decl(metadata !1116), !noalias !1113
  call void @llvm.experimental.noalias.scope.decl(metadata !1118), !noalias !1113
  call void @llvm.experimental.noalias.scope.decl(metadata !1121), !noalias !1113
  call void @llvm.experimental.noalias.scope.decl(metadata !1123), !noalias !1113
  call void @llvm.experimental.noalias.scope.decl(metadata !1126), !noalias !1113
  %29 = getelementptr inbounds nuw i8, ptr %right.sroa.0.030.i.i, i64 8
  %_7.i.i.i.i.i.i = load ptr, ptr %29, align 8, !alias.scope !1128, !noalias !1129, !nonnull !6, !noundef !6
  %30 = getelementptr inbounds nuw i8, ptr %right.sroa.0.030.i.i, i64 16
  %len1.i.i.i.i.i.i = load i64, ptr %30, align 8, !alias.scope !1128, !noalias !1129, !noundef !6
  %31 = getelementptr inbounds nuw i8, ptr %left.sroa.0.031.i.i, i64 8
  %_14.i.i.i.i.i.i = load ptr, ptr %31, align 8, !alias.scope !1130, !noalias !1131, !nonnull !6, !noundef !6
  %32 = getelementptr inbounds nuw i8, ptr %left.sroa.0.031.i.i, i64 16
  %33 = load i64, ptr %32, align 8, !alias.scope !1130, !noalias !1131, !noundef !6
  %spec.store.select.i.i.i.i.i.i.i.i = call i64 @llvm.umin.i64(i64 range(i64 0, -9223372036854775808) %len1.i.i.i.i.i.i, i64 range(i64 0, -9223372036854775808) %33)
  %34 = call i32 @memcmp(ptr nonnull readonly align 1 %_7.i.i.i.i.i.i, ptr nonnull readonly align 1 %_14.i.i.i.i.i.i, i64 %spec.store.select.i.i.i.i.i.i.i.i), !alias.scope !1132, !noalias !1139
  %35 = sext i32 %34 to i64
  %_15.i.i.i.i.i.i.i.i = icmp eq i32 %34, 0
  %diff.i.i.i.i.i.i.i.i = sub nsw i64 %len1.i.i.i.i.i.i, %33
  %spec.select.i.i.i.i.i.i.i.i = select i1 %_15.i.i.i.i.i.i.i.i, i64 %diff.i.i.i.i.i.i.i.i, i64 %35
  %36 = icmp sgt i64 %spec.select.i.i.i.i.i.i.i.i, -1
  %..i17.i.i = select i1 %36, ptr %left.sroa.0.031.i.i, ptr %right.sroa.0.030.i.i
  call void @llvm.memcpy.p0.p0.i64(ptr noundef nonnull align 8 dereferenceable(24) %dst.sroa.0.033.i.i, ptr noundef nonnull align 8 dereferenceable(24) %..i17.i.i, i64 24, i1 false), !alias.scope !1033, !noalias !1140
  %spec.select.i.i.i.i.i.i.lobit.i.i = lshr i64 %spec.select.i.i.i.i.i.i.i.i, 63
  %_12.i.i.i = getelementptr inbounds nuw %"alloc::string::String", ptr %right.sroa.0.030.i.i, i64 %spec.select.i.i.i.i.i.i.lobit.i.i
  %count2.i.i.i = zext i1 %36 to i64
  %_14.i.i.i = getelementptr inbounds nuw %"alloc::string::String", ptr %left.sroa.0.031.i.i, i64 %count2.i.i.i
  %_16.i.i.i = getelementptr inbounds nuw i8, ptr %dst.sroa.0.033.i.i, i64 24
  call void @llvm.experimental.noalias.scope.decl(metadata !1142)
  call void @llvm.experimental.noalias.scope.decl(metadata !1145)
  call void @llvm.experimental.noalias.scope.decl(metadata !1147), !noalias !1150
  call void @llvm.experimental.noalias.scope.decl(metadata !1153), !noalias !1150
  call void @llvm.experimental.noalias.scope.decl(metadata !1155), !noalias !1150
  call void @llvm.experimental.noalias.scope.decl(metadata !1158), !noalias !1150
  call void @llvm.experimental.noalias.scope.decl(metadata !1160), !noalias !1150
  call void @llvm.experimental.noalias.scope.decl(metadata !1163), !noalias !1150
  %37 = getelementptr inbounds nuw i8, ptr %right_rev.sroa.0.028.i.i, i64 8
  %_7.i.i.i.i19.i.i = load ptr, ptr %37, align 8, !alias.scope !1165, !noalias !1166, !nonnull !6, !noundef !6
  %38 = getelementptr inbounds nuw i8, ptr %right_rev.sroa.0.028.i.i, i64 16
  %len1.i.i.i.i20.i.i = load i64, ptr %38, align 8, !alias.scope !1165, !noalias !1166, !noundef !6
  %39 = getelementptr inbounds nuw i8, ptr %left_rev.sroa.0.029.i.i, i64 8
  %_14.i.i.i.i21.i.i = load ptr, ptr %39, align 8, !alias.scope !1167, !noalias !1168, !nonnull !6, !noundef !6
  %40 = getelementptr inbounds nuw i8, ptr %left_rev.sroa.0.029.i.i, i64 16
  %41 = load i64, ptr %40, align 8, !alias.scope !1167, !noalias !1168, !noundef !6
  %spec.store.select.i.i.i.i.i.i22.i.i = call i64 @llvm.umin.i64(i64 range(i64 0, -9223372036854775808) %len1.i.i.i.i20.i.i, i64 range(i64 0, -9223372036854775808) %41)
  %42 = call i32 @memcmp(ptr nonnull readonly align 1 %_7.i.i.i.i19.i.i, ptr nonnull readonly align 1 %_14.i.i.i.i21.i.i, i64 %spec.store.select.i.i.i.i.i.i22.i.i), !alias.scope !1169, !noalias !1176
  %43 = sext i32 %42 to i64
  %_15.i.i.i.i.i.i23.i.i = icmp eq i32 %42, 0
  %diff.i.i.i.i.i.i24.i.i = sub nsw i64 %len1.i.i.i.i20.i.i, %41
  %spec.select.i.i.i.i.i.i25.i.i = select i1 %_15.i.i.i.i.i.i23.i.i, i64 %diff.i.i.i.i.i.i24.i.i, i64 %43
  %44 = icmp sgt i64 %spec.select.i.i.i.i.i.i25.i.i, -1
  %..i.i.i = select i1 %44, ptr %right_rev.sroa.0.028.i.i, ptr %left_rev.sroa.0.029.i.i
  call void @llvm.memcpy.p0.p0.i64(ptr noundef nonnull align 8 dereferenceable(24) %dst_rev.sroa.0.027.i.i, ptr noundef nonnull align 8 dereferenceable(24) %..i.i.i, i64 24, i1 false), !alias.scope !1033, !noalias !1177
  %count.neg.i.i.i = sext i1 %44 to i64
  %45 = getelementptr %"alloc::string::String", ptr %right_rev.sroa.0.028.i.i, i64 %count.neg.i.i.i
  %spec.select.i.i.i.i.i.i25.lobit.i.i = ashr i64 %spec.select.i.i.i.i.i.i25.i.i, 63
  %46 = getelementptr %"alloc::string::String", ptr %left_rev.sroa.0.029.i.i, i64 %spec.select.i.i.i.i.i.i25.lobit.i.i
  %47 = getelementptr inbounds i8, ptr %dst_rev.sroa.0.027.i.i, i64 -24
  %exitcond.not.i.i = icmp eq i64 %_39.i.i, %len_div_211.i
  br i1 %exitcond.not.i.i, label %bb16.i.i, label %bb15.i.i

bb5.i.i:                                          ; preds = %bb16.i.i
  %left_nonempty.i.i = icmp ult ptr %_14.i.i.i, %27
  %left.sroa.0.0.right.sroa.0.0.i.i = select i1 %left_nonempty.i.i, ptr %_14.i.i.i, ptr %_12.i.i.i
  call void @llvm.memcpy.p0.p0.i64(ptr noundef nonnull align 8 dereferenceable(24) %_16.i.i.i, ptr noundef nonnull align 8 dereferenceable(24) %left.sroa.0.0.right.sroa.0.0.i.i, i64 24, i1 false), !alias.scope !1033, !noalias !1035
  %count2.i.i = zext i1 %left_nonempty.i.i to i64
  %_26.i.i = getelementptr inbounds nuw %"alloc::string::String", ptr %_14.i.i.i, i64 %count2.i.i
  %_30.i.i = xor i1 %left_nonempty.i.i, true
  %count3.i.i = zext i1 %_30.i.i to i64
  %_28.i.i = getelementptr inbounds nuw %"alloc::string::String", ptr %_12.i.i.i, i64 %count3.i.i
  br label %bb9.i.i

bb9.i.i:                                          ; preds = %bb5.i.i, %bb16.i.i
  %right.sroa.0.1.i.i = phi ptr [ %_12.i.i.i, %bb16.i.i ], [ %_28.i.i, %bb5.i.i ]
  %left.sroa.0.1.i.i = phi ptr [ %_14.i.i.i, %bb16.i.i ], [ %_26.i.i, %bb5.i.i ]
  %_31.i.i = icmp ne ptr %left.sroa.0.1.i.i, %27
  %_32.i.i = icmp ne ptr %right.sroa.0.1.i.i, %28
  %or.cond.i.i = select i1 %_31.i.i, i1 true, i1 %_32.i.i
  br i1 %or.cond.i.i, label %bb13.i.i, label %bb22, !prof !612

bb13.i.i:                                         ; preds = %bb9.i.i
; invoke core::slice::sort::shared::smallsort::panic_on_ord_violation
  invoke void @_ZN4core5slice4sort6shared9smallsort22panic_on_ord_violation17hc77a22a2d50782cdE() #26
          to label %.noexc.i unwind label %cleanup2.i, !noalias !1070

.noexc.i:                                         ; preds = %bb13.i.i
  unreachable

cleanup2.i:                                       ; preds = %bb13.i.i
  %48 = landingpad { ptr, i32 }
          cleanup
  %49 = mul nuw nsw i64 %v.sroa.16.0.lcssa, 24
  call void @llvm.memcpy.p0.p0.i64(ptr nonnull align 8 %v.sroa.0.0.ph.lcssa102, ptr nonnull align 8 %scratch.0, i64 %49, i1 false), !alias.scope !1033, !noalias !1179
  resume { ptr, i32 } %48

bb24.i:                                           ; preds = %_ZN4core5slice4sort6shared9smallsort11insert_tail17haddbce5dcdcd8aa9E.exit.i, %bb24.preheader.i
  %iter1.sroa.0.128.i = phi i64 [ %iter1.sroa.0.1.i, %_ZN4core5slice4sort6shared9smallsort11insert_tail17haddbce5dcdcd8aa9E.exit.i ], [ %iter1.sroa.0.126.i, %bb24.preheader.i ]
  %iter1.sroa.0.027.i = phi i64 [ %iter1.sroa.0.128.i, %_ZN4core5slice4sort6shared9smallsort11insert_tail17haddbce5dcdcd8aa9E.exit.i ], [ %presorted_len.sroa.0.0.i, %bb24.preheader.i ]
  %_55.i = getelementptr inbounds nuw %"alloc::string::String", ptr %v.sroa.0.0.ph.lcssa102, i64 %iter1.sroa.0.027.i
  %dst7.i = getelementptr inbounds nuw %"alloc::string::String", ptr %scratch.0, i64 %iter1.sroa.0.027.i
  call void @llvm.memcpy.p0.p0.i64(ptr noundef nonnull align 8 dereferenceable(24) %dst7.i, ptr noundef nonnull align 8 dereferenceable(24) %_55.i, i64 24, i1 false), !alias.scope !1033, !noalias !1035
  call void @llvm.experimental.noalias.scope.decl(metadata !1184)
  call void @llvm.experimental.noalias.scope.decl(metadata !1186)
  call void @llvm.experimental.noalias.scope.decl(metadata !1188)
  call void @llvm.experimental.noalias.scope.decl(metadata !1190)
  call void @llvm.experimental.noalias.scope.decl(metadata !1192)
  call void @llvm.experimental.noalias.scope.decl(metadata !1194)
  call void @llvm.experimental.noalias.scope.decl(metadata !1196)
  call void @llvm.experimental.noalias.scope.decl(metadata !1198)
  %50 = getelementptr inbounds nuw i8, ptr %dst7.i, i64 8
  %_7.i.i.i.i.i13.i = load ptr, ptr %50, align 8, !alias.scope !1200, !noalias !1201, !nonnull !6, !noundef !6
  %51 = getelementptr inbounds nuw i8, ptr %dst7.i, i64 16
  %len1.i.i.i.i.i14.i = load i64, ptr %51, align 8, !alias.scope !1200, !noalias !1201, !noundef !6
  %52 = getelementptr inbounds i8, ptr %dst7.i, i64 -16
  %_14.i.i.i.i.i15.i = load ptr, ptr %52, align 8, !alias.scope !1202, !noalias !1203, !nonnull !6, !noundef !6
  %53 = getelementptr inbounds i8, ptr %dst7.i, i64 -8
  %54 = load i64, ptr %53, align 8, !alias.scope !1202, !noalias !1203, !noundef !6
  %spec.store.select.i.i.i.i.i.i.i16.i = call i64 @llvm.umin.i64(i64 range(i64 0, -9223372036854775808) %len1.i.i.i.i.i14.i, i64 range(i64 0, -9223372036854775808) %54)
  %55 = call i32 @memcmp(ptr nonnull readonly align 1 %_7.i.i.i.i.i13.i, ptr nonnull readonly align 1 %_14.i.i.i.i.i15.i, i64 %spec.store.select.i.i.i.i.i.i.i16.i), !alias.scope !1061, !noalias !1204
  %56 = sext i32 %55 to i64
  %_15.i.i.i.i.i.i.i17.i = icmp eq i32 %55, 0
  %diff.i.i.i.i.i.i.i18.i = sub nsw i64 %len1.i.i.i.i.i14.i, %54
  %spec.select.i.i.i.i.i.i.i19.i = select i1 %_15.i.i.i.i.i.i.i17.i, i64 %diff.i.i.i.i.i.i.i18.i, i64 %56
  %57 = icmp slt i64 %spec.select.i.i.i.i.i.i.i19.i, 0
  br i1 %57, label %bb2.i.i, label %_ZN4core5slice4sort6shared9smallsort11insert_tail17haddbce5dcdcd8aa9E.exit.i

bb2.i.i:                                          ; preds = %bb24.i
  %value.sroa.0.0.copyload.i.i = load i64, ptr %dst7.i, align 8, !alias.scope !1069, !noalias !1070
  br label %bb4.i.i

bb4.i.i:                                          ; preds = %bb7.i.i, %bb2.i.i
  %gap_guard.sroa.5.0.i.i = phi ptr [ %dst7.i, %bb2.i.i ], [ %sift.sroa.0.0.i.i, %bb7.i.i ]
  %sift.sroa.0.0.i.i = getelementptr inbounds i8, ptr %gap_guard.sroa.5.0.i.i, i64 -24
  call void @llvm.memcpy.p0.p0.i64(ptr noundef nonnull align 8 dereferenceable(24) %gap_guard.sroa.5.0.i.i, ptr noundef nonnull align 8 dereferenceable(24) %sift.sroa.0.0.i.i, i64 24, i1 false), !alias.scope !1069, !noalias !1070
  %_18.i.i = icmp eq ptr %sift.sroa.0.0.i.i, %scratch.0
  br i1 %_18.i.i, label %bb10.i.i, label %bb7.i.i

bb7.i.i:                                          ; preds = %bb4.i.i
  call void @llvm.experimental.noalias.scope.decl(metadata !1205)
  call void @llvm.experimental.noalias.scope.decl(metadata !1207)
  call void @llvm.experimental.noalias.scope.decl(metadata !1209)
  call void @llvm.experimental.noalias.scope.decl(metadata !1211)
  %58 = getelementptr inbounds i8, ptr %gap_guard.sroa.5.0.i.i, i64 -40
  %_14.i.i.i.i3.i.i = load ptr, ptr %58, align 8, !alias.scope !1213, !noalias !1084, !nonnull !6, !noundef !6
  %59 = getelementptr inbounds i8, ptr %gap_guard.sroa.5.0.i.i, i64 -32
  %60 = load i64, ptr %59, align 8, !alias.scope !1213, !noalias !1084, !noundef !6
  %spec.store.select.i.i.i.i.i.i4.i.i = call i64 @llvm.umin.i64(i64 range(i64 0, -9223372036854775808) %len1.i.i.i.i.i14.i, i64 range(i64 0, -9223372036854775808) %60)
  %61 = call i32 @memcmp(ptr nonnull readonly align 1 %_7.i.i.i.i.i13.i, ptr nonnull readonly align 1 %_14.i.i.i.i3.i.i, i64 %spec.store.select.i.i.i.i.i.i4.i.i), !alias.scope !1089, !noalias !1214
  %62 = sext i32 %61 to i64
  %_15.i.i.i.i.i.i5.i.i = icmp eq i32 %61, 0
  %diff.i.i.i.i.i.i6.i.i = sub nsw i64 %len1.i.i.i.i.i14.i, %60
  %spec.select.i.i.i.i.i.i7.i.i = select i1 %_15.i.i.i.i.i.i5.i.i, i64 %diff.i.i.i.i.i.i6.i.i, i64 %62
  %63 = icmp slt i64 %spec.select.i.i.i.i.i.i7.i.i, 0
  br i1 %63, label %bb4.i.i, label %bb10.i.i

bb10.i.i:                                         ; preds = %bb7.i.i, %bb4.i.i
  %sift.sroa.0.0.i.lcssa.i = phi ptr [ %sift.sroa.0.0.i.i, %bb7.i.i ], [ %scratch.0, %bb4.i.i ]
  store i64 %value.sroa.0.0.copyload.i.i, ptr %sift.sroa.0.0.i.lcssa.i, align 8, !alias.scope !1069, !noalias !1097
  %tmp.sroa.4.0.sift.sroa.0.0.lcssa.sroa_idx.i.i = getelementptr inbounds i8, ptr %gap_guard.sroa.5.0.i.i, i64 -16
  store ptr %_7.i.i.i.i.i13.i, ptr %tmp.sroa.4.0.sift.sroa.0.0.lcssa.sroa_idx.i.i, align 8, !alias.scope !1069, !noalias !1097
  %tmp.sroa.5.0.sift.sroa.0.0.lcssa.sroa_idx.i.i = getelementptr inbounds i8, ptr %gap_guard.sroa.5.0.i.i, i64 -8
  store i64 %len1.i.i.i.i.i14.i, ptr %tmp.sroa.5.0.sift.sroa.0.0.lcssa.sroa_idx.i.i, align 8, !alias.scope !1069, !noalias !1097
  br label %_ZN4core5slice4sort6shared9smallsort11insert_tail17haddbce5dcdcd8aa9E.exit.i

_ZN4core5slice4sort6shared9smallsort11insert_tail17haddbce5dcdcd8aa9E.exit.i: ; preds = %bb10.i.i, %bb24.i
  %_80.i = icmp ult i64 %iter1.sroa.0.128.i, %len_div_211.i
  %_84.i = zext i1 %_80.i to i64
  %iter1.sroa.0.1.i = add nuw i64 %iter1.sroa.0.128.i, %_84.i
  br i1 %_80.i, label %bb24.i, label %bb16.loopexit.i

bb7:                                              ; preds = %bb5
  %64 = add i32 %limit.sroa.0.0104, -1
  call void @llvm.experimental.noalias.scope.decl(metadata !1215)
  %len_div_84.i = lshr i64 %v.sroa.16.0105, 3
  %b.idx.i = mul nuw nsw i64 %len_div_84.i, 96
  %b.i = getelementptr inbounds nuw i8, ptr %v.sroa.0.0.ph113, i64 %b.idx.i
  %c.idx.i = mul nuw nsw i64 %len_div_84.i, 168
  %c.i = getelementptr inbounds nuw i8, ptr %v.sroa.0.0.ph113, i64 %c.idx.i
  %_12.i = icmp samesign ult i64 %v.sroa.16.0105, 64
  br i1 %_12.i, label %bb3.i23, label %bb5.i

bb5.i:                                            ; preds = %bb7
; call core::slice::sort::shared::pivot::median3_rec
  %self.i = call fastcc noundef ptr @_ZN4core5slice4sort6shared5pivot11median3_rec17h99e7361c9dd75cc6E(ptr noundef nonnull readonly align 8 %v.sroa.0.0.ph113, ptr noundef readonly %b.i, ptr noundef readonly %c.i, i64 noundef %len_div_84.i)
  br label %bb10

bb3.i23:                                          ; preds = %bb7
  call void @llvm.experimental.noalias.scope.decl(metadata !1218)
  call void @llvm.experimental.noalias.scope.decl(metadata !1221)
  call void @llvm.experimental.noalias.scope.decl(metadata !1223), !noalias !1226
  call void @llvm.experimental.noalias.scope.decl(metadata !1229), !noalias !1226
  call void @llvm.experimental.noalias.scope.decl(metadata !1231), !noalias !1226
  call void @llvm.experimental.noalias.scope.decl(metadata !1234), !noalias !1226
  call void @llvm.experimental.noalias.scope.decl(metadata !1236), !noalias !1226
  call void @llvm.experimental.noalias.scope.decl(metadata !1239), !noalias !1226
  %_7.i.i.i.i.i = load ptr, ptr %4, align 8, !alias.scope !1241, !noalias !1242, !nonnull !6, !noundef !6
  %len1.i.i.i.i.i = load i64, ptr %5, align 8, !alias.scope !1241, !noalias !1242, !noundef !6
  %65 = getelementptr inbounds nuw i8, ptr %b.i, i64 8
  %_14.i.i.i.i.i = load ptr, ptr %65, align 8, !alias.scope !1244, !noalias !1245, !nonnull !6, !noundef !6
  %66 = getelementptr inbounds nuw i8, ptr %b.i, i64 16
  %67 = load i64, ptr %66, align 8, !alias.scope !1244, !noalias !1245, !noundef !6
  %spec.store.select.i.i.i.i.i.i.i = call i64 @llvm.umin.i64(i64 range(i64 0, -9223372036854775808) %len1.i.i.i.i.i, i64 range(i64 0, -9223372036854775808) %67)
  %68 = call i32 @memcmp(ptr nonnull readonly align 1 %_7.i.i.i.i.i, ptr nonnull readonly align 1 %_14.i.i.i.i.i, i64 %spec.store.select.i.i.i.i.i.i.i), !alias.scope !1246, !noalias !1253
  %69 = sext i32 %68 to i64
  %_15.i.i.i.i.i.i.i = icmp eq i32 %68, 0
  %diff.i.i.i.i.i.i.i = sub nsw i64 %len1.i.i.i.i.i, %67
  %spec.select.i.i.i.i.i.i.i = select i1 %_15.i.i.i.i.i.i.i, i64 %diff.i.i.i.i.i.i.i, i64 %69
  call void @llvm.experimental.noalias.scope.decl(metadata !1254)
  call void @llvm.experimental.noalias.scope.decl(metadata !1257)
  call void @llvm.experimental.noalias.scope.decl(metadata !1260)
  call void @llvm.experimental.noalias.scope.decl(metadata !1263)
  %70 = getelementptr inbounds nuw i8, ptr %c.i, i64 8
  %_14.i.i.i.i7.i = load ptr, ptr %70, align 8, !alias.scope !1266, !noalias !1267, !nonnull !6, !noundef !6
  %71 = getelementptr inbounds nuw i8, ptr %c.i, i64 16
  %72 = load i64, ptr %71, align 8, !alias.scope !1266, !noalias !1267, !noundef !6
  %spec.store.select.i.i.i.i.i.i8.i = call i64 @llvm.umin.i64(i64 range(i64 0, -9223372036854775808) %len1.i.i.i.i.i, i64 range(i64 0, -9223372036854775808) %72)
  %73 = call i32 @memcmp(ptr nonnull readonly align 1 %_7.i.i.i.i.i, ptr nonnull readonly align 1 %_14.i.i.i.i7.i, i64 %spec.store.select.i.i.i.i.i.i8.i), !alias.scope !1272, !noalias !1279
  %74 = sext i32 %73 to i64
  %_15.i.i.i.i.i.i9.i = icmp eq i32 %73, 0
  %diff.i.i.i.i.i.i10.i = sub nsw i64 %len1.i.i.i.i.i, %72
  %spec.select.i.i.i.i.i.i11.i = select i1 %_15.i.i.i.i.i.i9.i, i64 %diff.i.i.i.i.i.i10.i, i64 %74
  %75 = xor i64 %spec.select.i.i.i.i.i.i11.i, %spec.select.i.i.i.i.i.i.i
  %76 = icmp slt i64 %75, 0
  br i1 %76, label %bb10, label %bb3.i.i

bb3.i.i:                                          ; preds = %bb3.i23
  %spec.store.select.i.i.i.i.i.i15.i = call i64 @llvm.umin.i64(i64 range(i64 0, -9223372036854775808) %67, i64 range(i64 0, -9223372036854775808) %72)
  %77 = call i32 @memcmp(ptr nonnull readonly align 1 %_14.i.i.i.i.i, ptr nonnull readonly align 1 %_14.i.i.i.i7.i, i64 %spec.store.select.i.i.i.i.i.i15.i), !alias.scope !1280, !noalias !1287
  %78 = sext i32 %77 to i64
  %_15.i.i.i.i.i.i16.i = icmp eq i32 %77, 0
  %diff.i.i.i.i.i.i17.i = sub nsw i64 %67, %72
  %spec.select.i.i.i.i.i.i18.i = select i1 %_15.i.i.i.i.i.i16.i, i64 %diff.i.i.i.i.i.i17.i, i64 %78
  %79 = xor i64 %spec.select.i.i.i.i.i.i18.i, %spec.select.i.i.i.i.i.i.i
  %_12.i.i = icmp slt i64 %79, 0
  %c.b.i.i = select i1 %_12.i.i, ptr %c.i, ptr %b.i
  br label %bb10

bb6:                                              ; preds = %bb5
; call core::slice::sort::stable::drift::sort
  call fastcc void @_ZN4core5slice4sort6stable5drift4sort17h0c433fc08a1d1e26E(ptr noalias noundef nonnull align 8 %v.sroa.0.0.ph113, i64 noundef %v.sroa.16.0105, ptr noalias noundef nonnull align 8 %scratch.0, i64 noundef %scratch.1, i1 noundef zeroext true, ptr noalias noundef nonnull align 1 %is_less)
  br label %bb22

bb10:                                             ; preds = %bb3.i.i, %bb3.i23, %bb5.i
  %_0.sroa.0.0.i.sink.i = phi ptr [ %self.i, %bb5.i ], [ %v.sroa.0.0.ph113, %bb3.i23 ], [ %c.b.i.i, %bb3.i.i ]
  %80 = ptrtoint ptr %_0.sroa.0.0.i.sink.i to i64
  %81 = sub nuw i64 %80, %6
  %index.sroa.0.0.i = udiv exact i64 %81, 24
  %cond.i = icmp samesign ult i64 %index.sroa.0.0.i, %v.sroa.16.0105
  call void @llvm.assume(i1 %cond.i)
  call void @llvm.lifetime.start.p0(i64 24, ptr nonnull %pivot_copy)
  %src = getelementptr inbounds nuw i8, ptr %v.sroa.0.0.ph113, i64 %81
  call void @llvm.memcpy.p0.p0.i64(ptr noundef nonnull align 8 dereferenceable(24) %pivot_copy, ptr noundef nonnull align 8 dereferenceable(24) %src, i64 24, i1 false)
  br i1 %.not, label %bb14, label %bb12

bb12:                                             ; preds = %bb10
  call void @llvm.experimental.noalias.scope.decl(metadata !1300)
  call void @llvm.experimental.noalias.scope.decl(metadata !1303)
  call void @llvm.experimental.noalias.scope.decl(metadata !1305)
  call void @llvm.experimental.noalias.scope.decl(metadata !1308)
  call void @llvm.experimental.noalias.scope.decl(metadata !1310)
  call void @llvm.experimental.noalias.scope.decl(metadata !1313)
  call void @llvm.experimental.noalias.scope.decl(metadata !1315)
  call void @llvm.experimental.noalias.scope.decl(metadata !1318)
  %_7.i.i.i.i = load ptr, ptr %7, align 8, !alias.scope !1320, !noalias !1321, !nonnull !6, !noundef !6
  %len1.i.i.i.i = load i64, ptr %8, align 8, !alias.scope !1320, !noalias !1321, !noundef !6
  %82 = getelementptr inbounds nuw i8, ptr %src, i64 8
  %_14.i.i.i.i = load ptr, ptr %82, align 8, !alias.scope !1321, !noalias !1320, !nonnull !6, !noundef !6
  %83 = getelementptr inbounds nuw i8, ptr %src, i64 16
  %84 = load i64, ptr %83, align 8, !alias.scope !1321, !noalias !1320, !noundef !6
  %spec.store.select.i.i.i.i.i.i = call i64 @llvm.umin.i64(i64 range(i64 0, -9223372036854775808) %len1.i.i.i.i, i64 range(i64 0, -9223372036854775808) %84)
  %85 = call i32 @memcmp(ptr nonnull readonly align 1 %_7.i.i.i.i, ptr nonnull readonly align 1 %_14.i.i.i.i, i64 %spec.store.select.i.i.i.i.i.i), !alias.scope !1322, !noalias !1329
  %86 = sext i32 %85 to i64
  %_15.i.i.i.i.i.i = icmp eq i32 %85, 0
  %diff.i.i.i.i.i.i = sub nsw i64 %len1.i.i.i.i, %84
  %spec.select.i.i.i.i.i.i = select i1 %_15.i.i.i.i.i.i, i64 %diff.i.i.i.i.i.i, i64 %86
  %87 = icmp slt i64 %spec.select.i.i.i.i.i.i, 0
  br i1 %87, label %bb14, label %bb17

bb14:                                             ; preds = %bb10, %bb12
  call void @llvm.experimental.noalias.scope.decl(metadata !1330)
  call void @llvm.experimental.noalias.scope.decl(metadata !1333)
  %_8.i24.not = icmp samesign ult i64 %scratch.1, %v.sroa.16.0105
  br i1 %_8.i24.not, label %bb31.i, label %bb33.i, !prof !612

bb33.i:                                           ; preds = %bb14
  %_86.i = getelementptr %"alloc::string::String", ptr %scratch.0, i64 %v.sroa.16.0105
  %88 = getelementptr inbounds nuw i8, ptr %src, i64 8
  %89 = getelementptr inbounds nuw i8, ptr %src, i64 16
  br label %bb3.i25

bb31.i:                                           ; preds = %bb14
  call void @llvm.trap()
  unreachable

bb3.i25:                                          ; preds = %bb23.i, %bb33.i
  %state.sroa.11.0.i = phi i64 [ 0, %bb33.i ], [ %state.sroa.11.1.lcssa.i, %bb23.i ]
  %state.sroa.5.0.i = phi ptr [ %v.sroa.0.0.ph113, %bb33.i ], [ %_9.i27.i, %bb23.i ]
  %state.sroa.19.0.i = phi ptr [ %_86.i, %bb33.i ], [ %98, %bb23.i ]
  %pivot_pos.sroa.0.0.i = phi i64 [ %index.sroa.0.0.i, %bb33.i ], [ %v.sroa.16.0105, %bb23.i ]
  %loop_end.i = getelementptr inbounds nuw %"alloc::string::String", ptr %v.sroa.0.0.ph113, i64 %pivot_pos.sroa.0.0.i
  %_4733.i = icmp ult ptr %state.sroa.5.0.i, %loop_end.i
  br i1 %_4733.i, label %bb18.i, label %bb21.i

bb21.i:                                           ; preds = %bb18.i, %bb3.i25
  %state.sroa.11.1.lcssa.i = phi i64 [ %state.sroa.11.0.i, %bb3.i25 ], [ %97, %bb18.i ]
  %state.sroa.5.1.lcssa.i = phi ptr [ %state.sroa.5.0.i, %bb3.i25 ], [ %_9.i.i, %bb18.i ]
  %state.sroa.19.1.lcssa.i = phi ptr [ %state.sroa.19.0.i, %bb3.i25 ], [ %96, %bb18.i ]
  %_55.i26 = icmp eq i64 %pivot_pos.sroa.0.0.i, %v.sroa.16.0105
  br i1 %_55.i26, label %bb22.i, label %bb23.i

bb18.i:                                           ; preds = %bb3.i25, %bb18.i
  %state.sroa.19.136.i = phi ptr [ %96, %bb18.i ], [ %state.sroa.19.0.i, %bb3.i25 ]
  %state.sroa.5.135.i = phi ptr [ %_9.i.i, %bb18.i ], [ %state.sroa.5.0.i, %bb3.i25 ]
  %state.sroa.11.134.i = phi i64 [ %97, %bb18.i ], [ %state.sroa.11.0.i, %bb3.i25 ]
  call void @llvm.experimental.noalias.scope.decl(metadata !1335)
  call void @llvm.experimental.noalias.scope.decl(metadata !1338)
  call void @llvm.experimental.noalias.scope.decl(metadata !1340)
  call void @llvm.experimental.noalias.scope.decl(metadata !1343)
  call void @llvm.experimental.noalias.scope.decl(metadata !1345)
  call void @llvm.experimental.noalias.scope.decl(metadata !1348)
  call void @llvm.experimental.noalias.scope.decl(metadata !1350)
  call void @llvm.experimental.noalias.scope.decl(metadata !1353)
  %90 = getelementptr inbounds nuw i8, ptr %state.sroa.5.135.i, i64 8
  %_7.i.i.i.i.i27 = load ptr, ptr %90, align 8, !alias.scope !1355, !noalias !1356, !nonnull !6, !noundef !6
  %91 = getelementptr inbounds nuw i8, ptr %state.sroa.5.135.i, i64 16
  %len1.i.i.i.i.i28 = load i64, ptr %91, align 8, !alias.scope !1355, !noalias !1356, !noundef !6
  %_14.i.i.i.i.i29 = load ptr, ptr %88, align 8, !alias.scope !1357, !noalias !1358, !nonnull !6, !noundef !6
  %92 = load i64, ptr %89, align 8, !alias.scope !1357, !noalias !1358, !noundef !6
  %spec.store.select.i.i.i.i.i.i.i30 = call i64 @llvm.umin.i64(i64 range(i64 0, -9223372036854775808) %len1.i.i.i.i.i28, i64 range(i64 0, -9223372036854775808) %92)
  %93 = call i32 @memcmp(ptr nonnull readonly align 1 %_7.i.i.i.i.i27, ptr nonnull readonly align 1 %_14.i.i.i.i.i29, i64 %spec.store.select.i.i.i.i.i.i.i30), !alias.scope !1359, !noalias !1366
  %94 = sext i32 %93 to i64
  %_15.i.i.i.i.i.i.i31 = icmp eq i32 %93, 0
  %diff.i.i.i.i.i.i.i32 = sub nsw i64 %len1.i.i.i.i.i28, %92
  %spec.select.i.i.i.i.i.i.i33 = select i1 %_15.i.i.i.i.i.i.i31, i64 %diff.i.i.i.i.i.i.i32, i64 %94
  %95 = icmp slt i64 %spec.select.i.i.i.i.i.i.i33, 0
  %96 = getelementptr inbounds i8, ptr %state.sroa.19.136.i, i64 -24
  %dst_base.sroa.0.0.i.i = select i1 %95, ptr %scratch.0, ptr %96
  %dst.i.i = getelementptr inbounds nuw %"alloc::string::String", ptr %dst_base.sroa.0.0.i.i, i64 %state.sroa.11.134.i
  call void @llvm.memcpy.p0.p0.i64(ptr noundef nonnull align 8 dereferenceable(24) %dst.i.i, ptr noundef nonnull align 8 dereferenceable(24) %state.sroa.5.135.i, i64 24, i1 false), !alias.scope !1367, !noalias !1368
  %spec.select.i.i.i.i.i.i.lobit.i = lshr i64 %spec.select.i.i.i.i.i.i.i33, 63
  %97 = add i64 %spec.select.i.i.i.i.i.i.lobit.i, %state.sroa.11.134.i
  %_9.i.i = getelementptr inbounds nuw i8, ptr %state.sroa.5.135.i, i64 24
  %_47.i = icmp ult ptr %_9.i.i, %loop_end.i
  br i1 %_47.i, label %bb18.i, label %bb21.i

bb23.i:                                           ; preds = %bb21.i
  %98 = getelementptr inbounds i8, ptr %state.sroa.19.1.lcssa.i, i64 -24
  %dst.i25.i = getelementptr inbounds nuw %"alloc::string::String", ptr %98, i64 %state.sroa.11.1.lcssa.i
  call void @llvm.memcpy.p0.p0.i64(ptr noundef nonnull align 8 dereferenceable(24) %dst.i25.i, ptr noundef nonnull align 8 dereferenceable(24) %state.sroa.5.1.lcssa.i, i64 24, i1 false), !alias.scope !1367, !noalias !1371
  %_9.i27.i = getelementptr inbounds nuw i8, ptr %state.sroa.5.1.lcssa.i, i64 24
  br label %bb3.i25

bb22.i:                                           ; preds = %bb21.i
  %99 = mul i64 %state.sroa.11.1.lcssa.i, 24
  call void @llvm.memcpy.p0.p0.i64(ptr nonnull align 8 %v.sroa.0.0.ph113, ptr nonnull align 8 %scratch.0, i64 %99, i1 false), !alias.scope !1367
  %_63.i = sub i64 %v.sroa.16.0105, %state.sroa.11.1.lcssa.i
  %_9739.not.i = icmp eq i64 %v.sroa.16.0105, %state.sroa.11.1.lcssa.i
  br i1 %_9739.not.i, label %bb16, label %bb42.lr.ph.i

bb42.lr.ph.i:                                     ; preds = %bb22.i
  %100 = getelementptr %"alloc::string::String", ptr %v.sroa.0.0.ph113, i64 %state.sroa.11.1.lcssa.i
  %.neg = add i64 %state.sroa.11.1.lcssa.i, 1
  %xtraiter = and i64 %_63.i, 1
  %101 = icmp eq i64 %v.sroa.16.0105, %.neg
  br i1 %101, label %bb16.loopexit.unr-lcssa, label %bb42.lr.ph.i.new

bb42.lr.ph.i.new:                                 ; preds = %bb42.lr.ph.i
  %unroll_iter = and i64 %_63.i, -2
  %invariant.gep = getelementptr i8, ptr %100, i64 24
  br label %bb42.i

bb42.i:                                           ; preds = %bb42.i, %bb42.lr.ph.i.new
  %iter.sroa.0.040.i = phi i64 [ 0, %bb42.lr.ph.i.new ], [ %105, %bb42.i ]
  %niter = phi i64 [ 0, %bb42.lr.ph.i.new ], [ %niter.next.1, %bb42.i ]
  %102 = getelementptr %"alloc::string::String", ptr %100, i64 %iter.sroa.0.040.i
  %103 = xor i64 %iter.sroa.0.040.i, -1
  %104 = getelementptr %"alloc::string::String", ptr %_86.i, i64 %103
  call void @llvm.memcpy.p0.p0.i64(ptr noundef nonnull align 8 dereferenceable(24) %102, ptr noundef nonnull align 8 dereferenceable(24) %104, i64 24, i1 false), !alias.scope !1367
  %105 = add nuw i64 %iter.sroa.0.040.i, 2
  %gep = getelementptr %"alloc::string::String", ptr %invariant.gep, i64 %iter.sroa.0.040.i
  %106 = xor i64 %iter.sroa.0.040.i, -2
  %107 = getelementptr %"alloc::string::String", ptr %_86.i, i64 %106
  call void @llvm.memcpy.p0.p0.i64(ptr noundef nonnull align 8 dereferenceable(24) %gep, ptr noundef nonnull align 8 dereferenceable(24) %107, i64 24, i1 false), !alias.scope !1367
  %niter.next.1 = add i64 %niter, 2
  %niter.ncmp.1 = icmp eq i64 %niter.next.1, %unroll_iter
  br i1 %niter.ncmp.1, label %bb16.loopexit.unr-lcssa, label %bb42.i

bb16.loopexit.unr-lcssa:                          ; preds = %bb42.i, %bb42.lr.ph.i
  %iter.sroa.0.040.i.unr = phi i64 [ 0, %bb42.lr.ph.i ], [ %105, %bb42.i ]
  %lcmp.mod.not = icmp eq i64 %xtraiter, 0
  br i1 %lcmp.mod.not, label %bb16, label %bb42.i.epil

bb42.i.epil:                                      ; preds = %bb16.loopexit.unr-lcssa
  %108 = getelementptr %"alloc::string::String", ptr %100, i64 %iter.sroa.0.040.i.unr
  %109 = xor i64 %iter.sroa.0.040.i.unr, -1
  %110 = getelementptr %"alloc::string::String", ptr %_86.i, i64 %109
  call void @llvm.memcpy.p0.p0.i64(ptr noundef nonnull align 8 dereferenceable(24) %108, ptr noundef nonnull align 8 dereferenceable(24) %110, i64 24, i1 false), !alias.scope !1367
  br label %bb16

bb16:                                             ; preds = %bb42.i.epil, %bb16.loopexit.unr-lcssa, %bb22.i
  %111 = icmp eq i64 %state.sroa.11.1.lcssa.i, 0
  br i1 %111, label %bb17, label %bb19

bb19:                                             ; preds = %bb16
  %_6.not.i = icmp ugt i64 %state.sroa.11.1.lcssa.i, %v.sroa.16.0105
  br i1 %_6.not.i, label %bb3.i34, label %"_ZN4core5slice29_$LT$impl$u20$$u5b$T$u5d$$GT$12split_at_mut17h4435b8972d6cd45dE.exit", !prof !1374

bb3.i34:                                          ; preds = %bb19
; call core::panicking::panic_fmt
  call void @_ZN4core9panicking9panic_fmt17ha4414e4328fe24a0E(ptr noundef nonnull @alloc_d1084648e479974e70c9329824bf76f9, ptr noundef nonnull inttoptr (i64 19 to ptr), ptr noalias noundef nonnull readonly align 8 captures(address, read_provenance) dereferenceable(24) @alloc_58d434a1e795f965ef82c8e9c5db822a) #26, !noalias !1375
  unreachable

"_ZN4core5slice29_$LT$impl$u20$$u5b$T$u5d$$GT$12split_at_mut17h4435b8972d6cd45dE.exit": ; preds = %bb19
  %112 = getelementptr inbounds nuw %"alloc::string::String", ptr %v.sroa.0.0.ph113, i64 %state.sroa.11.1.lcssa.i
; call core::slice::sort::stable::quicksort::quicksort
  call void @_ZN4core5slice4sort6stable9quicksort9quicksort17hd7748f61f1e7fd1dE(ptr noalias noundef nonnull align 8 %112, i64 noundef %_63.i, ptr noalias noundef nonnull align 8 %scratch.0, i64 noundef %scratch.1, i32 noundef %64, ptr noalias noundef nonnull readonly align 8 captures(address, read_provenance) dereferenceable_or_null(24) %pivot_copy, ptr noalias noundef nonnull align 1 %is_less) #29
  call void @llvm.lifetime.end.p0(i64 24, ptr nonnull %pivot_copy)
  %_8 = icmp ult i64 %state.sroa.11.1.lcssa.i, 33
  br i1 %_8, label %bb3, label %bb5

bb17:                                             ; preds = %bb12, %bb16
  call void @llvm.experimental.noalias.scope.decl(metadata !1379)
  call void @llvm.experimental.noalias.scope.decl(metadata !1382)
  %_8.i35.not = icmp samesign ult i64 %scratch.1, %v.sroa.16.0105
  br i1 %_8.i35.not, label %bb31.i38, label %bb33.i39, !prof !612

bb33.i39:                                         ; preds = %bb17
  %_86.i41 = getelementptr %"alloc::string::String", ptr %scratch.0, i64 %v.sroa.16.0105
  %113 = getelementptr inbounds nuw i8, ptr %src, i64 8
  %114 = getelementptr inbounds nuw i8, ptr %src, i64 16
  br label %bb3.i42

bb31.i38:                                         ; preds = %bb17
  call void @llvm.trap()
  unreachable

bb3.i42:                                          ; preds = %bb23.i54, %bb33.i39
  %state.sroa.11.0.i43 = phi i64 [ 0, %bb33.i39 ], [ %124, %bb23.i54 ]
  %state.sroa.5.0.i44 = phi ptr [ %v.sroa.0.0.ph113, %bb33.i39 ], [ %_9.i27.i56, %bb23.i54 ]
  %state.sroa.19.0.i45 = phi ptr [ %_86.i41, %bb33.i39 ], [ %123, %bb23.i54 ]
  %pivot_pos.sroa.0.0.i46 = phi i64 [ %index.sroa.0.0.i, %bb33.i39 ], [ %v.sroa.16.0105, %bb23.i54 ]
  %loop_end.i47 = getelementptr inbounds nuw %"alloc::string::String", ptr %v.sroa.0.0.ph113, i64 %pivot_pos.sroa.0.0.i46
  %_4733.i48 = icmp ult ptr %state.sroa.5.0.i44, %loop_end.i47
  br i1 %_4733.i48, label %bb18.i64, label %bb21.i49

bb21.i49:                                         ; preds = %bb18.i64, %bb3.i42
  %state.sroa.11.1.lcssa.i50 = phi i64 [ %state.sroa.11.0.i43, %bb3.i42 ], [ %122, %bb18.i64 ]
  %state.sroa.5.1.lcssa.i51 = phi ptr [ %state.sroa.5.0.i44, %bb3.i42 ], [ %_9.i.i77, %bb18.i64 ]
  %state.sroa.19.1.lcssa.i52 = phi ptr [ %state.sroa.19.0.i45, %bb3.i42 ], [ %121, %bb18.i64 ]
  %_55.i53 = icmp eq i64 %pivot_pos.sroa.0.0.i46, %v.sroa.16.0105
  br i1 %_55.i53, label %bb22.i57, label %bb23.i54

bb18.i64:                                         ; preds = %bb3.i42, %bb18.i64
  %state.sroa.19.136.i65 = phi ptr [ %121, %bb18.i64 ], [ %state.sroa.19.0.i45, %bb3.i42 ]
  %state.sroa.5.135.i66 = phi ptr [ %_9.i.i77, %bb18.i64 ], [ %state.sroa.5.0.i44, %bb3.i42 ]
  %state.sroa.11.134.i67 = phi i64 [ %122, %bb18.i64 ], [ %state.sroa.11.0.i43, %bb3.i42 ]
  call void @llvm.experimental.noalias.scope.decl(metadata !1384)
  call void @llvm.experimental.noalias.scope.decl(metadata !1387)
  call void @llvm.experimental.noalias.scope.decl(metadata !1389)
  call void @llvm.experimental.noalias.scope.decl(metadata !1392)
  call void @llvm.experimental.noalias.scope.decl(metadata !1394)
  call void @llvm.experimental.noalias.scope.decl(metadata !1397)
  call void @llvm.experimental.noalias.scope.decl(metadata !1399)
  call void @llvm.experimental.noalias.scope.decl(metadata !1402)
  call void @llvm.experimental.noalias.scope.decl(metadata !1404)
  call void @llvm.experimental.noalias.scope.decl(metadata !1407)
  %_7.i.i.i.i.i.i68 = load ptr, ptr %113, align 8, !alias.scope !1409, !noalias !1410, !nonnull !6, !noundef !6
  %len1.i.i.i.i.i.i69 = load i64, ptr %114, align 8, !alias.scope !1409, !noalias !1410, !noundef !6
  %115 = getelementptr inbounds nuw i8, ptr %state.sroa.5.135.i66, i64 8
  %_14.i.i.i.i.i.i70 = load ptr, ptr %115, align 8, !alias.scope !1411, !noalias !1412, !nonnull !6, !noundef !6
  %116 = getelementptr inbounds nuw i8, ptr %state.sroa.5.135.i66, i64 16
  %117 = load i64, ptr %116, align 8, !alias.scope !1411, !noalias !1412, !noundef !6
  %spec.store.select.i.i.i.i.i.i.i.i71 = call i64 @llvm.umin.i64(i64 range(i64 0, -9223372036854775808) %len1.i.i.i.i.i.i69, i64 range(i64 0, -9223372036854775808) %117)
  %118 = call i32 @memcmp(ptr nonnull readonly align 1 %_7.i.i.i.i.i.i68, ptr nonnull readonly align 1 %_14.i.i.i.i.i.i70, i64 %spec.store.select.i.i.i.i.i.i.i.i71), !alias.scope !1413, !noalias !1420
  %119 = sext i32 %118 to i64
  %_15.i.i.i.i.i.i.i.i72 = icmp eq i32 %118, 0
  %diff.i.i.i.i.i.i.i.i73 = sub nsw i64 %len1.i.i.i.i.i.i69, %117
  %spec.select.i.i.i.i.i.i.i.i74 = select i1 %_15.i.i.i.i.i.i.i.i72, i64 %diff.i.i.i.i.i.i.i.i73, i64 %119
  %120 = icmp sgt i64 %spec.select.i.i.i.i.i.i.i.i74, -1
  %121 = getelementptr inbounds i8, ptr %state.sroa.19.136.i65, i64 -24
  %dst_base.sroa.0.0.i.i75 = select i1 %120, ptr %scratch.0, ptr %121
  %dst.i.i76 = getelementptr inbounds nuw %"alloc::string::String", ptr %dst_base.sroa.0.0.i.i75, i64 %state.sroa.11.134.i67
  call void @llvm.memcpy.p0.p0.i64(ptr noundef nonnull align 8 dereferenceable(24) %dst.i.i76, ptr noundef nonnull align 8 dereferenceable(24) %state.sroa.5.135.i66, i64 24, i1 false), !alias.scope !1421, !noalias !1422
  %_8.i.i = zext i1 %120 to i64
  %122 = add i64 %state.sroa.11.134.i67, %_8.i.i
  %_9.i.i77 = getelementptr inbounds nuw i8, ptr %state.sroa.5.135.i66, i64 24
  %_47.i78 = icmp ult ptr %_9.i.i77, %loop_end.i47
  br i1 %_47.i78, label %bb18.i64, label %bb21.i49

bb23.i54:                                         ; preds = %bb21.i49
  %123 = getelementptr inbounds i8, ptr %state.sroa.19.1.lcssa.i52, i64 -24
  %dst.i25.i55 = getelementptr inbounds nuw %"alloc::string::String", ptr %scratch.0, i64 %state.sroa.11.1.lcssa.i50
  call void @llvm.memcpy.p0.p0.i64(ptr noundef nonnull align 8 dereferenceable(24) %dst.i25.i55, ptr noundef nonnull align 8 dereferenceable(24) %state.sroa.5.1.lcssa.i51, i64 24, i1 false), !alias.scope !1421, !noalias !1425
  %124 = add i64 %state.sroa.11.1.lcssa.i50, 1
  %_9.i27.i56 = getelementptr inbounds nuw i8, ptr %state.sroa.5.1.lcssa.i51, i64 24
  br label %bb3.i42

bb22.i57:                                         ; preds = %bb21.i49
  %125 = mul i64 %state.sroa.11.1.lcssa.i50, 24
  call void @llvm.memcpy.p0.p0.i64(ptr nonnull align 8 %v.sroa.0.0.ph113, ptr nonnull align 8 %scratch.0, i64 %125, i1 false), !alias.scope !1421
  %_63.i58 = sub i64 %v.sroa.16.0105, %state.sroa.11.1.lcssa.i50
  %_9739.not.i59 = icmp eq i64 %v.sroa.16.0105, %state.sroa.11.1.lcssa.i50
  br i1 %_9739.not.i59, label %bb3.thread, label %bb42.lr.ph.i60

bb42.lr.ph.i60:                                   ; preds = %bb22.i57
  %126 = getelementptr %"alloc::string::String", ptr %v.sroa.0.0.ph113, i64 %state.sroa.11.1.lcssa.i50
  %.neg269 = add i64 %state.sroa.11.1.lcssa.i50, 1
  %xtraiter265 = and i64 %_63.i58, 1
  %127 = icmp eq i64 %v.sroa.16.0105, %.neg269
  br i1 %127, label %_ZN4core5slice4sort6stable9quicksort16stable_partition17hb669f6af3ca404a3E.exit.unr-lcssa, label %bb42.lr.ph.i60.new

bb42.lr.ph.i60.new:                               ; preds = %bb42.lr.ph.i60
  %unroll_iter267 = and i64 %_63.i58, -2
  %invariant.gep306 = getelementptr i8, ptr %126, i64 24
  br label %bb42.i61

bb42.i61:                                         ; preds = %bb42.i61, %bb42.lr.ph.i60.new
  %iter.sroa.0.040.i62 = phi i64 [ 0, %bb42.lr.ph.i60.new ], [ %131, %bb42.i61 ]
  %niter268 = phi i64 [ 0, %bb42.lr.ph.i60.new ], [ %niter268.next.1, %bb42.i61 ]
  %128 = getelementptr %"alloc::string::String", ptr %126, i64 %iter.sroa.0.040.i62
  %129 = xor i64 %iter.sroa.0.040.i62, -1
  %130 = getelementptr %"alloc::string::String", ptr %_86.i41, i64 %129
  call void @llvm.memcpy.p0.p0.i64(ptr noundef nonnull align 8 dereferenceable(24) %128, ptr noundef nonnull align 8 dereferenceable(24) %130, i64 24, i1 false), !alias.scope !1421
  %131 = add nuw i64 %iter.sroa.0.040.i62, 2
  %gep307 = getelementptr %"alloc::string::String", ptr %invariant.gep306, i64 %iter.sroa.0.040.i62
  %132 = xor i64 %iter.sroa.0.040.i62, -2
  %133 = getelementptr %"alloc::string::String", ptr %_86.i41, i64 %132
  call void @llvm.memcpy.p0.p0.i64(ptr noundef nonnull align 8 dereferenceable(24) %gep307, ptr noundef nonnull align 8 dereferenceable(24) %133, i64 24, i1 false), !alias.scope !1421
  %niter268.next.1 = add i64 %niter268, 2
  %niter268.ncmp.1 = icmp eq i64 %niter268.next.1, %unroll_iter267
  br i1 %niter268.ncmp.1, label %_ZN4core5slice4sort6stable9quicksort16stable_partition17hb669f6af3ca404a3E.exit.unr-lcssa, label %bb42.i61

_ZN4core5slice4sort6stable9quicksort16stable_partition17hb669f6af3ca404a3E.exit.unr-lcssa: ; preds = %bb42.i61, %bb42.lr.ph.i60
  %iter.sroa.0.040.i62.unr = phi i64 [ 0, %bb42.lr.ph.i60 ], [ %131, %bb42.i61 ]
  %lcmp.mod266.not = icmp eq i64 %xtraiter265, 0
  br i1 %lcmp.mod266.not, label %_ZN4core5slice4sort6stable9quicksort16stable_partition17hb669f6af3ca404a3E.exit, label %bb42.i61.epil

bb42.i61.epil:                                    ; preds = %_ZN4core5slice4sort6stable9quicksort16stable_partition17hb669f6af3ca404a3E.exit.unr-lcssa
  %134 = getelementptr %"alloc::string::String", ptr %126, i64 %iter.sroa.0.040.i62.unr
  %135 = xor i64 %iter.sroa.0.040.i62.unr, -1
  %136 = getelementptr %"alloc::string::String", ptr %_86.i41, i64 %135
  call void @llvm.memcpy.p0.p0.i64(ptr noundef nonnull align 8 dereferenceable(24) %134, ptr noundef nonnull align 8 dereferenceable(24) %136, i64 24, i1 false), !alias.scope !1421
  br label %_ZN4core5slice4sort6stable9quicksort16stable_partition17hb669f6af3ca404a3E.exit

_ZN4core5slice4sort6stable9quicksort16stable_partition17hb669f6af3ca404a3E.exit: ; preds = %_ZN4core5slice4sort6stable9quicksort16stable_partition17hb669f6af3ca404a3E.exit.unr-lcssa, %bb42.i61.epil
  %_47 = icmp ugt i64 %state.sroa.11.1.lcssa.i50, %v.sroa.16.0105
  br i1 %_47, label %bb27, label %bb28, !prof !1374

bb3.thread:                                       ; preds = %bb22.i57
  call void @llvm.lifetime.end.p0(i64 24, ptr nonnull %pivot_copy)
  br label %bb22

bb28:                                             ; preds = %_ZN4core5slice4sort6stable9quicksort16stable_partition17hb669f6af3ca404a3E.exit
  %_54 = getelementptr inbounds nuw %"alloc::string::String", ptr %v.sroa.0.0.ph113, i64 %state.sroa.11.1.lcssa.i50
  call void @llvm.lifetime.end.p0(i64 24, ptr nonnull %pivot_copy)
  %_8103 = icmp ult i64 %_63.i58, 33
  br i1 %_8103, label %bb3, label %bb5.lr.ph

bb27:                                             ; preds = %_ZN4core5slice4sort6stable9quicksort16stable_partition17hb669f6af3ca404a3E.exit
; call core::slice::index::slice_index_fail
  call void @_ZN4core5slice5index16slice_index_fail17h62807bcaa490c9c1E(i64 noundef %state.sroa.11.1.lcssa.i50, i64 noundef %v.sroa.16.0105, i64 noundef %v.sroa.16.0105, ptr noalias noundef readonly align 8 captures(address, read_provenance) dereferenceable(24) @alloc_0766b232215672ee1bd2195fdb153938) #26
  unreachable

bb22:                                             ; preds = %bb3.thread, %bb9.i.i, %bb3, %bb6
  ret void
}

; core::slice::sort::stable::quicksort::quicksort
; Function Attrs: noinline nonlazybind uwtable
define void @_ZN4core5slice4sort6stable9quicksort9quicksort17hdfb2cdee762e95a0E(ptr noalias noundef nonnull align 4 %0, i64 noundef range(i64 0, 2305843009213693952) %1, ptr noalias noundef nonnull align 4 %scratch.0, i64 noundef range(i64 0, 2305843009213693952) %scratch.1, i32 noundef %2, ptr noalias noundef readonly align 4 captures(address) dereferenceable_or_null(4) %3, ptr noalias noundef align 8 dereferenceable(8) %is_less) unnamed_addr #6 personality ptr @rust_eh_personality {
start:
  %pivot_copy = alloca [4 x i8], align 4
  %_8130136 = icmp samesign ult i64 %1, 33
  br i1 %_8130136, label %bb3, label %bb5.lr.ph

bb5.lr.ph:                                        ; preds = %start, %bb28
  %v.sroa.0.0.ph140 = phi ptr [ %_54, %bb28 ], [ %0, %start ]
  %v.sroa.16.0.ph139 = phi i64 [ %_63.i63, %bb28 ], [ %1, %start ]
  %limit.sroa.0.0.ph138 = phi i32 [ %48, %bb28 ], [ %2, %start ]
  %left_ancestor_pivot.sroa.0.0.ph137 = phi ptr [ null, %bb28 ], [ %3, %start ]
  %4 = ptrtoint ptr %v.sroa.0.0.ph140 to i64
  %.not = icmp eq ptr %left_ancestor_pivot.sroa.0.0.ph137, null
  br label %bb5

bb5:                                              ; preds = %bb5.lr.ph, %"_ZN4core5slice29_$LT$impl$u20$$u5b$T$u5d$$GT$12split_at_mut17h57750b98ef4419ecE.exit"
  %v.sroa.16.0132 = phi i64 [ %v.sroa.16.0.ph139, %bb5.lr.ph ], [ %state.sroa.27.2.lcssa.i, %"_ZN4core5slice29_$LT$impl$u20$$u5b$T$u5d$$GT$12split_at_mut17h57750b98ef4419ecE.exit" ]
  %limit.sroa.0.0131 = phi i32 [ %limit.sroa.0.0.ph138, %bb5.lr.ph ], [ %48, %"_ZN4core5slice29_$LT$impl$u20$$u5b$T$u5d$$GT$12split_at_mut17h57750b98ef4419ecE.exit" ]
  %_11 = icmp eq i32 %limit.sroa.0.0131, 0
  br i1 %_11, label %bb6, label %bb7

bb3:                                              ; preds = %bb28, %"_ZN4core5slice29_$LT$impl$u20$$u5b$T$u5d$$GT$12split_at_mut17h57750b98ef4419ecE.exit", %start
  %v.sroa.0.0.ph.lcssa129 = phi ptr [ %0, %start ], [ %v.sroa.0.0.ph140, %"_ZN4core5slice29_$LT$impl$u20$$u5b$T$u5d$$GT$12split_at_mut17h57750b98ef4419ecE.exit" ], [ %_54, %bb28 ]
  %v.sroa.16.0.lcssa = phi i64 [ %1, %start ], [ %state.sroa.27.2.lcssa.i, %"_ZN4core5slice29_$LT$impl$u20$$u5b$T$u5d$$GT$12split_at_mut17h57750b98ef4419ecE.exit" ], [ %_63.i63, %bb28 ]
  call void @llvm.experimental.noalias.scope.decl(metadata !1428)
  call void @llvm.experimental.noalias.scope.decl(metadata !1431)
  %_5.i = icmp samesign ult i64 %v.sroa.16.0.lcssa, 2
  br i1 %_5.i, label %bb22, label %bb2.i

bb2.i:                                            ; preds = %bb3
  %_8.i = add nuw nsw i64 %v.sroa.16.0.lcssa, 16
  %_6.i = icmp samesign ult i64 %scratch.1, %_8.i
  br i1 %_6.i, label %bb3.i, label %bb4.i

bb4.i:                                            ; preds = %bb2.i
  %len_div_211.i = lshr i64 %v.sroa.16.0.lcssa, 1
  %_14.i = icmp samesign ugt i64 %v.sroa.16.0.lcssa, 15
  br i1 %_14.i, label %bb6.i, label %bb9.i

bb3.i:                                            ; preds = %bb2.i
  call void @llvm.trap()
  unreachable

bb9.i:                                            ; preds = %bb4.i
  %_22.i = icmp samesign ugt i64 %v.sroa.16.0.lcssa, 7
  br i1 %_22.i, label %bb10.i, label %bb46.i

bb6.i:                                            ; preds = %bb4.i
  %_16.i = getelementptr inbounds nuw i32, ptr %scratch.0, i64 %v.sroa.16.0.lcssa
; call core::slice::sort::shared::smallsort::sort8_stable
  call fastcc void @_ZN4core5slice4sort6shared9smallsort12sort8_stable17hed0c5b8627756ff6E(ptr noundef nonnull align 4 %v.sroa.0.0.ph.lcssa129, ptr noundef nonnull align 4 %scratch.0, ptr noundef %_16.i)
  %_18.i = getelementptr inbounds nuw i32, ptr %v.sroa.0.0.ph.lcssa129, i64 %len_div_211.i
  %_19.i = getelementptr inbounds nuw i32, ptr %scratch.0, i64 %len_div_211.i
  %_20.i = getelementptr inbounds nuw i8, ptr %_16.i, i64 32
; call core::slice::sort::shared::smallsort::sort8_stable
  call fastcc void @_ZN4core5slice4sort6shared9smallsort12sort8_stable17hed0c5b8627756ff6E(ptr noundef %_18.i, ptr noundef %_19.i, ptr noundef %_20.i)
  br label %bb15.i

bb10.i:                                           ; preds = %bb9.i
  %_7.i.i = getelementptr inbounds nuw i8, ptr %v.sroa.0.0.ph.lcssa129, i64 4
  call void @llvm.experimental.noalias.scope.decl(metadata !1433)
  call void @llvm.experimental.noalias.scope.decl(metadata !1436)
  call void @llvm.experimental.noalias.scope.decl(metadata !1438)
  call void @llvm.experimental.noalias.scope.decl(metadata !1441)
  call void @llvm.experimental.noalias.scope.decl(metadata !1443)
  call void @llvm.experimental.noalias.scope.decl(metadata !1446)
  %_3.i.i.i.i.i = load i32, ptr %_7.i.i, align 4, !alias.scope !1448, !noalias !1449, !noundef !6
  %_4.i.i.i.i.i = load i32, ptr %v.sroa.0.0.ph.lcssa129, align 4, !alias.scope !1451, !noalias !1452, !noundef !6
  %_0.i.i.i = icmp slt i32 %_3.i.i.i.i.i, %_4.i.i.i.i.i
  %_12.i.i = getelementptr inbounds nuw i8, ptr %v.sroa.0.0.ph.lcssa129, i64 12
  %_14.i.i = getelementptr inbounds nuw i8, ptr %v.sroa.0.0.ph.lcssa129, i64 8
  call void @llvm.experimental.noalias.scope.decl(metadata !1453)
  call void @llvm.experimental.noalias.scope.decl(metadata !1456)
  call void @llvm.experimental.noalias.scope.decl(metadata !1458)
  call void @llvm.experimental.noalias.scope.decl(metadata !1461)
  call void @llvm.experimental.noalias.scope.decl(metadata !1463)
  call void @llvm.experimental.noalias.scope.decl(metadata !1466)
  %_3.i.i.i7.i.i = load i32, ptr %_12.i.i, align 4, !alias.scope !1468, !noalias !1469, !noundef !6
  %_4.i.i.i8.i.i = load i32, ptr %_14.i.i, align 4, !alias.scope !1470, !noalias !1471, !noundef !6
  %_0.i9.i.i = icmp slt i32 %_3.i.i.i7.i.i, %_4.i.i.i8.i.i
  %count.i.i = zext i1 %_0.i.i.i to i64
  %a.i.i = getelementptr inbounds nuw i32, ptr %v.sroa.0.0.ph.lcssa129, i64 %count.i.i
  %_19.i.i = xor i1 %_0.i.i.i, true
  %count2.i.i = zext i1 %_19.i.i to i64
  %b.i.i = getelementptr inbounds nuw i32, ptr %v.sroa.0.0.ph.lcssa129, i64 %count2.i.i
  %count3.i.i = select i1 %_0.i9.i.i, i64 3, i64 2
  %c.i.i = getelementptr inbounds nuw i32, ptr %v.sroa.0.0.ph.lcssa129, i64 %count3.i.i
  %count4.i.i = select i1 %_0.i9.i.i, i64 2, i64 3
  %d.i.i = getelementptr inbounds nuw i32, ptr %v.sroa.0.0.ph.lcssa129, i64 %count4.i.i
  call void @llvm.experimental.noalias.scope.decl(metadata !1472)
  call void @llvm.experimental.noalias.scope.decl(metadata !1475)
  call void @llvm.experimental.noalias.scope.decl(metadata !1477)
  call void @llvm.experimental.noalias.scope.decl(metadata !1480)
  call void @llvm.experimental.noalias.scope.decl(metadata !1482)
  call void @llvm.experimental.noalias.scope.decl(metadata !1485)
  %_3.i.i.i10.i.i = load i32, ptr %c.i.i, align 4, !alias.scope !1487, !noalias !1488, !noundef !6
  %_4.i.i.i11.i.i = load i32, ptr %a.i.i, align 4, !alias.scope !1489, !noalias !1490, !noundef !6
  %_0.i12.i.i = icmp slt i32 %_3.i.i.i10.i.i, %_4.i.i.i11.i.i
  call void @llvm.experimental.noalias.scope.decl(metadata !1491)
  call void @llvm.experimental.noalias.scope.decl(metadata !1494)
  call void @llvm.experimental.noalias.scope.decl(metadata !1496)
  call void @llvm.experimental.noalias.scope.decl(metadata !1499)
  call void @llvm.experimental.noalias.scope.decl(metadata !1501)
  call void @llvm.experimental.noalias.scope.decl(metadata !1504)
  %_3.i.i.i13.i.i = load i32, ptr %d.i.i, align 4, !alias.scope !1506, !noalias !1507, !noundef !6
  %_4.i.i.i14.i.i = load i32, ptr %b.i.i, align 4, !alias.scope !1508, !noalias !1509, !noundef !6
  %_0.i15.i.i = icmp slt i32 %_3.i.i.i13.i.i, %_4.i.i.i14.i.i
  %5 = call i32 @llvm.smin.i32(i32 %_3.i.i.i10.i.i, i32 %_4.i.i.i11.i.i)
  %6 = select i1 %_0.i15.i.i, ptr %c.i.i, ptr %b.i.i, !unpredictable !6
  %7 = select i1 %_0.i12.i.i, ptr %a.i.i, ptr %6, !unpredictable !6
  %8 = select i1 %_0.i12.i.i, ptr %b.i.i, ptr %c.i.i, !unpredictable !6
  %9 = select i1 %_0.i15.i.i, ptr %d.i.i, ptr %8, !unpredictable !6
  call void @llvm.experimental.noalias.scope.decl(metadata !1510)
  call void @llvm.experimental.noalias.scope.decl(metadata !1513)
  call void @llvm.experimental.noalias.scope.decl(metadata !1515)
  call void @llvm.experimental.noalias.scope.decl(metadata !1518)
  call void @llvm.experimental.noalias.scope.decl(metadata !1520)
  call void @llvm.experimental.noalias.scope.decl(metadata !1523)
  %_3.i.i.i16.i.i = load i32, ptr %9, align 4, !alias.scope !1525, !noalias !1526, !noundef !6
  %_4.i.i.i17.i.i = load i32, ptr %7, align 4, !alias.scope !1527, !noalias !1528, !noundef !6
  store i32 %5, ptr %scratch.0, align 4, !alias.scope !1431, !noalias !1529
  %dst5.i.i = getelementptr inbounds nuw i8, ptr %scratch.0, i64 4
  %10 = call i32 @llvm.smin.i32(i32 %_3.i.i.i16.i.i, i32 %_4.i.i.i17.i.i)
  store i32 %10, ptr %dst5.i.i, align 4, !alias.scope !1431, !noalias !1529
  %dst6.i.i = getelementptr inbounds nuw i8, ptr %scratch.0, i64 8
  %11 = call i32 @llvm.smax.i32(i32 %_3.i.i.i16.i.i, i32 %_4.i.i.i17.i.i)
  store i32 %11, ptr %dst6.i.i, align 4, !alias.scope !1431, !noalias !1529
  %12 = getelementptr inbounds nuw i8, ptr %scratch.0, i64 12
  %13 = call i32 @llvm.smax.i32(i32 %_3.i.i.i13.i.i, i32 %_4.i.i.i14.i.i)
  store i32 %13, ptr %12, align 4, !alias.scope !1431, !noalias !1529
  %_27.i = getelementptr inbounds nuw i32, ptr %v.sroa.0.0.ph.lcssa129, i64 %len_div_211.i
  %_28.i = getelementptr inbounds nuw i32, ptr %scratch.0, i64 %len_div_211.i
  %_7.i13.i = getelementptr inbounds nuw i8, ptr %_27.i, i64 4
  call void @llvm.experimental.noalias.scope.decl(metadata !1530)
  call void @llvm.experimental.noalias.scope.decl(metadata !1533)
  call void @llvm.experimental.noalias.scope.decl(metadata !1535)
  call void @llvm.experimental.noalias.scope.decl(metadata !1538)
  call void @llvm.experimental.noalias.scope.decl(metadata !1540)
  call void @llvm.experimental.noalias.scope.decl(metadata !1543)
  %_3.i.i.i.i14.i = load i32, ptr %_7.i13.i, align 4, !alias.scope !1545, !noalias !1546, !noundef !6
  %_4.i.i.i.i15.i = load i32, ptr %_27.i, align 4, !alias.scope !1547, !noalias !1548, !noundef !6
  %_0.i.i16.i = icmp slt i32 %_3.i.i.i.i14.i, %_4.i.i.i.i15.i
  %_12.i17.i = getelementptr inbounds nuw i8, ptr %_27.i, i64 12
  %_14.i18.i = getelementptr inbounds nuw i8, ptr %_27.i, i64 8
  call void @llvm.experimental.noalias.scope.decl(metadata !1549)
  call void @llvm.experimental.noalias.scope.decl(metadata !1552)
  call void @llvm.experimental.noalias.scope.decl(metadata !1554)
  call void @llvm.experimental.noalias.scope.decl(metadata !1557)
  call void @llvm.experimental.noalias.scope.decl(metadata !1559)
  call void @llvm.experimental.noalias.scope.decl(metadata !1562)
  %_3.i.i.i7.i19.i = load i32, ptr %_12.i17.i, align 4, !alias.scope !1564, !noalias !1565, !noundef !6
  %_4.i.i.i8.i20.i = load i32, ptr %_14.i18.i, align 4, !alias.scope !1566, !noalias !1567, !noundef !6
  %_0.i9.i21.i = icmp slt i32 %_3.i.i.i7.i19.i, %_4.i.i.i8.i20.i
  %count.i22.i = zext i1 %_0.i.i16.i to i64
  %a.i23.i = getelementptr inbounds nuw i32, ptr %_27.i, i64 %count.i22.i
  %_19.i24.i = xor i1 %_0.i.i16.i, true
  %count2.i25.i = zext i1 %_19.i24.i to i64
  %b.i26.i = getelementptr inbounds nuw i32, ptr %_27.i, i64 %count2.i25.i
  %count3.i27.i = select i1 %_0.i9.i21.i, i64 3, i64 2
  %c.i28.i = getelementptr inbounds nuw i32, ptr %_27.i, i64 %count3.i27.i
  %count4.i29.i = select i1 %_0.i9.i21.i, i64 2, i64 3
  %d.i30.i = getelementptr inbounds nuw i32, ptr %_27.i, i64 %count4.i29.i
  call void @llvm.experimental.noalias.scope.decl(metadata !1568)
  call void @llvm.experimental.noalias.scope.decl(metadata !1571)
  call void @llvm.experimental.noalias.scope.decl(metadata !1573)
  call void @llvm.experimental.noalias.scope.decl(metadata !1576)
  call void @llvm.experimental.noalias.scope.decl(metadata !1578)
  call void @llvm.experimental.noalias.scope.decl(metadata !1581)
  %_3.i.i.i10.i31.i = load i32, ptr %c.i28.i, align 4, !alias.scope !1583, !noalias !1584, !noundef !6
  %_4.i.i.i11.i32.i = load i32, ptr %a.i23.i, align 4, !alias.scope !1585, !noalias !1586, !noundef !6
  %_0.i12.i33.i = icmp slt i32 %_3.i.i.i10.i31.i, %_4.i.i.i11.i32.i
  call void @llvm.experimental.noalias.scope.decl(metadata !1587)
  call void @llvm.experimental.noalias.scope.decl(metadata !1590)
  call void @llvm.experimental.noalias.scope.decl(metadata !1592)
  call void @llvm.experimental.noalias.scope.decl(metadata !1595)
  call void @llvm.experimental.noalias.scope.decl(metadata !1597)
  call void @llvm.experimental.noalias.scope.decl(metadata !1600)
  %_3.i.i.i13.i34.i = load i32, ptr %d.i30.i, align 4, !alias.scope !1602, !noalias !1603, !noundef !6
  %_4.i.i.i14.i35.i = load i32, ptr %b.i26.i, align 4, !alias.scope !1604, !noalias !1605, !noundef !6
  %_0.i15.i36.i = icmp slt i32 %_3.i.i.i13.i34.i, %_4.i.i.i14.i35.i
  %14 = call i32 @llvm.smin.i32(i32 %_3.i.i.i10.i31.i, i32 %_4.i.i.i11.i32.i)
  %15 = select i1 %_0.i15.i36.i, ptr %c.i28.i, ptr %b.i26.i, !unpredictable !6
  %16 = select i1 %_0.i12.i33.i, ptr %a.i23.i, ptr %15, !unpredictable !6
  %17 = select i1 %_0.i12.i33.i, ptr %b.i26.i, ptr %c.i28.i, !unpredictable !6
  %18 = select i1 %_0.i15.i36.i, ptr %d.i30.i, ptr %17, !unpredictable !6
  call void @llvm.experimental.noalias.scope.decl(metadata !1606)
  call void @llvm.experimental.noalias.scope.decl(metadata !1609)
  call void @llvm.experimental.noalias.scope.decl(metadata !1611)
  call void @llvm.experimental.noalias.scope.decl(metadata !1614)
  call void @llvm.experimental.noalias.scope.decl(metadata !1616)
  call void @llvm.experimental.noalias.scope.decl(metadata !1619)
  %_3.i.i.i16.i37.i = load i32, ptr %18, align 4, !alias.scope !1621, !noalias !1622, !noundef !6
  %_4.i.i.i17.i38.i = load i32, ptr %16, align 4, !alias.scope !1623, !noalias !1624, !noundef !6
  store i32 %14, ptr %_28.i, align 4, !alias.scope !1431, !noalias !1529
  %dst5.i40.i = getelementptr inbounds nuw i8, ptr %_28.i, i64 4
  %19 = call i32 @llvm.smin.i32(i32 %_3.i.i.i16.i37.i, i32 %_4.i.i.i17.i38.i)
  store i32 %19, ptr %dst5.i40.i, align 4, !alias.scope !1431, !noalias !1529
  %dst6.i43.i = getelementptr inbounds nuw i8, ptr %_28.i, i64 8
  %20 = call i32 @llvm.smax.i32(i32 %_3.i.i.i16.i37.i, i32 %_4.i.i.i17.i38.i)
  store i32 %20, ptr %dst6.i43.i, align 4, !alias.scope !1431, !noalias !1529
  %21 = getelementptr inbounds nuw i8, ptr %_28.i, i64 12
  %22 = call i32 @llvm.smax.i32(i32 %_3.i.i.i13.i34.i, i32 %_4.i.i.i14.i35.i)
  store i32 %22, ptr %21, align 4, !alias.scope !1431, !noalias !1529
  br label %bb15.i

bb46.i:                                           ; preds = %bb9.i
  %23 = load i32, ptr %v.sroa.0.0.ph.lcssa129, align 4, !alias.scope !1428, !noalias !1625
  store i32 %23, ptr %scratch.0, align 4, !alias.scope !1431, !noalias !1529
  %_31.i = getelementptr inbounds nuw i32, ptr %v.sroa.0.0.ph.lcssa129, i64 %len_div_211.i
  %24 = getelementptr inbounds nuw i32, ptr %scratch.0, i64 %len_div_211.i
  %25 = load i32, ptr %_31.i, align 4, !alias.scope !1428, !noalias !1625
  store i32 %25, ptr %24, align 4, !alias.scope !1431, !noalias !1529
  br label %bb15.i

bb15.i:                                           ; preds = %bb46.i, %bb10.i, %bb6.i
  %presorted_len.sroa.0.0.i = phi i64 [ 8, %bb6.i ], [ 4, %bb10.i ], [ 1, %bb46.i ]
  %26 = sub nsw i64 %v.sroa.16.0.lcssa, %len_div_211.i
  %_8061.i = icmp samesign ult i64 %presorted_len.sroa.0.0.i, %len_div_211.i
  br i1 %_8061.i, label %bb24.preheader.i, label %bb16.loopexit.i

bb16.loopexit.i:                                  ; preds = %_ZN4core5slice4sort6shared9smallsort11insert_tail17h8d444b17020be90bE.exit.i, %bb15.i
  %src5.1.i = getelementptr inbounds nuw i32, ptr %v.sroa.0.0.ph.lcssa129, i64 %len_div_211.i
  %dst6.1.i = getelementptr i32, ptr %scratch.0, i64 %len_div_211.i
  %_8061.1.i = icmp ult i64 %presorted_len.sroa.0.0.i, %26
  br i1 %_8061.1.i, label %bb24.preheader.1.i, label %bb16.loopexit.1.i

bb24.preheader.1.i:                               ; preds = %bb16.loopexit.i
  %iter1.sroa.0.163.1.i = add nuw nsw i64 %presorted_len.sroa.0.0.i, 1
  br label %bb24.1.i

bb24.1.i:                                         ; preds = %_ZN4core5slice4sort6shared9smallsort11insert_tail17h8d444b17020be90bE.exit.1.i, %bb24.preheader.1.i
  %iter1.sroa.0.165.1.i = phi i64 [ %iter1.sroa.0.1.1.i, %_ZN4core5slice4sort6shared9smallsort11insert_tail17h8d444b17020be90bE.exit.1.i ], [ %iter1.sroa.0.163.1.i, %bb24.preheader.1.i ]
  %iter1.sroa.0.064.1.i = phi i64 [ %iter1.sroa.0.165.1.i, %_ZN4core5slice4sort6shared9smallsort11insert_tail17h8d444b17020be90bE.exit.1.i ], [ %presorted_len.sroa.0.0.i, %bb24.preheader.1.i ]
  %_55.1.i = getelementptr inbounds nuw i32, ptr %src5.1.i, i64 %iter1.sroa.0.064.1.i
  %dst7.1.i = getelementptr inbounds nuw i32, ptr %dst6.1.i, i64 %iter1.sroa.0.064.1.i
  %27 = load i32, ptr %_55.1.i, align 4, !alias.scope !1428, !noalias !1625
  store i32 %27, ptr %dst7.1.i, align 4, !alias.scope !1431, !noalias !1529
  %28 = getelementptr inbounds i8, ptr %dst7.1.i, i64 -4
  %_4.i.i.i.i55.1.i = load i32, ptr %28, align 4, !alias.scope !1626, !noalias !1633, !noundef !6
  %_0.i.i56.1.i = icmp slt i32 %27, %_4.i.i.i.i55.1.i
  br i1 %_0.i.i56.1.i, label %bb4.i.1.i, label %_ZN4core5slice4sort6shared9smallsort11insert_tail17h8d444b17020be90bE.exit.1.i

bb4.i.1.i:                                        ; preds = %bb24.1.i, %bb7.i.1.i
  %29 = phi i32 [ %_4.i.i.i2.i.1.i, %bb7.i.1.i ], [ %_4.i.i.i.i55.1.i, %bb24.1.i ]
  %gap_guard.sroa.5.0.i.1.i = phi ptr [ %sift.sroa.0.0.i.1.i, %bb7.i.1.i ], [ %dst7.1.i, %bb24.1.i ]
  %sift.sroa.0.0.i.1.i = phi ptr [ %30, %bb7.i.1.i ], [ %28, %bb24.1.i ]
  store i32 %29, ptr %gap_guard.sroa.5.0.i.1.i, align 4, !alias.scope !1431, !noalias !1529
  %_18.i.1.i = icmp eq ptr %sift.sroa.0.0.i.1.i, %dst6.1.i
  br i1 %_18.i.1.i, label %bb10.i.1.i, label %bb7.i.1.i

bb7.i.1.i:                                        ; preds = %bb4.i.1.i
  %30 = getelementptr inbounds i8, ptr %sift.sroa.0.0.i.1.i, i64 -4
  %_4.i.i.i2.i.1.i = load i32, ptr %30, align 4, !alias.scope !1637, !noalias !1644, !noundef !6
  %_0.i3.i.1.i = icmp slt i32 %27, %_4.i.i.i2.i.1.i
  br i1 %_0.i3.i.1.i, label %bb4.i.1.i, label %bb10.i.1.i

bb10.i.1.i:                                       ; preds = %bb7.i.1.i, %bb4.i.1.i
  %sift.sroa.0.0.i.lcssa.1.i = phi ptr [ %sift.sroa.0.0.i.1.i, %bb7.i.1.i ], [ %dst6.1.i, %bb4.i.1.i ]
  store i32 %27, ptr %sift.sroa.0.0.i.lcssa.1.i, align 4, !alias.scope !1431, !noalias !1648
  br label %_ZN4core5slice4sort6shared9smallsort11insert_tail17h8d444b17020be90bE.exit.1.i

_ZN4core5slice4sort6shared9smallsort11insert_tail17h8d444b17020be90bE.exit.1.i: ; preds = %bb10.i.1.i, %bb24.1.i
  %_80.1.i = icmp ult i64 %iter1.sroa.0.165.1.i, %26
  %_84.1.i = zext i1 %_80.1.i to i64
  %iter1.sroa.0.1.1.i = add nuw i64 %iter1.sroa.0.165.1.i, %_84.1.i
  br i1 %_80.1.i, label %bb24.1.i, label %bb16.loopexit.1.i

bb16.loopexit.1.i:                                ; preds = %_ZN4core5slice4sort6shared9smallsort11insert_tail17h8d444b17020be90bE.exit.1.i, %bb16.loopexit.i
  call void @llvm.experimental.noalias.scope.decl(metadata !1653)
  %count1.i.i = add nsw i64 %v.sroa.16.0.lcssa, -1
  %31 = getelementptr inbounds nuw i32, ptr %v.sroa.0.0.ph.lcssa129, i64 %count1.i.i
  %32 = getelementptr inbounds nuw i32, ptr %scratch.0, i64 %count1.i.i
  %33 = getelementptr i8, ptr %dst6.1.i, i64 -4
  br label %bb15.i.i

bb24.preheader.i:                                 ; preds = %bb15.i
  %iter1.sroa.0.163.i = add nuw nsw i64 %presorted_len.sroa.0.0.i, 1
  br label %bb24.i

bb16.i.i:                                         ; preds = %bb15.i.i
  %34 = getelementptr i8, ptr %39, i64 4
  %35 = getelementptr i8, ptr %38, i64 4
  %_44.i.i = and i64 %v.sroa.16.0.lcssa, 1
  %_22.i.i = icmp eq i64 %_44.i.i, 0
  br i1 %_22.i.i, label %bb9.i.i, label %bb5.i.i

bb15.i.i:                                         ; preds = %bb15.i.i, %bb16.loopexit.1.i
  %dst.sroa.0.029.i.i = phi ptr [ %_16.i.i.i, %bb15.i.i ], [ %v.sroa.0.0.ph.lcssa129, %bb16.loopexit.1.i ]
  %iter.sroa.0.028.i.i = phi i64 [ %_39.i.i, %bb15.i.i ], [ 0, %bb16.loopexit.1.i ]
  %left.sroa.0.027.i.i = phi ptr [ %_14.i.i.i, %bb15.i.i ], [ %scratch.0, %bb16.loopexit.1.i ]
  %right.sroa.0.026.i.i = phi ptr [ %_12.i.i.i, %bb15.i.i ], [ %dst6.1.i, %bb16.loopexit.1.i ]
  %left_rev.sroa.0.025.i.i = phi ptr [ %39, %bb15.i.i ], [ %33, %bb16.loopexit.1.i ]
  %right_rev.sroa.0.024.i.i = phi ptr [ %38, %bb15.i.i ], [ %32, %bb16.loopexit.1.i ]
  %dst_rev.sroa.0.023.i.i = phi ptr [ %40, %bb15.i.i ], [ %31, %bb16.loopexit.1.i ]
  %_39.i.i = add nuw nsw i64 %iter.sroa.0.028.i.i, 1
  call void @llvm.experimental.noalias.scope.decl(metadata !1656)
  call void @llvm.experimental.noalias.scope.decl(metadata !1659)
  call void @llvm.experimental.noalias.scope.decl(metadata !1661), !noalias !1664
  call void @llvm.experimental.noalias.scope.decl(metadata !1667), !noalias !1664
  call void @llvm.experimental.noalias.scope.decl(metadata !1669), !noalias !1664
  call void @llvm.experimental.noalias.scope.decl(metadata !1672), !noalias !1664
  %_3.i.i.i.i48.i = load i32, ptr %right.sroa.0.026.i.i, align 4, !alias.scope !1674, !noalias !1675, !noundef !6
  %_4.i.i.i.i49.i = load i32, ptr %left.sroa.0.027.i.i, align 4, !alias.scope !1676, !noalias !1677, !noundef !6
  %_0.i.i50.i = icmp slt i32 %_3.i.i.i.i48.i, %_4.i.i.i.i49.i
  %is_l.i18.i.i = xor i1 %_0.i.i50.i, true
  %36 = call i32 @llvm.smin.i32(i32 %_3.i.i.i.i48.i, i32 %_4.i.i.i.i49.i)
  store i32 %36, ptr %dst.sroa.0.029.i.i, align 4, !alias.scope !1428, !noalias !1678
  %count.i.i.i = zext i1 %_0.i.i50.i to i64
  %_12.i.i.i = getelementptr inbounds nuw i32, ptr %right.sroa.0.026.i.i, i64 %count.i.i.i
  %count2.i.i.i = zext i1 %is_l.i18.i.i to i64
  %_14.i.i.i = getelementptr inbounds nuw i32, ptr %left.sroa.0.027.i.i, i64 %count2.i.i.i
  %_16.i.i.i = getelementptr inbounds nuw i8, ptr %dst.sroa.0.029.i.i, i64 4
  call void @llvm.experimental.noalias.scope.decl(metadata !1680)
  call void @llvm.experimental.noalias.scope.decl(metadata !1683)
  call void @llvm.experimental.noalias.scope.decl(metadata !1685), !noalias !1688
  call void @llvm.experimental.noalias.scope.decl(metadata !1691), !noalias !1688
  call void @llvm.experimental.noalias.scope.decl(metadata !1693), !noalias !1688
  call void @llvm.experimental.noalias.scope.decl(metadata !1696), !noalias !1688
  %_3.i.i.i19.i.i = load i32, ptr %right_rev.sroa.0.024.i.i, align 4, !alias.scope !1698, !noalias !1699, !noundef !6
  %_4.i.i.i20.i.i = load i32, ptr %left_rev.sroa.0.025.i.i, align 4, !alias.scope !1700, !noalias !1701, !noundef !6
  %_0.i21.i.i = icmp slt i32 %_3.i.i.i19.i.i, %_4.i.i.i20.i.i
  %is_l.i.i.i = xor i1 %_0.i21.i.i, true
  %37 = call i32 @llvm.smax.i32(i32 %_3.i.i.i19.i.i, i32 %_4.i.i.i20.i.i)
  store i32 %37, ptr %dst_rev.sroa.0.023.i.i, align 4, !alias.scope !1428, !noalias !1702
  %count.neg.i.i.i = sext i1 %is_l.i.i.i to i64
  %38 = getelementptr i32, ptr %right_rev.sroa.0.024.i.i, i64 %count.neg.i.i.i
  %count3.neg.i.i.i = sext i1 %_0.i21.i.i to i64
  %39 = getelementptr i32, ptr %left_rev.sroa.0.025.i.i, i64 %count3.neg.i.i.i
  %40 = getelementptr inbounds i8, ptr %dst_rev.sroa.0.023.i.i, i64 -4
  %exitcond.not.i.i = icmp eq i64 %_39.i.i, %len_div_211.i
  br i1 %exitcond.not.i.i, label %bb16.i.i, label %bb15.i.i

bb5.i.i:                                          ; preds = %bb16.i.i
  %left_nonempty.i.i = icmp ult ptr %_14.i.i.i, %34
  %left.sroa.0.0.right.sroa.0.0.i.i = select i1 %left_nonempty.i.i, ptr %_14.i.i.i, ptr %_12.i.i.i
  %41 = load i32, ptr %left.sroa.0.0.right.sroa.0.0.i.i, align 4, !alias.scope !1704, !noalias !1529
  store i32 %41, ptr %_16.i.i.i, align 4, !alias.scope !1428, !noalias !1705
  %count2.i51.i = zext i1 %left_nonempty.i.i to i64
  %_26.i.i = getelementptr inbounds nuw i32, ptr %_14.i.i.i, i64 %count2.i51.i
  %_30.i.i = xor i1 %left_nonempty.i.i, true
  %count3.i52.i = zext i1 %_30.i.i to i64
  %_28.i.i = getelementptr inbounds nuw i32, ptr %_12.i.i.i, i64 %count3.i52.i
  br label %bb9.i.i

bb9.i.i:                                          ; preds = %bb5.i.i, %bb16.i.i
  %right.sroa.0.1.i.i = phi ptr [ %_12.i.i.i, %bb16.i.i ], [ %_28.i.i, %bb5.i.i ]
  %left.sroa.0.1.i.i = phi ptr [ %_14.i.i.i, %bb16.i.i ], [ %_26.i.i, %bb5.i.i ]
  %_31.i.i = icmp ne ptr %left.sroa.0.1.i.i, %34
  %_32.i.i = icmp ne ptr %right.sroa.0.1.i.i, %35
  %or.cond.i.i = select i1 %_31.i.i, i1 true, i1 %_32.i.i
  br i1 %or.cond.i.i, label %bb13.i.i, label %bb22, !prof !612

bb13.i.i:                                         ; preds = %bb9.i.i
; invoke core::slice::sort::shared::smallsort::panic_on_ord_violation
  invoke void @_ZN4core5slice4sort6shared9smallsort22panic_on_ord_violation17hc77a22a2d50782cdE() #26
          to label %.noexc.i unwind label %cleanup2.i, !noalias !1706

.noexc.i:                                         ; preds = %bb13.i.i
  unreachable

cleanup2.i:                                       ; preds = %bb13.i.i
  %42 = landingpad { ptr, i32 }
          cleanup
  %43 = shl nuw nsw i64 %v.sroa.16.0.lcssa, 2
  call void @llvm.memcpy.p0.p0.i64(ptr nonnull align 4 %v.sroa.0.0.ph.lcssa129, ptr nonnull align 4 %scratch.0, i64 %43, i1 false), !alias.scope !1707, !noalias !1708
  resume { ptr, i32 } %42

bb24.i:                                           ; preds = %_ZN4core5slice4sort6shared9smallsort11insert_tail17h8d444b17020be90bE.exit.i, %bb24.preheader.i
  %iter1.sroa.0.165.i = phi i64 [ %iter1.sroa.0.1.i, %_ZN4core5slice4sort6shared9smallsort11insert_tail17h8d444b17020be90bE.exit.i ], [ %iter1.sroa.0.163.i, %bb24.preheader.i ]
  %iter1.sroa.0.064.i = phi i64 [ %iter1.sroa.0.165.i, %_ZN4core5slice4sort6shared9smallsort11insert_tail17h8d444b17020be90bE.exit.i ], [ %presorted_len.sroa.0.0.i, %bb24.preheader.i ]
  %_55.i = getelementptr inbounds nuw i32, ptr %v.sroa.0.0.ph.lcssa129, i64 %iter1.sroa.0.064.i
  %dst7.i = getelementptr inbounds nuw i32, ptr %scratch.0, i64 %iter1.sroa.0.064.i
  %44 = load i32, ptr %_55.i, align 4, !alias.scope !1428, !noalias !1625
  store i32 %44, ptr %dst7.i, align 4, !alias.scope !1431, !noalias !1529
  %45 = getelementptr inbounds i8, ptr %dst7.i, i64 -4
  %_4.i.i.i.i55.i = load i32, ptr %45, align 4, !alias.scope !1626, !noalias !1633, !noundef !6
  %_0.i.i56.i = icmp slt i32 %44, %_4.i.i.i.i55.i
  br i1 %_0.i.i56.i, label %bb4.i.i, label %_ZN4core5slice4sort6shared9smallsort11insert_tail17h8d444b17020be90bE.exit.i

bb4.i.i:                                          ; preds = %bb24.i, %bb7.i.i
  %46 = phi i32 [ %_4.i.i.i2.i.i, %bb7.i.i ], [ %_4.i.i.i.i55.i, %bb24.i ]
  %gap_guard.sroa.5.0.i.i = phi ptr [ %sift.sroa.0.0.i.i, %bb7.i.i ], [ %dst7.i, %bb24.i ]
  %sift.sroa.0.0.i.i = phi ptr [ %47, %bb7.i.i ], [ %45, %bb24.i ]
  store i32 %46, ptr %gap_guard.sroa.5.0.i.i, align 4, !alias.scope !1431, !noalias !1529
  %_18.i.i = icmp eq ptr %sift.sroa.0.0.i.i, %scratch.0
  br i1 %_18.i.i, label %bb10.i.i, label %bb7.i.i

bb7.i.i:                                          ; preds = %bb4.i.i
  %47 = getelementptr inbounds i8, ptr %sift.sroa.0.0.i.i, i64 -4
  %_4.i.i.i2.i.i = load i32, ptr %47, align 4, !alias.scope !1637, !noalias !1644, !noundef !6
  %_0.i3.i.i = icmp slt i32 %44, %_4.i.i.i2.i.i
  br i1 %_0.i3.i.i, label %bb4.i.i, label %bb10.i.i

bb10.i.i:                                         ; preds = %bb7.i.i, %bb4.i.i
  %sift.sroa.0.0.i.lcssa.i = phi ptr [ %sift.sroa.0.0.i.i, %bb7.i.i ], [ %scratch.0, %bb4.i.i ]
  store i32 %44, ptr %sift.sroa.0.0.i.lcssa.i, align 4, !alias.scope !1431, !noalias !1648
  br label %_ZN4core5slice4sort6shared9smallsort11insert_tail17h8d444b17020be90bE.exit.i

_ZN4core5slice4sort6shared9smallsort11insert_tail17h8d444b17020be90bE.exit.i: ; preds = %bb10.i.i, %bb24.i
  %_80.i = icmp ult i64 %iter1.sroa.0.165.i, %len_div_211.i
  %_84.i = zext i1 %_80.i to i64
  %iter1.sroa.0.1.i = add nuw i64 %iter1.sroa.0.165.i, %_84.i
  br i1 %_80.i, label %bb24.i, label %bb16.loopexit.i

bb7:                                              ; preds = %bb5
  %48 = add i32 %limit.sroa.0.0131, -1
  %len_div_84.i = lshr i64 %v.sroa.16.0132, 3
  %b.idx.i = shl nuw nsw i64 %len_div_84.i, 4
  %b.i = getelementptr inbounds nuw i8, ptr %v.sroa.0.0.ph140, i64 %b.idx.i
  %c.idx.i = mul nuw nsw i64 %len_div_84.i, 28
  %c.i = getelementptr inbounds nuw i8, ptr %v.sroa.0.0.ph140, i64 %c.idx.i
  %_12.i = icmp samesign ult i64 %v.sroa.16.0132, 64
  br i1 %_12.i, label %bb3.i23, label %bb5.i

bb5.i:                                            ; preds = %bb7
; call core::slice::sort::shared::pivot::median3_rec
  %self.i = call fastcc noundef ptr @_ZN4core5slice4sort6shared5pivot11median3_rec17h0a600e94c9b56343E(ptr noundef nonnull readonly align 4 %v.sroa.0.0.ph140, ptr noundef readonly %b.i, ptr noundef readonly %c.i, i64 noundef %len_div_84.i)
  br label %bb10

bb3.i23:                                          ; preds = %bb7
  call void @llvm.experimental.noalias.scope.decl(metadata !1713)
  call void @llvm.experimental.noalias.scope.decl(metadata !1716)
  call void @llvm.experimental.noalias.scope.decl(metadata !1718), !noalias !1721
  call void @llvm.experimental.noalias.scope.decl(metadata !1724), !noalias !1721
  call void @llvm.experimental.noalias.scope.decl(metadata !1726), !noalias !1721
  call void @llvm.experimental.noalias.scope.decl(metadata !1729), !noalias !1721
  %_3.i.i.i.i = load i32, ptr %v.sroa.0.0.ph140, align 4, !alias.scope !1731, !noalias !1734, !noundef !6
  %_4.i.i.i.i = load i32, ptr %b.i, align 4, !alias.scope !1736, !noalias !1737, !noundef !6
  %_0.i.i = icmp slt i32 %_3.i.i.i.i, %_4.i.i.i.i
  %_4.i.i.i6.i = load i32, ptr %c.i, align 4, !alias.scope !1738, !noalias !1745, !noundef !6
  %_0.i7.i = icmp slt i32 %_3.i.i.i.i, %_4.i.i.i6.i
  %49 = xor i1 %_0.i.i, %_0.i7.i
  %_0.i10.i = icmp slt i32 %_4.i.i.i.i, %_4.i.i.i6.i
  %_12.i.i24 = xor i1 %_0.i.i, %_0.i10.i
  %c.b.i.i = select i1 %_12.i.i24, ptr %c.i, ptr %b.i
  %_0.sroa.0.0.i.i = select i1 %49, ptr %v.sroa.0.0.ph140, ptr %c.b.i.i
  br label %bb10

bb6:                                              ; preds = %bb5
; call core::slice::sort::stable::drift::sort
  call fastcc void @_ZN4core5slice4sort6stable5drift4sort17h753da6aa311033faE(ptr noalias noundef nonnull align 4 %v.sroa.0.0.ph140, i64 noundef %v.sroa.16.0132, ptr noalias noundef nonnull align 4 %scratch.0, i64 noundef %scratch.1, i1 noundef zeroext true, ptr noalias noundef align 8 dereferenceable(8) %is_less)
  br label %bb22

bb10:                                             ; preds = %bb3.i23, %bb5.i
  %_0.sroa.0.0.i.sink.i = phi ptr [ %_0.sroa.0.0.i.i, %bb3.i23 ], [ %self.i, %bb5.i ]
  %50 = ptrtoint ptr %_0.sroa.0.0.i.sink.i to i64
  %51 = sub nuw i64 %50, %4
  %index.sroa.0.0.i = lshr exact i64 %51, 2
  %cond.i = icmp samesign ult i64 %index.sroa.0.0.i, %v.sroa.16.0132
  call void @llvm.assume(i1 %cond.i)
  call void @llvm.lifetime.start.p0(i64 4, ptr nonnull %pivot_copy)
  %src = getelementptr inbounds nuw i8, ptr %v.sroa.0.0.ph140, i64 %51
  %value = load i32, ptr %src, align 4, !noundef !6
  store i32 %value, ptr %pivot_copy, align 4
  br i1 %.not, label %bb14, label %bb12

bb12:                                             ; preds = %bb10
  %_3.i.i.i = load i32, ptr %left_ancestor_pivot.sroa.0.0.ph137, align 4, !alias.scope !1749, !noalias !1756, !noundef !6
  %_0.i = icmp slt i32 %_3.i.i.i, %value
  br i1 %_0.i, label %bb14, label %bb17

bb14:                                             ; preds = %bb10, %bb12
  call void @llvm.experimental.noalias.scope.decl(metadata !1760)
  call void @llvm.experimental.noalias.scope.decl(metadata !1763)
  %_8.i25.not = icmp samesign ult i64 %scratch.1, %v.sroa.16.0132
  br i1 %_8.i25.not, label %bb31.i, label %bb33.i, !prof !612

bb33.i:                                           ; preds = %bb14
  %_86.i = getelementptr i32, ptr %scratch.0, i64 %v.sroa.16.0132
  br label %bb3.i26

bb31.i:                                           ; preds = %bb14
  call void @llvm.trap()
  unreachable

bb3.i26:                                          ; preds = %bb23.i, %bb33.i
  %state.sroa.27.0.i = phi i64 [ 0, %bb33.i ], [ %state.sroa.27.2.lcssa.i, %bb23.i ]
  %state.sroa.9.0.i = phi ptr [ %v.sroa.0.0.ph140, %bb33.i ], [ %_9.i70.i, %bb23.i ]
  %state.sroa.43.0.i = phi ptr [ %_86.i, %bb33.i ], [ %63, %bb23.i ]
  %pivot_pos.sroa.0.0.i = phi i64 [ %index.sroa.0.0.i, %bb33.i ], [ %v.sroa.16.0132, %bb23.i ]
  %52 = call i64 @llvm.usub.sat.i64(i64 %pivot_pos.sroa.0.0.i, i64 3)
  %unroll_end.i = getelementptr inbounds nuw i32, ptr %v.sroa.0.0.ph140, i64 %52
  %_1984.i = icmp ult ptr %state.sroa.9.0.i, %unroll_end.i
  br i1 %_1984.i, label %bb6.i28.preheader, label %bb16.i

bb6.i28.preheader:                                ; preds = %bb3.i26
  %_4.i.i.i.i30 = load i32, ptr %src, align 4, !alias.scope !1765, !noalias !1772, !noundef !6
  br label %bb6.i28

bb6.i28:                                          ; preds = %bb6.i28.preheader, %bb6.i28
  %state.sroa.43.187.i = phi ptr [ %59, %bb6.i28 ], [ %state.sroa.43.0.i, %bb6.i28.preheader ]
  %state.sroa.9.186.i = phi ptr [ %_9.i54.i, %bb6.i28 ], [ %state.sroa.9.0.i, %bb6.i28.preheader ]
  %state.sroa.27.185.i = phi i64 [ %60, %bb6.i28 ], [ %state.sroa.27.0.i, %bb6.i28.preheader ]
  call void @llvm.experimental.noalias.scope.decl(metadata !1776)
  call void @llvm.experimental.noalias.scope.decl(metadata !1777)
  call void @llvm.experimental.noalias.scope.decl(metadata !1778)
  call void @llvm.experimental.noalias.scope.decl(metadata !1779)
  call void @llvm.experimental.noalias.scope.decl(metadata !1780)
  call void @llvm.experimental.noalias.scope.decl(metadata !1781)
  %_3.i.i.i.i29 = load i32, ptr %state.sroa.9.186.i, align 4, !alias.scope !1782, !noalias !1783, !noundef !6
  %_0.i.i31 = icmp slt i32 %_3.i.i.i.i29, %_4.i.i.i.i30
  %53 = getelementptr inbounds i8, ptr %state.sroa.43.187.i, i64 -4
  %dst_base.sroa.0.0.i.i = select i1 %_0.i.i31, ptr %scratch.0, ptr %53
  %dst.i.i = getelementptr inbounds nuw i32, ptr %dst_base.sroa.0.0.i.i, i64 %state.sroa.27.185.i
  store i32 %_3.i.i.i.i29, ptr %dst.i.i, align 4, !alias.scope !1763, !noalias !1784
  %_8.i.i = zext i1 %_0.i.i31 to i64
  %54 = add i64 %state.sroa.27.185.i, %_8.i.i
  %_9.i.i = getelementptr inbounds nuw i8, ptr %state.sroa.9.186.i, i64 4
  %_3.i.i.i25.i = load i32, ptr %_9.i.i, align 4, !alias.scope !1787, !noalias !1794, !noundef !6
  %_0.i27.i = icmp slt i32 %_3.i.i.i25.i, %_4.i.i.i.i30
  %55 = getelementptr inbounds i8, ptr %state.sroa.43.187.i, i64 -8
  %dst_base.sroa.0.0.i29.i = select i1 %_0.i27.i, ptr %scratch.0, ptr %55
  %dst.i31.i = getelementptr inbounds nuw i32, ptr %dst_base.sroa.0.0.i29.i, i64 %54
  store i32 %_3.i.i.i25.i, ptr %dst.i31.i, align 4, !alias.scope !1763, !noalias !1798
  %_8.i33.i = zext i1 %_0.i27.i to i64
  %56 = add i64 %54, %_8.i33.i
  %_9.i34.i = getelementptr inbounds nuw i8, ptr %state.sroa.9.186.i, i64 8
  %_3.i.i.i35.i = load i32, ptr %_9.i34.i, align 4, !alias.scope !1801, !noalias !1808, !noundef !6
  %_0.i37.i = icmp slt i32 %_3.i.i.i35.i, %_4.i.i.i.i30
  %57 = getelementptr inbounds i8, ptr %state.sroa.43.187.i, i64 -12
  %dst_base.sroa.0.0.i39.i = select i1 %_0.i37.i, ptr %scratch.0, ptr %57
  %dst.i41.i = getelementptr inbounds nuw i32, ptr %dst_base.sroa.0.0.i39.i, i64 %56
  store i32 %_3.i.i.i35.i, ptr %dst.i41.i, align 4, !alias.scope !1763, !noalias !1812
  %_8.i43.i = zext i1 %_0.i37.i to i64
  %58 = add i64 %56, %_8.i43.i
  %_9.i44.i = getelementptr inbounds nuw i8, ptr %state.sroa.9.186.i, i64 12
  %_3.i.i.i45.i = load i32, ptr %_9.i44.i, align 4, !alias.scope !1815, !noalias !1822, !noundef !6
  %_0.i47.i = icmp slt i32 %_3.i.i.i45.i, %_4.i.i.i.i30
  %59 = getelementptr inbounds i8, ptr %state.sroa.43.187.i, i64 -16
  %dst_base.sroa.0.0.i49.i = select i1 %_0.i47.i, ptr %scratch.0, ptr %59
  %dst.i51.i = getelementptr inbounds nuw i32, ptr %dst_base.sroa.0.0.i49.i, i64 %58
  store i32 %_3.i.i.i45.i, ptr %dst.i51.i, align 4, !alias.scope !1763, !noalias !1826
  %_8.i53.i = zext i1 %_0.i47.i to i64
  %60 = add i64 %58, %_8.i53.i
  %_9.i54.i = getelementptr inbounds nuw i8, ptr %state.sroa.9.186.i, i64 16
  %_19.i32 = icmp ult ptr %_9.i54.i, %unroll_end.i
  br i1 %_19.i32, label %bb6.i28, label %bb16.i

bb16.i:                                           ; preds = %bb6.i28, %bb3.i26
  %state.sroa.27.1.lcssa.i = phi i64 [ %state.sroa.27.0.i, %bb3.i26 ], [ %60, %bb6.i28 ]
  %state.sroa.9.1.lcssa.i = phi ptr [ %state.sroa.9.0.i, %bb3.i26 ], [ %_9.i54.i, %bb6.i28 ]
  %state.sroa.43.1.lcssa.i = phi ptr [ %state.sroa.43.0.i, %bb3.i26 ], [ %59, %bb6.i28 ]
  %loop_end.i = getelementptr inbounds nuw i32, ptr %v.sroa.0.0.ph140, i64 %pivot_pos.sroa.0.0.i
  %_4790.i = icmp ult ptr %state.sroa.9.1.lcssa.i, %loop_end.i
  br i1 %_4790.i, label %bb18.i.preheader, label %bb21.i

bb18.i.preheader:                                 ; preds = %bb16.i
  %_4.i.i.i56.i = load i32, ptr %src, align 4, !alias.scope !1829, !noalias !1836, !noundef !6
  br label %bb18.i

bb21.i:                                           ; preds = %bb18.i, %bb16.i
  %state.sroa.27.2.lcssa.i = phi i64 [ %state.sroa.27.1.lcssa.i, %bb16.i ], [ %62, %bb18.i ]
  %state.sroa.9.2.lcssa.i = phi ptr [ %state.sroa.9.1.lcssa.i, %bb16.i ], [ %_9.i64.i, %bb18.i ]
  %state.sroa.43.2.lcssa.i = phi ptr [ %state.sroa.43.1.lcssa.i, %bb16.i ], [ %61, %bb18.i ]
  %_55.i27 = icmp eq i64 %pivot_pos.sroa.0.0.i, %v.sroa.16.0132
  br i1 %_55.i27, label %bb22.i, label %bb23.i

bb18.i:                                           ; preds = %bb18.i.preheader, %bb18.i
  %state.sroa.43.293.i = phi ptr [ %61, %bb18.i ], [ %state.sroa.43.1.lcssa.i, %bb18.i.preheader ]
  %state.sroa.9.292.i = phi ptr [ %_9.i64.i, %bb18.i ], [ %state.sroa.9.1.lcssa.i, %bb18.i.preheader ]
  %state.sroa.27.291.i = phi i64 [ %62, %bb18.i ], [ %state.sroa.27.1.lcssa.i, %bb18.i.preheader ]
  call void @llvm.experimental.noalias.scope.decl(metadata !1840)
  call void @llvm.experimental.noalias.scope.decl(metadata !1841)
  call void @llvm.experimental.noalias.scope.decl(metadata !1842)
  call void @llvm.experimental.noalias.scope.decl(metadata !1843)
  call void @llvm.experimental.noalias.scope.decl(metadata !1844)
  call void @llvm.experimental.noalias.scope.decl(metadata !1845)
  %_3.i.i.i55.i = load i32, ptr %state.sroa.9.292.i, align 4, !alias.scope !1846, !noalias !1847, !noundef !6
  %_0.i57.i = icmp slt i32 %_3.i.i.i55.i, %_4.i.i.i56.i
  %61 = getelementptr inbounds i8, ptr %state.sroa.43.293.i, i64 -4
  %dst_base.sroa.0.0.i59.i = select i1 %_0.i57.i, ptr %scratch.0, ptr %61
  %dst.i61.i = getelementptr inbounds nuw i32, ptr %dst_base.sroa.0.0.i59.i, i64 %state.sroa.27.291.i
  store i32 %_3.i.i.i55.i, ptr %dst.i61.i, align 4, !alias.scope !1763, !noalias !1848
  %_8.i63.i = zext i1 %_0.i57.i to i64
  %62 = add i64 %state.sroa.27.291.i, %_8.i63.i
  %_9.i64.i = getelementptr inbounds nuw i8, ptr %state.sroa.9.292.i, i64 4
  %_47.i = icmp ult ptr %_9.i64.i, %loop_end.i
  br i1 %_47.i, label %bb18.i, label %bb21.i

bb23.i:                                           ; preds = %bb21.i
  %63 = getelementptr inbounds i8, ptr %state.sroa.43.2.lcssa.i, i64 -4
  %dst.i68.i = getelementptr inbounds nuw i32, ptr %63, i64 %state.sroa.27.2.lcssa.i
  %64 = load i32, ptr %state.sroa.9.2.lcssa.i, align 4, !alias.scope !1760, !noalias !1851
  store i32 %64, ptr %dst.i68.i, align 4, !alias.scope !1763, !noalias !1854
  %_9.i70.i = getelementptr inbounds nuw i8, ptr %state.sroa.9.2.lcssa.i, i64 4
  br label %bb3.i26

bb22.i:                                           ; preds = %bb21.i
  %65 = shl i64 %state.sroa.27.2.lcssa.i, 2
  call void @llvm.memcpy.p0.p0.i64(ptr nonnull align 4 %v.sroa.0.0.ph140, ptr nonnull align 4 %scratch.0, i64 %65, i1 false), !alias.scope !1855
  %_63.i = sub i64 %v.sroa.16.0132, %state.sroa.27.2.lcssa.i
  %_9797.not.i = icmp eq i64 %v.sroa.16.0132, %state.sroa.27.2.lcssa.i
  br i1 %_9797.not.i, label %bb16, label %bb42.lr.ph.i

bb42.lr.ph.i:                                     ; preds = %bb22.i
  %66 = getelementptr i32, ptr %v.sroa.0.0.ph140, i64 %state.sroa.27.2.lcssa.i
  %min.iters.check265 = icmp ult i64 %_63.i, 8
  br i1 %min.iters.check265, label %bb42.i.preheader, label %vector.ph266

vector.ph266:                                     ; preds = %bb42.lr.ph.i
  %n.vec268 = and i64 %_63.i, -8
  br label %vector.body269

vector.body269:                                   ; preds = %vector.body269, %vector.ph266
  %index270 = phi i64 [ 0, %vector.ph266 ], [ %index.next275, %vector.body269 ]
  %67 = getelementptr i32, ptr %66, i64 %index270
  %68 = xor i64 %index270, -1
  %69 = getelementptr i32, ptr %_86.i, i64 %68
  %70 = getelementptr i8, ptr %69, i64 -12
  %71 = getelementptr i8, ptr %69, i64 -28
  %wide.load271 = load <4 x i32>, ptr %70, align 4, !alias.scope !1763, !noalias !1760
  %reverse272 = shufflevector <4 x i32> %wide.load271, <4 x i32> poison, <4 x i32> <i32 3, i32 2, i32 1, i32 0>
  %wide.load273 = load <4 x i32>, ptr %71, align 4, !alias.scope !1763, !noalias !1760
  %reverse274 = shufflevector <4 x i32> %wide.load273, <4 x i32> poison, <4 x i32> <i32 3, i32 2, i32 1, i32 0>
  %72 = getelementptr i8, ptr %67, i64 16
  store <4 x i32> %reverse272, ptr %67, align 4, !alias.scope !1760, !noalias !1763
  store <4 x i32> %reverse274, ptr %72, align 4, !alias.scope !1760, !noalias !1763
  %index.next275 = add nuw i64 %index270, 8
  %73 = icmp eq i64 %index.next275, %n.vec268
  br i1 %73, label %middle.block276, label %vector.body269, !llvm.loop !1856

middle.block276:                                  ; preds = %vector.body269
  %cmp.n277 = icmp eq i64 %_63.i, %n.vec268
  br i1 %cmp.n277, label %bb16, label %bb42.i.preheader

bb42.i.preheader:                                 ; preds = %bb42.lr.ph.i, %middle.block276
  %iter.sroa.0.098.i.ph = phi i64 [ 0, %bb42.lr.ph.i ], [ %n.vec268, %middle.block276 ]
  br label %bb42.i

bb42.i:                                           ; preds = %bb42.i.preheader, %bb42.i
  %iter.sroa.0.098.i = phi i64 [ %74, %bb42.i ], [ %iter.sroa.0.098.i.ph, %bb42.i.preheader ]
  %74 = add nuw i64 %iter.sroa.0.098.i, 1
  %75 = getelementptr i32, ptr %66, i64 %iter.sroa.0.098.i
  %76 = xor i64 %iter.sroa.0.098.i, -1
  %77 = getelementptr i32, ptr %_86.i, i64 %76
  %78 = load i32, ptr %77, align 4, !alias.scope !1763, !noalias !1760
  store i32 %78, ptr %75, align 4, !alias.scope !1760, !noalias !1763
  %exitcond.not.i = icmp eq i64 %74, %_63.i
  br i1 %exitcond.not.i, label %bb16, label %bb42.i, !llvm.loop !1857

bb16:                                             ; preds = %bb42.i, %middle.block276, %bb22.i
  %79 = icmp eq i64 %state.sroa.27.2.lcssa.i, 0
  br i1 %79, label %bb17, label %bb19

bb19:                                             ; preds = %bb16
  %_6.not.i = icmp ugt i64 %state.sroa.27.2.lcssa.i, %v.sroa.16.0132
  br i1 %_6.not.i, label %bb3.i33, label %"_ZN4core5slice29_$LT$impl$u20$$u5b$T$u5d$$GT$12split_at_mut17h57750b98ef4419ecE.exit", !prof !1374

bb3.i33:                                          ; preds = %bb19
; call core::panicking::panic_fmt
  call void @_ZN4core9panicking9panic_fmt17ha4414e4328fe24a0E(ptr noundef nonnull @alloc_d1084648e479974e70c9329824bf76f9, ptr noundef nonnull inttoptr (i64 19 to ptr), ptr noalias noundef nonnull readonly align 8 captures(address, read_provenance) dereferenceable(24) @alloc_58d434a1e795f965ef82c8e9c5db822a) #26, !noalias !1858
  unreachable

"_ZN4core5slice29_$LT$impl$u20$$u5b$T$u5d$$GT$12split_at_mut17h57750b98ef4419ecE.exit": ; preds = %bb19
  %80 = getelementptr inbounds nuw i32, ptr %v.sroa.0.0.ph140, i64 %state.sroa.27.2.lcssa.i
; call core::slice::sort::stable::quicksort::quicksort
  call void @_ZN4core5slice4sort6stable9quicksort9quicksort17hdfb2cdee762e95a0E(ptr noalias noundef nonnull align 4 %80, i64 noundef %_63.i, ptr noalias noundef nonnull align 4 %scratch.0, i64 noundef %scratch.1, i32 noundef %48, ptr noalias noundef nonnull readonly align 4 captures(address, read_provenance) dereferenceable_or_null(4) %pivot_copy, ptr noalias noundef nonnull align 8 dereferenceable(8) %is_less) #29
  call void @llvm.lifetime.end.p0(i64 4, ptr nonnull %pivot_copy)
  %_8 = icmp ult i64 %state.sroa.27.2.lcssa.i, 33
  br i1 %_8, label %bb3, label %bb5

bb17:                                             ; preds = %bb12, %bb16
  call void @llvm.experimental.noalias.scope.decl(metadata !1862)
  call void @llvm.experimental.noalias.scope.decl(metadata !1865)
  %_8.i34.not = icmp samesign ult i64 %scratch.1, %v.sroa.16.0132
  br i1 %_8.i34.not, label %bb31.i37, label %bb33.i38, !prof !612

bb33.i38:                                         ; preds = %bb17
  %_86.i40 = getelementptr i32, ptr %scratch.0, i64 %v.sroa.16.0132
  br label %bb3.i41

bb31.i37:                                         ; preds = %bb17
  call void @llvm.trap()
  unreachable

bb3.i41:                                          ; preds = %bb23.i59, %bb33.i38
  %state.sroa.27.0.i42 = phi i64 [ 0, %bb33.i38 ], [ %94, %bb23.i59 ]
  %state.sroa.9.0.i43 = phi ptr [ %v.sroa.0.0.ph140, %bb33.i38 ], [ %_9.i70.i61, %bb23.i59 ]
  %state.sroa.43.0.i44 = phi ptr [ %_86.i40, %bb33.i38 ], [ %92, %bb23.i59 ]
  %pivot_pos.sroa.0.0.i45 = phi i64 [ %index.sroa.0.0.i, %bb33.i38 ], [ %v.sroa.16.0132, %bb23.i59 ]
  %81 = call i64 @llvm.usub.sat.i64(i64 %pivot_pos.sroa.0.0.i45, i64 3)
  %unroll_end.i46 = getelementptr inbounds nuw i32, ptr %v.sroa.0.0.ph140, i64 %81
  %_1984.i47 = icmp ult ptr %state.sroa.9.0.i43, %unroll_end.i46
  br i1 %_1984.i47, label %bb6.i78.preheader, label %bb16.i48

bb6.i78.preheader:                                ; preds = %bb3.i41
  %_3.i.i.i.i.i82 = load i32, ptr %src, align 4, !alias.scope !1867, !noalias !1876, !noundef !6
  br label %bb6.i78

bb6.i78:                                          ; preds = %bb6.i78.preheader, %bb6.i78
  %state.sroa.43.187.i79 = phi ptr [ %88, %bb6.i78 ], [ %state.sroa.43.0.i44, %bb6.i78.preheader ]
  %state.sroa.9.186.i80 = phi ptr [ %_9.i54.i100, %bb6.i78 ], [ %state.sroa.9.0.i43, %bb6.i78.preheader ]
  %state.sroa.27.185.i81 = phi i64 [ %89, %bb6.i78 ], [ %state.sroa.27.0.i42, %bb6.i78.preheader ]
  call void @llvm.experimental.noalias.scope.decl(metadata !1881)
  call void @llvm.experimental.noalias.scope.decl(metadata !1882)
  call void @llvm.experimental.noalias.scope.decl(metadata !1883)
  call void @llvm.experimental.noalias.scope.decl(metadata !1884)
  call void @llvm.experimental.noalias.scope.decl(metadata !1885)
  call void @llvm.experimental.noalias.scope.decl(metadata !1886)
  call void @llvm.experimental.noalias.scope.decl(metadata !1887)
  call void @llvm.experimental.noalias.scope.decl(metadata !1888)
  %_4.i.i.i.i.i83 = load i32, ptr %state.sroa.9.186.i80, align 4, !alias.scope !1889, !noalias !1890, !noundef !6
  %_0.i.i.i84 = icmp sge i32 %_3.i.i.i.i.i82, %_4.i.i.i.i.i83
  %82 = getelementptr inbounds i8, ptr %state.sroa.43.187.i79, i64 -4
  %dst_base.sroa.0.0.i.i85 = select i1 %_0.i.i.i84, ptr %scratch.0, ptr %82
  %dst.i.i86 = getelementptr inbounds nuw i32, ptr %dst_base.sroa.0.0.i.i85, i64 %state.sroa.27.185.i81
  store i32 %_4.i.i.i.i.i83, ptr %dst.i.i86, align 4, !alias.scope !1865, !noalias !1891
  %_8.i.i87 = zext i1 %_0.i.i.i84 to i64
  %83 = add i64 %state.sroa.27.185.i81, %_8.i.i87
  %_9.i.i88 = getelementptr inbounds nuw i8, ptr %state.sroa.9.186.i80, i64 4
  %_4.i.i.i.i26.i = load i32, ptr %_9.i.i88, align 4, !alias.scope !1894, !noalias !1903, !noundef !6
  %_0.i.i27.i = icmp sge i32 %_3.i.i.i.i.i82, %_4.i.i.i.i26.i
  %84 = getelementptr inbounds i8, ptr %state.sroa.43.187.i79, i64 -8
  %dst_base.sroa.0.0.i29.i89 = select i1 %_0.i.i27.i, ptr %scratch.0, ptr %84
  %dst.i31.i90 = getelementptr inbounds nuw i32, ptr %dst_base.sroa.0.0.i29.i89, i64 %83
  store i32 %_4.i.i.i.i26.i, ptr %dst.i31.i90, align 4, !alias.scope !1865, !noalias !1908
  %_8.i33.i91 = zext i1 %_0.i.i27.i to i64
  %85 = add i64 %83, %_8.i33.i91
  %_9.i34.i92 = getelementptr inbounds nuw i8, ptr %state.sroa.9.186.i80, i64 8
  %_4.i.i.i.i36.i = load i32, ptr %_9.i34.i92, align 4, !alias.scope !1911, !noalias !1920, !noundef !6
  %_0.i.i37.i = icmp sge i32 %_3.i.i.i.i.i82, %_4.i.i.i.i36.i
  %86 = getelementptr inbounds i8, ptr %state.sroa.43.187.i79, i64 -12
  %dst_base.sroa.0.0.i39.i93 = select i1 %_0.i.i37.i, ptr %scratch.0, ptr %86
  %dst.i41.i94 = getelementptr inbounds nuw i32, ptr %dst_base.sroa.0.0.i39.i93, i64 %85
  store i32 %_4.i.i.i.i36.i, ptr %dst.i41.i94, align 4, !alias.scope !1865, !noalias !1925
  %_8.i43.i95 = zext i1 %_0.i.i37.i to i64
  %87 = add i64 %85, %_8.i43.i95
  %_9.i44.i96 = getelementptr inbounds nuw i8, ptr %state.sroa.9.186.i80, i64 12
  %_4.i.i.i.i46.i = load i32, ptr %_9.i44.i96, align 4, !alias.scope !1928, !noalias !1937, !noundef !6
  %_0.i.i47.i = icmp sge i32 %_3.i.i.i.i.i82, %_4.i.i.i.i46.i
  %88 = getelementptr inbounds i8, ptr %state.sroa.43.187.i79, i64 -16
  %dst_base.sroa.0.0.i49.i97 = select i1 %_0.i.i47.i, ptr %scratch.0, ptr %88
  %dst.i51.i98 = getelementptr inbounds nuw i32, ptr %dst_base.sroa.0.0.i49.i97, i64 %87
  store i32 %_4.i.i.i.i46.i, ptr %dst.i51.i98, align 4, !alias.scope !1865, !noalias !1942
  %_8.i53.i99 = zext i1 %_0.i.i47.i to i64
  %89 = add i64 %87, %_8.i53.i99
  %_9.i54.i100 = getelementptr inbounds nuw i8, ptr %state.sroa.9.186.i80, i64 16
  %_19.i101 = icmp ult ptr %_9.i54.i100, %unroll_end.i46
  br i1 %_19.i101, label %bb6.i78, label %bb16.i48

bb16.i48:                                         ; preds = %bb6.i78, %bb3.i41
  %state.sroa.27.1.lcssa.i49 = phi i64 [ %state.sroa.27.0.i42, %bb3.i41 ], [ %89, %bb6.i78 ]
  %state.sroa.9.1.lcssa.i50 = phi ptr [ %state.sroa.9.0.i43, %bb3.i41 ], [ %_9.i54.i100, %bb6.i78 ]
  %state.sroa.43.1.lcssa.i51 = phi ptr [ %state.sroa.43.0.i44, %bb3.i41 ], [ %88, %bb6.i78 ]
  %loop_end.i52 = getelementptr inbounds nuw i32, ptr %v.sroa.0.0.ph140, i64 %pivot_pos.sroa.0.0.i45
  %_4790.i53 = icmp ult ptr %state.sroa.9.1.lcssa.i50, %loop_end.i52
  br i1 %_4790.i53, label %bb18.i69.preheader, label %bb21.i54

bb18.i69.preheader:                               ; preds = %bb16.i48
  %_3.i.i.i.i55.i = load i32, ptr %src, align 4, !alias.scope !1945, !noalias !1954, !noundef !6
  br label %bb18.i69

bb21.i54:                                         ; preds = %bb18.i69, %bb16.i48
  %state.sroa.27.2.lcssa.i55 = phi i64 [ %state.sroa.27.1.lcssa.i49, %bb16.i48 ], [ %91, %bb18.i69 ]
  %state.sroa.9.2.lcssa.i56 = phi ptr [ %state.sroa.9.1.lcssa.i50, %bb16.i48 ], [ %_9.i64.i76, %bb18.i69 ]
  %state.sroa.43.2.lcssa.i57 = phi ptr [ %state.sroa.43.1.lcssa.i51, %bb16.i48 ], [ %90, %bb18.i69 ]
  %_55.i58 = icmp eq i64 %pivot_pos.sroa.0.0.i45, %v.sroa.16.0132
  br i1 %_55.i58, label %bb22.i62, label %bb23.i59

bb18.i69:                                         ; preds = %bb18.i69.preheader, %bb18.i69
  %state.sroa.43.293.i70 = phi ptr [ %90, %bb18.i69 ], [ %state.sroa.43.1.lcssa.i51, %bb18.i69.preheader ]
  %state.sroa.9.292.i71 = phi ptr [ %_9.i64.i76, %bb18.i69 ], [ %state.sroa.9.1.lcssa.i50, %bb18.i69.preheader ]
  %state.sroa.27.291.i72 = phi i64 [ %91, %bb18.i69 ], [ %state.sroa.27.1.lcssa.i49, %bb18.i69.preheader ]
  call void @llvm.experimental.noalias.scope.decl(metadata !1959)
  call void @llvm.experimental.noalias.scope.decl(metadata !1960)
  call void @llvm.experimental.noalias.scope.decl(metadata !1961)
  call void @llvm.experimental.noalias.scope.decl(metadata !1962)
  call void @llvm.experimental.noalias.scope.decl(metadata !1963)
  call void @llvm.experimental.noalias.scope.decl(metadata !1964)
  call void @llvm.experimental.noalias.scope.decl(metadata !1965)
  call void @llvm.experimental.noalias.scope.decl(metadata !1966)
  %_4.i.i.i.i56.i = load i32, ptr %state.sroa.9.292.i71, align 4, !alias.scope !1967, !noalias !1968, !noundef !6
  %_0.i.i57.i = icmp sge i32 %_3.i.i.i.i55.i, %_4.i.i.i.i56.i
  %90 = getelementptr inbounds i8, ptr %state.sroa.43.293.i70, i64 -4
  %dst_base.sroa.0.0.i59.i73 = select i1 %_0.i.i57.i, ptr %scratch.0, ptr %90
  %dst.i61.i74 = getelementptr inbounds nuw i32, ptr %dst_base.sroa.0.0.i59.i73, i64 %state.sroa.27.291.i72
  store i32 %_4.i.i.i.i56.i, ptr %dst.i61.i74, align 4, !alias.scope !1865, !noalias !1969
  %_8.i63.i75 = zext i1 %_0.i.i57.i to i64
  %91 = add i64 %state.sroa.27.291.i72, %_8.i63.i75
  %_9.i64.i76 = getelementptr inbounds nuw i8, ptr %state.sroa.9.292.i71, i64 4
  %_47.i77 = icmp ult ptr %_9.i64.i76, %loop_end.i52
  br i1 %_47.i77, label %bb18.i69, label %bb21.i54

bb23.i59:                                         ; preds = %bb21.i54
  %92 = getelementptr inbounds i8, ptr %state.sroa.43.2.lcssa.i57, i64 -4
  %dst.i68.i60 = getelementptr inbounds nuw i32, ptr %scratch.0, i64 %state.sroa.27.2.lcssa.i55
  %93 = load i32, ptr %state.sroa.9.2.lcssa.i56, align 4, !alias.scope !1862, !noalias !1972
  store i32 %93, ptr %dst.i68.i60, align 4, !alias.scope !1865, !noalias !1975
  %94 = add i64 %state.sroa.27.2.lcssa.i55, 1
  %_9.i70.i61 = getelementptr inbounds nuw i8, ptr %state.sroa.9.2.lcssa.i56, i64 4
  br label %bb3.i41

bb22.i62:                                         ; preds = %bb21.i54
  %95 = shl i64 %state.sroa.27.2.lcssa.i55, 2
  call void @llvm.memcpy.p0.p0.i64(ptr nonnull align 4 %v.sroa.0.0.ph140, ptr nonnull align 4 %scratch.0, i64 %95, i1 false), !alias.scope !1976
  %_63.i63 = sub i64 %v.sroa.16.0132, %state.sroa.27.2.lcssa.i55
  %_9797.not.i64 = icmp eq i64 %v.sroa.16.0132, %state.sroa.27.2.lcssa.i55
  br i1 %_9797.not.i64, label %bb3.thread, label %bb42.lr.ph.i65

bb42.lr.ph.i65:                                   ; preds = %bb22.i62
  %96 = getelementptr i32, ptr %v.sroa.0.0.ph140, i64 %state.sroa.27.2.lcssa.i55
  %min.iters.check = icmp ult i64 %_63.i63, 8
  br i1 %min.iters.check, label %bb42.i66.preheader, label %vector.ph

vector.ph:                                        ; preds = %bb42.lr.ph.i65
  %n.vec = and i64 %_63.i63, -8
  br label %vector.body

vector.body:                                      ; preds = %vector.body, %vector.ph
  %index = phi i64 [ 0, %vector.ph ], [ %index.next, %vector.body ]
  %97 = getelementptr i32, ptr %96, i64 %index
  %98 = xor i64 %index, -1
  %99 = getelementptr i32, ptr %_86.i40, i64 %98
  %100 = getelementptr i8, ptr %99, i64 -12
  %101 = getelementptr i8, ptr %99, i64 -28
  %wide.load = load <4 x i32>, ptr %100, align 4, !alias.scope !1865, !noalias !1862
  %reverse = shufflevector <4 x i32> %wide.load, <4 x i32> poison, <4 x i32> <i32 3, i32 2, i32 1, i32 0>
  %wide.load262 = load <4 x i32>, ptr %101, align 4, !alias.scope !1865, !noalias !1862
  %reverse263 = shufflevector <4 x i32> %wide.load262, <4 x i32> poison, <4 x i32> <i32 3, i32 2, i32 1, i32 0>
  %102 = getelementptr i8, ptr %97, i64 16
  store <4 x i32> %reverse, ptr %97, align 4, !alias.scope !1862, !noalias !1865
  store <4 x i32> %reverse263, ptr %102, align 4, !alias.scope !1862, !noalias !1865
  %index.next = add nuw i64 %index, 8
  %103 = icmp eq i64 %index.next, %n.vec
  br i1 %103, label %middle.block, label %vector.body, !llvm.loop !1977

middle.block:                                     ; preds = %vector.body
  %cmp.n = icmp eq i64 %_63.i63, %n.vec
  br i1 %cmp.n, label %_ZN4core5slice4sort6stable9quicksort16stable_partition17h5440239c8a650de6E.exit, label %bb42.i66.preheader

bb42.i66.preheader:                               ; preds = %bb42.lr.ph.i65, %middle.block
  %iter.sroa.0.098.i67.ph = phi i64 [ 0, %bb42.lr.ph.i65 ], [ %n.vec, %middle.block ]
  br label %bb42.i66

bb42.i66:                                         ; preds = %bb42.i66.preheader, %bb42.i66
  %iter.sroa.0.098.i67 = phi i64 [ %104, %bb42.i66 ], [ %iter.sroa.0.098.i67.ph, %bb42.i66.preheader ]
  %104 = add nuw i64 %iter.sroa.0.098.i67, 1
  %105 = getelementptr i32, ptr %96, i64 %iter.sroa.0.098.i67
  %106 = xor i64 %iter.sroa.0.098.i67, -1
  %107 = getelementptr i32, ptr %_86.i40, i64 %106
  %108 = load i32, ptr %107, align 4, !alias.scope !1865, !noalias !1862
  store i32 %108, ptr %105, align 4, !alias.scope !1862, !noalias !1865
  %exitcond.not.i68 = icmp eq i64 %104, %_63.i63
  br i1 %exitcond.not.i68, label %_ZN4core5slice4sort6stable9quicksort16stable_partition17h5440239c8a650de6E.exit, label %bb42.i66, !llvm.loop !1978

_ZN4core5slice4sort6stable9quicksort16stable_partition17h5440239c8a650de6E.exit: ; preds = %bb42.i66, %middle.block
  %_47 = icmp ugt i64 %state.sroa.27.2.lcssa.i55, %v.sroa.16.0132
  br i1 %_47, label %bb27, label %bb28, !prof !1374

bb3.thread:                                       ; preds = %bb22.i62
  call void @llvm.lifetime.end.p0(i64 4, ptr nonnull %pivot_copy)
  br label %bb22

bb28:                                             ; preds = %_ZN4core5slice4sort6stable9quicksort16stable_partition17h5440239c8a650de6E.exit
  %_54 = getelementptr inbounds nuw i32, ptr %v.sroa.0.0.ph140, i64 %state.sroa.27.2.lcssa.i55
  call void @llvm.lifetime.end.p0(i64 4, ptr nonnull %pivot_copy)
  %_8130 = icmp ult i64 %_63.i63, 33
  br i1 %_8130, label %bb3, label %bb5.lr.ph

bb27:                                             ; preds = %_ZN4core5slice4sort6stable9quicksort16stable_partition17h5440239c8a650de6E.exit
; call core::slice::index::slice_index_fail
  call void @_ZN4core5slice5index16slice_index_fail17h62807bcaa490c9c1E(i64 noundef %state.sroa.27.2.lcssa.i55, i64 noundef %v.sroa.16.0132, i64 noundef %v.sroa.16.0132, ptr noalias noundef readonly align 8 captures(address, read_provenance) dereferenceable(24) @alloc_0766b232215672ee1bd2195fdb153938) #26
  unreachable

bb22:                                             ; preds = %bb3.thread, %bb9.i.i, %bb3, %bb6
  ret void
}

; alloc::raw_vec::RawVecInner<A>::finish_grow
; Function Attrs: cold nounwind nonlazybind uwtable
define internal fastcc void @"_ZN5alloc7raw_vec20RawVecInner$LT$A$GT$11finish_grow17ha0251b277b81aa5aE"(ptr dead_on_unwind noalias noundef nonnull writable writeonly sret([24 x i8]) align 8 captures(none) dereferenceable(24) initializes((0, 8)) %_0, ptr noalias noundef nonnull readonly align 8 captures(none) dereferenceable(16) %self, i64 noundef %cap) unnamed_addr #7 {
start:
  %_26.i = icmp slt i64 %cap, 0
  br i1 %_26.i, label %bb8, label %bb11, !prof !674

bb11:                                             ; preds = %start
  %self1.i = load i64, ptr %self, align 8, !range !25, !alias.scope !1979, !noalias !1982, !noundef !6
  %_6.i = icmp eq i64 %self1.i, 0
  br i1 %_6.i, label %bb5, label %"_ZN63_$LT$alloc..alloc..Global$u20$as$u20$core..alloc..Allocator$GT$4grow17hb74934e519f30dbcE.exit"

"_ZN63_$LT$alloc..alloc..Global$u20$as$u20$core..alloc..Allocator$GT$4grow17hb74934e519f30dbcE.exit": ; preds = %bb11
  %0 = getelementptr inbounds nuw i8, ptr %self, i64 8
  %self3.i = load ptr, ptr %0, align 8, !alias.scope !1979, !noalias !1982, !nonnull !6, !noundef !6
  %cond.i.i = icmp samesign uge i64 %cap, %self1.i
  tail call void @llvm.assume(i1 %cond.i.i)
; call __rustc::__rust_realloc
  %raw_ptr.i.i = tail call noundef ptr @_RNvCsdBezzDwma51_7___rustc14___rust_realloc(ptr noundef nonnull %self3.i, i64 noundef %self1.i, i64 noundef range(i64 1, -9223372036854775807) 1, i64 noundef %cap) #25
  br label %bb7

bb5:                                              ; preds = %bb11
  %1 = icmp eq i64 %cap, 0
  br i1 %1, label %bb16, label %bb4.i.i14

bb4.i.i14:                                        ; preds = %bb5
; call __rustc::__rust_no_alloc_shim_is_unstable_v2
  tail call void @_RNvCsdBezzDwma51_7___rustc35___rust_no_alloc_shim_is_unstable_v2() #25
; call __rustc::__rust_alloc
  %2 = tail call noundef ptr @_RNvCsdBezzDwma51_7___rustc12___rust_alloc(i64 noundef %cap, i64 noundef range(i64 1, -9223372036854775807) 1) #25
  br label %bb7

bb7:                                              ; preds = %bb4.i.i14, %"_ZN63_$LT$alloc..alloc..Global$u20$as$u20$core..alloc..Allocator$GT$4grow17hb74934e519f30dbcE.exit"
  %raw_ptr.i.i.pn = phi ptr [ %raw_ptr.i.i, %"_ZN63_$LT$alloc..alloc..Global$u20$as$u20$core..alloc..Allocator$GT$4grow17hb74934e519f30dbcE.exit" ], [ %2, %bb4.i.i14 ]
  %3 = icmp eq ptr %raw_ptr.i.i.pn, null
  br i1 %3, label %bb15, label %bb16

bb15:                                             ; preds = %bb7
  %4 = getelementptr inbounds nuw i8, ptr %_0, i64 8
  store i64 1, ptr %4, align 8
  br label %bb8

bb16:                                             ; preds = %bb5, %bb7
  %raw_ptr.i.i.pn24 = phi ptr [ %raw_ptr.i.i.pn, %bb7 ], [ inttoptr (i64 1 to ptr), %bb5 ]
  %5 = getelementptr inbounds nuw i8, ptr %_0, i64 8
  store ptr %raw_ptr.i.i.pn24, ptr %5, align 8
  br label %bb8

bb8:                                              ; preds = %start, %bb16, %bb15
  %.sink26 = phi i64 [ 16, %bb16 ], [ 16, %bb15 ], [ 8, %start ]
  %cap.sink = phi i64 [ %cap, %bb16 ], [ %cap, %bb15 ], [ 0, %start ]
  %.sink = phi i64 [ 0, %bb16 ], [ 1, %bb15 ], [ 1, %start ]
  %6 = getelementptr inbounds nuw i8, ptr %_0, i64 %.sink26
  store i64 %cap.sink, ptr %6, align 8
  store i64 %.sink, ptr %_0, align 8
  ret void
}

; alloc::raw_vec::RawVecInner<A>::reserve::do_reserve_and_handle
; Function Attrs: cold nonlazybind uwtable
define internal fastcc void @"_ZN5alloc7raw_vec20RawVecInner$LT$A$GT$7reserve21do_reserve_and_handle17h04c59fec06b0f096E"(ptr noalias noundef nonnull align 8 captures(none) dereferenceable(16) %slf, i64 noundef %len, i64 noundef %additional) unnamed_addr #8 personality ptr @rust_eh_personality {
start:
  %self3.i = alloca [24 x i8], align 8
  tail call void @llvm.experimental.noalias.scope.decl(metadata !1984)
  %_26.0.i = add i64 %additional, %len
  %_26.1.i = icmp ult i64 %_26.0.i, %len
  br i1 %_26.1.i, label %bb2, label %bb9.i

bb9.i:                                            ; preds = %start
  %self5.i = load i64, ptr %slf, align 8, !range !25, !alias.scope !1984, !noundef !6
  %v16.i = shl nuw i64 %self5.i, 1
  %_0.sroa.0.0.i.i = tail call noundef i64 @llvm.umax.i64(i64 %_26.0.i, i64 %v16.i)
  %_0.sroa.0.0.i15.i = tail call noundef i64 @llvm.umax.i64(i64 %_0.sroa.0.0.i.i, i64 8)
  call void @llvm.lifetime.start.p0(i64 24, ptr nonnull %self3.i), !noalias !1984
; call alloc::raw_vec::RawVecInner<A>::finish_grow
  call fastcc void @"_ZN5alloc7raw_vec20RawVecInner$LT$A$GT$11finish_grow17ha0251b277b81aa5aE"(ptr noalias noundef sret([24 x i8]) align 8 captures(none) dereferenceable(24) %self3.i, ptr noalias noundef nonnull readonly align 8 captures(address, read_provenance) dereferenceable(16) %slf, i64 noundef %_0.sroa.0.0.i15.i)
  %_37.i = load i64, ptr %self3.i, align 8, !range !1987, !noalias !1984, !noundef !6
  %0 = trunc nuw i64 %_37.i to i1
  %1 = getelementptr inbounds nuw i8, ptr %self3.i, i64 8
  br i1 %0, label %bb18.i, label %bb3

bb18.i:                                           ; preds = %bb9.i
  %e.0.i = load i64, ptr %1, align 8, !range !1988, !noalias !1984, !noundef !6
  %2 = getelementptr inbounds nuw i8, ptr %self3.i, i64 16
  %e.1.i = load i64, ptr %2, align 8, !noalias !1984
  call void @llvm.lifetime.end.p0(i64 24, ptr nonnull %self3.i), !noalias !1984
  br label %bb2

bb2:                                              ; preds = %bb18.i, %start
  %_0.sroa.5.0.i.ph = phi i64 [ undef, %start ], [ %e.1.i, %bb18.i ]
  %_0.sroa.0.0.i.ph = phi i64 [ 0, %start ], [ %e.0.i, %bb18.i ]
; call alloc::raw_vec::handle_error
  tail call void @_ZN5alloc7raw_vec12handle_error17h3a8c375904e593b2E(i64 noundef %_0.sroa.0.0.i.ph, i64 %_0.sroa.5.0.i.ph) #27
  unreachable

bb3:                                              ; preds = %bb9.i
  %v.0.i = load ptr, ptr %1, align 8, !noalias !1984, !nonnull !6, !noundef !6
  call void @llvm.lifetime.end.p0(i64 24, ptr nonnull %self3.i), !noalias !1984
  %3 = getelementptr inbounds nuw i8, ptr %slf, i64 8
  store ptr %v.0.i, ptr %3, align 8, !alias.scope !1984
  %4 = icmp sgt i64 %_0.sroa.0.0.i15.i, -1
  tail call void @llvm.assume(i1 %4)
  store i64 %_0.sroa.0.0.i15.i, ptr %slf, align 8, !alias.scope !1984
  ret void
}

; Function Attrs: mustprogress nofree norecurse nosync nounwind nonlazybind willreturn memory(argmem: read) uwtable
define noundef range(i8 -1, 2) i8 @cmpfunc(ptr noalias noundef readonly align 4 captures(none) dereferenceable(4) %a, ptr noalias noundef readonly align 4 captures(none) dereferenceable(4) %b) unnamed_addr #9 {
start:
  %_3 = load i32, ptr %a, align 4, !noundef !6
  %_4 = load i32, ptr %b, align 4, !noundef !6
  %_0 = tail call i8 @llvm.scmp.i8.i32(i32 %_3, i32 %_4)
  ret i8 %_0
}

; Function Attrs: nonlazybind uwtable
define void @f_gold(ptr dead_on_unwind noalias noundef writable writeonly sret([24 x i8]) align 8 captures(none) dereferenceable(24) %_0, ptr dead_on_return noalias noundef readonly align 8 captures(none) dereferenceable(24) %s) unnamed_addr #4 personality ptr @rust_eh_personality {
start:
  %is_less.i = alloca [0 x i8], align 1
  %res = alloca [24 x i8], align 8
  %arr = alloca [24 x i8], align 8
  %0 = getelementptr inbounds nuw i8, ptr %s, i64 16
  %n = load i64, ptr %0, align 8, !noundef !6
  %_29 = icmp sgt i64 %n, -1
  tail call void @llvm.assume(i1 %_29)
  %_5 = add nuw i64 %n, 1
  %_4 = mul i64 %_5, %n
  %sub_count10 = lshr i64 %_4, 1
  call void @llvm.lifetime.start.p0(i64 24, ptr nonnull %arr)
  %_21.0.i.i.i = mul i64 %sub_count10, 24
  %or.cond.i.i.i = icmp ugt i64 %_4, 768614336404564651
  br i1 %or.cond.i.i.i, label %bb3.i, label %bb17.i.i, !prof !674

bb17.i.i:                                         ; preds = %start
  %_8.i.i = icmp eq i64 %_21.0.i.i.i, 0
  br i1 %_8.i.i, label %bb13, label %"_ZN63_$LT$alloc..alloc..Global$u20$as$u20$core..alloc..Allocator$GT$8allocate17h02618852de544ee2E.exit.i.i"

"_ZN63_$LT$alloc..alloc..Global$u20$as$u20$core..alloc..Allocator$GT$8allocate17h02618852de544ee2E.exit.i.i": ; preds = %bb17.i.i
; call __rustc::__rust_no_alloc_shim_is_unstable_v2
  tail call void @_RNvCsdBezzDwma51_7___rustc35___rust_no_alloc_shim_is_unstable_v2() #25, !noalias !1989
; call __rustc::__rust_alloc
  %1 = tail call noundef align 8 ptr @_RNvCsdBezzDwma51_7___rustc12___rust_alloc(i64 noundef %_21.0.i.i.i, i64 noundef range(i64 1, 9) 8) #25, !noalias !1989
  %2 = icmp eq ptr %1, null
  br i1 %2, label %bb3.i, label %bb13

bb3.i:                                            ; preds = %"_ZN63_$LT$alloc..alloc..Global$u20$as$u20$core..alloc..Allocator$GT$8allocate17h02618852de544ee2E.exit.i.i", %start
  %_4.sroa.4.0.ph.i = phi i64 [ 8, %"_ZN63_$LT$alloc..alloc..Global$u20$as$u20$core..alloc..Allocator$GT$8allocate17h02618852de544ee2E.exit.i.i" ], [ 0, %start ]
; invoke alloc::raw_vec::handle_error
  invoke void @_ZN5alloc7raw_vec12handle_error17h3a8c375904e593b2E(i64 noundef %_4.sroa.4.0.ph.i, i64 %_21.0.i.i.i) #27
          to label %.noexc unwind label %cleanup

.noexc:                                           ; preds = %bb3.i
  unreachable

bb11:                                             ; preds = %bb2.i.i.i3.i, %bb4.i, %cleanup
  %.pn.pn = phi { ptr, i32 } [ %4, %cleanup ], [ %.pn, %bb4.i ], [ %.pn, %bb2.i.i.i3.i ]
  call void @llvm.experimental.noalias.scope.decl(metadata !1992)
  call void @llvm.experimental.noalias.scope.decl(metadata !1995)
  call void @llvm.experimental.noalias.scope.decl(metadata !1998)
  call void @llvm.experimental.noalias.scope.decl(metadata !2001)
  call void @llvm.experimental.noalias.scope.decl(metadata !2004)
  %self1.i.i.i.i1.i.i = load i64, ptr %s, align 8, !range !25, !alias.scope !2007, !noalias !2010, !noundef !6
  %_6.i.i.i.i2.i.i = icmp eq i64 %self1.i.i.i.i1.i.i, 0
  br i1 %_6.i.i.i.i2.i.i, label %bb12, label %bb2.i.i.i3.i.i

bb2.i.i.i3.i.i:                                   ; preds = %bb11
  %3 = getelementptr inbounds nuw i8, ptr %s, i64 8
  %self3.i.i.i.i4.i.i = load ptr, ptr %3, align 8, !alias.scope !2007, !noalias !2010, !nonnull !6, !noundef !6
; call __rustc::__rust_dealloc
  call void @_RNvCsdBezzDwma51_7___rustc14___rust_dealloc(ptr noundef nonnull %self3.i.i.i.i4.i.i, i64 noundef %self1.i.i.i.i1.i.i, i64 noundef range(i64 1, -9223372036854775807) 1) #25, !noalias !2012
  br label %bb12

cleanup:                                          ; preds = %bb3.i
  %4 = landingpad { ptr, i32 }
          cleanup
  br label %bb11

bb13:                                             ; preds = %bb17.i.i, %"_ZN63_$LT$alloc..alloc..Global$u20$as$u20$core..alloc..Allocator$GT$8allocate17h02618852de544ee2E.exit.i.i"
  %_4.sroa.4.0.i = phi i64 [ 0, %bb17.i.i ], [ %sub_count10, %"_ZN63_$LT$alloc..alloc..Global$u20$as$u20$core..alloc..Allocator$GT$8allocate17h02618852de544ee2E.exit.i.i" ]
  %_4.sroa.10.0.i = phi ptr [ inttoptr (i64 8 to ptr), %bb17.i.i ], [ %1, %"_ZN63_$LT$alloc..alloc..Global$u20$as$u20$core..alloc..Allocator$GT$8allocate17h02618852de544ee2E.exit.i.i" ]
  %_7.i = icmp samesign ule i64 %sub_count10, %_4.sroa.4.0.i
  tail call void @llvm.assume(i1 %_7.i)
  store i64 %_4.sroa.4.0.i, ptr %arr, align 8
  %5 = getelementptr inbounds nuw i8, ptr %arr, i64 8
  store ptr %_4.sroa.10.0.i, ptr %5, align 8
  %6 = getelementptr inbounds nuw i8, ptr %arr, i64 16
  store i64 0, ptr %6, align 8
  %_3288.not = icmp eq i64 %n, 0
  br i1 %_3288.not, label %bb15.thread, label %bb14.lr.ph

bb15.thread:                                      ; preds = %bb13
  call void @llvm.lifetime.start.p0(i64 0, ptr nonnull %is_less.i)
  br label %bb22

bb14.lr.ph:                                       ; preds = %bb13
  %7 = getelementptr inbounds nuw i8, ptr %s, i64 8
  %_44 = load ptr, ptr %7, align 8, !nonnull !6
  br label %bb2.i.lr.ph

bb1.loopexit:                                     ; preds = %bb21
  %exitcond.not = icmp eq i64 %8, %n
  br i1 %exitcond.not, label %bb15, label %bb2.i.lr.ph

bb15:                                             ; preds = %bb1.loopexit
  %_38.pre = load ptr, ptr %5, align 8
  call void @llvm.lifetime.start.p0(i64 0, ptr nonnull %is_less.i)
  %b.i = icmp samesign ult i64 %29, 2
  br i1 %b.i, label %bb22, label %bb7.i, !prof !2013

bb7.i:                                            ; preds = %bb15
  %b1.i = icmp samesign ult i64 %29, 21
  br i1 %b1.i, label %bb9.i, label %bb10.i, !prof !2014

bb10.i:                                           ; preds = %bb7.i
; invoke core::slice::sort::stable::driftsort_main
  invoke void @_ZN4core5slice4sort6stable14driftsort_main17had053cf2c77a0b49E(ptr noalias noundef nonnull align 8 %_38.pre, i64 noundef range(i64 0, 384307168202282326) %29, ptr noalias noundef nonnull align 1 %is_less.i)
          to label %bb22 unwind label %cleanup3

bb9.i:                                            ; preds = %bb7.i
; call core::slice::sort::shared::smallsort::insertion_sort_shift_left
  call fastcc void @_ZN4core5slice4sort6shared9smallsort25insertion_sort_shift_left17h5881bc39b88732acE(ptr noalias noundef nonnull align 8 %_38.pre, i64 noundef range(i64 0, 384307168202282326) %29)
  br label %bb22

bb2.i.lr.ph:                                      ; preds = %bb1.loopexit, %bb14.lr.ph
  %iter1.sroa.0.089 = phi i64 [ 0, %bb14.lr.ph ], [ %8, %bb1.loopexit ]
  %8 = add nuw nsw i64 %iter1.sroa.0.089, 1
  %_11 = sub nuw nsw i64 %n, %iter1.sroa.0.089
  %_11.i = icmp eq i64 %iter1.sroa.0.089, 0
  %9 = getelementptr inbounds nuw i8, ptr %_44, i64 %iter1.sroa.0.089
  br label %bb2.i

