; ModuleID = 'FIND_MAXIMUM_PRODUCT_OF_A_TRIPLET_IN_ARRAY_1_emit.1f066dc899473a64-cgu.0'
source_filename = "FIND_MAXIMUM_PRODUCT_OF_A_TRIPLET_IN_ARRAY_1_emit.1f066dc899473a64-cgu.0"
target datalayout = "e-m:e-p270:32:32-p271:32:32-p272:64:64-i64:64-i128:128-f80:128-n8:16:32:64-S128"
target triple = "x86_64-unknown-linux-gnu"

@alloc_d1084648e479974e70c9329824bf76f9 = private unnamed_addr constant [9 x i8] c"mid > len", align 1
@alloc_e8e5fd9f509afcb950667480b3e3e42a = private unnamed_addr constant [126 x i8] c"/root/.rustup/toolchains/stable-x86_64-unknown-linux-gnu/lib/rustlib/src/rust/library/core/src/slice/sort/stable/quicksort.rs\00", align 1
@alloc_58d434a1e795f965ef82c8e9c5db822a = private unnamed_addr constant <{ ptr, [16 x i8] }> <{ ptr @alloc_e8e5fd9f509afcb950667480b3e3e42a, [16 x i8] c"}\00\00\00\00\00\00\00J\00\00\00\1F\00\00\00" }>, align 8
@alloc_0766b232215672ee1bd2195fdb153938 = private unnamed_addr constant <{ ptr, [16 x i8] }> <{ ptr @alloc_e8e5fd9f509afcb950667480b3e3e42a, [16 x i8] c"}\00\00\00\00\00\00\00D\00\00\00\17\00\00\00" }>, align 8
@alloc_74b721207732160d58310879e8840ac7 = private unnamed_addr constant [141 x i8] c"/root/es/vert/vert/rust_funcs/c_transcoder/FIND_MAXIMUM_PRODUCT_OF_A_TRIPLET_IN_ARRAY_1/FIND_MAXIMUM_PRODUCT_OF_A_TRIPLET_IN_ARRAY_1_emit.rs\00", align 1
@alloc_3521aa7f5478fcf32067ded2d99bb6f1 = private unnamed_addr constant <{ ptr, [16 x i8] }> <{ ptr @alloc_74b721207732160d58310879e8840ac7, [16 x i8] c"\8C\00\00\00\00\00\00\00\1C\00\00\00\12\00\00\00" }>, align 8
@alloc_868a185cf299b700f382c085076181de = private unnamed_addr constant <{ ptr, [16 x i8] }> <{ ptr @alloc_74b721207732160d58310879e8840ac7, [16 x i8] c"\8C\00\00\00\00\00\00\00\1C\00\00\00\1B\00\00\00" }>, align 8
@alloc_d60ca30a257a7fa26d826080aaa27cf0 = private unnamed_addr constant <{ ptr, [16 x i8] }> <{ ptr @alloc_74b721207732160d58310879e8840ac7, [16 x i8] c"\8C\00\00\00\00\00\00\00\1C\00\00\00$\00\00\00" }>, align 8
@alloc_36f0489c3c5a4d4bc3ebf869687918e7 = private unnamed_addr constant <{ ptr, [16 x i8] }> <{ ptr @alloc_74b721207732160d58310879e8840ac7, [16 x i8] c"\8C\00\00\00\00\00\00\00\1C\00\00\00O\00\00\00" }>, align 8
@alloc_8185af6250b77bc8858b10571ba86212 = private unnamed_addr constant <{ ptr, [16 x i8] }> <{ ptr @alloc_74b721207732160d58310879e8840ac7, [16 x i8] c"\8C\00\00\00\00\00\00\00\1C\00\00\00e\00\00\00" }>, align 8

; core::slice::sort::shared::pivot::median3_rec
; Function Attrs: nofree nosync nounwind nonlazybind memory(read, inaccessiblemem: readwrite) uwtable
define internal fastcc noundef nonnull ptr @_ZN4core5slice4sort6shared5pivot11median3_rec17h5724a240ae491708E(ptr noundef nonnull %0, ptr noundef nonnull %1, ptr noundef nonnull %2, i64 noundef range(i64 0, 288230376151711744) %n) unnamed_addr #0 {
start:
  %_6 = icmp samesign ugt i64 %n, 7
  br i1 %_6, label %bb1, label %bb6

bb1:                                              ; preds = %start
  %n84 = lshr i64 %n, 3
  %count = shl nuw nsw i64 %n84, 2
  %_10 = getelementptr inbounds nuw i32, ptr %0, i64 %count
  %count1 = mul nuw nsw i64 %n84, 7
  %_13 = getelementptr inbounds nuw i32, ptr %0, i64 %count1
; call core::slice::sort::shared::pivot::median3_rec
  %3 = tail call fastcc noundef ptr @_ZN4core5slice4sort6shared5pivot11median3_rec17h5724a240ae491708E(ptr noundef %0, ptr noundef %_10, ptr noundef %_13, i64 noundef %n84)
  %_16 = getelementptr inbounds nuw i32, ptr %1, i64 %count
  %_18 = getelementptr inbounds nuw i32, ptr %1, i64 %count1
; call core::slice::sort::shared::pivot::median3_rec
  %4 = tail call fastcc noundef ptr @_ZN4core5slice4sort6shared5pivot11median3_rec17h5724a240ae491708E(ptr noundef %1, ptr noundef %_16, ptr noundef %_18, i64 noundef %n84)
  %_20 = getelementptr inbounds nuw i32, ptr %2, i64 %count
  %_22 = getelementptr inbounds nuw i32, ptr %2, i64 %count1
; call core::slice::sort::shared::pivot::median3_rec
  %5 = tail call fastcc noundef ptr @_ZN4core5slice4sort6shared5pivot11median3_rec17h5724a240ae491708E(ptr noundef %2, ptr noundef %_20, ptr noundef %_22, i64 noundef %n84)
  br label %bb6

bb6:                                              ; preds = %start, %bb1
  %c.sroa.0.0 = phi ptr [ %5, %bb1 ], [ %2, %start ]
  %b.sroa.0.0 = phi ptr [ %4, %bb1 ], [ %1, %start ]
  %a.sroa.0.0 = phi ptr [ %3, %bb1 ], [ %0, %start ]
  tail call void @llvm.experimental.noalias.scope.decl(metadata !3)
  tail call void @llvm.experimental.noalias.scope.decl(metadata !6)
  tail call void @llvm.experimental.noalias.scope.decl(metadata !8), !noalias !11
  tail call void @llvm.experimental.noalias.scope.decl(metadata !14), !noalias !11
  %_3.i.i = load i32, ptr %a.sroa.0.0, align 4, !alias.scope !16, !noalias !17, !noundef !18
  %_4.i.i = load i32, ptr %b.sroa.0.0, align 4, !alias.scope !19, !noalias !20, !noundef !18
  %_0.i.i = icmp slt i32 %_3.i.i, %_4.i.i
  %_4.i.i6 = load i32, ptr %c.sroa.0.0, align 4, !alias.scope !21, !noalias !26, !noundef !18
  %_0.i.i7 = icmp slt i32 %_3.i.i, %_4.i.i6
  %6 = xor i1 %_0.i.i, %_0.i.i7
  %_0.i.i10 = icmp slt i32 %_4.i.i, %_4.i.i6
  %_12.i = xor i1 %_0.i.i, %_0.i.i10
  %c.b.i = select i1 %_12.i, ptr %c.sroa.0.0, ptr %b.sroa.0.0
  %_0.sroa.0.0.i = select i1 %6, ptr %a.sroa.0.0, ptr %c.b.i
  ret ptr %_0.sroa.0.0.i
}

; core::slice::sort::shared::pivot::median3_rec
; Function Attrs: nofree nosync nounwind nonlazybind memory(read, inaccessiblemem: readwrite) uwtable
define internal fastcc noundef nonnull ptr @_ZN4core5slice4sort6shared5pivot11median3_rec17he8309b6b95ecb367E(ptr noundef nonnull %0, ptr noundef nonnull %1, ptr noundef nonnull %2, i64 noundef range(i64 0, 288230376151711744) %n) unnamed_addr #0 {
start:
  %_6 = icmp samesign ugt i64 %n, 7
  br i1 %_6, label %bb1, label %bb6

bb1:                                              ; preds = %start
  %n84 = lshr i64 %n, 3
  %count = shl nuw nsw i64 %n84, 2
  %_10 = getelementptr inbounds nuw i32, ptr %0, i64 %count
  %count1 = mul nuw nsw i64 %n84, 7
  %_13 = getelementptr inbounds nuw i32, ptr %0, i64 %count1
; call core::slice::sort::shared::pivot::median3_rec
  %3 = tail call fastcc noundef ptr @_ZN4core5slice4sort6shared5pivot11median3_rec17he8309b6b95ecb367E(ptr noundef %0, ptr noundef %_10, ptr noundef %_13, i64 noundef %n84)
  %_16 = getelementptr inbounds nuw i32, ptr %1, i64 %count
  %_18 = getelementptr inbounds nuw i32, ptr %1, i64 %count1
; call core::slice::sort::shared::pivot::median3_rec
  %4 = tail call fastcc noundef ptr @_ZN4core5slice4sort6shared5pivot11median3_rec17he8309b6b95ecb367E(ptr noundef %1, ptr noundef %_16, ptr noundef %_18, i64 noundef %n84)
  %_20 = getelementptr inbounds nuw i32, ptr %2, i64 %count
  %_22 = getelementptr inbounds nuw i32, ptr %2, i64 %count1
; call core::slice::sort::shared::pivot::median3_rec
  %5 = tail call fastcc noundef ptr @_ZN4core5slice4sort6shared5pivot11median3_rec17he8309b6b95ecb367E(ptr noundef %2, ptr noundef %_20, ptr noundef %_22, i64 noundef %n84)
  br label %bb6

bb6:                                              ; preds = %start, %bb1
  %c.sroa.0.0 = phi ptr [ %5, %bb1 ], [ %2, %start ]
  %b.sroa.0.0 = phi ptr [ %4, %bb1 ], [ %1, %start ]
  %a.sroa.0.0 = phi ptr [ %3, %bb1 ], [ %0, %start ]
  tail call void @llvm.experimental.noalias.scope.decl(metadata !29)
  tail call void @llvm.experimental.noalias.scope.decl(metadata !32)
  tail call void @llvm.experimental.noalias.scope.decl(metadata !34), !noalias !37
  tail call void @llvm.experimental.noalias.scope.decl(metadata !40), !noalias !37
  tail call void @llvm.experimental.noalias.scope.decl(metadata !42), !noalias !37
  tail call void @llvm.experimental.noalias.scope.decl(metadata !45), !noalias !37
  %_3.i.i.i = load i32, ptr %a.sroa.0.0, align 4, !alias.scope !47, !noalias !48, !noundef !18
  %_4.i.i.i = load i32, ptr %b.sroa.0.0, align 4, !alias.scope !49, !noalias !50, !noundef !18
  %_0.i = icmp slt i32 %_3.i.i.i, %_4.i.i.i
  %_4.i.i.i6 = load i32, ptr %c.sroa.0.0, align 4, !alias.scope !51, !noalias !58, !noundef !18
  %_0.i7 = icmp slt i32 %_3.i.i.i, %_4.i.i.i6
  %6 = xor i1 %_0.i, %_0.i7
  %_0.i10 = icmp slt i32 %_4.i.i.i, %_4.i.i.i6
  %_12.i = xor i1 %_0.i, %_0.i10
  %c.b.i = select i1 %_12.i, ptr %c.sroa.0.0, ptr %b.sroa.0.0
  %_0.sroa.0.0.i = select i1 %6, ptr %a.sroa.0.0, ptr %c.b.i
  ret ptr %_0.sroa.0.0.i
}

; core::slice::sort::shared::smallsort::sort8_stable
; Function Attrs: nonlazybind uwtable
define internal fastcc void @_ZN4core5slice4sort6shared9smallsort12sort8_stable17h1c443ab95844fbe0E(ptr noundef nonnull readonly captures(none) %v_base, ptr noundef nonnull writeonly captures(none) initializes((0, 32)) %dst, ptr noundef nonnull captures(address) initializes((0, 32)) %scratch_base) unnamed_addr #1 personality ptr @rust_eh_personality {
start:
  %_7.i = getelementptr inbounds nuw i8, ptr %v_base, i64 4
  tail call void @llvm.experimental.noalias.scope.decl(metadata !62)
  tail call void @llvm.experimental.noalias.scope.decl(metadata !65)
  tail call void @llvm.experimental.noalias.scope.decl(metadata !67)
  tail call void @llvm.experimental.noalias.scope.decl(metadata !70)
  %_3.i.i.i = load i32, ptr %_7.i, align 4, !alias.scope !72, !noalias !73, !noundef !18
  %_4.i.i.i = load i32, ptr %v_base, align 4, !alias.scope !73, !noalias !72, !noundef !18
  %_0.i.i.i = icmp slt i32 %_3.i.i.i, %_4.i.i.i
  %_12.i = getelementptr inbounds nuw i8, ptr %v_base, i64 12
  %_14.i = getelementptr inbounds nuw i8, ptr %v_base, i64 8
  tail call void @llvm.experimental.noalias.scope.decl(metadata !74)
  tail call void @llvm.experimental.noalias.scope.decl(metadata !77)
  tail call void @llvm.experimental.noalias.scope.decl(metadata !79)
  tail call void @llvm.experimental.noalias.scope.decl(metadata !82)
  %_3.i.i7.i = load i32, ptr %_12.i, align 4, !alias.scope !84, !noalias !85, !noundef !18
  %_4.i.i8.i = load i32, ptr %_14.i, align 4, !alias.scope !85, !noalias !84, !noundef !18
  %_0.i.i9.i = icmp slt i32 %_3.i.i7.i, %_4.i.i8.i
  %count.i = zext i1 %_0.i.i.i to i64
  %a.i = getelementptr inbounds nuw i32, ptr %v_base, i64 %count.i
  %_19.i = xor i1 %_0.i.i.i, true
  %count2.i = zext i1 %_19.i to i64
  %b.i = getelementptr inbounds nuw i32, ptr %v_base, i64 %count2.i
  %count3.i = select i1 %_0.i.i9.i, i64 3, i64 2
  %c.i = getelementptr inbounds nuw i32, ptr %v_base, i64 %count3.i
  %count4.i = select i1 %_0.i.i9.i, i64 2, i64 3
  %d.i = getelementptr inbounds nuw i32, ptr %v_base, i64 %count4.i
  tail call void @llvm.experimental.noalias.scope.decl(metadata !86)
  tail call void @llvm.experimental.noalias.scope.decl(metadata !89)
  tail call void @llvm.experimental.noalias.scope.decl(metadata !91)
  tail call void @llvm.experimental.noalias.scope.decl(metadata !94)
  %_3.i.i10.i = load i32, ptr %c.i, align 4, !alias.scope !96, !noalias !97, !noundef !18
  %_4.i.i11.i = load i32, ptr %a.i, align 4, !alias.scope !97, !noalias !96, !noundef !18
  %_0.i.i12.i = icmp slt i32 %_3.i.i10.i, %_4.i.i11.i
  tail call void @llvm.experimental.noalias.scope.decl(metadata !98)
  tail call void @llvm.experimental.noalias.scope.decl(metadata !101)
  tail call void @llvm.experimental.noalias.scope.decl(metadata !103)
  tail call void @llvm.experimental.noalias.scope.decl(metadata !106)
  %_3.i.i13.i = load i32, ptr %d.i, align 4, !alias.scope !108, !noalias !109, !noundef !18
  %_4.i.i14.i = load i32, ptr %b.i, align 4, !alias.scope !109, !noalias !108, !noundef !18
  %_0.i.i15.i = icmp slt i32 %_3.i.i13.i, %_4.i.i14.i
  %0 = tail call i32 @llvm.smin.i32(i32 %_3.i.i10.i, i32 %_4.i.i11.i)
  %1 = select i1 %_0.i.i15.i, ptr %c.i, ptr %b.i, !unpredictable !18
  %2 = select i1 %_0.i.i12.i, ptr %a.i, ptr %1, !unpredictable !18
  %3 = select i1 %_0.i.i12.i, ptr %b.i, ptr %c.i, !unpredictable !18
  %4 = select i1 %_0.i.i15.i, ptr %d.i, ptr %3, !unpredictable !18
  tail call void @llvm.experimental.noalias.scope.decl(metadata !110)
  tail call void @llvm.experimental.noalias.scope.decl(metadata !113)
  tail call void @llvm.experimental.noalias.scope.decl(metadata !115)
  tail call void @llvm.experimental.noalias.scope.decl(metadata !118)
  %_3.i.i16.i = load i32, ptr %4, align 4, !alias.scope !120, !noalias !121, !noundef !18
  %_4.i.i17.i = load i32, ptr %2, align 4, !alias.scope !121, !noalias !120, !noundef !18
  %_0.i.i18.i = icmp slt i32 %_3.i.i16.i, %_4.i.i17.i
  store i32 %0, ptr %scratch_base, align 4
  %dst5.i = getelementptr inbounds nuw i8, ptr %scratch_base, i64 4
  %.val.i = load i32, ptr %4, align 4
  %.val19.i = load i32, ptr %2, align 4
  %5 = select i1 %_0.i.i18.i, i32 %.val.i, i32 %.val19.i
  store i32 %5, ptr %dst5.i, align 4
  %dst6.i = getelementptr inbounds nuw i8, ptr %scratch_base, i64 8
  %.val20.i = load i32, ptr %2, align 4
  %.val21.i = load i32, ptr %4, align 4
  %6 = select i1 %_0.i.i18.i, i32 %.val20.i, i32 %.val21.i
  store i32 %6, ptr %dst6.i, align 4
  %7 = getelementptr i8, ptr %scratch_base, i64 12
  %b.val.i = load i32, ptr %b.i, align 4
  %d.val.i = load i32, ptr %d.i, align 4
  %8 = select i1 %_0.i.i15.i, i32 %b.val.i, i32 %d.val.i
  store i32 %8, ptr %7, align 4
  %_9 = getelementptr inbounds nuw i8, ptr %v_base, i64 16
  %_10 = getelementptr i8, ptr %scratch_base, i64 16
  %_7.i1 = getelementptr inbounds nuw i8, ptr %v_base, i64 20
  tail call void @llvm.experimental.noalias.scope.decl(metadata !122)
  tail call void @llvm.experimental.noalias.scope.decl(metadata !125)
  tail call void @llvm.experimental.noalias.scope.decl(metadata !127)
  tail call void @llvm.experimental.noalias.scope.decl(metadata !130)
  %_3.i.i.i2 = load i32, ptr %_7.i1, align 4, !alias.scope !132, !noalias !133, !noundef !18
  %_4.i.i.i3 = load i32, ptr %_9, align 4, !alias.scope !133, !noalias !132, !noundef !18
  %_0.i.i.i4 = icmp slt i32 %_3.i.i.i2, %_4.i.i.i3
  %_12.i5 = getelementptr inbounds nuw i8, ptr %v_base, i64 28
  %_14.i6 = getelementptr inbounds nuw i8, ptr %v_base, i64 24
  tail call void @llvm.experimental.noalias.scope.decl(metadata !134)
  tail call void @llvm.experimental.noalias.scope.decl(metadata !137)
  tail call void @llvm.experimental.noalias.scope.decl(metadata !139)
  tail call void @llvm.experimental.noalias.scope.decl(metadata !142)
  %_3.i.i7.i7 = load i32, ptr %_12.i5, align 4, !alias.scope !144, !noalias !145, !noundef !18
  %_4.i.i8.i8 = load i32, ptr %_14.i6, align 4, !alias.scope !145, !noalias !144, !noundef !18
  %_0.i.i9.i9 = icmp slt i32 %_3.i.i7.i7, %_4.i.i8.i8
  %count.i10 = zext i1 %_0.i.i.i4 to i64
  %a.i11 = getelementptr inbounds nuw i32, ptr %_9, i64 %count.i10
  %_19.i12 = xor i1 %_0.i.i.i4, true
  %count2.i13 = zext i1 %_19.i12 to i64
  %b.i14 = getelementptr inbounds nuw i32, ptr %_9, i64 %count2.i13
  %count3.i15 = select i1 %_0.i.i9.i9, i64 3, i64 2
  %c.i16 = getelementptr inbounds nuw i32, ptr %_9, i64 %count3.i15
  %count4.i17 = select i1 %_0.i.i9.i9, i64 2, i64 3
  %d.i18 = getelementptr inbounds nuw i32, ptr %_9, i64 %count4.i17
  tail call void @llvm.experimental.noalias.scope.decl(metadata !146)
  tail call void @llvm.experimental.noalias.scope.decl(metadata !149)
  tail call void @llvm.experimental.noalias.scope.decl(metadata !151)
  tail call void @llvm.experimental.noalias.scope.decl(metadata !154)
  %_3.i.i10.i19 = load i32, ptr %c.i16, align 4, !alias.scope !156, !noalias !157, !noundef !18
  %_4.i.i11.i20 = load i32, ptr %a.i11, align 4, !alias.scope !157, !noalias !156, !noundef !18
  %_0.i.i12.i21 = icmp slt i32 %_3.i.i10.i19, %_4.i.i11.i20
  tail call void @llvm.experimental.noalias.scope.decl(metadata !158)
  tail call void @llvm.experimental.noalias.scope.decl(metadata !161)
  tail call void @llvm.experimental.noalias.scope.decl(metadata !163)
  tail call void @llvm.experimental.noalias.scope.decl(metadata !166)
  %_3.i.i13.i22 = load i32, ptr %d.i18, align 4, !alias.scope !168, !noalias !169, !noundef !18
  %_4.i.i14.i23 = load i32, ptr %b.i14, align 4, !alias.scope !169, !noalias !168, !noundef !18
  %_0.i.i15.i24 = icmp slt i32 %_3.i.i13.i22, %_4.i.i14.i23
  %9 = tail call i32 @llvm.smin.i32(i32 %_3.i.i10.i19, i32 %_4.i.i11.i20)
  %10 = select i1 %_0.i.i15.i24, ptr %c.i16, ptr %b.i14, !unpredictable !18
  %11 = select i1 %_0.i.i12.i21, ptr %a.i11, ptr %10, !unpredictable !18
  %12 = select i1 %_0.i.i12.i21, ptr %b.i14, ptr %c.i16, !unpredictable !18
  %13 = select i1 %_0.i.i15.i24, ptr %d.i18, ptr %12, !unpredictable !18
  tail call void @llvm.experimental.noalias.scope.decl(metadata !170)
  tail call void @llvm.experimental.noalias.scope.decl(metadata !173)
  tail call void @llvm.experimental.noalias.scope.decl(metadata !175)
  tail call void @llvm.experimental.noalias.scope.decl(metadata !178)
  %_3.i.i16.i25 = load i32, ptr %13, align 4, !alias.scope !180, !noalias !181, !noundef !18
  %_4.i.i17.i26 = load i32, ptr %11, align 4, !alias.scope !181, !noalias !180, !noundef !18
  %_0.i.i18.i27 = icmp slt i32 %_3.i.i16.i25, %_4.i.i17.i26
  store i32 %9, ptr %_10, align 4
  %dst5.i28 = getelementptr i8, ptr %scratch_base, i64 20
  %.val.i29 = load i32, ptr %13, align 4
  %.val19.i30 = load i32, ptr %11, align 4
  %14 = select i1 %_0.i.i18.i27, i32 %.val.i29, i32 %.val19.i30
  store i32 %14, ptr %dst5.i28, align 4
  %dst6.i31 = getelementptr i8, ptr %scratch_base, i64 24
  %.val20.i32 = load i32, ptr %11, align 4
  %.val21.i33 = load i32, ptr %13, align 4
  %15 = select i1 %_0.i.i18.i27, i32 %.val20.i32, i32 %.val21.i33
  store i32 %15, ptr %dst6.i31, align 4
  %16 = getelementptr i8, ptr %scratch_base, i64 28
  %b.val.i34 = load i32, ptr %b.i14, align 4
  %d.val.i35 = load i32, ptr %d.i18, align 4
  %17 = select i1 %_0.i.i15.i24, i32 %b.val.i34, i32 %d.val.i35
  store i32 %17, ptr %16, align 4
  tail call void @llvm.experimental.noalias.scope.decl(metadata !182)
  %18 = getelementptr inbounds nuw i8, ptr %dst, i64 28
  %_0.i.i.i38 = icmp slt i32 %9, %0
  %is_l.i18.i = xor i1 %_0.i.i.i38, true
  %19 = tail call i32 @llvm.smin.i32(i32 %9, i32 %0)
  store i32 %19, ptr %dst, align 4, !noalias !185
  %count.i.i = zext i1 %_0.i.i.i38 to i64
  %_12.i.i = getelementptr inbounds nuw i32, ptr %_10, i64 %count.i.i
  %count2.i.i = zext i1 %is_l.i18.i to i64
  %_14.i.i = getelementptr inbounds nuw i32, ptr %scratch_base, i64 %count2.i.i
  %_16.i.i = getelementptr inbounds nuw i8, ptr %dst, i64 4
  %_0.i.i21.i = icmp slt i32 %17, %8
  %is_l.i.i = xor i1 %_0.i.i21.i, true
  %20 = tail call i32 @llvm.smax.i32(i32 %17, i32 %8)
  store i32 %20, ptr %18, align 4, !noalias !189
  %count.neg.i.i = sext i1 %is_l.i.i to i64
  %21 = getelementptr i32, ptr %16, i64 %count.neg.i.i
  %count3.neg.i.i = sext i1 %_0.i.i21.i to i64
  %22 = getelementptr i32, ptr %7, i64 %count3.neg.i.i
  %23 = getelementptr inbounds nuw i8, ptr %dst, i64 24
  tail call void @llvm.experimental.noalias.scope.decl(metadata !193)
  tail call void @llvm.experimental.noalias.scope.decl(metadata !196)
  tail call void @llvm.experimental.noalias.scope.decl(metadata !198), !noalias !201
  tail call void @llvm.experimental.noalias.scope.decl(metadata !202), !noalias !201
  %_3.i.i.i36.1 = load i32, ptr %_12.i.i, align 4, !alias.scope !204, !noalias !205, !noundef !18
  %_4.i.i.i37.1 = load i32, ptr %_14.i.i, align 4, !alias.scope !206, !noalias !207, !noundef !18
  %_0.i.i.i38.1 = icmp slt i32 %_3.i.i.i36.1, %_4.i.i.i37.1
  %is_l.i18.i.1 = xor i1 %_0.i.i.i38.1, true
  %24 = tail call i32 @llvm.smin.i32(i32 %_3.i.i.i36.1, i32 %_4.i.i.i37.1)
  store i32 %24, ptr %_16.i.i, align 4, !noalias !185
  %count.i.i.1 = zext i1 %_0.i.i.i38.1 to i64
  %_12.i.i.1 = getelementptr inbounds nuw i32, ptr %_12.i.i, i64 %count.i.i.1
  %count2.i.i.1 = zext i1 %is_l.i18.i.1 to i64
  %_14.i.i.1 = getelementptr inbounds nuw i32, ptr %_14.i.i, i64 %count2.i.i.1
  %_16.i.i.1 = getelementptr inbounds nuw i8, ptr %dst, i64 8
  tail call void @llvm.experimental.noalias.scope.decl(metadata !208)
  tail call void @llvm.experimental.noalias.scope.decl(metadata !211)
  tail call void @llvm.experimental.noalias.scope.decl(metadata !213), !noalias !216
  tail call void @llvm.experimental.noalias.scope.decl(metadata !217), !noalias !216
  %_3.i.i19.i.1 = load i32, ptr %21, align 4, !alias.scope !219, !noalias !220, !noundef !18
  %_4.i.i20.i.1 = load i32, ptr %22, align 4, !alias.scope !221, !noalias !222, !noundef !18
  %_0.i.i21.i.1 = icmp slt i32 %_3.i.i19.i.1, %_4.i.i20.i.1
  %is_l.i.i.1 = xor i1 %_0.i.i21.i.1, true
  %25 = tail call i32 @llvm.smax.i32(i32 %_3.i.i19.i.1, i32 %_4.i.i20.i.1)
  store i32 %25, ptr %23, align 4, !noalias !189
  %count.neg.i.i.1 = sext i1 %is_l.i.i.1 to i64
  %26 = getelementptr i32, ptr %21, i64 %count.neg.i.i.1
  %count3.neg.i.i.1 = sext i1 %_0.i.i21.i.1 to i64
  %27 = getelementptr i32, ptr %22, i64 %count3.neg.i.i.1
  %28 = getelementptr inbounds nuw i8, ptr %dst, i64 20
  tail call void @llvm.experimental.noalias.scope.decl(metadata !223)
  tail call void @llvm.experimental.noalias.scope.decl(metadata !225)
  tail call void @llvm.experimental.noalias.scope.decl(metadata !227), !noalias !201
  tail call void @llvm.experimental.noalias.scope.decl(metadata !229), !noalias !201
  %_3.i.i.i36.2 = load i32, ptr %_12.i.i.1, align 4, !alias.scope !231, !noalias !232, !noundef !18
  %_4.i.i.i37.2 = load i32, ptr %_14.i.i.1, align 4, !alias.scope !233, !noalias !234, !noundef !18
  %_0.i.i.i38.2 = icmp slt i32 %_3.i.i.i36.2, %_4.i.i.i37.2
  %is_l.i18.i.2 = xor i1 %_0.i.i.i38.2, true
  %29 = tail call i32 @llvm.smin.i32(i32 %_3.i.i.i36.2, i32 %_4.i.i.i37.2)
  store i32 %29, ptr %_16.i.i.1, align 4, !noalias !185
  %count.i.i.2 = zext i1 %_0.i.i.i38.2 to i64
  %_12.i.i.2 = getelementptr inbounds nuw i32, ptr %_12.i.i.1, i64 %count.i.i.2
  %count2.i.i.2 = zext i1 %is_l.i18.i.2 to i64
  %_14.i.i.2 = getelementptr inbounds nuw i32, ptr %_14.i.i.1, i64 %count2.i.i.2
  %_16.i.i.2 = getelementptr inbounds nuw i8, ptr %dst, i64 12
  tail call void @llvm.experimental.noalias.scope.decl(metadata !235)
  tail call void @llvm.experimental.noalias.scope.decl(metadata !237)
  tail call void @llvm.experimental.noalias.scope.decl(metadata !239), !noalias !216
  tail call void @llvm.experimental.noalias.scope.decl(metadata !241), !noalias !216
  %_3.i.i19.i.2 = load i32, ptr %26, align 4, !alias.scope !243, !noalias !244, !noundef !18
  %_4.i.i20.i.2 = load i32, ptr %27, align 4, !alias.scope !245, !noalias !246, !noundef !18
  %_0.i.i21.i.2 = icmp slt i32 %_3.i.i19.i.2, %_4.i.i20.i.2
  %is_l.i.i.2 = xor i1 %_0.i.i21.i.2, true
  %30 = tail call i32 @llvm.smax.i32(i32 %_3.i.i19.i.2, i32 %_4.i.i20.i.2)
  store i32 %30, ptr %28, align 4, !noalias !189
  %count.neg.i.i.2 = sext i1 %is_l.i.i.2 to i64
  %31 = getelementptr i32, ptr %26, i64 %count.neg.i.i.2
  %count3.neg.i.i.2 = sext i1 %_0.i.i21.i.2 to i64
  %32 = getelementptr i32, ptr %27, i64 %count3.neg.i.i.2
  %33 = getelementptr inbounds nuw i8, ptr %dst, i64 16
  tail call void @llvm.experimental.noalias.scope.decl(metadata !247)
  tail call void @llvm.experimental.noalias.scope.decl(metadata !249)
  tail call void @llvm.experimental.noalias.scope.decl(metadata !251), !noalias !201
  tail call void @llvm.experimental.noalias.scope.decl(metadata !253), !noalias !201
  %_3.i.i.i36.3 = load i32, ptr %_12.i.i.2, align 4, !alias.scope !255, !noalias !256, !noundef !18
  %_4.i.i.i37.3 = load i32, ptr %_14.i.i.2, align 4, !alias.scope !257, !noalias !258, !noundef !18
  %_0.i.i.i38.3 = icmp slt i32 %_3.i.i.i36.3, %_4.i.i.i37.3
  %is_l.i18.i.3 = xor i1 %_0.i.i.i38.3, true
  %34 = tail call i32 @llvm.smin.i32(i32 %_3.i.i.i36.3, i32 %_4.i.i.i37.3)
  store i32 %34, ptr %_16.i.i.2, align 4, !noalias !185
  %count.i.i.3 = zext i1 %_0.i.i.i38.3 to i64
  %_12.i.i.3 = getelementptr inbounds nuw i32, ptr %_12.i.i.2, i64 %count.i.i.3
  %count2.i.i.3 = zext i1 %is_l.i18.i.3 to i64
  %_14.i.i.3 = getelementptr inbounds nuw i32, ptr %_14.i.i.2, i64 %count2.i.i.3
  tail call void @llvm.experimental.noalias.scope.decl(metadata !259)
  tail call void @llvm.experimental.noalias.scope.decl(metadata !261)
  tail call void @llvm.experimental.noalias.scope.decl(metadata !263), !noalias !216
  tail call void @llvm.experimental.noalias.scope.decl(metadata !265), !noalias !216
  %_3.i.i19.i.3 = load i32, ptr %31, align 4, !alias.scope !267, !noalias !268, !noundef !18
  %_4.i.i20.i.3 = load i32, ptr %32, align 4, !alias.scope !269, !noalias !270, !noundef !18
  %_0.i.i21.i.3 = icmp slt i32 %_3.i.i19.i.3, %_4.i.i20.i.3
  %is_l.i.i.3 = xor i1 %_0.i.i21.i.3, true
  %35 = tail call i32 @llvm.smax.i32(i32 %_3.i.i19.i.3, i32 %_4.i.i20.i.3)
  store i32 %35, ptr %33, align 4, !noalias !189
  %count.neg.i.i.3 = sext i1 %is_l.i.i.3 to i64
  %36 = getelementptr i32, ptr %31, i64 %count.neg.i.i.3
  %count3.neg.i.i.3 = sext i1 %_0.i.i21.i.3 to i64
  %37 = getelementptr i32, ptr %32, i64 %count3.neg.i.i.3
  %38 = getelementptr i8, ptr %37, i64 4
  %39 = getelementptr i8, ptr %36, i64 4
  %_31.i = icmp ne ptr %_14.i.i.3, %38
  %_32.i = icmp ne ptr %_12.i.i.3, %39
  %or.cond.i = select i1 %_31.i, i1 true, i1 %_32.i
  br i1 %or.cond.i, label %bb13.i, label %_ZN4core5slice4sort6shared9smallsort19bidirectional_merge17h39a1328b19047044E.exit, !prof !271

bb13.i:                                           ; preds = %start
; call core::slice::sort::shared::smallsort::panic_on_ord_violation
  tail call void @_ZN4core5slice4sort6shared9smallsort22panic_on_ord_violation17hc77a22a2d50782cdE() #18, !noalias !182
  unreachable

_ZN4core5slice4sort6shared9smallsort19bidirectional_merge17h39a1328b19047044E.exit: ; preds = %start
  ret void
}

; core::slice::sort::shared::smallsort::sort8_stable
; Function Attrs: nonlazybind uwtable
define internal fastcc void @_ZN4core5slice4sort6shared9smallsort12sort8_stable17haafea798d6deaf56E(ptr noundef nonnull readonly captures(none) %v_base, ptr noundef nonnull writeonly captures(none) initializes((0, 32)) %dst, ptr noundef nonnull captures(address) initializes((0, 32)) %scratch_base) unnamed_addr #1 personality ptr @rust_eh_personality {
start:
  %_7.i = getelementptr inbounds nuw i8, ptr %v_base, i64 4
  tail call void @llvm.experimental.noalias.scope.decl(metadata !272)
  tail call void @llvm.experimental.noalias.scope.decl(metadata !275)
  tail call void @llvm.experimental.noalias.scope.decl(metadata !277)
  tail call void @llvm.experimental.noalias.scope.decl(metadata !280)
  tail call void @llvm.experimental.noalias.scope.decl(metadata !282)
  tail call void @llvm.experimental.noalias.scope.decl(metadata !285)
  %_3.i.i.i.i = load i32, ptr %_7.i, align 4, !alias.scope !287, !noalias !288, !noundef !18
  %_4.i.i.i.i = load i32, ptr %v_base, align 4, !alias.scope !288, !noalias !287, !noundef !18
  %_0.i.i = icmp slt i32 %_3.i.i.i.i, %_4.i.i.i.i
  %_12.i = getelementptr inbounds nuw i8, ptr %v_base, i64 12
  %_14.i = getelementptr inbounds nuw i8, ptr %v_base, i64 8
  tail call void @llvm.experimental.noalias.scope.decl(metadata !289)
  tail call void @llvm.experimental.noalias.scope.decl(metadata !292)
  tail call void @llvm.experimental.noalias.scope.decl(metadata !294)
  tail call void @llvm.experimental.noalias.scope.decl(metadata !297)
  tail call void @llvm.experimental.noalias.scope.decl(metadata !299)
  tail call void @llvm.experimental.noalias.scope.decl(metadata !302)
  %_3.i.i.i7.i = load i32, ptr %_12.i, align 4, !alias.scope !304, !noalias !305, !noundef !18
  %_4.i.i.i8.i = load i32, ptr %_14.i, align 4, !alias.scope !305, !noalias !304, !noundef !18
  %_0.i9.i = icmp slt i32 %_3.i.i.i7.i, %_4.i.i.i8.i
  %count.i = zext i1 %_0.i.i to i64
  %a.i = getelementptr inbounds nuw i32, ptr %v_base, i64 %count.i
  %_19.i = xor i1 %_0.i.i, true
  %count2.i = zext i1 %_19.i to i64
  %b.i = getelementptr inbounds nuw i32, ptr %v_base, i64 %count2.i
  %count3.i = select i1 %_0.i9.i, i64 3, i64 2
  %c.i = getelementptr inbounds nuw i32, ptr %v_base, i64 %count3.i
  %count4.i = select i1 %_0.i9.i, i64 2, i64 3
  %d.i = getelementptr inbounds nuw i32, ptr %v_base, i64 %count4.i
  tail call void @llvm.experimental.noalias.scope.decl(metadata !306)
  tail call void @llvm.experimental.noalias.scope.decl(metadata !309)
  tail call void @llvm.experimental.noalias.scope.decl(metadata !311)
  tail call void @llvm.experimental.noalias.scope.decl(metadata !314)
  tail call void @llvm.experimental.noalias.scope.decl(metadata !316)
  tail call void @llvm.experimental.noalias.scope.decl(metadata !319)
  %_3.i.i.i10.i = load i32, ptr %c.i, align 4, !alias.scope !321, !noalias !322, !noundef !18
  %_4.i.i.i11.i = load i32, ptr %a.i, align 4, !alias.scope !322, !noalias !321, !noundef !18
  %_0.i12.i = icmp slt i32 %_3.i.i.i10.i, %_4.i.i.i11.i
  tail call void @llvm.experimental.noalias.scope.decl(metadata !323)
  tail call void @llvm.experimental.noalias.scope.decl(metadata !326)
  tail call void @llvm.experimental.noalias.scope.decl(metadata !328)
  tail call void @llvm.experimental.noalias.scope.decl(metadata !331)
  tail call void @llvm.experimental.noalias.scope.decl(metadata !333)
  tail call void @llvm.experimental.noalias.scope.decl(metadata !336)
  %_3.i.i.i13.i = load i32, ptr %d.i, align 4, !alias.scope !338, !noalias !339, !noundef !18
  %_4.i.i.i14.i = load i32, ptr %b.i, align 4, !alias.scope !339, !noalias !338, !noundef !18
  %_0.i15.i = icmp slt i32 %_3.i.i.i13.i, %_4.i.i.i14.i
  %0 = tail call i32 @llvm.smin.i32(i32 %_3.i.i.i10.i, i32 %_4.i.i.i11.i)
  %1 = select i1 %_0.i15.i, ptr %c.i, ptr %b.i, !unpredictable !18
  %2 = select i1 %_0.i12.i, ptr %a.i, ptr %1, !unpredictable !18
  %3 = select i1 %_0.i12.i, ptr %b.i, ptr %c.i, !unpredictable !18
  %4 = select i1 %_0.i15.i, ptr %d.i, ptr %3, !unpredictable !18
  tail call void @llvm.experimental.noalias.scope.decl(metadata !340)
  tail call void @llvm.experimental.noalias.scope.decl(metadata !343)
  tail call void @llvm.experimental.noalias.scope.decl(metadata !345)
  tail call void @llvm.experimental.noalias.scope.decl(metadata !348)
  tail call void @llvm.experimental.noalias.scope.decl(metadata !350)
  tail call void @llvm.experimental.noalias.scope.decl(metadata !353)
  %_3.i.i.i16.i = load i32, ptr %4, align 4, !alias.scope !355, !noalias !356, !noundef !18
  %_4.i.i.i17.i = load i32, ptr %2, align 4, !alias.scope !356, !noalias !355, !noundef !18
  %_0.i18.i = icmp slt i32 %_3.i.i.i16.i, %_4.i.i.i17.i
  store i32 %0, ptr %scratch_base, align 4
  %dst5.i = getelementptr inbounds nuw i8, ptr %scratch_base, i64 4
  %.val.i = load i32, ptr %4, align 4
  %.val19.i = load i32, ptr %2, align 4
  %5 = select i1 %_0.i18.i, i32 %.val.i, i32 %.val19.i
  store i32 %5, ptr %dst5.i, align 4
  %dst6.i = getelementptr inbounds nuw i8, ptr %scratch_base, i64 8
  %.val20.i = load i32, ptr %2, align 4
  %.val21.i = load i32, ptr %4, align 4
  %6 = select i1 %_0.i18.i, i32 %.val20.i, i32 %.val21.i
  store i32 %6, ptr %dst6.i, align 4
  %7 = getelementptr i8, ptr %scratch_base, i64 12
  %b.val.i = load i32, ptr %b.i, align 4
  %d.val.i = load i32, ptr %d.i, align 4
  %8 = select i1 %_0.i15.i, i32 %b.val.i, i32 %d.val.i
  store i32 %8, ptr %7, align 4
  %_9 = getelementptr inbounds nuw i8, ptr %v_base, i64 16
  %_10 = getelementptr i8, ptr %scratch_base, i64 16
  %_7.i1 = getelementptr inbounds nuw i8, ptr %v_base, i64 20
  tail call void @llvm.experimental.noalias.scope.decl(metadata !357)
  tail call void @llvm.experimental.noalias.scope.decl(metadata !360)
  tail call void @llvm.experimental.noalias.scope.decl(metadata !362)
  tail call void @llvm.experimental.noalias.scope.decl(metadata !365)
  tail call void @llvm.experimental.noalias.scope.decl(metadata !367)
  tail call void @llvm.experimental.noalias.scope.decl(metadata !370)
  %_3.i.i.i.i2 = load i32, ptr %_7.i1, align 4, !alias.scope !372, !noalias !373, !noundef !18
  %_4.i.i.i.i3 = load i32, ptr %_9, align 4, !alias.scope !373, !noalias !372, !noundef !18
  %_0.i.i4 = icmp slt i32 %_3.i.i.i.i2, %_4.i.i.i.i3
  %_12.i5 = getelementptr inbounds nuw i8, ptr %v_base, i64 28
  %_14.i6 = getelementptr inbounds nuw i8, ptr %v_base, i64 24
  tail call void @llvm.experimental.noalias.scope.decl(metadata !374)
  tail call void @llvm.experimental.noalias.scope.decl(metadata !377)
  tail call void @llvm.experimental.noalias.scope.decl(metadata !379)
  tail call void @llvm.experimental.noalias.scope.decl(metadata !382)
  tail call void @llvm.experimental.noalias.scope.decl(metadata !384)
  tail call void @llvm.experimental.noalias.scope.decl(metadata !387)
  %_3.i.i.i7.i7 = load i32, ptr %_12.i5, align 4, !alias.scope !389, !noalias !390, !noundef !18
  %_4.i.i.i8.i8 = load i32, ptr %_14.i6, align 4, !alias.scope !390, !noalias !389, !noundef !18
  %_0.i9.i9 = icmp slt i32 %_3.i.i.i7.i7, %_4.i.i.i8.i8
  %count.i10 = zext i1 %_0.i.i4 to i64
  %a.i11 = getelementptr inbounds nuw i32, ptr %_9, i64 %count.i10
  %_19.i12 = xor i1 %_0.i.i4, true
  %count2.i13 = zext i1 %_19.i12 to i64
  %b.i14 = getelementptr inbounds nuw i32, ptr %_9, i64 %count2.i13
  %count3.i15 = select i1 %_0.i9.i9, i64 3, i64 2
  %c.i16 = getelementptr inbounds nuw i32, ptr %_9, i64 %count3.i15
  %count4.i17 = select i1 %_0.i9.i9, i64 2, i64 3
  %d.i18 = getelementptr inbounds nuw i32, ptr %_9, i64 %count4.i17
  tail call void @llvm.experimental.noalias.scope.decl(metadata !391)
  tail call void @llvm.experimental.noalias.scope.decl(metadata !394)
  tail call void @llvm.experimental.noalias.scope.decl(metadata !396)
  tail call void @llvm.experimental.noalias.scope.decl(metadata !399)
  tail call void @llvm.experimental.noalias.scope.decl(metadata !401)
  tail call void @llvm.experimental.noalias.scope.decl(metadata !404)
  %_3.i.i.i10.i19 = load i32, ptr %c.i16, align 4, !alias.scope !406, !noalias !407, !noundef !18
  %_4.i.i.i11.i20 = load i32, ptr %a.i11, align 4, !alias.scope !407, !noalias !406, !noundef !18
  %_0.i12.i21 = icmp slt i32 %_3.i.i.i10.i19, %_4.i.i.i11.i20
  tail call void @llvm.experimental.noalias.scope.decl(metadata !408)
  tail call void @llvm.experimental.noalias.scope.decl(metadata !411)
  tail call void @llvm.experimental.noalias.scope.decl(metadata !413)
  tail call void @llvm.experimental.noalias.scope.decl(metadata !416)
  tail call void @llvm.experimental.noalias.scope.decl(metadata !418)
  tail call void @llvm.experimental.noalias.scope.decl(metadata !421)
  %_3.i.i.i13.i22 = load i32, ptr %d.i18, align 4, !alias.scope !423, !noalias !424, !noundef !18
  %_4.i.i.i14.i23 = load i32, ptr %b.i14, align 4, !alias.scope !424, !noalias !423, !noundef !18
  %_0.i15.i24 = icmp slt i32 %_3.i.i.i13.i22, %_4.i.i.i14.i23
  %9 = tail call i32 @llvm.smin.i32(i32 %_3.i.i.i10.i19, i32 %_4.i.i.i11.i20)
  %10 = select i1 %_0.i15.i24, ptr %c.i16, ptr %b.i14, !unpredictable !18
  %11 = select i1 %_0.i12.i21, ptr %a.i11, ptr %10, !unpredictable !18
  %12 = select i1 %_0.i12.i21, ptr %b.i14, ptr %c.i16, !unpredictable !18
  %13 = select i1 %_0.i15.i24, ptr %d.i18, ptr %12, !unpredictable !18
  tail call void @llvm.experimental.noalias.scope.decl(metadata !425)
  tail call void @llvm.experimental.noalias.scope.decl(metadata !428)
  tail call void @llvm.experimental.noalias.scope.decl(metadata !430)
  tail call void @llvm.experimental.noalias.scope.decl(metadata !433)
  tail call void @llvm.experimental.noalias.scope.decl(metadata !435)
  tail call void @llvm.experimental.noalias.scope.decl(metadata !438)
  %_3.i.i.i16.i25 = load i32, ptr %13, align 4, !alias.scope !440, !noalias !441, !noundef !18
  %_4.i.i.i17.i26 = load i32, ptr %11, align 4, !alias.scope !441, !noalias !440, !noundef !18
  %_0.i18.i27 = icmp slt i32 %_3.i.i.i16.i25, %_4.i.i.i17.i26
  store i32 %9, ptr %_10, align 4
  %dst5.i28 = getelementptr i8, ptr %scratch_base, i64 20
  %.val.i29 = load i32, ptr %13, align 4
  %.val19.i30 = load i32, ptr %11, align 4
  %14 = select i1 %_0.i18.i27, i32 %.val.i29, i32 %.val19.i30
  store i32 %14, ptr %dst5.i28, align 4
  %dst6.i31 = getelementptr i8, ptr %scratch_base, i64 24
  %.val20.i32 = load i32, ptr %11, align 4
  %.val21.i33 = load i32, ptr %13, align 4
  %15 = select i1 %_0.i18.i27, i32 %.val20.i32, i32 %.val21.i33
  store i32 %15, ptr %dst6.i31, align 4
  %16 = getelementptr i8, ptr %scratch_base, i64 28
  %b.val.i34 = load i32, ptr %b.i14, align 4
  %d.val.i35 = load i32, ptr %d.i18, align 4
  %17 = select i1 %_0.i15.i24, i32 %b.val.i34, i32 %d.val.i35
  store i32 %17, ptr %16, align 4
  tail call void @llvm.experimental.noalias.scope.decl(metadata !442)
  %18 = getelementptr inbounds nuw i8, ptr %dst, i64 28
  %_4.i.i.i.i37 = load i32, ptr %scratch_base, align 4, !alias.scope !445, !noalias !452, !noundef !18
  %_0.i.i38 = icmp slt i32 %9, %_4.i.i.i.i37
  %is_l.i18.i = xor i1 %_0.i.i38, true
  %19 = tail call i32 @llvm.smin.i32(i32 %9, i32 %_4.i.i.i.i37)
  store i32 %19, ptr %dst, align 4, !noalias !458
  %count.i.i = zext i1 %_0.i.i38 to i64
  %_12.i.i = getelementptr inbounds nuw i32, ptr %_10, i64 %count.i.i
  %count2.i.i = zext i1 %is_l.i18.i to i64
  %_14.i.i = getelementptr inbounds nuw i32, ptr %scratch_base, i64 %count2.i.i
  %_16.i.i = getelementptr inbounds nuw i8, ptr %dst, i64 4
  %_4.i.i.i20.i = load i32, ptr %7, align 4, !alias.scope !460, !noalias !467, !noundef !18
  %_0.i21.i = icmp slt i32 %17, %_4.i.i.i20.i
  %is_l.i.i = xor i1 %_0.i21.i, true
  %20 = tail call i32 @llvm.smax.i32(i32 %17, i32 %_4.i.i.i20.i)
  store i32 %20, ptr %18, align 4, !noalias !473
  %count.neg.i.i = sext i1 %is_l.i.i to i64
  %21 = getelementptr i32, ptr %16, i64 %count.neg.i.i
  %count3.neg.i.i = sext i1 %_0.i21.i to i64
  %22 = getelementptr i32, ptr %7, i64 %count3.neg.i.i
  %23 = getelementptr inbounds nuw i8, ptr %dst, i64 24
  tail call void @llvm.experimental.noalias.scope.decl(metadata !475)
  tail call void @llvm.experimental.noalias.scope.decl(metadata !477)
  tail call void @llvm.experimental.noalias.scope.decl(metadata !479), !noalias !481
  tail call void @llvm.experimental.noalias.scope.decl(metadata !482), !noalias !481
  tail call void @llvm.experimental.noalias.scope.decl(metadata !484), !noalias !481
  tail call void @llvm.experimental.noalias.scope.decl(metadata !486), !noalias !481
  %_3.i.i.i.i36.1 = load i32, ptr %_12.i.i, align 4, !alias.scope !488, !noalias !489, !noundef !18
  %_4.i.i.i.i37.1 = load i32, ptr %_14.i.i, align 4, !alias.scope !490, !noalias !491, !noundef !18
  %_0.i.i38.1 = icmp slt i32 %_3.i.i.i.i36.1, %_4.i.i.i.i37.1
  %is_l.i18.i.1 = xor i1 %_0.i.i38.1, true
  %24 = tail call i32 @llvm.smin.i32(i32 %_3.i.i.i.i36.1, i32 %_4.i.i.i.i37.1)
  store i32 %24, ptr %_16.i.i, align 4, !noalias !458
  %count.i.i.1 = zext i1 %_0.i.i38.1 to i64
  %_12.i.i.1 = getelementptr inbounds nuw i32, ptr %_12.i.i, i64 %count.i.i.1
  %count2.i.i.1 = zext i1 %is_l.i18.i.1 to i64
  %_14.i.i.1 = getelementptr inbounds nuw i32, ptr %_14.i.i, i64 %count2.i.i.1
  %_16.i.i.1 = getelementptr inbounds nuw i8, ptr %dst, i64 8
  tail call void @llvm.experimental.noalias.scope.decl(metadata !492)
  tail call void @llvm.experimental.noalias.scope.decl(metadata !494)
  tail call void @llvm.experimental.noalias.scope.decl(metadata !496), !noalias !498
  tail call void @llvm.experimental.noalias.scope.decl(metadata !499), !noalias !498
  tail call void @llvm.experimental.noalias.scope.decl(metadata !501), !noalias !498
  tail call void @llvm.experimental.noalias.scope.decl(metadata !503), !noalias !498
  %_3.i.i.i19.i.1 = load i32, ptr %21, align 4, !alias.scope !505, !noalias !506, !noundef !18
  %_4.i.i.i20.i.1 = load i32, ptr %22, align 4, !alias.scope !507, !noalias !508, !noundef !18
  %_0.i21.i.1 = icmp slt i32 %_3.i.i.i19.i.1, %_4.i.i.i20.i.1
  %is_l.i.i.1 = xor i1 %_0.i21.i.1, true
  %25 = tail call i32 @llvm.smax.i32(i32 %_3.i.i.i19.i.1, i32 %_4.i.i.i20.i.1)
  store i32 %25, ptr %23, align 4, !noalias !473
  %count.neg.i.i.1 = sext i1 %is_l.i.i.1 to i64
  %26 = getelementptr i32, ptr %21, i64 %count.neg.i.i.1
  %count3.neg.i.i.1 = sext i1 %_0.i21.i.1 to i64
  %27 = getelementptr i32, ptr %22, i64 %count3.neg.i.i.1
  %28 = getelementptr inbounds nuw i8, ptr %dst, i64 20
  tail call void @llvm.experimental.noalias.scope.decl(metadata !509)
  tail call void @llvm.experimental.noalias.scope.decl(metadata !511)
  tail call void @llvm.experimental.noalias.scope.decl(metadata !513), !noalias !481
  tail call void @llvm.experimental.noalias.scope.decl(metadata !515), !noalias !481
  tail call void @llvm.experimental.noalias.scope.decl(metadata !517), !noalias !481
  tail call void @llvm.experimental.noalias.scope.decl(metadata !519), !noalias !481
  %_3.i.i.i.i36.2 = load i32, ptr %_12.i.i.1, align 4, !alias.scope !521, !noalias !522, !noundef !18
  %_4.i.i.i.i37.2 = load i32, ptr %_14.i.i.1, align 4, !alias.scope !523, !noalias !524, !noundef !18
  %_0.i.i38.2 = icmp slt i32 %_3.i.i.i.i36.2, %_4.i.i.i.i37.2
  %is_l.i18.i.2 = xor i1 %_0.i.i38.2, true
  %29 = tail call i32 @llvm.smin.i32(i32 %_3.i.i.i.i36.2, i32 %_4.i.i.i.i37.2)
  store i32 %29, ptr %_16.i.i.1, align 4, !noalias !458
  %count.i.i.2 = zext i1 %_0.i.i38.2 to i64
  %_12.i.i.2 = getelementptr inbounds nuw i32, ptr %_12.i.i.1, i64 %count.i.i.2
  %count2.i.i.2 = zext i1 %is_l.i18.i.2 to i64
  %_14.i.i.2 = getelementptr inbounds nuw i32, ptr %_14.i.i.1, i64 %count2.i.i.2
  %_16.i.i.2 = getelementptr inbounds nuw i8, ptr %dst, i64 12
  tail call void @llvm.experimental.noalias.scope.decl(metadata !525)
  tail call void @llvm.experimental.noalias.scope.decl(metadata !527)
  tail call void @llvm.experimental.noalias.scope.decl(metadata !529), !noalias !498
  tail call void @llvm.experimental.noalias.scope.decl(metadata !531), !noalias !498
  tail call void @llvm.experimental.noalias.scope.decl(metadata !533), !noalias !498
  tail call void @llvm.experimental.noalias.scope.decl(metadata !535), !noalias !498
  %_3.i.i.i19.i.2 = load i32, ptr %26, align 4, !alias.scope !537, !noalias !538, !noundef !18
  %_4.i.i.i20.i.2 = load i32, ptr %27, align 4, !alias.scope !539, !noalias !540, !noundef !18
  %_0.i21.i.2 = icmp slt i32 %_3.i.i.i19.i.2, %_4.i.i.i20.i.2
  %is_l.i.i.2 = xor i1 %_0.i21.i.2, true
  %30 = tail call i32 @llvm.smax.i32(i32 %_3.i.i.i19.i.2, i32 %_4.i.i.i20.i.2)
  store i32 %30, ptr %28, align 4, !noalias !473
  %count.neg.i.i.2 = sext i1 %is_l.i.i.2 to i64
  %31 = getelementptr i32, ptr %26, i64 %count.neg.i.i.2
  %count3.neg.i.i.2 = sext i1 %_0.i21.i.2 to i64
  %32 = getelementptr i32, ptr %27, i64 %count3.neg.i.i.2
  %33 = getelementptr inbounds nuw i8, ptr %dst, i64 16
  tail call void @llvm.experimental.noalias.scope.decl(metadata !541)
  tail call void @llvm.experimental.noalias.scope.decl(metadata !543)
  tail call void @llvm.experimental.noalias.scope.decl(metadata !545), !noalias !481
  tail call void @llvm.experimental.noalias.scope.decl(metadata !547), !noalias !481
  tail call void @llvm.experimental.noalias.scope.decl(metadata !549), !noalias !481
  tail call void @llvm.experimental.noalias.scope.decl(metadata !551), !noalias !481
  %_3.i.i.i.i36.3 = load i32, ptr %_12.i.i.2, align 4, !alias.scope !553, !noalias !554, !noundef !18
  %_4.i.i.i.i37.3 = load i32, ptr %_14.i.i.2, align 4, !alias.scope !555, !noalias !556, !noundef !18
  %_0.i.i38.3 = icmp slt i32 %_3.i.i.i.i36.3, %_4.i.i.i.i37.3
  %is_l.i18.i.3 = xor i1 %_0.i.i38.3, true
  %34 = tail call i32 @llvm.smin.i32(i32 %_3.i.i.i.i36.3, i32 %_4.i.i.i.i37.3)
  store i32 %34, ptr %_16.i.i.2, align 4, !noalias !458
  %count.i.i.3 = zext i1 %_0.i.i38.3 to i64
  %_12.i.i.3 = getelementptr inbounds nuw i32, ptr %_12.i.i.2, i64 %count.i.i.3
  %count2.i.i.3 = zext i1 %is_l.i18.i.3 to i64
  %_14.i.i.3 = getelementptr inbounds nuw i32, ptr %_14.i.i.2, i64 %count2.i.i.3
  tail call void @llvm.experimental.noalias.scope.decl(metadata !557)
  tail call void @llvm.experimental.noalias.scope.decl(metadata !559)
  tail call void @llvm.experimental.noalias.scope.decl(metadata !561), !noalias !498
  tail call void @llvm.experimental.noalias.scope.decl(metadata !563), !noalias !498
  tail call void @llvm.experimental.noalias.scope.decl(metadata !565), !noalias !498
  tail call void @llvm.experimental.noalias.scope.decl(metadata !567), !noalias !498
  %_3.i.i.i19.i.3 = load i32, ptr %31, align 4, !alias.scope !569, !noalias !570, !noundef !18
  %_4.i.i.i20.i.3 = load i32, ptr %32, align 4, !alias.scope !571, !noalias !572, !noundef !18
  %_0.i21.i.3 = icmp slt i32 %_3.i.i.i19.i.3, %_4.i.i.i20.i.3
  %is_l.i.i.3 = xor i1 %_0.i21.i.3, true
  %35 = tail call i32 @llvm.smax.i32(i32 %_3.i.i.i19.i.3, i32 %_4.i.i.i20.i.3)
  store i32 %35, ptr %33, align 4, !noalias !473
  %count.neg.i.i.3 = sext i1 %is_l.i.i.3 to i64
  %36 = getelementptr i32, ptr %31, i64 %count.neg.i.i.3
  %count3.neg.i.i.3 = sext i1 %_0.i21.i.3 to i64
  %37 = getelementptr i32, ptr %32, i64 %count3.neg.i.i.3
  %38 = getelementptr i8, ptr %37, i64 4
  %39 = getelementptr i8, ptr %36, i64 4
  %_31.i = icmp ne ptr %_14.i.i.3, %38
  %_32.i = icmp ne ptr %_12.i.i.3, %39
  %or.cond.i = select i1 %_31.i, i1 true, i1 %_32.i
  br i1 %or.cond.i, label %bb13.i, label %_ZN4core5slice4sort6shared9smallsort19bidirectional_merge17hd10b357e31d1e34fE.exit, !prof !271

bb13.i:                                           ; preds = %start
; call core::slice::sort::shared::smallsort::panic_on_ord_violation
  tail call void @_ZN4core5slice4sort6shared9smallsort22panic_on_ord_violation17hc77a22a2d50782cdE() #18, !noalias !442
  unreachable

_ZN4core5slice4sort6shared9smallsort19bidirectional_merge17hd10b357e31d1e34fE.exit: ; preds = %start
  ret void
}

; core::slice::sort::stable::driftsort_main
; Function Attrs: noinline nonlazybind uwtable
define void @_ZN4core5slice4sort6stable14driftsort_main17h3f79a0458fe1f799E(ptr noalias noundef nonnull align 4 %v.0, i64 noundef range(i64 0, 2305843009213693952) %v.1, ptr noalias noundef nonnull align 1 %is_less) unnamed_addr #2 personality ptr @rust_eh_personality {
start:
  %stack_buf = alloca [4096 x i8], align 4
  %_105 = lshr i64 %v.1, 1
  %v1 = sub nsw i64 %v.1, %_105
  %_0.sroa.0.0.i = tail call noundef i64 @llvm.umin.i64(i64 %v.1, i64 2000000)
  %_0.sroa.0.0.i6 = tail call noundef i64 @llvm.umax.i64(i64 %_0.sroa.0.0.i, i64 %v1)
  %_0.sroa.0.0.i7 = tail call noundef i64 @llvm.umax.i64(i64 %_0.sroa.0.0.i6, i64 48)
  call void @llvm.lifetime.start.p0(i64 4096, ptr nonnull %stack_buf)
  %_15 = icmp ugt i64 %_0.sroa.0.0.i6, 1024
  br i1 %_15, label %bb4, label %bb8

bb4:                                              ; preds = %start
  %_21.0.i.i.i.i = shl i64 %_0.sroa.0.0.i7, 2
  %_21.1.i.i.i.i = icmp ugt i64 %v1, 4611686018427387903
  %_26.i.i.i.i = icmp ugt i64 %_21.0.i.i.i.i, 9223372036854775804
  %or.cond.i.i.i.i = or i1 %_21.1.i.i.i.i, %_26.i.i.i.i
  br i1 %or.cond.i.i.i.i, label %bb3.i.i, label %bb5.i.i.i, !prof !573

bb5.i.i.i:                                        ; preds = %bb4
; call __rustc::__rust_no_alloc_shim_is_unstable_v2
  tail call void @_RNvCsdBezzDwma51_7___rustc35___rust_no_alloc_shim_is_unstable_v2() #19, !noalias !574
; call __rustc::__rust_alloc
  %0 = tail call noundef align 4 ptr @_RNvCsdBezzDwma51_7___rustc12___rust_alloc(i64 noundef range(i64 1, 0) %_21.0.i.i.i.i, i64 noundef range(i64 1, -9223372036854775807) 4) #19, !noalias !574
  %1 = icmp eq ptr %0, null
  br i1 %1, label %bb3.i.i, label %bb8

bb3.i.i:                                          ; preds = %bb5.i.i.i, %bb4
  %_4.sroa.4.0.ph.i.i = phi i64 [ 4, %bb5.i.i.i ], [ 0, %bb4 ]
; call alloc::raw_vec::handle_error
  tail call void @_ZN5alloc7raw_vec12handle_error17h3a8c375904e593b2E(i64 noundef %_4.sroa.4.0.ph.i.i, i64 %_21.0.i.i.i.i) #20
  unreachable

cleanup:                                          ; preds = %bb8
  %2 = landingpad { ptr, i32 }
          cleanup
  br i1 %_15, label %bb2.i.i.i3.i10, label %bb11

bb8:                                              ; preds = %bb5.i.i.i, %start
  %heap_buf.sroa.6.1 = phi ptr [ undef, %start ], [ %0, %bb5.i.i.i ]
  %stack_scratch.sroa.4.0 = phi i64 [ 1024, %start ], [ %_0.sroa.0.0.i7, %bb5.i.i.i ]
  %stack_buf.pn = phi ptr [ %stack_buf, %start ], [ %0, %bb5.i.i.i ]
  %eager_sort = icmp samesign ult i64 %v.1, 65
; invoke core::slice::sort::stable::drift::sort
  invoke fastcc void @_ZN4core5slice4sort6stable5drift4sort17h9bbabab016b921ceE(ptr noalias noundef nonnull align 4 %v.0, i64 noundef %v.1, ptr noalias noundef nonnull align 4 %stack_buf.pn, i64 noundef %stack_scratch.sroa.4.0, i1 noundef zeroext %eager_sort, ptr noalias noundef nonnull align 1 %is_less)
          to label %bb9 unwind label %cleanup

bb9:                                              ; preds = %bb8
  br i1 %_15, label %bb2.i.i.i3.i, label %bb10

bb10:                                             ; preds = %bb2.i.i.i3.i, %bb9
  call void @llvm.lifetime.end.p0(i64 4096, ptr nonnull %stack_buf)
  ret void

bb2.i.i.i3.i:                                     ; preds = %bb9
  %3 = shl nuw i64 %_0.sroa.0.0.i7, 2
  %4 = icmp ne ptr %heap_buf.sroa.6.1, null
  call void @llvm.assume(i1 %4)
; call __rustc::__rust_dealloc
  call void @_RNvCsdBezzDwma51_7___rustc14___rust_dealloc(ptr noundef nonnull %heap_buf.sroa.6.1, i64 noundef %3, i64 noundef range(i64 1, -9223372036854775807) 4) #19, !noalias !579
  br label %bb10

bb11:                                             ; preds = %bb2.i.i.i3.i10, %cleanup
  resume { ptr, i32 } %2

bb2.i.i.i3.i10:                                   ; preds = %cleanup
  %5 = shl nuw i64 %_0.sroa.0.0.i7, 2
  %6 = icmp ne ptr %heap_buf.sroa.6.1, null
  call void @llvm.assume(i1 %6)
; call __rustc::__rust_dealloc
  call void @_RNvCsdBezzDwma51_7___rustc14___rust_dealloc(ptr noundef nonnull %heap_buf.sroa.6.1, i64 noundef %5, i64 noundef range(i64 1, -9223372036854775807) 4) #19, !noalias !588
  br label %bb11
}

; core::slice::sort::stable::driftsort_main
; Function Attrs: noinline nonlazybind uwtable
define void @_ZN4core5slice4sort6stable14driftsort_main17hb58fc6a03d76b02cE(ptr noalias noundef nonnull align 4 %v.0, i64 noundef range(i64 0, 2305843009213693952) %v.1, ptr noalias noundef align 8 dereferenceable(8) %is_less) unnamed_addr #2 personality ptr @rust_eh_personality {
start:
  %stack_buf = alloca [4096 x i8], align 4
  %_105 = lshr i64 %v.1, 1
  %v1 = sub nsw i64 %v.1, %_105
  %_0.sroa.0.0.i = tail call noundef i64 @llvm.umin.i64(i64 %v.1, i64 2000000)
  %_0.sroa.0.0.i6 = tail call noundef i64 @llvm.umax.i64(i64 %_0.sroa.0.0.i, i64 %v1)
  %_0.sroa.0.0.i7 = tail call noundef i64 @llvm.umax.i64(i64 %_0.sroa.0.0.i6, i64 48)
  call void @llvm.lifetime.start.p0(i64 4096, ptr nonnull %stack_buf)
  %_15 = icmp ugt i64 %_0.sroa.0.0.i6, 1024
  br i1 %_15, label %bb4, label %bb8

bb4:                                              ; preds = %start
  %_21.0.i.i.i.i = shl i64 %_0.sroa.0.0.i7, 2
  %_21.1.i.i.i.i = icmp ugt i64 %v1, 4611686018427387903
  %_26.i.i.i.i = icmp ugt i64 %_21.0.i.i.i.i, 9223372036854775804
  %or.cond.i.i.i.i = or i1 %_21.1.i.i.i.i, %_26.i.i.i.i
  br i1 %or.cond.i.i.i.i, label %bb3.i.i, label %bb5.i.i.i, !prof !573

bb5.i.i.i:                                        ; preds = %bb4
; call __rustc::__rust_no_alloc_shim_is_unstable_v2
  tail call void @_RNvCsdBezzDwma51_7___rustc35___rust_no_alloc_shim_is_unstable_v2() #19, !noalias !597
; call __rustc::__rust_alloc
  %0 = tail call noundef align 4 ptr @_RNvCsdBezzDwma51_7___rustc12___rust_alloc(i64 noundef range(i64 1, 0) %_21.0.i.i.i.i, i64 noundef range(i64 1, -9223372036854775807) 4) #19, !noalias !597
  %1 = icmp eq ptr %0, null
  br i1 %1, label %bb3.i.i, label %bb8

bb3.i.i:                                          ; preds = %bb5.i.i.i, %bb4
  %_4.sroa.4.0.ph.i.i = phi i64 [ 4, %bb5.i.i.i ], [ 0, %bb4 ]
; call alloc::raw_vec::handle_error
  tail call void @_ZN5alloc7raw_vec12handle_error17h3a8c375904e593b2E(i64 noundef %_4.sroa.4.0.ph.i.i, i64 %_21.0.i.i.i.i) #20
  unreachable

cleanup:                                          ; preds = %bb8
  %2 = landingpad { ptr, i32 }
          cleanup
  br i1 %_15, label %bb2.i.i.i3.i10, label %bb11

bb8:                                              ; preds = %bb5.i.i.i, %start
  %heap_buf.sroa.6.1 = phi ptr [ undef, %start ], [ %0, %bb5.i.i.i ]
  %stack_scratch.sroa.4.0 = phi i64 [ 1024, %start ], [ %_0.sroa.0.0.i7, %bb5.i.i.i ]
  %stack_buf.pn = phi ptr [ %stack_buf, %start ], [ %0, %bb5.i.i.i ]
  %eager_sort = icmp samesign ult i64 %v.1, 65
; invoke core::slice::sort::stable::drift::sort
  invoke fastcc void @_ZN4core5slice4sort6stable5drift4sort17h8641a010d099af4fE(ptr noalias noundef nonnull align 4 %v.0, i64 noundef %v.1, ptr noalias noundef nonnull align 4 %stack_buf.pn, i64 noundef %stack_scratch.sroa.4.0, i1 noundef zeroext %eager_sort, ptr noalias noundef align 8 dereferenceable(8) %is_less)
          to label %bb9 unwind label %cleanup

bb9:                                              ; preds = %bb8
  br i1 %_15, label %bb2.i.i.i3.i, label %bb10

bb10:                                             ; preds = %bb2.i.i.i3.i, %bb9
  call void @llvm.lifetime.end.p0(i64 4096, ptr nonnull %stack_buf)
  ret void

bb2.i.i.i3.i:                                     ; preds = %bb9
  %3 = shl nuw i64 %_0.sroa.0.0.i7, 2
  %4 = icmp ne ptr %heap_buf.sroa.6.1, null
  call void @llvm.assume(i1 %4)
; call __rustc::__rust_dealloc
  call void @_RNvCsdBezzDwma51_7___rustc14___rust_dealloc(ptr noundef nonnull %heap_buf.sroa.6.1, i64 noundef %3, i64 noundef range(i64 1, -9223372036854775807) 4) #19, !noalias !602
  br label %bb10

bb11:                                             ; preds = %bb2.i.i.i3.i10, %cleanup
  resume { ptr, i32 } %2

bb2.i.i.i3.i10:                                   ; preds = %cleanup
  %5 = shl nuw i64 %_0.sroa.0.0.i7, 2
  %6 = icmp ne ptr %heap_buf.sroa.6.1, null
  call void @llvm.assume(i1 %6)
; call __rustc::__rust_dealloc
  call void @_RNvCsdBezzDwma51_7___rustc14___rust_dealloc(ptr noundef nonnull %heap_buf.sroa.6.1, i64 noundef %5, i64 noundef range(i64 1, -9223372036854775807) 4) #19, !noalias !611
  br label %bb11
}

; core::slice::sort::stable::drift::sort
; Function Attrs: nonlazybind uwtable
define internal fastcc void @_ZN4core5slice4sort6stable5drift4sort17h8641a010d099af4fE(ptr noalias noundef nonnull align 4 %v.0, i64 noundef range(i64 0, 2305843009213693952) %v.1, ptr noalias noundef nonnull align 4 %scratch.0, i64 noundef range(i64 0, 2305843009213693952) %scratch.1, i1 noundef zeroext %eager_sort, ptr noalias noundef nonnull align 8 dereferenceable(8) %is_less) unnamed_addr #1 personality ptr @rust_eh_personality {
start:
  %desired_depth_storage = alloca [66 x i8], align 1
  %run_storage = alloca [528 x i8], align 8
  %_6 = icmp samesign ult i64 %v.1, 2
  br i1 %_6, label %bb22, label %bb2

bb2:                                              ; preds = %start
  %d = udiv i64 4611686018427387904, %v.1
  %r = urem i64 4611686018427387904, %v.1
  %_73.not = icmp ne i64 %r, 0
  %0 = zext i1 %_73.not to i64
  %scale_factor.sroa.0.0 = add nuw nsw i64 %d, %0
  %_9 = icmp samesign ult i64 %v.1, 4097
  br i1 %_9, label %bb3, label %bb4

bb4:                                              ; preds = %bb2
; call core::slice::sort::stable::drift::sqrt_approx
  %1 = tail call noundef i64 @_ZN4core5slice4sort6stable5drift11sqrt_approx17h72a4dc1ae46294f4E(i64 noundef %v.1)
  br label %bb5

bb3:                                              ; preds = %bb2
  %_1135 = lshr i64 %v.1, 1
  %v1 = sub nsw i64 %v.1, %_1135
  %_0.sroa.0.0.i36 = tail call noundef i64 @llvm.umin.i64(i64 %v1, i64 64)
  br label %bb5

bb5:                                              ; preds = %bb3, %bb4
  %min_good_run_len.sroa.0.0 = phi i64 [ %_0.sroa.0.0.i36, %bb3 ], [ %1, %bb4 ]
  call void @llvm.lifetime.start.p0(i64 528, ptr nonnull %run_storage)
  call void @llvm.lifetime.start.p0(i64 66, ptr nonnull %desired_depth_storage)
  %_13.not.i97 = icmp ugt i64 %min_good_run_len.sroa.0.0, 2
  %_13.not.i103 = icmp ugt i64 %min_good_run_len.sroa.0.0, 2
  br label %bb6

bb6:                                              ; preds = %bb19, %bb5
  %prev_run.sroa.0.0 = phi i64 [ 1, %bb5 ], [ %next_run.sroa.0.0, %bb19 ]
  %scan_idx.sroa.0.0 = phi i64 [ 0, %bb5 ], [ %36, %bb19 ]
  %stack_len.sroa.0.0 = phi i64 [ 0, %bb5 ], [ %35, %bb19 ]
  %_22 = icmp ult i64 %scan_idx.sroa.0.0, %v.1
  br i1 %_22, label %bb30, label %bb10

bb10:                                             ; preds = %bb6, %_ZN4core5slice4sort6stable5drift10create_run17h60eb536d1a74fd7dE.exit
  %desired_depth.sroa.0.0 = phi i8 [ %18, %_ZN4core5slice4sort6stable5drift10create_run17h60eb536d1a74fd7dE.exit ], [ 0, %bb6 ]
  %next_run.sroa.0.0 = phi i64 [ %_0.sroa.0.0.i40, %_ZN4core5slice4sort6stable5drift10create_run17h60eb536d1a74fd7dE.exit ], [ 1, %bb6 ]
  %_3782 = icmp ugt i64 %stack_len.sroa.0.0, 1
  br i1 %_3782, label %bb12.lr.ph, label %bb17

bb12.lr.ph:                                       ; preds = %bb10
  %v_end.i = getelementptr inbounds nuw i32, ptr %v.0, i64 %scan_idx.sroa.0.0
  br label %bb12

bb30:                                             ; preds = %bb6
  %new_len = sub nuw nsw i64 %v.1, %scan_idx.sroa.0.0
  %_82 = getelementptr inbounds nuw i32, ptr %v.0, i64 %scan_idx.sroa.0.0
  %_7.not.i = icmp ult i64 %new_len, %min_good_run_len.sroa.0.0
  br i1 %_7.not.i, label %bb7.i41, label %bb1.i

bb7.i41:                                          ; preds = %_ZN4core5slice4sort6shared17find_existing_run17h863686e5694a51f8E.exit.i.thread100, %_ZN4core5slice4sort6shared17find_existing_run17h863686e5694a51f8E.exit.i.thread, %_ZN4core5slice4sort6shared17find_existing_run17h863686e5694a51f8E.exit.i, %bb30
  br i1 %eager_sort, label %bb16.i43, label %bb11.i42

bb1.i:                                            ; preds = %bb30
  %_4.i.i = icmp samesign ult i64 %new_len, 2
  br i1 %_4.i.i, label %bb5.i38, label %bb2.i.i

bb2.i.i:                                          ; preds = %bb1.i
  %_28.i.i = getelementptr inbounds nuw i8, ptr %_82, i64 4
  tail call void @llvm.experimental.noalias.scope.decl(metadata !620)
  tail call void @llvm.experimental.noalias.scope.decl(metadata !623)
  tail call void @llvm.experimental.noalias.scope.decl(metadata !625), !noalias !628
  tail call void @llvm.experimental.noalias.scope.decl(metadata !631), !noalias !628
  tail call void @llvm.experimental.noalias.scope.decl(metadata !633), !noalias !628
  tail call void @llvm.experimental.noalias.scope.decl(metadata !636), !noalias !628
  %_3.i.i.i61 = load i32, ptr %_28.i.i, align 4, !alias.scope !638, !noalias !639, !noundef !18
  %_4.i.i.i62 = load i32, ptr %_82, align 4, !alias.scope !640, !noalias !641, !noundef !18
  %_0.i63 = icmp slt i32 %_3.i.i.i61, %_4.i.i.i62
  %_10.i.i78.not = icmp eq i64 %new_len, 2
  br i1 %_0.i63, label %bb4.i.i.preheader, label %bb11.i.i.preheader

bb11.i.i.preheader:                               ; preds = %bb2.i.i
  br i1 %_10.i.i78.not, label %_ZN4core5slice4sort6shared17find_existing_run17h863686e5694a51f8E.exit.i.thread, label %bb12.i.i

bb4.i.i.preheader:                                ; preds = %bb2.i.i
  br i1 %_10.i.i78.not, label %_ZN4core5slice4sort6shared17find_existing_run17h863686e5694a51f8E.exit.i.thread100, label %bb5.i.i

bb12.i.i:                                         ; preds = %bb11.i.i.preheader, %bb15.i.i
  %_4.i.i.i59 = phi i32 [ %_3.i.i.i58, %bb15.i.i ], [ %_3.i.i.i61, %bb11.i.i.preheader ]
  %run_len.sroa.0.0.i.i76 = phi i64 [ %3, %bb15.i.i ], [ 2, %bb11.i.i.preheader ]
  %2 = getelementptr inbounds nuw i32, ptr %_82, i64 %run_len.sroa.0.0.i.i76
  %_3.i.i.i58 = load i32, ptr %2, align 4, !alias.scope !642, !noalias !649, !noundef !18
  %_0.i60 = icmp slt i32 %_3.i.i.i58, %_4.i.i.i59
  br i1 %_0.i60, label %_ZN4core5slice4sort6shared17find_existing_run17h863686e5694a51f8E.exit.i, label %bb15.i.i

bb15.i.i:                                         ; preds = %bb12.i.i
  %3 = add nuw i64 %run_len.sroa.0.0.i.i76, 1
  %exitcond.not = icmp eq i64 %3, %new_len
  br i1 %exitcond.not, label %_ZN4core5slice4sort6shared17find_existing_run17h863686e5694a51f8E.exit.i, label %bb12.i.i

bb5.i.i:                                          ; preds = %bb4.i.i.preheader, %bb7.i.i
  %_4.i.i.i = phi i32 [ %_3.i.i.i, %bb7.i.i ], [ %_3.i.i.i61, %bb4.i.i.preheader ]
  %run_len.sroa.0.1.i.i79 = phi i64 [ %5, %bb7.i.i ], [ 2, %bb4.i.i.preheader ]
  %4 = getelementptr inbounds nuw i32, ptr %_82, i64 %run_len.sroa.0.1.i.i79
  %_3.i.i.i = load i32, ptr %4, align 4, !alias.scope !653, !noalias !660, !noundef !18
  %_0.i = icmp slt i32 %_3.i.i.i, %_4.i.i.i
  br i1 %_0.i, label %bb7.i.i, label %_ZN4core5slice4sort6shared17find_existing_run17h863686e5694a51f8E.exit.i

bb7.i.i:                                          ; preds = %bb5.i.i
  %5 = add nuw i64 %run_len.sroa.0.1.i.i79, 1
  %exitcond92.not = icmp eq i64 %5, %new_len
  br i1 %exitcond92.not, label %_ZN4core5slice4sort6shared17find_existing_run17h863686e5694a51f8E.exit.i, label %bb5.i.i

_ZN4core5slice4sort6shared17find_existing_run17h863686e5694a51f8E.exit.i: ; preds = %bb15.i.i, %bb12.i.i, %bb7.i.i, %bb5.i.i
  %_0.sroa.0.0.i.i = phi i64 [ %new_len, %bb7.i.i ], [ %run_len.sroa.0.1.i.i79, %bb5.i.i ], [ %new_len, %bb15.i.i ], [ %run_len.sroa.0.0.i.i76, %bb12.i.i ]
  %_12.i = icmp samesign ule i64 %_0.sroa.0.0.i.i, %new_len
  tail call void @llvm.assume(i1 %_12.i)
  %_13.not.i = icmp ult i64 %_0.sroa.0.0.i.i, %min_good_run_len.sroa.0.0
  br i1 %_13.not.i, label %bb7.i41, label %bb3.i37

_ZN4core5slice4sort6shared17find_existing_run17h863686e5694a51f8E.exit.i.thread100: ; preds = %bb4.i.i.preheader
  br i1 %_13.not.i103, label %bb7.i41, label %bb5.preheader.i.i

_ZN4core5slice4sort6shared17find_existing_run17h863686e5694a51f8E.exit.i.thread: ; preds = %bb11.i.i.preheader
  br i1 %_13.not.i97, label %bb7.i41, label %bb5.i38

bb3.i37:                                          ; preds = %_ZN4core5slice4sort6shared17find_existing_run17h863686e5694a51f8E.exit.i
  br i1 %_0.i63, label %bb14.i, label %bb5.i38

bb11.i42:                                         ; preds = %bb7.i41
  %_0.sroa.0.0.i57 = tail call noundef i64 @llvm.umin.i64(i64 range(i64 0, 2305843009213693952) %new_len, i64 %min_good_run_len.sroa.0.0)
  %_36.i = shl nuw nsw i64 %_0.sroa.0.0.i57, 1
  br label %_ZN4core5slice4sort6stable5drift10create_run17h60eb536d1a74fd7dE.exit

bb16.i43:                                         ; preds = %bb7.i41
  %_0.sroa.0.0.i56 = tail call noundef i64 @llvm.umin.i64(i64 range(i64 0, 2305843009213693952) %new_len, i64 32)
; call core::slice::sort::stable::quicksort::quicksort
  tail call void @_ZN4core5slice4sort6stable9quicksort9quicksort17h28a6924c1970dcc5E(ptr noalias noundef nonnull align 4 %_82, i64 noundef %_0.sroa.0.0.i56, ptr noalias noundef nonnull align 4 %scratch.0, i64 noundef range(i64 0, 2305843009213693952) %scratch.1, i32 noundef 0, ptr noalias noundef readonly align 4 captures(address, read_provenance) dereferenceable_or_null(4) null, ptr noalias noundef nonnull align 8 dereferenceable(8) %is_less) #21
  %_35.i = shl nuw nsw i64 %_0.sroa.0.0.i56, 1
  %_34.i = or disjoint i64 %_35.i, 1
  br label %_ZN4core5slice4sort6stable5drift10create_run17h60eb536d1a74fd7dE.exit

bb5.i38:                                          ; preds = %bb6.i.i, %middle.block, %_ZN4core5slice4sort6shared17find_existing_run17h863686e5694a51f8E.exit.i.thread, %bb1.i, %bb14.i, %bb3.i37
  %_0.sroa.0.0.i.i6972 = phi i64 [ %_0.sroa.0.0.i.i, %bb3.i37 ], [ 1, %bb14.i ], [ %new_len, %bb1.i ], [ 2, %_ZN4core5slice4sort6shared17find_existing_run17h863686e5694a51f8E.exit.i.thread ], [ %_0.sroa.0.0.i.i98106110, %middle.block ], [ %_0.sroa.0.0.i.i98106110, %bb6.i.i ]
  %_27.i = shl nuw nsw i64 %_0.sroa.0.0.i.i6972, 1
  %_26.i = or disjoint i64 %_27.i, 1
  br label %_ZN4core5slice4sort6stable5drift10create_run17h60eb536d1a74fd7dE.exit

bb14.i:                                           ; preds = %bb3.i37
  %half_len2.i = lshr i64 %_0.sroa.0.0.i.i, 1
  tail call void @llvm.experimental.noalias.scope.decl(metadata !664), !noalias !667
  tail call void @llvm.experimental.noalias.scope.decl(metadata !669), !noalias !667
  %_915.not.i.i = icmp samesign ult i64 %_0.sroa.0.0.i.i, 2
  br i1 %_915.not.i.i, label %bb5.i38, label %bb5.preheader.i.i

bb5.preheader.i.i:                                ; preds = %_ZN4core5slice4sort6shared17find_existing_run17h863686e5694a51f8E.exit.i.thread100, %bb14.i
  %half_len2.i111 = phi i64 [ %half_len2.i, %bb14.i ], [ 1, %_ZN4core5slice4sort6shared17find_existing_run17h863686e5694a51f8E.exit.i.thread100 ]
  %_0.sroa.0.0.i.i98106110 = phi i64 [ %_0.sroa.0.0.i.i, %bb14.i ], [ 2, %_ZN4core5slice4sort6shared17find_existing_run17h863686e5694a51f8E.exit.i.thread100 ]
  %end.i = getelementptr inbounds nuw i32, ptr %_82, i64 %_0.sroa.0.0.i.i98106110
  %min.iters.check = icmp samesign ult i64 %half_len2.i111, 8
  br i1 %min.iters.check, label %bb6.i.i.preheader, label %vector.ph

vector.ph:                                        ; preds = %bb5.preheader.i.i
  %n.vec = and i64 %half_len2.i111, 9223372036854775800
  br label %vector.body

vector.body:                                      ; preds = %vector.body, %vector.ph
  %index = phi i64 [ 0, %vector.ph ], [ %index.next, %vector.body ]
  %6 = xor i64 %index, -1
  %7 = getelementptr inbounds nuw i32, ptr %_82, i64 %index
  %8 = getelementptr i32, ptr %end.i, i64 %6
  %9 = getelementptr inbounds nuw i8, ptr %7, i64 16
  %wide.load = load <4 x i32>, ptr %7, align 4, !alias.scope !671, !noalias !674
  %wide.load118 = load <4 x i32>, ptr %9, align 4, !alias.scope !671, !noalias !674
  %10 = getelementptr i8, ptr %8, i64 -12
  %11 = getelementptr i8, ptr %8, i64 -28
  %wide.load119 = load <4 x i32>, ptr %10, align 4, !alias.scope !675, !noalias !676
  %reverse = shufflevector <4 x i32> %wide.load119, <4 x i32> poison, <4 x i32> <i32 3, i32 2, i32 1, i32 0>
  %wide.load120 = load <4 x i32>, ptr %11, align 4, !alias.scope !675, !noalias !676
  %reverse121 = shufflevector <4 x i32> %wide.load120, <4 x i32> poison, <4 x i32> <i32 3, i32 2, i32 1, i32 0>
  store <4 x i32> %reverse, ptr %7, align 4, !alias.scope !671, !noalias !674
  store <4 x i32> %reverse121, ptr %9, align 4, !alias.scope !671, !noalias !674
  %reverse122 = shufflevector <4 x i32> %wide.load, <4 x i32> poison, <4 x i32> <i32 3, i32 2, i32 1, i32 0>
  store <4 x i32> %reverse122, ptr %10, align 4, !alias.scope !675, !noalias !676
  %reverse123 = shufflevector <4 x i32> %wide.load118, <4 x i32> poison, <4 x i32> <i32 3, i32 2, i32 1, i32 0>
  store <4 x i32> %reverse123, ptr %11, align 4, !alias.scope !675, !noalias !676
  %index.next = add nuw i64 %index, 8
  %12 = icmp eq i64 %index.next, %n.vec
  br i1 %12, label %middle.block, label %vector.body, !llvm.loop !677

middle.block:                                     ; preds = %vector.body
  %cmp.n = icmp eq i64 %half_len2.i111, %n.vec
  br i1 %cmp.n, label %bb5.i38, label %bb6.i.i.preheader

bb6.i.i.preheader:                                ; preds = %bb5.preheader.i.i, %middle.block
  %i.sroa.0.016.i.i.ph = phi i64 [ 0, %bb5.preheader.i.i ], [ %n.vec, %middle.block ]
  br label %bb6.i.i

bb6.i.i:                                          ; preds = %bb6.i.i.preheader, %bb6.i.i
  %i.sroa.0.016.i.i = phi i64 [ %16, %bb6.i.i ], [ %i.sroa.0.016.i.i.ph, %bb6.i.i.preheader ]
  %13 = xor i64 %i.sroa.0.016.i.i, -1
  %x.i.i = getelementptr inbounds nuw i32, ptr %_82, i64 %i.sroa.0.016.i.i
  %y.i.i = getelementptr i32, ptr %end.i, i64 %13
  %14 = load i32, ptr %x.i.i, align 4, !alias.scope !671, !noalias !674, !noundef !18
  %15 = load i32, ptr %y.i.i, align 4, !alias.scope !675, !noalias !676
  store i32 %15, ptr %x.i.i, align 4, !alias.scope !671, !noalias !674
  store i32 %14, ptr %y.i.i, align 4, !alias.scope !675, !noalias !676
  %16 = add nuw nsw i64 %i.sroa.0.016.i.i, 1
  %exitcond.not.i.i = icmp eq i64 %16, %half_len2.i111
  br i1 %exitcond.not.i.i, label %bb5.i38, label %bb6.i.i, !llvm.loop !680

_ZN4core5slice4sort6stable5drift10create_run17h60eb536d1a74fd7dE.exit: ; preds = %bb11.i42, %bb16.i43, %bb5.i38
  %_0.sroa.0.0.i40 = phi i64 [ %_26.i, %bb5.i38 ], [ %_34.i, %bb16.i43 ], [ %_36.i, %bb11.i42 ]
  %_31 = lshr i64 %prev_run.sroa.0.0, 1
  %_35 = lshr i64 %_0.sroa.0.0.i40, 1
  %factor = shl i64 %scan_idx.sroa.0.0, 1
  %x = sub i64 %factor, %_31
  %y = add i64 %_35, %factor
  %_90 = mul i64 %x, %scale_factor.sroa.0.0
  %_91 = mul i64 %y, %scale_factor.sroa.0.0
  %self4 = xor i64 %_91, %_90
  %17 = tail call range(i64 0, 65) i64 @llvm.ctlz.i64(i64 %self4, i1 false)
  %18 = trunc nuw nsw i64 %17 to i8
  br label %bb10

bb12:                                             ; preds = %bb12.lr.ph, %_ZN4core5slice4sort6stable5drift13logical_merge17h43574c7b40e954c0E.exit
  %stack_len.sroa.0.184 = phi i64 [ %stack_len.sroa.0.0, %bb12.lr.ph ], [ %count, %_ZN4core5slice4sort6stable5drift13logical_merge17h43574c7b40e954c0E.exit ]
  %prev_run.sroa.0.183 = phi i64 [ %prev_run.sroa.0.0, %bb12.lr.ph ], [ %_0.sroa.0.0.i, %_ZN4core5slice4sort6stable5drift13logical_merge17h43574c7b40e954c0E.exit ]
  %count = add i64 %stack_len.sroa.0.184, -1
  %_41 = getelementptr inbounds nuw i8, ptr %desired_depth_storage, i64 %count
  %_40 = load i8, ptr %_41, align 1, !noundef !18
  %_39.not = icmp ult i8 %_40, %desired_depth.sroa.0.0
  br i1 %_39.not, label %bb17, label %bb13

bb17:                                             ; preds = %_ZN4core5slice4sort6stable5drift13logical_merge17h43574c7b40e954c0E.exit, %bb12, %bb10
  %prev_run.sroa.0.1.lcssa = phi i64 [ %prev_run.sroa.0.0, %bb10 ], [ %prev_run.sroa.0.183, %bb12 ], [ %_0.sroa.0.0.i, %_ZN4core5slice4sort6stable5drift13logical_merge17h43574c7b40e954c0E.exit ]
  %stack_len.sroa.0.1.lcssa = phi i64 [ %stack_len.sroa.0.0, %bb10 ], [ %stack_len.sroa.0.184, %bb12 ], [ 1, %_ZN4core5slice4sort6stable5drift13logical_merge17h43574c7b40e954c0E.exit ]
  %_59 = getelementptr inbounds nuw i64, ptr %run_storage, i64 %stack_len.sroa.0.1.lcssa
  store i64 %prev_run.sroa.0.1.lcssa, ptr %_59, align 8
  %_61 = getelementptr inbounds nuw i8, ptr %desired_depth_storage, i64 %stack_len.sroa.0.1.lcssa
  store i8 %desired_depth.sroa.0.0, ptr %_61, align 1
  br i1 %_22, label %bb19, label %bb18

bb13:                                             ; preds = %bb12
  %_46 = getelementptr inbounds nuw i64, ptr %run_storage, i64 %count
  %left10 = load i64, ptr %_46, align 8, !noundef !18
  %_50 = lshr i64 %left10, 1
  %_51 = lshr i64 %prev_run.sroa.0.183, 1
  %merged_len = add nuw i64 %_50, %_51
  %merge_start_idx = sub i64 %scan_idx.sroa.0.0, %merged_len
  %_98 = getelementptr inbounds nuw i32, ptr %v.0, i64 %merge_start_idx
  %can_fit_in_scratch.i = icmp samesign ugt i64 %merged_len, %scratch.1
  %_22.i = and i64 %prev_run.sroa.0.183, 1
  %_10.not.i = icmp eq i64 %_22.i, 0
  %19 = or i64 %left10, %prev_run.sroa.0.183
  %20 = and i64 %19, 1
  %21 = icmp ne i64 %20, 0
  %or.cond2.i = or i1 %can_fit_in_scratch.i, %21
  br i1 %or.cond2.i, label %bb3.i, label %bb9.i

bb3.i:                                            ; preds = %bb13
  %_21.i = and i64 %left10, 1
  %_9.not.i = icmp eq i64 %_21.i, 0
  br i1 %_9.not.i, label %bb11.i, label %bb5.i

bb9.i:                                            ; preds = %bb13
  %_40.i = shl nuw nsw i64 %merged_len, 1
  br label %_ZN4core5slice4sort6stable5drift13logical_merge17h43574c7b40e954c0E.exit

bb5.i:                                            ; preds = %bb11.i, %bb3.i
  br i1 %_10.not.i, label %bb16.i, label %bb7.i

bb11.i:                                           ; preds = %bb3.i
  %self.i = or i64 %_50, 1
  %22 = tail call range(i64 3, 64) i64 @llvm.ctlz.i64(i64 %self.i, i1 true)
  %23 = trunc nuw nsw i64 %22 to i32
  %log.i = shl nuw nsw i32 %23, 1
  %limit.i = xor i32 %log.i, 126
; call core::slice::sort::stable::quicksort::quicksort
  tail call void @_ZN4core5slice4sort6stable9quicksort9quicksort17h28a6924c1970dcc5E(ptr noalias noundef nonnull align 4 %_98, i64 noundef range(i64 0, 2305843009213693952) %_50, ptr noalias noundef nonnull align 4 %scratch.0, i64 noundef range(i64 0, 2305843009213693952) %scratch.1, i32 noundef %limit.i, ptr noalias noundef readonly align 4 captures(address, read_provenance) dereferenceable_or_null(4) null, ptr noalias noundef nonnull align 8 dereferenceable(8) %is_less) #21
  br label %bb5.i

bb7.i:                                            ; preds = %bb16.i, %bb5.i
  tail call void @llvm.experimental.noalias.scope.decl(metadata !681)
  tail call void @llvm.experimental.noalias.scope.decl(metadata !684)
  %_6.i = icmp ult i64 %left10, 2
  %_7.i = icmp ult i64 %prev_run.sroa.0.183, 2
  %or.cond.i = select i1 %_6.i, i1 true, i1 %_7.i
  br i1 %or.cond.i, label %_ZN4core5slice4sort6stable5merge5merge17hbe7c158758d3f398E.exit, label %bb2.i

bb2.i:                                            ; preds = %bb7.i
  %_0.sroa.0.0.i.i44 = tail call i64 @llvm.umin.i64(i64 %_51, i64 range(i64 0, -9223372036854775808) %_50)
  %_8.i = icmp samesign ult i64 %scratch.1, %_0.sroa.0.0.i.i44
  br i1 %_8.i, label %_ZN4core5slice4sort6stable5merge5merge17hbe7c158758d3f398E.exit, label %bb5.i45

bb5.i45:                                          ; preds = %bb2.i
  %v_mid.i = getelementptr inbounds nuw i32, ptr %_98, i64 %_50
  %left_is_shorter.not.i = icmp samesign ugt i64 %_50, %_51
  %spec.select.i = select i1 %left_is_shorter.not.i, ptr %v_mid.i, ptr %_98
  %24 = shl nuw nsw i64 %_0.sroa.0.0.i.i44, 2
  tail call void @llvm.memcpy.p0.p0.i64(ptr nonnull align 4 %scratch.0, ptr nonnull align 4 %spec.select.i, i64 %24, i1 false), !alias.scope !686
  %_22.i46 = getelementptr inbounds nuw i8, ptr %scratch.0, i64 %24
  br i1 %left_is_shorter.not.i, label %bb1.i.i, label %bb3.i.i

bb1.i.i:                                          ; preds = %bb5.i45, %bb1.i.i
  %_2110.i.i = phi ptr [ %_21.i.i49, %bb1.i.i ], [ %_22.i46, %bb5.i45 ]
  %_188.i.i = phi ptr [ %_18.i.i, %bb1.i.i ], [ %v_mid.i, %bb5.i45 ]
  %out.sroa.0.0.i.i = phi ptr [ %27, %bb1.i.i ], [ %v_end.i, %bb5.i45 ]
  %25 = getelementptr inbounds i8, ptr %_188.i.i, i64 -4
  %26 = getelementptr inbounds i8, ptr %_2110.i.i, i64 -4
  %27 = getelementptr inbounds i8, ptr %out.sroa.0.0.i.i, i64 -4
  tail call void @llvm.experimental.noalias.scope.decl(metadata !687)
  tail call void @llvm.experimental.noalias.scope.decl(metadata !690)
  tail call void @llvm.experimental.noalias.scope.decl(metadata !692)
  tail call void @llvm.experimental.noalias.scope.decl(metadata !695)
  tail call void @llvm.experimental.noalias.scope.decl(metadata !697)
  tail call void @llvm.experimental.noalias.scope.decl(metadata !700)
  %_3.i.i.i.i.i = load i32, ptr %26, align 4, !alias.scope !702, !noalias !703, !noundef !18
  %_4.i.i.i.i.i = load i32, ptr %25, align 4, !alias.scope !706, !noalias !707, !noundef !18
  %_0.i.i.i = icmp slt i32 %_3.i.i.i.i.i, %_4.i.i.i.i.i
  %28 = tail call i32 @llvm.smax.i32(i32 %_3.i.i.i.i.i, i32 %_4.i.i.i.i.i)
  store i32 %28, ptr %27, align 4, !alias.scope !681, !noalias !708
  %_20.i.i = xor i1 %_0.i.i.i, true
  %count.i.i = zext i1 %_20.i.i to i64
  %_18.i.i = getelementptr inbounds nuw i32, ptr %25, i64 %count.i.i
  %count4.i.i = zext i1 %_0.i.i.i to i64
  %_21.i.i49 = getelementptr inbounds nuw i32, ptr %26, i64 %count4.i.i
  %_23.i.i = icmp eq ptr %_18.i.i, %_98
  %_26.i.i = icmp eq ptr %_21.i.i49, %scratch.0
  %or.cond.i.i = select i1 %_23.i.i, i1 true, i1 %_26.i.i
  br i1 %or.cond.i.i, label %bb16.i48, label %bb1.i.i

bb3.i.i:                                          ; preds = %bb5.i45, %bb3.i.i
  %_2511.i.i = phi ptr [ %_25.i.i, %bb3.i.i ], [ %_98, %bb5.i45 ]
  %right.sroa.0.010.i.i = phi ptr [ %_23.i17.i, %bb3.i.i ], [ %v_mid.i, %bb5.i45 ]
  %_2059.i.i = phi ptr [ %_20.i16.i, %bb3.i.i ], [ %scratch.0, %bb5.i45 ]
  tail call void @llvm.experimental.noalias.scope.decl(metadata !709)
  tail call void @llvm.experimental.noalias.scope.decl(metadata !712)
  tail call void @llvm.experimental.noalias.scope.decl(metadata !714)
  tail call void @llvm.experimental.noalias.scope.decl(metadata !717)
  tail call void @llvm.experimental.noalias.scope.decl(metadata !719)
  tail call void @llvm.experimental.noalias.scope.decl(metadata !722)
  %_3.i.i.i.i12.i = load i32, ptr %right.sroa.0.010.i.i, align 4, !alias.scope !724, !noalias !725, !noundef !18
  %_4.i.i.i.i13.i = load i32, ptr %_2059.i.i, align 4, !alias.scope !728, !noalias !729, !noundef !18
  %_0.i.i14.i = icmp slt i32 %_3.i.i.i.i12.i, %_4.i.i.i.i13.i
  %consume_left.i.i = xor i1 %_0.i.i14.i, true
  %29 = tail call i32 @llvm.smin.i32(i32 %_3.i.i.i.i12.i, i32 %_4.i.i.i.i13.i)
  store i32 %29, ptr %_2511.i.i, align 4, !alias.scope !681, !noalias !730
  %count.i15.i = zext i1 %consume_left.i.i to i64
  %_20.i16.i = getelementptr inbounds nuw i32, ptr %_2059.i.i, i64 %count.i15.i
  %count2.i.i = zext i1 %_0.i.i14.i to i64
  %_23.i17.i = getelementptr inbounds nuw i32, ptr %right.sroa.0.010.i.i, i64 %count2.i.i
  %_25.i.i = getelementptr inbounds nuw i8, ptr %_2511.i.i, i64 4
  %_7.i.i = icmp ne ptr %_20.i16.i, %_22.i46
  %_10.i.i47 = icmp ne ptr %_23.i17.i, %v_end.i
  %or.cond.i18.i = select i1 %_7.i.i, i1 %_10.i.i47, i1 false
  br i1 %or.cond.i18.i, label %bb3.i.i, label %bb16.i48

bb16.i48:                                         ; preds = %bb3.i.i, %bb1.i.i
  %merge_state.sroa.13.0.i = phi ptr [ %_18.i.i, %bb1.i.i ], [ %_25.i.i, %bb3.i.i ]
  %merge_state.sroa.7.0.i = phi ptr [ %_21.i.i49, %bb1.i.i ], [ %_22.i46, %bb3.i.i ]
  %merge_state.sroa.0.0.i = phi ptr [ %scratch.0, %bb1.i.i ], [ %_20.i16.i, %bb3.i.i ]
  %30 = ptrtoint ptr %merge_state.sroa.7.0.i to i64
  %31 = ptrtoint ptr %merge_state.sroa.0.0.i to i64
  %32 = sub nuw i64 %30, %31
  tail call void @llvm.memcpy.p0.p0.i64(ptr nonnull align 4 %merge_state.sroa.13.0.i, ptr align 4 %merge_state.sroa.0.0.i, i64 %32, i1 false), !alias.scope !686, !noalias !731
  br label %_ZN4core5slice4sort6stable5merge5merge17hbe7c158758d3f398E.exit

_ZN4core5slice4sort6stable5merge5merge17hbe7c158758d3f398E.exit: ; preds = %bb7.i, %bb2.i, %bb16.i48
  %_39.i = shl nuw nsw i64 %merged_len, 1
  %_38.i = or disjoint i64 %_39.i, 1
  br label %_ZN4core5slice4sort6stable5drift13logical_merge17h43574c7b40e954c0E.exit

bb16.i:                                           ; preds = %bb5.i
  %_37.i = getelementptr inbounds nuw i32, ptr %_98, i64 %_50
  %self.i50 = or i64 %_51, 1
  %33 = tail call range(i64 3, 64) i64 @llvm.ctlz.i64(i64 %self.i50, i1 true)
  %34 = trunc nuw nsw i64 %33 to i32
  %log.i51 = shl nuw nsw i32 %34, 1
  %limit.i52 = xor i32 %log.i51, 126
; call core::slice::sort::stable::quicksort::quicksort
  tail call void @_ZN4core5slice4sort6stable9quicksort9quicksort17h28a6924c1970dcc5E(ptr noalias noundef nonnull align 4 %_37.i, i64 noundef range(i64 0, 2305843009213693952) %_51, ptr noalias noundef nonnull align 4 %scratch.0, i64 noundef range(i64 0, 2305843009213693952) %scratch.1, i32 noundef %limit.i52, ptr noalias noundef readonly align 4 captures(address, read_provenance) dereferenceable_or_null(4) null, ptr noalias noundef nonnull align 8 dereferenceable(8) %is_less) #21
  br label %bb7.i

_ZN4core5slice4sort6stable5drift13logical_merge17h43574c7b40e954c0E.exit: ; preds = %bb9.i, %_ZN4core5slice4sort6stable5merge5merge17hbe7c158758d3f398E.exit
  %_0.sroa.0.0.i = phi i64 [ %_38.i, %_ZN4core5slice4sort6stable5merge5merge17hbe7c158758d3f398E.exit ], [ %_40.i, %bb9.i ]
  %_37 = icmp ugt i64 %count, 1
  br i1 %_37, label %bb12, label %bb17

bb19:                                             ; preds = %bb17
  %35 = add i64 %stack_len.sroa.0.1.lcssa, 1
  %_65 = lshr i64 %next_run.sroa.0.0, 1
  %36 = add nuw i64 %_65, %scan_idx.sroa.0.0
  br label %bb6

bb18:                                             ; preds = %bb17
  %_99 = and i64 %prev_run.sroa.0.1.lcssa, 1
  %_66.not = icmp eq i64 %_99, 0
  br i1 %_66.not, label %bb20, label %bb21

bb20:                                             ; preds = %bb18
  %self.i53 = or i64 %v.1, 1
  %37 = tail call range(i64 3, 64) i64 @llvm.ctlz.i64(i64 %self.i53, i1 true)
  %38 = trunc nuw nsw i64 %37 to i32
  %log.i54 = shl nuw nsw i32 %38, 1
  %limit.i55 = xor i32 %log.i54, 126
; call core::slice::sort::stable::quicksort::quicksort
  tail call void @_ZN4core5slice4sort6stable9quicksort9quicksort17h28a6924c1970dcc5E(ptr noalias noundef nonnull align 4 %v.0, i64 noundef range(i64 0, 2305843009213693952) %v.1, ptr noalias noundef nonnull align 4 %scratch.0, i64 noundef range(i64 0, 2305843009213693952) %scratch.1, i32 noundef %limit.i55, ptr noalias noundef readonly align 4 captures(address, read_provenance) dereferenceable_or_null(4) null, ptr noalias noundef nonnull align 8 dereferenceable(8) %is_less) #21
  br label %bb21

bb21:                                             ; preds = %bb20, %bb18
  call void @llvm.lifetime.end.p0(i64 66, ptr nonnull %desired_depth_storage)
  call void @llvm.lifetime.end.p0(i64 528, ptr nonnull %run_storage)
  br label %bb22

bb22:                                             ; preds = %start, %bb21
  ret void
}

; core::slice::sort::stable::drift::sort
; Function Attrs: nonlazybind uwtable
define internal fastcc void @_ZN4core5slice4sort6stable5drift4sort17h9bbabab016b921ceE(ptr noalias noundef nonnull align 4 %v.0, i64 noundef range(i64 0, 2305843009213693952) %v.1, ptr noalias noundef nonnull align 4 %scratch.0, i64 noundef range(i64 0, 2305843009213693952) %scratch.1, i1 noundef zeroext %eager_sort, ptr noalias noundef nonnull align 1 %is_less) unnamed_addr #1 personality ptr @rust_eh_personality {
start:
  %desired_depth_storage = alloca [66 x i8], align 1
  %run_storage = alloca [528 x i8], align 8
  %_6 = icmp samesign ult i64 %v.1, 2
  br i1 %_6, label %bb22, label %bb2

bb2:                                              ; preds = %start
  %d = udiv i64 4611686018427387904, %v.1
  %r = urem i64 4611686018427387904, %v.1
  %_73.not = icmp ne i64 %r, 0
  %0 = zext i1 %_73.not to i64
  %scale_factor.sroa.0.0 = add nuw nsw i64 %d, %0
  %_9 = icmp samesign ult i64 %v.1, 4097
  br i1 %_9, label %bb3, label %bb4

bb4:                                              ; preds = %bb2
; call core::slice::sort::stable::drift::sqrt_approx
  %1 = tail call noundef i64 @_ZN4core5slice4sort6stable5drift11sqrt_approx17h72a4dc1ae46294f4E(i64 noundef %v.1)
  br label %bb5

bb3:                                              ; preds = %bb2
  %_1135 = lshr i64 %v.1, 1
  %v1 = sub nsw i64 %v.1, %_1135
  %_0.sroa.0.0.i36 = tail call noundef i64 @llvm.umin.i64(i64 %v1, i64 64)
  br label %bb5

bb5:                                              ; preds = %bb3, %bb4
  %min_good_run_len.sroa.0.0 = phi i64 [ %_0.sroa.0.0.i36, %bb3 ], [ %1, %bb4 ]
  call void @llvm.lifetime.start.p0(i64 528, ptr nonnull %run_storage)
  call void @llvm.lifetime.start.p0(i64 66, ptr nonnull %desired_depth_storage)
  %_13.not.i98 = icmp ugt i64 %min_good_run_len.sroa.0.0, 2
  %_13.not.i104 = icmp ugt i64 %min_good_run_len.sroa.0.0, 2
  br label %bb6

bb6:                                              ; preds = %bb19, %bb5
  %prev_run.sroa.0.0 = phi i64 [ 1, %bb5 ], [ %next_run.sroa.0.0, %bb19 ]
  %scan_idx.sroa.0.0 = phi i64 [ 0, %bb5 ], [ %36, %bb19 ]
  %stack_len.sroa.0.0 = phi i64 [ 0, %bb5 ], [ %35, %bb19 ]
  %_22 = icmp ult i64 %scan_idx.sroa.0.0, %v.1
  br i1 %_22, label %bb30, label %bb10

bb10:                                             ; preds = %bb6, %_ZN4core5slice4sort6stable5drift10create_run17h1ffb4f9652f454d7E.exit
  %desired_depth.sroa.0.0 = phi i8 [ %18, %_ZN4core5slice4sort6stable5drift10create_run17h1ffb4f9652f454d7E.exit ], [ 0, %bb6 ]
  %next_run.sroa.0.0 = phi i64 [ %_0.sroa.0.0.i40, %_ZN4core5slice4sort6stable5drift10create_run17h1ffb4f9652f454d7E.exit ], [ 1, %bb6 ]
  %_3783 = icmp ugt i64 %stack_len.sroa.0.0, 1
  br i1 %_3783, label %bb12.lr.ph, label %bb17

bb12.lr.ph:                                       ; preds = %bb10
  %v_end.i = getelementptr inbounds nuw i32, ptr %v.0, i64 %scan_idx.sroa.0.0
  br label %bb12

bb30:                                             ; preds = %bb6
  %new_len = sub nuw nsw i64 %v.1, %scan_idx.sroa.0.0
  %_82 = getelementptr inbounds nuw i32, ptr %v.0, i64 %scan_idx.sroa.0.0
  %_7.not.i = icmp ult i64 %new_len, %min_good_run_len.sroa.0.0
  br i1 %_7.not.i, label %bb7.i41, label %bb1.i

bb7.i41:                                          ; preds = %_ZN4core5slice4sort6shared17find_existing_run17h14e7cf408baab6d9E.exit.i.thread101, %_ZN4core5slice4sort6shared17find_existing_run17h14e7cf408baab6d9E.exit.i.thread, %_ZN4core5slice4sort6shared17find_existing_run17h14e7cf408baab6d9E.exit.i, %bb30
  br i1 %eager_sort, label %bb16.i43, label %bb11.i42

bb1.i:                                            ; preds = %bb30
  %_4.i.i = icmp samesign ult i64 %new_len, 2
  br i1 %_4.i.i, label %bb5.i38, label %bb2.i.i

bb2.i.i:                                          ; preds = %bb1.i
  %_28.i.i = getelementptr inbounds nuw i8, ptr %_82, i64 4
  tail call void @llvm.experimental.noalias.scope.decl(metadata !736)
  tail call void @llvm.experimental.noalias.scope.decl(metadata !739)
  tail call void @llvm.experimental.noalias.scope.decl(metadata !741), !noalias !744
  tail call void @llvm.experimental.noalias.scope.decl(metadata !747), !noalias !744
  %_3.i.i62 = load i32, ptr %_28.i.i, align 4, !alias.scope !749, !noalias !750, !noundef !18
  %_4.i.i63 = load i32, ptr %_82, align 4, !alias.scope !751, !noalias !752, !noundef !18
  %_0.i.i64 = icmp slt i32 %_3.i.i62, %_4.i.i63
  %_10.i.i79.not = icmp eq i64 %new_len, 2
  br i1 %_0.i.i64, label %bb4.i.i.preheader, label %bb11.i.i.preheader

bb11.i.i.preheader:                               ; preds = %bb2.i.i
  br i1 %_10.i.i79.not, label %_ZN4core5slice4sort6shared17find_existing_run17h14e7cf408baab6d9E.exit.i.thread, label %bb12.i.i

bb4.i.i.preheader:                                ; preds = %bb2.i.i
  br i1 %_10.i.i79.not, label %_ZN4core5slice4sort6shared17find_existing_run17h14e7cf408baab6d9E.exit.i.thread101, label %bb5.i.i

bb12.i.i:                                         ; preds = %bb11.i.i.preheader, %bb15.i.i
  %_4.i.i60 = phi i32 [ %_3.i.i59, %bb15.i.i ], [ %_3.i.i62, %bb11.i.i.preheader ]
  %run_len.sroa.0.0.i.i77 = phi i64 [ %3, %bb15.i.i ], [ 2, %bb11.i.i.preheader ]
  %2 = getelementptr inbounds nuw i32, ptr %_82, i64 %run_len.sroa.0.0.i.i77
  %_3.i.i59 = load i32, ptr %2, align 4, !alias.scope !753, !noalias !758, !noundef !18
  %_0.i.i61 = icmp slt i32 %_3.i.i59, %_4.i.i60
  br i1 %_0.i.i61, label %_ZN4core5slice4sort6shared17find_existing_run17h14e7cf408baab6d9E.exit.i, label %bb15.i.i

bb15.i.i:                                         ; preds = %bb12.i.i
  %3 = add nuw i64 %run_len.sroa.0.0.i.i77, 1
  %exitcond.not = icmp eq i64 %3, %new_len
  br i1 %exitcond.not, label %_ZN4core5slice4sort6shared17find_existing_run17h14e7cf408baab6d9E.exit.i, label %bb12.i.i

bb5.i.i:                                          ; preds = %bb4.i.i.preheader, %bb7.i.i
  %_4.i.i58 = phi i32 [ %_3.i.i, %bb7.i.i ], [ %_3.i.i62, %bb4.i.i.preheader ]
  %run_len.sroa.0.1.i.i80 = phi i64 [ %5, %bb7.i.i ], [ 2, %bb4.i.i.preheader ]
  %4 = getelementptr inbounds nuw i32, ptr %_82, i64 %run_len.sroa.0.1.i.i80
  %_3.i.i = load i32, ptr %4, align 4, !alias.scope !761, !noalias !766, !noundef !18
  %_0.i.i = icmp slt i32 %_3.i.i, %_4.i.i58
  br i1 %_0.i.i, label %bb7.i.i, label %_ZN4core5slice4sort6shared17find_existing_run17h14e7cf408baab6d9E.exit.i

bb7.i.i:                                          ; preds = %bb5.i.i
  %5 = add nuw i64 %run_len.sroa.0.1.i.i80, 1
  %exitcond93.not = icmp eq i64 %5, %new_len
  br i1 %exitcond93.not, label %_ZN4core5slice4sort6shared17find_existing_run17h14e7cf408baab6d9E.exit.i, label %bb5.i.i

_ZN4core5slice4sort6shared17find_existing_run17h14e7cf408baab6d9E.exit.i: ; preds = %bb15.i.i, %bb12.i.i, %bb7.i.i, %bb5.i.i
  %_0.sroa.0.0.i.i = phi i64 [ %new_len, %bb7.i.i ], [ %run_len.sroa.0.1.i.i80, %bb5.i.i ], [ %new_len, %bb15.i.i ], [ %run_len.sroa.0.0.i.i77, %bb12.i.i ]
  %_12.i = icmp samesign ule i64 %_0.sroa.0.0.i.i, %new_len
  tail call void @llvm.assume(i1 %_12.i)
  %_13.not.i = icmp ult i64 %_0.sroa.0.0.i.i, %min_good_run_len.sroa.0.0
  br i1 %_13.not.i, label %bb7.i41, label %bb3.i37

_ZN4core5slice4sort6shared17find_existing_run17h14e7cf408baab6d9E.exit.i.thread101: ; preds = %bb4.i.i.preheader
  br i1 %_13.not.i104, label %bb7.i41, label %bb5.preheader.i.i

_ZN4core5slice4sort6shared17find_existing_run17h14e7cf408baab6d9E.exit.i.thread: ; preds = %bb11.i.i.preheader
  br i1 %_13.not.i98, label %bb7.i41, label %bb5.i38

bb3.i37:                                          ; preds = %_ZN4core5slice4sort6shared17find_existing_run17h14e7cf408baab6d9E.exit.i
  br i1 %_0.i.i64, label %bb14.i, label %bb5.i38

bb11.i42:                                         ; preds = %bb7.i41
  %_0.sroa.0.0.i57 = tail call noundef i64 @llvm.umin.i64(i64 range(i64 0, 2305843009213693952) %new_len, i64 %min_good_run_len.sroa.0.0)
  %_36.i = shl nuw nsw i64 %_0.sroa.0.0.i57, 1
  br label %_ZN4core5slice4sort6stable5drift10create_run17h1ffb4f9652f454d7E.exit

bb16.i43:                                         ; preds = %bb7.i41
  %_0.sroa.0.0.i56 = tail call noundef i64 @llvm.umin.i64(i64 range(i64 0, 2305843009213693952) %new_len, i64 32)
; call core::slice::sort::stable::quicksort::quicksort
  tail call void @_ZN4core5slice4sort6stable9quicksort9quicksort17hdfe40f669e50b91dE(ptr noalias noundef nonnull align 4 %_82, i64 noundef %_0.sroa.0.0.i56, ptr noalias noundef nonnull align 4 %scratch.0, i64 noundef range(i64 0, 2305843009213693952) %scratch.1, i32 noundef 0, ptr noalias noundef readonly align 4 captures(address, read_provenance) dereferenceable_or_null(4) null, ptr noalias noundef nonnull align 1 %is_less) #21
  %_35.i = shl nuw nsw i64 %_0.sroa.0.0.i56, 1
  %_34.i = or disjoint i64 %_35.i, 1
  br label %_ZN4core5slice4sort6stable5drift10create_run17h1ffb4f9652f454d7E.exit

bb5.i38:                                          ; preds = %bb6.i.i, %middle.block, %_ZN4core5slice4sort6shared17find_existing_run17h14e7cf408baab6d9E.exit.i.thread, %bb1.i, %bb14.i, %bb3.i37
  %_0.sroa.0.0.i.i7073 = phi i64 [ %_0.sroa.0.0.i.i, %bb3.i37 ], [ 1, %bb14.i ], [ %new_len, %bb1.i ], [ 2, %_ZN4core5slice4sort6shared17find_existing_run17h14e7cf408baab6d9E.exit.i.thread ], [ %_0.sroa.0.0.i.i99107111, %middle.block ], [ %_0.sroa.0.0.i.i99107111, %bb6.i.i ]
  %_27.i = shl nuw nsw i64 %_0.sroa.0.0.i.i7073, 1
  %_26.i = or disjoint i64 %_27.i, 1
  br label %_ZN4core5slice4sort6stable5drift10create_run17h1ffb4f9652f454d7E.exit

bb14.i:                                           ; preds = %bb3.i37
  %half_len2.i = lshr i64 %_0.sroa.0.0.i.i, 1
  tail call void @llvm.experimental.noalias.scope.decl(metadata !769), !noalias !772
  tail call void @llvm.experimental.noalias.scope.decl(metadata !774), !noalias !772
  %_915.not.i.i = icmp samesign ult i64 %_0.sroa.0.0.i.i, 2
  br i1 %_915.not.i.i, label %bb5.i38, label %bb5.preheader.i.i

bb5.preheader.i.i:                                ; preds = %_ZN4core5slice4sort6shared17find_existing_run17h14e7cf408baab6d9E.exit.i.thread101, %bb14.i
  %half_len2.i112 = phi i64 [ %half_len2.i, %bb14.i ], [ 1, %_ZN4core5slice4sort6shared17find_existing_run17h14e7cf408baab6d9E.exit.i.thread101 ]
  %_0.sroa.0.0.i.i99107111 = phi i64 [ %_0.sroa.0.0.i.i, %bb14.i ], [ 2, %_ZN4core5slice4sort6shared17find_existing_run17h14e7cf408baab6d9E.exit.i.thread101 ]
  %end.i = getelementptr inbounds nuw i32, ptr %_82, i64 %_0.sroa.0.0.i.i99107111
  %min.iters.check = icmp samesign ult i64 %half_len2.i112, 8
  br i1 %min.iters.check, label %bb6.i.i.preheader, label %vector.ph

vector.ph:                                        ; preds = %bb5.preheader.i.i
  %n.vec = and i64 %half_len2.i112, 9223372036854775800
  br label %vector.body

vector.body:                                      ; preds = %vector.body, %vector.ph
  %index = phi i64 [ 0, %vector.ph ], [ %index.next, %vector.body ]
  %6 = xor i64 %index, -1
  %7 = getelementptr inbounds nuw i32, ptr %_82, i64 %index
  %8 = getelementptr i32, ptr %end.i, i64 %6
  %9 = getelementptr inbounds nuw i8, ptr %7, i64 16
  %wide.load = load <4 x i32>, ptr %7, align 4, !alias.scope !776, !noalias !779
  %wide.load119 = load <4 x i32>, ptr %9, align 4, !alias.scope !776, !noalias !779
  %10 = getelementptr i8, ptr %8, i64 -12
  %11 = getelementptr i8, ptr %8, i64 -28
  %wide.load120 = load <4 x i32>, ptr %10, align 4, !alias.scope !780, !noalias !781
  %reverse = shufflevector <4 x i32> %wide.load120, <4 x i32> poison, <4 x i32> <i32 3, i32 2, i32 1, i32 0>
  %wide.load121 = load <4 x i32>, ptr %11, align 4, !alias.scope !780, !noalias !781
  %reverse122 = shufflevector <4 x i32> %wide.load121, <4 x i32> poison, <4 x i32> <i32 3, i32 2, i32 1, i32 0>
  store <4 x i32> %reverse, ptr %7, align 4, !alias.scope !776, !noalias !779
  store <4 x i32> %reverse122, ptr %9, align 4, !alias.scope !776, !noalias !779
  %reverse123 = shufflevector <4 x i32> %wide.load, <4 x i32> poison, <4 x i32> <i32 3, i32 2, i32 1, i32 0>
  store <4 x i32> %reverse123, ptr %10, align 4, !alias.scope !780, !noalias !781
  %reverse124 = shufflevector <4 x i32> %wide.load119, <4 x i32> poison, <4 x i32> <i32 3, i32 2, i32 1, i32 0>
  store <4 x i32> %reverse124, ptr %11, align 4, !alias.scope !780, !noalias !781
  %index.next = add nuw i64 %index, 8
  %12 = icmp eq i64 %index.next, %n.vec
  br i1 %12, label %middle.block, label %vector.body, !llvm.loop !782

middle.block:                                     ; preds = %vector.body
  %cmp.n = icmp eq i64 %half_len2.i112, %n.vec
  br i1 %cmp.n, label %bb5.i38, label %bb6.i.i.preheader

bb6.i.i.preheader:                                ; preds = %bb5.preheader.i.i, %middle.block
  %i.sroa.0.016.i.i.ph = phi i64 [ 0, %bb5.preheader.i.i ], [ %n.vec, %middle.block ]
  br label %bb6.i.i

bb6.i.i:                                          ; preds = %bb6.i.i.preheader, %bb6.i.i
  %i.sroa.0.016.i.i = phi i64 [ %16, %bb6.i.i ], [ %i.sroa.0.016.i.i.ph, %bb6.i.i.preheader ]
  %13 = xor i64 %i.sroa.0.016.i.i, -1
  %x.i.i = getelementptr inbounds nuw i32, ptr %_82, i64 %i.sroa.0.016.i.i
  %y.i.i = getelementptr i32, ptr %end.i, i64 %13
  %14 = load i32, ptr %x.i.i, align 4, !alias.scope !776, !noalias !779, !noundef !18
  %15 = load i32, ptr %y.i.i, align 4, !alias.scope !780, !noalias !781
  store i32 %15, ptr %x.i.i, align 4, !alias.scope !776, !noalias !779
  store i32 %14, ptr %y.i.i, align 4, !alias.scope !780, !noalias !781
  %16 = add nuw nsw i64 %i.sroa.0.016.i.i, 1
  %exitcond.not.i.i = icmp eq i64 %16, %half_len2.i112
  br i1 %exitcond.not.i.i, label %bb5.i38, label %bb6.i.i, !llvm.loop !783

_ZN4core5slice4sort6stable5drift10create_run17h1ffb4f9652f454d7E.exit: ; preds = %bb11.i42, %bb16.i43, %bb5.i38
  %_0.sroa.0.0.i40 = phi i64 [ %_26.i, %bb5.i38 ], [ %_34.i, %bb16.i43 ], [ %_36.i, %bb11.i42 ]
  %_31 = lshr i64 %prev_run.sroa.0.0, 1
  %_35 = lshr i64 %_0.sroa.0.0.i40, 1
  %factor = shl i64 %scan_idx.sroa.0.0, 1
  %x = sub i64 %factor, %_31
  %y = add i64 %_35, %factor
  %_90 = mul i64 %x, %scale_factor.sroa.0.0
  %_91 = mul i64 %y, %scale_factor.sroa.0.0
  %self4 = xor i64 %_91, %_90
  %17 = tail call range(i64 0, 65) i64 @llvm.ctlz.i64(i64 %self4, i1 false)
  %18 = trunc nuw nsw i64 %17 to i8
  br label %bb10

bb12:                                             ; preds = %bb12.lr.ph, %_ZN4core5slice4sort6stable5drift13logical_merge17hdb09c970b55ebabbE.exit
  %stack_len.sroa.0.185 = phi i64 [ %stack_len.sroa.0.0, %bb12.lr.ph ], [ %count, %_ZN4core5slice4sort6stable5drift13logical_merge17hdb09c970b55ebabbE.exit ]
  %prev_run.sroa.0.184 = phi i64 [ %prev_run.sroa.0.0, %bb12.lr.ph ], [ %_0.sroa.0.0.i, %_ZN4core5slice4sort6stable5drift13logical_merge17hdb09c970b55ebabbE.exit ]
  %count = add i64 %stack_len.sroa.0.185, -1
  %_41 = getelementptr inbounds nuw i8, ptr %desired_depth_storage, i64 %count
  %_40 = load i8, ptr %_41, align 1, !noundef !18
  %_39.not = icmp ult i8 %_40, %desired_depth.sroa.0.0
  br i1 %_39.not, label %bb17, label %bb13

bb17:                                             ; preds = %_ZN4core5slice4sort6stable5drift13logical_merge17hdb09c970b55ebabbE.exit, %bb12, %bb10
  %prev_run.sroa.0.1.lcssa = phi i64 [ %prev_run.sroa.0.0, %bb10 ], [ %prev_run.sroa.0.184, %bb12 ], [ %_0.sroa.0.0.i, %_ZN4core5slice4sort6stable5drift13logical_merge17hdb09c970b55ebabbE.exit ]
  %stack_len.sroa.0.1.lcssa = phi i64 [ %stack_len.sroa.0.0, %bb10 ], [ %stack_len.sroa.0.185, %bb12 ], [ 1, %_ZN4core5slice4sort6stable5drift13logical_merge17hdb09c970b55ebabbE.exit ]
  %_59 = getelementptr inbounds nuw i64, ptr %run_storage, i64 %stack_len.sroa.0.1.lcssa
  store i64 %prev_run.sroa.0.1.lcssa, ptr %_59, align 8
  %_61 = getelementptr inbounds nuw i8, ptr %desired_depth_storage, i64 %stack_len.sroa.0.1.lcssa
  store i8 %desired_depth.sroa.0.0, ptr %_61, align 1
  br i1 %_22, label %bb19, label %bb18

bb13:                                             ; preds = %bb12
  %_46 = getelementptr inbounds nuw i64, ptr %run_storage, i64 %count
  %left10 = load i64, ptr %_46, align 8, !noundef !18
  %_50 = lshr i64 %left10, 1
  %_51 = lshr i64 %prev_run.sroa.0.184, 1
  %merged_len = add nuw i64 %_50, %_51
  %merge_start_idx = sub i64 %scan_idx.sroa.0.0, %merged_len
  %_98 = getelementptr inbounds nuw i32, ptr %v.0, i64 %merge_start_idx
  %can_fit_in_scratch.i = icmp samesign ugt i64 %merged_len, %scratch.1
  %_22.i = and i64 %prev_run.sroa.0.184, 1
  %_10.not.i = icmp eq i64 %_22.i, 0
  %19 = or i64 %left10, %prev_run.sroa.0.184
  %20 = and i64 %19, 1
  %21 = icmp ne i64 %20, 0
  %or.cond2.i = or i1 %can_fit_in_scratch.i, %21
  br i1 %or.cond2.i, label %bb3.i, label %bb9.i

bb3.i:                                            ; preds = %bb13
  %_21.i = and i64 %left10, 1
  %_9.not.i = icmp eq i64 %_21.i, 0
  br i1 %_9.not.i, label %bb11.i, label %bb5.i

bb9.i:                                            ; preds = %bb13
  %_40.i = shl nuw nsw i64 %merged_len, 1
  br label %_ZN4core5slice4sort6stable5drift13logical_merge17hdb09c970b55ebabbE.exit

bb5.i:                                            ; preds = %bb11.i, %bb3.i
  br i1 %_10.not.i, label %bb16.i, label %bb7.i

bb11.i:                                           ; preds = %bb3.i
  %self.i = or i64 %_50, 1
  %22 = tail call range(i64 3, 64) i64 @llvm.ctlz.i64(i64 %self.i, i1 true)
  %23 = trunc nuw nsw i64 %22 to i32
  %log.i = shl nuw nsw i32 %23, 1
  %limit.i = xor i32 %log.i, 126
; call core::slice::sort::stable::quicksort::quicksort
  tail call void @_ZN4core5slice4sort6stable9quicksort9quicksort17hdfe40f669e50b91dE(ptr noalias noundef nonnull align 4 %_98, i64 noundef range(i64 0, 2305843009213693952) %_50, ptr noalias noundef nonnull align 4 %scratch.0, i64 noundef range(i64 0, 2305843009213693952) %scratch.1, i32 noundef %limit.i, ptr noalias noundef readonly align 4 captures(address, read_provenance) dereferenceable_or_null(4) null, ptr noalias noundef nonnull align 1 %is_less) #21
  br label %bb5.i

bb7.i:                                            ; preds = %bb16.i, %bb5.i
  tail call void @llvm.experimental.noalias.scope.decl(metadata !784)
  tail call void @llvm.experimental.noalias.scope.decl(metadata !787)
  %_6.i = icmp ult i64 %left10, 2
  %_7.i = icmp ult i64 %prev_run.sroa.0.184, 2
  %or.cond.i = select i1 %_6.i, i1 true, i1 %_7.i
  br i1 %or.cond.i, label %_ZN4core5slice4sort6stable5merge5merge17he40d0c9ef9ccdeeaE.exit, label %bb2.i

bb2.i:                                            ; preds = %bb7.i
  %_0.sroa.0.0.i.i44 = tail call i64 @llvm.umin.i64(i64 %_51, i64 range(i64 0, -9223372036854775808) %_50)
  %_8.i = icmp samesign ult i64 %scratch.1, %_0.sroa.0.0.i.i44
  br i1 %_8.i, label %_ZN4core5slice4sort6stable5merge5merge17he40d0c9ef9ccdeeaE.exit, label %bb5.i45

bb5.i45:                                          ; preds = %bb2.i
  %v_mid.i = getelementptr inbounds nuw i32, ptr %_98, i64 %_50
  %left_is_shorter.not.i = icmp samesign ugt i64 %_50, %_51
  %spec.select.i = select i1 %left_is_shorter.not.i, ptr %v_mid.i, ptr %_98
  %24 = shl nuw nsw i64 %_0.sroa.0.0.i.i44, 2
  tail call void @llvm.memcpy.p0.p0.i64(ptr nonnull align 4 %scratch.0, ptr nonnull align 4 %spec.select.i, i64 %24, i1 false), !alias.scope !789
  %_22.i46 = getelementptr inbounds nuw i8, ptr %scratch.0, i64 %24
  br i1 %left_is_shorter.not.i, label %bb1.i.i, label %bb3.i.i

bb1.i.i:                                          ; preds = %bb5.i45, %bb1.i.i
  %_2110.i.i = phi ptr [ %_21.i.i49, %bb1.i.i ], [ %_22.i46, %bb5.i45 ]
  %_188.i.i = phi ptr [ %_18.i.i, %bb1.i.i ], [ %v_mid.i, %bb5.i45 ]
  %out.sroa.0.0.i.i = phi ptr [ %27, %bb1.i.i ], [ %v_end.i, %bb5.i45 ]
  %25 = getelementptr inbounds i8, ptr %_188.i.i, i64 -4
  %26 = getelementptr inbounds i8, ptr %_2110.i.i, i64 -4
  %27 = getelementptr inbounds i8, ptr %out.sroa.0.0.i.i, i64 -4
  tail call void @llvm.experimental.noalias.scope.decl(metadata !790)
  tail call void @llvm.experimental.noalias.scope.decl(metadata !793)
  tail call void @llvm.experimental.noalias.scope.decl(metadata !795)
  tail call void @llvm.experimental.noalias.scope.decl(metadata !798)
  %_3.i.i.i.i = load i32, ptr %26, align 4, !alias.scope !800, !noalias !801, !noundef !18
  %_4.i.i.i.i = load i32, ptr %25, align 4, !alias.scope !804, !noalias !805, !noundef !18
  %_0.i.i.i.i = icmp slt i32 %_3.i.i.i.i, %_4.i.i.i.i
  %28 = tail call i32 @llvm.smax.i32(i32 %_3.i.i.i.i, i32 %_4.i.i.i.i)
  store i32 %28, ptr %27, align 4, !alias.scope !784, !noalias !806
  %_20.i.i = xor i1 %_0.i.i.i.i, true
  %count.i.i = zext i1 %_20.i.i to i64
  %_18.i.i = getelementptr inbounds nuw i32, ptr %25, i64 %count.i.i
  %count4.i.i = zext i1 %_0.i.i.i.i to i64
  %_21.i.i49 = getelementptr inbounds nuw i32, ptr %26, i64 %count4.i.i
  %_23.i.i = icmp eq ptr %_18.i.i, %_98
  %_26.i.i = icmp eq ptr %_21.i.i49, %scratch.0
  %or.cond.i.i = select i1 %_23.i.i, i1 true, i1 %_26.i.i
  br i1 %or.cond.i.i, label %bb16.i48, label %bb1.i.i

bb3.i.i:                                          ; preds = %bb5.i45, %bb3.i.i
  %_2511.i.i = phi ptr [ %_25.i.i, %bb3.i.i ], [ %_98, %bb5.i45 ]
  %right.sroa.0.010.i.i = phi ptr [ %_23.i17.i, %bb3.i.i ], [ %v_mid.i, %bb5.i45 ]
  %_2059.i.i = phi ptr [ %_20.i16.i, %bb3.i.i ], [ %scratch.0, %bb5.i45 ]
  tail call void @llvm.experimental.noalias.scope.decl(metadata !807)
  tail call void @llvm.experimental.noalias.scope.decl(metadata !810)
  tail call void @llvm.experimental.noalias.scope.decl(metadata !812)
  tail call void @llvm.experimental.noalias.scope.decl(metadata !815)
  %_3.i.i.i12.i = load i32, ptr %right.sroa.0.010.i.i, align 4, !alias.scope !817, !noalias !818, !noundef !18
  %_4.i.i.i13.i = load i32, ptr %_2059.i.i, align 4, !alias.scope !821, !noalias !822, !noundef !18
  %_0.i.i.i14.i = icmp slt i32 %_3.i.i.i12.i, %_4.i.i.i13.i
  %consume_left.i.i = xor i1 %_0.i.i.i14.i, true
  %29 = tail call i32 @llvm.smin.i32(i32 %_3.i.i.i12.i, i32 %_4.i.i.i13.i)
  store i32 %29, ptr %_2511.i.i, align 4, !alias.scope !784, !noalias !823
  %count.i15.i = zext i1 %consume_left.i.i to i64
  %_20.i16.i = getelementptr inbounds nuw i32, ptr %_2059.i.i, i64 %count.i15.i
  %count2.i.i = zext i1 %_0.i.i.i14.i to i64
  %_23.i17.i = getelementptr inbounds nuw i32, ptr %right.sroa.0.010.i.i, i64 %count2.i.i
  %_25.i.i = getelementptr inbounds nuw i8, ptr %_2511.i.i, i64 4
  %_7.i.i = icmp ne ptr %_20.i16.i, %_22.i46
  %_10.i.i47 = icmp ne ptr %_23.i17.i, %v_end.i
  %or.cond.i18.i = select i1 %_7.i.i, i1 %_10.i.i47, i1 false
  br i1 %or.cond.i18.i, label %bb3.i.i, label %bb16.i48

bb16.i48:                                         ; preds = %bb3.i.i, %bb1.i.i
  %merge_state.sroa.13.0.i = phi ptr [ %_18.i.i, %bb1.i.i ], [ %_25.i.i, %bb3.i.i ]
  %merge_state.sroa.7.0.i = phi ptr [ %_21.i.i49, %bb1.i.i ], [ %_22.i46, %bb3.i.i ]
  %merge_state.sroa.0.0.i = phi ptr [ %scratch.0, %bb1.i.i ], [ %_20.i16.i, %bb3.i.i ]
  %30 = ptrtoint ptr %merge_state.sroa.7.0.i to i64
  %31 = ptrtoint ptr %merge_state.sroa.0.0.i to i64
  %32 = sub nuw i64 %30, %31
  tail call void @llvm.memcpy.p0.p0.i64(ptr nonnull align 4 %merge_state.sroa.13.0.i, ptr align 4 %merge_state.sroa.0.0.i, i64 %32, i1 false), !alias.scope !789, !noalias !824
  br label %_ZN4core5slice4sort6stable5merge5merge17he40d0c9ef9ccdeeaE.exit

_ZN4core5slice4sort6stable5merge5merge17he40d0c9ef9ccdeeaE.exit: ; preds = %bb7.i, %bb2.i, %bb16.i48
  %_39.i = shl nuw nsw i64 %merged_len, 1
  %_38.i = or disjoint i64 %_39.i, 1
  br label %_ZN4core5slice4sort6stable5drift13logical_merge17hdb09c970b55ebabbE.exit

bb16.i:                                           ; preds = %bb5.i
  %_37.i = getelementptr inbounds nuw i32, ptr %_98, i64 %_50
  %self.i50 = or i64 %_51, 1
  %33 = tail call range(i64 3, 64) i64 @llvm.ctlz.i64(i64 %self.i50, i1 true)
  %34 = trunc nuw nsw i64 %33 to i32
  %log.i51 = shl nuw nsw i32 %34, 1
  %limit.i52 = xor i32 %log.i51, 126
; call core::slice::sort::stable::quicksort::quicksort
  tail call void @_ZN4core5slice4sort6stable9quicksort9quicksort17hdfe40f669e50b91dE(ptr noalias noundef nonnull align 4 %_37.i, i64 noundef range(i64 0, 2305843009213693952) %_51, ptr noalias noundef nonnull align 4 %scratch.0, i64 noundef range(i64 0, 2305843009213693952) %scratch.1, i32 noundef %limit.i52, ptr noalias noundef readonly align 4 captures(address, read_provenance) dereferenceable_or_null(4) null, ptr noalias noundef nonnull align 1 %is_less) #21
  br label %bb7.i

_ZN4core5slice4sort6stable5drift13logical_merge17hdb09c970b55ebabbE.exit: ; preds = %bb9.i, %_ZN4core5slice4sort6stable5merge5merge17he40d0c9ef9ccdeeaE.exit
  %_0.sroa.0.0.i = phi i64 [ %_38.i, %_ZN4core5slice4sort6stable5merge5merge17he40d0c9ef9ccdeeaE.exit ], [ %_40.i, %bb9.i ]
  %_37 = icmp ugt i64 %count, 1
  br i1 %_37, label %bb12, label %bb17

bb19:                                             ; preds = %bb17
  %35 = add i64 %stack_len.sroa.0.1.lcssa, 1
  %_65 = lshr i64 %next_run.sroa.0.0, 1
  %36 = add nuw i64 %_65, %scan_idx.sroa.0.0
  br label %bb6

bb18:                                             ; preds = %bb17
  %_99 = and i64 %prev_run.sroa.0.1.lcssa, 1
  %_66.not = icmp eq i64 %_99, 0
  br i1 %_66.not, label %bb20, label %bb21

bb20:                                             ; preds = %bb18
  %self.i53 = or i64 %v.1, 1
  %37 = tail call range(i64 3, 64) i64 @llvm.ctlz.i64(i64 %self.i53, i1 true)
  %38 = trunc nuw nsw i64 %37 to i32
  %log.i54 = shl nuw nsw i32 %38, 1
  %limit.i55 = xor i32 %log.i54, 126
; call core::slice::sort::stable::quicksort::quicksort
  tail call void @_ZN4core5slice4sort6stable9quicksort9quicksort17hdfe40f669e50b91dE(ptr noalias noundef nonnull align 4 %v.0, i64 noundef range(i64 0, 2305843009213693952) %v.1, ptr noalias noundef nonnull align 4 %scratch.0, i64 noundef range(i64 0, 2305843009213693952) %scratch.1, i32 noundef %limit.i55, ptr noalias noundef readonly align 4 captures(address, read_provenance) dereferenceable_or_null(4) null, ptr noalias noundef nonnull align 1 %is_less) #21
  br label %bb21

bb21:                                             ; preds = %bb20, %bb18
  call void @llvm.lifetime.end.p0(i64 66, ptr nonnull %desired_depth_storage)
  call void @llvm.lifetime.end.p0(i64 528, ptr nonnull %run_storage)
  br label %bb22

bb22:                                             ; preds = %start, %bb21
  ret void
}

; core::slice::sort::stable::quicksort::quicksort
; Function Attrs: noinline nonlazybind uwtable
define void @_ZN4core5slice4sort6stable9quicksort9quicksort17h28a6924c1970dcc5E(ptr noalias noundef nonnull align 4 %0, i64 noundef range(i64 0, 2305843009213693952) %1, ptr noalias noundef nonnull align 4 %scratch.0, i64 noundef range(i64 0, 2305843009213693952) %scratch.1, i32 noundef %2, ptr noalias noundef readonly align 4 captures(address) dereferenceable_or_null(4) %3, ptr noalias noundef align 8 dereferenceable(8) %is_less) unnamed_addr #2 personality ptr @rust_eh_personality {
start:
  %pivot_copy = alloca [4 x i8], align 4
  %_8130136 = icmp samesign ult i64 %1, 33
  br i1 %_8130136, label %bb3, label %bb5.lr.ph

bb5.lr.ph:                                        ; preds = %start, %bb28
  %v.sroa.0.0.ph140 = phi ptr [ %_54, %bb28 ], [ %0, %start ]
  %v.sroa.16.0.ph139 = phi i64 [ %_63.i63, %bb28 ], [ %1, %start ]
  %limit.sroa.0.0.ph138 = phi i32 [ %48, %bb28 ], [ %2, %start ]
  %left_ancestor_pivot.sroa.0.0.ph137 = phi ptr [ null, %bb28 ], [ %3, %start ]
  %4 = ptrtoint ptr %v.sroa.0.0.ph140 to i64
  %.not = icmp eq ptr %left_ancestor_pivot.sroa.0.0.ph137, null
  br label %bb5

bb5:                                              ; preds = %bb5.lr.ph, %"_ZN4core5slice29_$LT$impl$u20$$u5b$T$u5d$$GT$12split_at_mut17hbf97a915e50deb38E.exit"
  %v.sroa.16.0132 = phi i64 [ %v.sroa.16.0.ph139, %bb5.lr.ph ], [ %state.sroa.27.2.lcssa.i, %"_ZN4core5slice29_$LT$impl$u20$$u5b$T$u5d$$GT$12split_at_mut17hbf97a915e50deb38E.exit" ]
  %limit.sroa.0.0131 = phi i32 [ %limit.sroa.0.0.ph138, %bb5.lr.ph ], [ %48, %"_ZN4core5slice29_$LT$impl$u20$$u5b$T$u5d$$GT$12split_at_mut17hbf97a915e50deb38E.exit" ]
  %_11 = icmp eq i32 %limit.sroa.0.0131, 0
  br i1 %_11, label %bb6, label %bb7

bb3:                                              ; preds = %bb28, %"_ZN4core5slice29_$LT$impl$u20$$u5b$T$u5d$$GT$12split_at_mut17hbf97a915e50deb38E.exit", %start
  %v.sroa.0.0.ph.lcssa129 = phi ptr [ %0, %start ], [ %v.sroa.0.0.ph140, %"_ZN4core5slice29_$LT$impl$u20$$u5b$T$u5d$$GT$12split_at_mut17hbf97a915e50deb38E.exit" ], [ %_54, %bb28 ]
  %v.sroa.16.0.lcssa = phi i64 [ %1, %start ], [ %state.sroa.27.2.lcssa.i, %"_ZN4core5slice29_$LT$impl$u20$$u5b$T$u5d$$GT$12split_at_mut17hbf97a915e50deb38E.exit" ], [ %_63.i63, %bb28 ]
  call void @llvm.experimental.noalias.scope.decl(metadata !829)
  call void @llvm.experimental.noalias.scope.decl(metadata !832)
  %_5.i = icmp samesign ult i64 %v.sroa.16.0.lcssa, 2
  br i1 %_5.i, label %bb22, label %bb2.i

bb2.i:                                            ; preds = %bb3
  %_8.i = add nuw nsw i64 %v.sroa.16.0.lcssa, 16
  %_6.i = icmp samesign ult i64 %scratch.1, %_8.i
  br i1 %_6.i, label %bb3.i, label %bb4.i

bb4.i:                                            ; preds = %bb2.i
  %len_div_211.i = lshr i64 %v.sroa.16.0.lcssa, 1
  %_14.i = icmp samesign ugt i64 %v.sroa.16.0.lcssa, 15
  br i1 %_14.i, label %bb6.i, label %bb9.i

bb3.i:                                            ; preds = %bb2.i
  call void @llvm.trap()
  unreachable

bb9.i:                                            ; preds = %bb4.i
  %_22.i = icmp samesign ugt i64 %v.sroa.16.0.lcssa, 7
  br i1 %_22.i, label %bb10.i, label %bb46.i

bb6.i:                                            ; preds = %bb4.i
  %_16.i = getelementptr inbounds nuw i32, ptr %scratch.0, i64 %v.sroa.16.0.lcssa
; call core::slice::sort::shared::smallsort::sort8_stable
  call fastcc void @_ZN4core5slice4sort6shared9smallsort12sort8_stable17haafea798d6deaf56E(ptr noundef nonnull align 4 %v.sroa.0.0.ph.lcssa129, ptr noundef nonnull align 4 %scratch.0, ptr noundef %_16.i)
  %_18.i = getelementptr inbounds nuw i32, ptr %v.sroa.0.0.ph.lcssa129, i64 %len_div_211.i
  %_19.i = getelementptr inbounds nuw i32, ptr %scratch.0, i64 %len_div_211.i
  %_20.i = getelementptr inbounds nuw i8, ptr %_16.i, i64 32
; call core::slice::sort::shared::smallsort::sort8_stable
  call fastcc void @_ZN4core5slice4sort6shared9smallsort12sort8_stable17haafea798d6deaf56E(ptr noundef %_18.i, ptr noundef %_19.i, ptr noundef %_20.i)
  br label %bb15.i

bb10.i:                                           ; preds = %bb9.i
  %_7.i.i = getelementptr inbounds nuw i8, ptr %v.sroa.0.0.ph.lcssa129, i64 4
  call void @llvm.experimental.noalias.scope.decl(metadata !834)
  call void @llvm.experimental.noalias.scope.decl(metadata !837)
  call void @llvm.experimental.noalias.scope.decl(metadata !839)
  call void @llvm.experimental.noalias.scope.decl(metadata !842)
  call void @llvm.experimental.noalias.scope.decl(metadata !844)
  call void @llvm.experimental.noalias.scope.decl(metadata !847)
  %_3.i.i.i.i.i = load i32, ptr %_7.i.i, align 4, !alias.scope !849, !noalias !850, !noundef !18
  %_4.i.i.i.i.i = load i32, ptr %v.sroa.0.0.ph.lcssa129, align 4, !alias.scope !852, !noalias !853, !noundef !18
  %_0.i.i.i = icmp slt i32 %_3.i.i.i.i.i, %_4.i.i.i.i.i
  %_12.i.i = getelementptr inbounds nuw i8, ptr %v.sroa.0.0.ph.lcssa129, i64 12
  %_14.i.i = getelementptr inbounds nuw i8, ptr %v.sroa.0.0.ph.lcssa129, i64 8
  call void @llvm.experimental.noalias.scope.decl(metadata !854)
  call void @llvm.experimental.noalias.scope.decl(metadata !857)
  call void @llvm.experimental.noalias.scope.decl(metadata !859)
  call void @llvm.experimental.noalias.scope.decl(metadata !862)
  call void @llvm.experimental.noalias.scope.decl(metadata !864)
  call void @llvm.experimental.noalias.scope.decl(metadata !867)
  %_3.i.i.i7.i.i = load i32, ptr %_12.i.i, align 4, !alias.scope !869, !noalias !870, !noundef !18
  %_4.i.i.i8.i.i = load i32, ptr %_14.i.i, align 4, !alias.scope !871, !noalias !872, !noundef !18
  %_0.i9.i.i = icmp slt i32 %_3.i.i.i7.i.i, %_4.i.i.i8.i.i
  %count.i.i = zext i1 %_0.i.i.i to i64
  %a.i.i = getelementptr inbounds nuw i32, ptr %v.sroa.0.0.ph.lcssa129, i64 %count.i.i
  %_19.i.i = xor i1 %_0.i.i.i, true
  %count2.i.i = zext i1 %_19.i.i to i64
  %b.i.i = getelementptr inbounds nuw i32, ptr %v.sroa.0.0.ph.lcssa129, i64 %count2.i.i
  %count3.i.i = select i1 %_0.i9.i.i, i64 3, i64 2
  %c.i.i = getelementptr inbounds nuw i32, ptr %v.sroa.0.0.ph.lcssa129, i64 %count3.i.i
  %count4.i.i = select i1 %_0.i9.i.i, i64 2, i64 3
  %d.i.i = getelementptr inbounds nuw i32, ptr %v.sroa.0.0.ph.lcssa129, i64 %count4.i.i
  call void @llvm.experimental.noalias.scope.decl(metadata !873)
  call void @llvm.experimental.noalias.scope.decl(metadata !876)
  call void @llvm.experimental.noalias.scope.decl(metadata !878)
  call void @llvm.experimental.noalias.scope.decl(metadata !881)
  call void @llvm.experimental.noalias.scope.decl(metadata !883)
  call void @llvm.experimental.noalias.scope.decl(metadata !886)
  %_3.i.i.i10.i.i = load i32, ptr %c.i.i, align 4, !alias.scope !888, !noalias !889, !noundef !18
  %_4.i.i.i11.i.i = load i32, ptr %a.i.i, align 4, !alias.scope !890, !noalias !891, !noundef !18
  %_0.i12.i.i = icmp slt i32 %_3.i.i.i10.i.i, %_4.i.i.i11.i.i
  call void @llvm.experimental.noalias.scope.decl(metadata !892)
  call void @llvm.experimental.noalias.scope.decl(metadata !895)
  call void @llvm.experimental.noalias.scope.decl(metadata !897)
  call void @llvm.experimental.noalias.scope.decl(metadata !900)
  call void @llvm.experimental.noalias.scope.decl(metadata !902)
  call void @llvm.experimental.noalias.scope.decl(metadata !905)
  %_3.i.i.i13.i.i = load i32, ptr %d.i.i, align 4, !alias.scope !907, !noalias !908, !noundef !18
  %_4.i.i.i14.i.i = load i32, ptr %b.i.i, align 4, !alias.scope !909, !noalias !910, !noundef !18
  %_0.i15.i.i = icmp slt i32 %_3.i.i.i13.i.i, %_4.i.i.i14.i.i
  %5 = call i32 @llvm.smin.i32(i32 %_3.i.i.i10.i.i, i32 %_4.i.i.i11.i.i)
  %6 = select i1 %_0.i15.i.i, ptr %c.i.i, ptr %b.i.i, !unpredictable !18
  %7 = select i1 %_0.i12.i.i, ptr %a.i.i, ptr %6, !unpredictable !18
  %8 = select i1 %_0.i12.i.i, ptr %b.i.i, ptr %c.i.i, !unpredictable !18
  %9 = select i1 %_0.i15.i.i, ptr %d.i.i, ptr %8, !unpredictable !18
  call void @llvm.experimental.noalias.scope.decl(metadata !911)
  call void @llvm.experimental.noalias.scope.decl(metadata !914)
  call void @llvm.experimental.noalias.scope.decl(metadata !916)
  call void @llvm.experimental.noalias.scope.decl(metadata !919)
  call void @llvm.experimental.noalias.scope.decl(metadata !921)
  call void @llvm.experimental.noalias.scope.decl(metadata !924)
  %_3.i.i.i16.i.i = load i32, ptr %9, align 4, !alias.scope !926, !noalias !927, !noundef !18
  %_4.i.i.i17.i.i = load i32, ptr %7, align 4, !alias.scope !928, !noalias !929, !noundef !18
  store i32 %5, ptr %scratch.0, align 4, !alias.scope !832, !noalias !930
  %dst5.i.i = getelementptr inbounds nuw i8, ptr %scratch.0, i64 4
  %10 = call i32 @llvm.smin.i32(i32 %_3.i.i.i16.i.i, i32 %_4.i.i.i17.i.i)
  store i32 %10, ptr %dst5.i.i, align 4, !alias.scope !832, !noalias !930
  %dst6.i.i = getelementptr inbounds nuw i8, ptr %scratch.0, i64 8
  %11 = call i32 @llvm.smax.i32(i32 %_3.i.i.i16.i.i, i32 %_4.i.i.i17.i.i)
  store i32 %11, ptr %dst6.i.i, align 4, !alias.scope !832, !noalias !930
  %12 = getelementptr inbounds nuw i8, ptr %scratch.0, i64 12
  %13 = call i32 @llvm.smax.i32(i32 %_3.i.i.i13.i.i, i32 %_4.i.i.i14.i.i)
  store i32 %13, ptr %12, align 4, !alias.scope !832, !noalias !930
  %_27.i = getelementptr inbounds nuw i32, ptr %v.sroa.0.0.ph.lcssa129, i64 %len_div_211.i
  %_28.i = getelementptr inbounds nuw i32, ptr %scratch.0, i64 %len_div_211.i
  %_7.i13.i = getelementptr inbounds nuw i8, ptr %_27.i, i64 4
  call void @llvm.experimental.noalias.scope.decl(metadata !931)
  call void @llvm.experimental.noalias.scope.decl(metadata !934)
  call void @llvm.experimental.noalias.scope.decl(metadata !936)
  call void @llvm.experimental.noalias.scope.decl(metadata !939)
  call void @llvm.experimental.noalias.scope.decl(metadata !941)
  call void @llvm.experimental.noalias.scope.decl(metadata !944)
  %_3.i.i.i.i14.i = load i32, ptr %_7.i13.i, align 4, !alias.scope !946, !noalias !947, !noundef !18
  %_4.i.i.i.i15.i = load i32, ptr %_27.i, align 4, !alias.scope !948, !noalias !949, !noundef !18
  %_0.i.i16.i = icmp slt i32 %_3.i.i.i.i14.i, %_4.i.i.i.i15.i
  %_12.i17.i = getelementptr inbounds nuw i8, ptr %_27.i, i64 12
  %_14.i18.i = getelementptr inbounds nuw i8, ptr %_27.i, i64 8
  call void @llvm.experimental.noalias.scope.decl(metadata !950)
  call void @llvm.experimental.noalias.scope.decl(metadata !953)
  call void @llvm.experimental.noalias.scope.decl(metadata !955)
  call void @llvm.experimental.noalias.scope.decl(metadata !958)
  call void @llvm.experimental.noalias.scope.decl(metadata !960)
  call void @llvm.experimental.noalias.scope.decl(metadata !963)
  %_3.i.i.i7.i19.i = load i32, ptr %_12.i17.i, align 4, !alias.scope !965, !noalias !966, !noundef !18
  %_4.i.i.i8.i20.i = load i32, ptr %_14.i18.i, align 4, !alias.scope !967, !noalias !968, !noundef !18
  %_0.i9.i21.i = icmp slt i32 %_3.i.i.i7.i19.i, %_4.i.i.i8.i20.i
  %count.i22.i = zext i1 %_0.i.i16.i to i64
  %a.i23.i = getelementptr inbounds nuw i32, ptr %_27.i, i64 %count.i22.i
  %_19.i24.i = xor i1 %_0.i.i16.i, true
  %count2.i25.i = zext i1 %_19.i24.i to i64
  %b.i26.i = getelementptr inbounds nuw i32, ptr %_27.i, i64 %count2.i25.i
  %count3.i27.i = select i1 %_0.i9.i21.i, i64 3, i64 2
  %c.i28.i = getelementptr inbounds nuw i32, ptr %_27.i, i64 %count3.i27.i
  %count4.i29.i = select i1 %_0.i9.i21.i, i64 2, i64 3
  %d.i30.i = getelementptr inbounds nuw i32, ptr %_27.i, i64 %count4.i29.i
  call void @llvm.experimental.noalias.scope.decl(metadata !969)
  call void @llvm.experimental.noalias.scope.decl(metadata !972)
  call void @llvm.experimental.noalias.scope.decl(metadata !974)
  call void @llvm.experimental.noalias.scope.decl(metadata !977)
  call void @llvm.experimental.noalias.scope.decl(metadata !979)
  call void @llvm.experimental.noalias.scope.decl(metadata !982)
  %_3.i.i.i10.i31.i = load i32, ptr %c.i28.i, align 4, !alias.scope !984, !noalias !985, !noundef !18
  %_4.i.i.i11.i32.i = load i32, ptr %a.i23.i, align 4, !alias.scope !986, !noalias !987, !noundef !18
  %_0.i12.i33.i = icmp slt i32 %_3.i.i.i10.i31.i, %_4.i.i.i11.i32.i
  call void @llvm.experimental.noalias.scope.decl(metadata !988)
  call void @llvm.experimental.noalias.scope.decl(metadata !991)
  call void @llvm.experimental.noalias.scope.decl(metadata !993)
  call void @llvm.experimental.noalias.scope.decl(metadata !996)
  call void @llvm.experimental.noalias.scope.decl(metadata !998)
  call void @llvm.experimental.noalias.scope.decl(metadata !1001)
  %_3.i.i.i13.i34.i = load i32, ptr %d.i30.i, align 4, !alias.scope !1003, !noalias !1004, !noundef !18
  %_4.i.i.i14.i35.i = load i32, ptr %b.i26.i, align 4, !alias.scope !1005, !noalias !1006, !noundef !18
  %_0.i15.i36.i = icmp slt i32 %_3.i.i.i13.i34.i, %_4.i.i.i14.i35.i
  %14 = call i32 @llvm.smin.i32(i32 %_3.i.i.i10.i31.i, i32 %_4.i.i.i11.i32.i)
  %15 = select i1 %_0.i15.i36.i, ptr %c.i28.i, ptr %b.i26.i, !unpredictable !18
  %16 = select i1 %_0.i12.i33.i, ptr %a.i23.i, ptr %15, !unpredictable !18
  %17 = select i1 %_0.i12.i33.i, ptr %b.i26.i, ptr %c.i28.i, !unpredictable !18
  %18 = select i1 %_0.i15.i36.i, ptr %d.i30.i, ptr %17, !unpredictable !18
  call void @llvm.experimental.noalias.scope.decl(metadata !1007)
  call void @llvm.experimental.noalias.scope.decl(metadata !1010)
  call void @llvm.experimental.noalias.scope.decl(metadata !1012)
  call void @llvm.experimental.noalias.scope.decl(metadata !1015)
  call void @llvm.experimental.noalias.scope.decl(metadata !1017)
  call void @llvm.experimental.noalias.scope.decl(metadata !1020)
  %_3.i.i.i16.i37.i = load i32, ptr %18, align 4, !alias.scope !1022, !noalias !1023, !noundef !18
  %_4.i.i.i17.i38.i = load i32, ptr %16, align 4, !alias.scope !1024, !noalias !1025, !noundef !18
  store i32 %14, ptr %_28.i, align 4, !alias.scope !832, !noalias !930
  %dst5.i40.i = getelementptr inbounds nuw i8, ptr %_28.i, i64 4
  %19 = call i32 @llvm.smin.i32(i32 %_3.i.i.i16.i37.i, i32 %_4.i.i.i17.i38.i)
  store i32 %19, ptr %dst5.i40.i, align 4, !alias.scope !832, !noalias !930
  %dst6.i43.i = getelementptr inbounds nuw i8, ptr %_28.i, i64 8
  %20 = call i32 @llvm.smax.i32(i32 %_3.i.i.i16.i37.i, i32 %_4.i.i.i17.i38.i)
  store i32 %20, ptr %dst6.i43.i, align 4, !alias.scope !832, !noalias !930
  %21 = getelementptr inbounds nuw i8, ptr %_28.i, i64 12
  %22 = call i32 @llvm.smax.i32(i32 %_3.i.i.i13.i34.i, i32 %_4.i.i.i14.i35.i)
  store i32 %22, ptr %21, align 4, !alias.scope !832, !noalias !930
  br label %bb15.i

bb46.i:                                           ; preds = %bb9.i
  %23 = load i32, ptr %v.sroa.0.0.ph.lcssa129, align 4, !alias.scope !829, !noalias !1026
  store i32 %23, ptr %scratch.0, align 4, !alias.scope !832, !noalias !930
  %_31.i = getelementptr inbounds nuw i32, ptr %v.sroa.0.0.ph.lcssa129, i64 %len_div_211.i
  %24 = getelementptr inbounds nuw i32, ptr %scratch.0, i64 %len_div_211.i
  %25 = load i32, ptr %_31.i, align 4, !alias.scope !829, !noalias !1026
  store i32 %25, ptr %24, align 4, !alias.scope !832, !noalias !930
  br label %bb15.i

bb15.i:                                           ; preds = %bb46.i, %bb10.i, %bb6.i
  %presorted_len.sroa.0.0.i = phi i64 [ 8, %bb6.i ], [ 4, %bb10.i ], [ 1, %bb46.i ]
  %26 = sub nsw i64 %v.sroa.16.0.lcssa, %len_div_211.i
  %_8061.i = icmp samesign ult i64 %presorted_len.sroa.0.0.i, %len_div_211.i
  br i1 %_8061.i, label %bb24.preheader.i, label %bb16.loopexit.i

bb16.loopexit.i:                                  ; preds = %_ZN4core5slice4sort6shared9smallsort11insert_tail17hdaaefc793253765bE.exit.i, %bb15.i
  %src5.1.i = getelementptr inbounds nuw i32, ptr %v.sroa.0.0.ph.lcssa129, i64 %len_div_211.i
  %dst6.1.i = getelementptr i32, ptr %scratch.0, i64 %len_div_211.i
  %_8061.1.i = icmp ult i64 %presorted_len.sroa.0.0.i, %26
  br i1 %_8061.1.i, label %bb24.preheader.1.i, label %bb16.loopexit.1.i

bb24.preheader.1.i:                               ; preds = %bb16.loopexit.i
  %iter1.sroa.0.163.1.i = add nuw nsw i64 %presorted_len.sroa.0.0.i, 1
  br label %bb24.1.i

bb24.1.i:                                         ; preds = %_ZN4core5slice4sort6shared9smallsort11insert_tail17hdaaefc793253765bE.exit.1.i, %bb24.preheader.1.i
  %iter1.sroa.0.165.1.i = phi i64 [ %iter1.sroa.0.1.1.i, %_ZN4core5slice4sort6shared9smallsort11insert_tail17hdaaefc793253765bE.exit.1.i ], [ %iter1.sroa.0.163.1.i, %bb24.preheader.1.i ]
  %iter1.sroa.0.064.1.i = phi i64 [ %iter1.sroa.0.165.1.i, %_ZN4core5slice4sort6shared9smallsort11insert_tail17hdaaefc793253765bE.exit.1.i ], [ %presorted_len.sroa.0.0.i, %bb24.preheader.1.i ]
  %_55.1.i = getelementptr inbounds nuw i32, ptr %src5.1.i, i64 %iter1.sroa.0.064.1.i
  %dst7.1.i = getelementptr inbounds nuw i32, ptr %dst6.1.i, i64 %iter1.sroa.0.064.1.i
  %27 = load i32, ptr %_55.1.i, align 4, !alias.scope !829, !noalias !1026
  store i32 %27, ptr %dst7.1.i, align 4, !alias.scope !832, !noalias !930
  %28 = getelementptr inbounds i8, ptr %dst7.1.i, i64 -4
  %_4.i.i.i.i55.1.i = load i32, ptr %28, align 4, !alias.scope !1027, !noalias !1034, !noundef !18
  %_0.i.i56.1.i = icmp slt i32 %27, %_4.i.i.i.i55.1.i
  br i1 %_0.i.i56.1.i, label %bb4.i.1.i, label %_ZN4core5slice4sort6shared9smallsort11insert_tail17hdaaefc793253765bE.exit.1.i

bb4.i.1.i:                                        ; preds = %bb24.1.i, %bb7.i.1.i
  %29 = phi i32 [ %_4.i.i.i2.i.1.i, %bb7.i.1.i ], [ %_4.i.i.i.i55.1.i, %bb24.1.i ]
  %gap_guard.sroa.5.0.i.1.i = phi ptr [ %sift.sroa.0.0.i.1.i, %bb7.i.1.i ], [ %dst7.1.i, %bb24.1.i ]
  %sift.sroa.0.0.i.1.i = phi ptr [ %30, %bb7.i.1.i ], [ %28, %bb24.1.i ]
  store i32 %29, ptr %gap_guard.sroa.5.0.i.1.i, align 4, !alias.scope !832, !noalias !930
  %_18.i.1.i = icmp eq ptr %sift.sroa.0.0.i.1.i, %dst6.1.i
  br i1 %_18.i.1.i, label %bb10.i.1.i, label %bb7.i.1.i

bb7.i.1.i:                                        ; preds = %bb4.i.1.i
  %30 = getelementptr inbounds i8, ptr %sift.sroa.0.0.i.1.i, i64 -4
  %_4.i.i.i2.i.1.i = load i32, ptr %30, align 4, !alias.scope !1038, !noalias !1045, !noundef !18
  %_0.i3.i.1.i = icmp slt i32 %27, %_4.i.i.i2.i.1.i
  br i1 %_0.i3.i.1.i, label %bb4.i.1.i, label %bb10.i.1.i

bb10.i.1.i:                                       ; preds = %bb7.i.1.i, %bb4.i.1.i
  %sift.sroa.0.0.i.lcssa.1.i = phi ptr [ %sift.sroa.0.0.i.1.i, %bb7.i.1.i ], [ %dst6.1.i, %bb4.i.1.i ]
  store i32 %27, ptr %sift.sroa.0.0.i.lcssa.1.i, align 4, !alias.scope !832, !noalias !1049
  br label %_ZN4core5slice4sort6shared9smallsort11insert_tail17hdaaefc793253765bE.exit.1.i

_ZN4core5slice4sort6shared9smallsort11insert_tail17hdaaefc793253765bE.exit.1.i: ; preds = %bb10.i.1.i, %bb24.1.i
  %_80.1.i = icmp ult i64 %iter1.sroa.0.165.1.i, %26
  %_84.1.i = zext i1 %_80.1.i to i64
  %iter1.sroa.0.1.1.i = add nuw i64 %iter1.sroa.0.165.1.i, %_84.1.i
  br i1 %_80.1.i, label %bb24.1.i, label %bb16.loopexit.1.i

bb16.loopexit.1.i:                                ; preds = %_ZN4core5slice4sort6shared9smallsort11insert_tail17hdaaefc793253765bE.exit.1.i, %bb16.loopexit.i
  call void @llvm.experimental.noalias.scope.decl(metadata !1054)
  %count1.i.i = add nsw i64 %v.sroa.16.0.lcssa, -1
  %31 = getelementptr inbounds nuw i32, ptr %v.sroa.0.0.ph.lcssa129, i64 %count1.i.i
  %32 = getelementptr inbounds nuw i32, ptr %scratch.0, i64 %count1.i.i
  %33 = getelementptr i8, ptr %dst6.1.i, i64 -4
  br label %bb15.i.i

bb24.preheader.i:                                 ; preds = %bb15.i
  %iter1.sroa.0.163.i = add nuw nsw i64 %presorted_len.sroa.0.0.i, 1
  br label %bb24.i

bb16.i.i:                                         ; preds = %bb15.i.i
  %34 = getelementptr i8, ptr %39, i64 4
  %35 = getelementptr i8, ptr %38, i64 4
  %_44.i.i = and i64 %v.sroa.16.0.lcssa, 1
  %_22.i.i = icmp eq i64 %_44.i.i, 0
  br i1 %_22.i.i, label %bb9.i.i, label %bb5.i.i

bb15.i.i:                                         ; preds = %bb15.i.i, %bb16.loopexit.1.i
  %dst.sroa.0.029.i.i = phi ptr [ %_16.i.i.i, %bb15.i.i ], [ %v.sroa.0.0.ph.lcssa129, %bb16.loopexit.1.i ]
  %iter.sroa.0.028.i.i = phi i64 [ %_39.i.i, %bb15.i.i ], [ 0, %bb16.loopexit.1.i ]
  %left.sroa.0.027.i.i = phi ptr [ %_14.i.i.i, %bb15.i.i ], [ %scratch.0, %bb16.loopexit.1.i ]
  %right.sroa.0.026.i.i = phi ptr [ %_12.i.i.i, %bb15.i.i ], [ %dst6.1.i, %bb16.loopexit.1.i ]
  %left_rev.sroa.0.025.i.i = phi ptr [ %39, %bb15.i.i ], [ %33, %bb16.loopexit.1.i ]
  %right_rev.sroa.0.024.i.i = phi ptr [ %38, %bb15.i.i ], [ %32, %bb16.loopexit.1.i ]
  %dst_rev.sroa.0.023.i.i = phi ptr [ %40, %bb15.i.i ], [ %31, %bb16.loopexit.1.i ]
  %_39.i.i = add nuw nsw i64 %iter.sroa.0.028.i.i, 1
  call void @llvm.experimental.noalias.scope.decl(metadata !1057)
  call void @llvm.experimental.noalias.scope.decl(metadata !1060)
  call void @llvm.experimental.noalias.scope.decl(metadata !1062), !noalias !1065
  call void @llvm.experimental.noalias.scope.decl(metadata !1068), !noalias !1065
  call void @llvm.experimental.noalias.scope.decl(metadata !1070), !noalias !1065
  call void @llvm.experimental.noalias.scope.decl(metadata !1073), !noalias !1065
  %_3.i.i.i.i48.i = load i32, ptr %right.sroa.0.026.i.i, align 4, !alias.scope !1075, !noalias !1076, !noundef !18
  %_4.i.i.i.i49.i = load i32, ptr %left.sroa.0.027.i.i, align 4, !alias.scope !1077, !noalias !1078, !noundef !18
  %_0.i.i50.i = icmp slt i32 %_3.i.i.i.i48.i, %_4.i.i.i.i49.i
  %is_l.i18.i.i = xor i1 %_0.i.i50.i, true
  %36 = call i32 @llvm.smin.i32(i32 %_3.i.i.i.i48.i, i32 %_4.i.i.i.i49.i)
  store i32 %36, ptr %dst.sroa.0.029.i.i, align 4, !alias.scope !829, !noalias !1079
  %count.i.i.i = zext i1 %_0.i.i50.i to i64
  %_12.i.i.i = getelementptr inbounds nuw i32, ptr %right.sroa.0.026.i.i, i64 %count.i.i.i
  %count2.i.i.i = zext i1 %is_l.i18.i.i to i64
  %_14.i.i.i = getelementptr inbounds nuw i32, ptr %left.sroa.0.027.i.i, i64 %count2.i.i.i
  %_16.i.i.i = getelementptr inbounds nuw i8, ptr %dst.sroa.0.029.i.i, i64 4
  call void @llvm.experimental.noalias.scope.decl(metadata !1081)
  call void @llvm.experimental.noalias.scope.decl(metadata !1084)
  call void @llvm.experimental.noalias.scope.decl(metadata !1086), !noalias !1089
  call void @llvm.experimental.noalias.scope.decl(metadata !1092), !noalias !1089
  call void @llvm.experimental.noalias.scope.decl(metadata !1094), !noalias !1089
  call void @llvm.experimental.noalias.scope.decl(metadata !1097), !noalias !1089
  %_3.i.i.i19.i.i = load i32, ptr %right_rev.sroa.0.024.i.i, align 4, !alias.scope !1099, !noalias !1100, !noundef !18
  %_4.i.i.i20.i.i = load i32, ptr %left_rev.sroa.0.025.i.i, align 4, !alias.scope !1101, !noalias !1102, !noundef !18
  %_0.i21.i.i = icmp slt i32 %_3.i.i.i19.i.i, %_4.i.i.i20.i.i
  %is_l.i.i.i = xor i1 %_0.i21.i.i, true
  %37 = call i32 @llvm.smax.i32(i32 %_3.i.i.i19.i.i, i32 %_4.i.i.i20.i.i)
  store i32 %37, ptr %dst_rev.sroa.0.023.i.i, align 4, !alias.scope !829, !noalias !1103
  %count.neg.i.i.i = sext i1 %is_l.i.i.i to i64
  %38 = getelementptr i32, ptr %right_rev.sroa.0.024.i.i, i64 %count.neg.i.i.i
  %count3.neg.i.i.i = sext i1 %_0.i21.i.i to i64
  %39 = getelementptr i32, ptr %left_rev.sroa.0.025.i.i, i64 %count3.neg.i.i.i
  %40 = getelementptr inbounds i8, ptr %dst_rev.sroa.0.023.i.i, i64 -4
  %exitcond.not.i.i = icmp eq i64 %_39.i.i, %len_div_211.i
  br i1 %exitcond.not.i.i, label %bb16.i.i, label %bb15.i.i

bb5.i.i:                                          ; preds = %bb16.i.i
  %left_nonempty.i.i = icmp ult ptr %_14.i.i.i, %34
  %left.sroa.0.0.right.sroa.0.0.i.i = select i1 %left_nonempty.i.i, ptr %_14.i.i.i, ptr %_12.i.i.i
  %41 = load i32, ptr %left.sroa.0.0.right.sroa.0.0.i.i, align 4, !alias.scope !1105, !noalias !930
  store i32 %41, ptr %_16.i.i.i, align 4, !alias.scope !829, !noalias !1106
  %count2.i51.i = zext i1 %left_nonempty.i.i to i64
  %_26.i.i = getelementptr inbounds nuw i32, ptr %_14.i.i.i, i64 %count2.i51.i
  %_30.i.i = xor i1 %left_nonempty.i.i, true
  %count3.i52.i = zext i1 %_30.i.i to i64
  %_28.i.i = getelementptr inbounds nuw i32, ptr %_12.i.i.i, i64 %count3.i52.i
  br label %bb9.i.i

bb9.i.i:                                          ; preds = %bb5.i.i, %bb16.i.i
  %right.sroa.0.1.i.i = phi ptr [ %_12.i.i.i, %bb16.i.i ], [ %_28.i.i, %bb5.i.i ]
  %left.sroa.0.1.i.i = phi ptr [ %_14.i.i.i, %bb16.i.i ], [ %_26.i.i, %bb5.i.i ]
  %_31.i.i = icmp ne ptr %left.sroa.0.1.i.i, %34
  %_32.i.i = icmp ne ptr %right.sroa.0.1.i.i, %35
  %or.cond.i.i = select i1 %_31.i.i, i1 true, i1 %_32.i.i
  br i1 %or.cond.i.i, label %bb13.i.i, label %bb22, !prof !271

bb13.i.i:                                         ; preds = %bb9.i.i
; invoke core::slice::sort::shared::smallsort::panic_on_ord_violation
  invoke void @_ZN4core5slice4sort6shared9smallsort22panic_on_ord_violation17hc77a22a2d50782cdE() #18
          to label %.noexc.i unwind label %cleanup2.i, !noalias !1107

.noexc.i:                                         ; preds = %bb13.i.i
  unreachable

cleanup2.i:                                       ; preds = %bb13.i.i
  %42 = landingpad { ptr, i32 }
          cleanup
  %43 = shl nuw nsw i64 %v.sroa.16.0.lcssa, 2
  call void @llvm.memcpy.p0.p0.i64(ptr nonnull align 4 %v.sroa.0.0.ph.lcssa129, ptr nonnull align 4 %scratch.0, i64 %43, i1 false), !alias.scope !1108, !noalias !1109
  resume { ptr, i32 } %42

bb24.i:                                           ; preds = %_ZN4core5slice4sort6shared9smallsort11insert_tail17hdaaefc793253765bE.exit.i, %bb24.preheader.i
  %iter1.sroa.0.165.i = phi i64 [ %iter1.sroa.0.1.i, %_ZN4core5slice4sort6shared9smallsort11insert_tail17hdaaefc793253765bE.exit.i ], [ %iter1.sroa.0.163.i, %bb24.preheader.i ]
  %iter1.sroa.0.064.i = phi i64 [ %iter1.sroa.0.165.i, %_ZN4core5slice4sort6shared9smallsort11insert_tail17hdaaefc793253765bE.exit.i ], [ %presorted_len.sroa.0.0.i, %bb24.preheader.i ]
  %_55.i = getelementptr inbounds nuw i32, ptr %v.sroa.0.0.ph.lcssa129, i64 %iter1.sroa.0.064.i
  %dst7.i = getelementptr inbounds nuw i32, ptr %scratch.0, i64 %iter1.sroa.0.064.i
  %44 = load i32, ptr %_55.i, align 4, !alias.scope !829, !noalias !1026
  store i32 %44, ptr %dst7.i, align 4, !alias.scope !832, !noalias !930
  %45 = getelementptr inbounds i8, ptr %dst7.i, i64 -4
  %_4.i.i.i.i55.i = load i32, ptr %45, align 4, !alias.scope !1027, !noalias !1034, !noundef !18
  %_0.i.i56.i = icmp slt i32 %44, %_4.i.i.i.i55.i
  br i1 %_0.i.i56.i, label %bb4.i.i, label %_ZN4core5slice4sort6shared9smallsort11insert_tail17hdaaefc793253765bE.exit.i

bb4.i.i:                                          ; preds = %bb24.i, %bb7.i.i
  %46 = phi i32 [ %_4.i.i.i2.i.i, %bb7.i.i ], [ %_4.i.i.i.i55.i, %bb24.i ]
  %gap_guard.sroa.5.0.i.i = phi ptr [ %sift.sroa.0.0.i.i, %bb7.i.i ], [ %dst7.i, %bb24.i ]
  %sift.sroa.0.0.i.i = phi ptr [ %47, %bb7.i.i ], [ %45, %bb24.i ]
  store i32 %46, ptr %gap_guard.sroa.5.0.i.i, align 4, !alias.scope !832, !noalias !930
  %_18.i.i = icmp eq ptr %sift.sroa.0.0.i.i, %scratch.0
  br i1 %_18.i.i, label %bb10.i.i, label %bb7.i.i

bb7.i.i:                                          ; preds = %bb4.i.i
  %47 = getelementptr inbounds i8, ptr %sift.sroa.0.0.i.i, i64 -4
  %_4.i.i.i2.i.i = load i32, ptr %47, align 4, !alias.scope !1038, !noalias !1045, !noundef !18
  %_0.i3.i.i = icmp slt i32 %44, %_4.i.i.i2.i.i
  br i1 %_0.i3.i.i, label %bb4.i.i, label %bb10.i.i

bb10.i.i:                                         ; preds = %bb7.i.i, %bb4.i.i
  %sift.sroa.0.0.i.lcssa.i = phi ptr [ %sift.sroa.0.0.i.i, %bb7.i.i ], [ %scratch.0, %bb4.i.i ]
  store i32 %44, ptr %sift.sroa.0.0.i.lcssa.i, align 4, !alias.scope !832, !noalias !1049
  br label %_ZN4core5slice4sort6shared9smallsort11insert_tail17hdaaefc793253765bE.exit.i

_ZN4core5slice4sort6shared9smallsort11insert_tail17hdaaefc793253765bE.exit.i: ; preds = %bb10.i.i, %bb24.i
  %_80.i = icmp ult i64 %iter1.sroa.0.165.i, %len_div_211.i
  %_84.i = zext i1 %_80.i to i64
  %iter1.sroa.0.1.i = add nuw i64 %iter1.sroa.0.165.i, %_84.i
  br i1 %_80.i, label %bb24.i, label %bb16.loopexit.i

bb7:                                              ; preds = %bb5
  %48 = add i32 %limit.sroa.0.0131, -1
  %len_div_84.i = lshr i64 %v.sroa.16.0132, 3
  %b.idx.i = shl nuw nsw i64 %len_div_84.i, 4
  %b.i = getelementptr inbounds nuw i8, ptr %v.sroa.0.0.ph140, i64 %b.idx.i
  %c.idx.i = mul nuw nsw i64 %len_div_84.i, 28
  %c.i = getelementptr inbounds nuw i8, ptr %v.sroa.0.0.ph140, i64 %c.idx.i
  %_12.i = icmp samesign ult i64 %v.sroa.16.0132, 64
  br i1 %_12.i, label %bb3.i23, label %bb5.i

bb5.i:                                            ; preds = %bb7
; call core::slice::sort::shared::pivot::median3_rec
  %self.i = call fastcc noundef ptr @_ZN4core5slice4sort6shared5pivot11median3_rec17he8309b6b95ecb367E(ptr noundef nonnull readonly align 4 %v.sroa.0.0.ph140, ptr noundef readonly %b.i, ptr noundef readonly %c.i, i64 noundef %len_div_84.i)
  br label %bb10

bb3.i23:                                          ; preds = %bb7
  call void @llvm.experimental.noalias.scope.decl(metadata !1114)
  call void @llvm.experimental.noalias.scope.decl(metadata !1117)
  call void @llvm.experimental.noalias.scope.decl(metadata !1119), !noalias !1122
  call void @llvm.experimental.noalias.scope.decl(metadata !1125), !noalias !1122
  call void @llvm.experimental.noalias.scope.decl(metadata !1127), !noalias !1122
  call void @llvm.experimental.noalias.scope.decl(metadata !1130), !noalias !1122
  %_3.i.i.i.i = load i32, ptr %v.sroa.0.0.ph140, align 4, !alias.scope !1132, !noalias !1135, !noundef !18
  %_4.i.i.i.i = load i32, ptr %b.i, align 4, !alias.scope !1137, !noalias !1138, !noundef !18
  %_0.i.i = icmp slt i32 %_3.i.i.i.i, %_4.i.i.i.i
  %_4.i.i.i6.i = load i32, ptr %c.i, align 4, !alias.scope !1139, !noalias !1146, !noundef !18
  %_0.i7.i = icmp slt i32 %_3.i.i.i.i, %_4.i.i.i6.i
  %49 = xor i1 %_0.i.i, %_0.i7.i
  %_0.i10.i = icmp slt i32 %_4.i.i.i.i, %_4.i.i.i6.i
  %_12.i.i24 = xor i1 %_0.i.i, %_0.i10.i
  %c.b.i.i = select i1 %_12.i.i24, ptr %c.i, ptr %b.i
  %_0.sroa.0.0.i.i = select i1 %49, ptr %v.sroa.0.0.ph140, ptr %c.b.i.i
  br label %bb10

bb6:                                              ; preds = %bb5
; call core::slice::sort::stable::drift::sort
  call fastcc void @_ZN4core5slice4sort6stable5drift4sort17h8641a010d099af4fE(ptr noalias noundef nonnull align 4 %v.sroa.0.0.ph140, i64 noundef %v.sroa.16.0132, ptr noalias noundef nonnull align 4 %scratch.0, i64 noundef %scratch.1, i1 noundef zeroext true, ptr noalias noundef align 8 dereferenceable(8) %is_less)
  br label %bb22

bb10:                                             ; preds = %bb3.i23, %bb5.i
  %_0.sroa.0.0.i.sink.i = phi ptr [ %_0.sroa.0.0.i.i, %bb3.i23 ], [ %self.i, %bb5.i ]
  %50 = ptrtoint ptr %_0.sroa.0.0.i.sink.i to i64
  %51 = sub nuw i64 %50, %4
  %index.sroa.0.0.i = lshr exact i64 %51, 2
  %cond.i = icmp samesign ult i64 %index.sroa.0.0.i, %v.sroa.16.0132
  call void @llvm.assume(i1 %cond.i)
  call void @llvm.lifetime.start.p0(i64 4, ptr nonnull %pivot_copy)
  %src = getelementptr inbounds nuw i8, ptr %v.sroa.0.0.ph140, i64 %51
  %value = load i32, ptr %src, align 4, !noundef !18
  store i32 %value, ptr %pivot_copy, align 4
  br i1 %.not, label %bb14, label %bb12

bb12:                                             ; preds = %bb10
  %_3.i.i.i = load i32, ptr %left_ancestor_pivot.sroa.0.0.ph137, align 4, !alias.scope !1150, !noalias !1157, !noundef !18
  %_0.i = icmp slt i32 %_3.i.i.i, %value
  br i1 %_0.i, label %bb14, label %bb17

bb14:                                             ; preds = %bb10, %bb12
  call void @llvm.experimental.noalias.scope.decl(metadata !1161)
  call void @llvm.experimental.noalias.scope.decl(metadata !1164)
  %_8.i25.not = icmp samesign ult i64 %scratch.1, %v.sroa.16.0132
  br i1 %_8.i25.not, label %bb31.i, label %bb33.i, !prof !271

bb33.i:                                           ; preds = %bb14
  %_86.i = getelementptr i32, ptr %scratch.0, i64 %v.sroa.16.0132
  br label %bb3.i26

bb31.i:                                           ; preds = %bb14
  call void @llvm.trap()
  unreachable

bb3.i26:                                          ; preds = %bb23.i, %bb33.i
  %state.sroa.27.0.i = phi i64 [ 0, %bb33.i ], [ %state.sroa.27.2.lcssa.i, %bb23.i ]
  %state.sroa.9.0.i = phi ptr [ %v.sroa.0.0.ph140, %bb33.i ], [ %_9.i70.i, %bb23.i ]
  %state.sroa.43.0.i = phi ptr [ %_86.i, %bb33.i ], [ %63, %bb23.i ]
  %pivot_pos.sroa.0.0.i = phi i64 [ %index.sroa.0.0.i, %bb33.i ], [ %v.sroa.16.0132, %bb23.i ]
  %52 = call i64 @llvm.usub.sat.i64(i64 %pivot_pos.sroa.0.0.i, i64 3)
  %unroll_end.i = getelementptr inbounds nuw i32, ptr %v.sroa.0.0.ph140, i64 %52
  %_1984.i = icmp ult ptr %state.sroa.9.0.i, %unroll_end.i
  br i1 %_1984.i, label %bb6.i28.preheader, label %bb16.i

bb6.i28.preheader:                                ; preds = %bb3.i26
  %_4.i.i.i.i30 = load i32, ptr %src, align 4, !alias.scope !1166, !noalias !1173, !noundef !18
  br label %bb6.i28

bb6.i28:                                          ; preds = %bb6.i28.preheader, %bb6.i28
  %state.sroa.43.187.i = phi ptr [ %59, %bb6.i28 ], [ %state.sroa.43.0.i, %bb6.i28.preheader ]
  %state.sroa.9.186.i = phi ptr [ %_9.i54.i, %bb6.i28 ], [ %state.sroa.9.0.i, %bb6.i28.preheader ]
  %state.sroa.27.185.i = phi i64 [ %60, %bb6.i28 ], [ %state.sroa.27.0.i, %bb6.i28.preheader ]
  call void @llvm.experimental.noalias.scope.decl(metadata !1177)
  call void @llvm.experimental.noalias.scope.decl(metadata !1178)
  call void @llvm.experimental.noalias.scope.decl(metadata !1179)
  call void @llvm.experimental.noalias.scope.decl(metadata !1180)
  call void @llvm.experimental.noalias.scope.decl(metadata !1181)
  call void @llvm.experimental.noalias.scope.decl(metadata !1182)
  %_3.i.i.i.i29 = load i32, ptr %state.sroa.9.186.i, align 4, !alias.scope !1183, !noalias !1184, !noundef !18
  %_0.i.i31 = icmp slt i32 %_3.i.i.i.i29, %_4.i.i.i.i30
  %53 = getelementptr inbounds i8, ptr %state.sroa.43.187.i, i64 -4
  %dst_base.sroa.0.0.i.i = select i1 %_0.i.i31, ptr %scratch.0, ptr %53
  %dst.i.i = getelementptr inbounds nuw i32, ptr %dst_base.sroa.0.0.i.i, i64 %state.sroa.27.185.i
  store i32 %_3.i.i.i.i29, ptr %dst.i.i, align 4, !alias.scope !1164, !noalias !1185
  %_8.i.i = zext i1 %_0.i.i31 to i64
  %54 = add i64 %state.sroa.27.185.i, %_8.i.i
  %_9.i.i = getelementptr inbounds nuw i8, ptr %state.sroa.9.186.i, i64 4
  %_3.i.i.i25.i = load i32, ptr %_9.i.i, align 4, !alias.scope !1188, !noalias !1195, !noundef !18
  %_0.i27.i = icmp slt i32 %_3.i.i.i25.i, %_4.i.i.i.i30
  %55 = getelementptr inbounds i8, ptr %state.sroa.43.187.i, i64 -8
  %dst_base.sroa.0.0.i29.i = select i1 %_0.i27.i, ptr %scratch.0, ptr %55
  %dst.i31.i = getelementptr inbounds nuw i32, ptr %dst_base.sroa.0.0.i29.i, i64 %54
  store i32 %_3.i.i.i25.i, ptr %dst.i31.i, align 4, !alias.scope !1164, !noalias !1199
  %_8.i33.i = zext i1 %_0.i27.i to i64
  %56 = add i64 %54, %_8.i33.i
  %_9.i34.i = getelementptr inbounds nuw i8, ptr %state.sroa.9.186.i, i64 8
  %_3.i.i.i35.i = load i32, ptr %_9.i34.i, align 4, !alias.scope !1202, !noalias !1209, !noundef !18
  %_0.i37.i = icmp slt i32 %_3.i.i.i35.i, %_4.i.i.i.i30
  %57 = getelementptr inbounds i8, ptr %state.sroa.43.187.i, i64 -12
  %dst_base.sroa.0.0.i39.i = select i1 %_0.i37.i, ptr %scratch.0, ptr %57
  %dst.i41.i = getelementptr inbounds nuw i32, ptr %dst_base.sroa.0.0.i39.i, i64 %56
  store i32 %_3.i.i.i35.i, ptr %dst.i41.i, align 4, !alias.scope !1164, !noalias !1213
  %_8.i43.i = zext i1 %_0.i37.i to i64
  %58 = add i64 %56, %_8.i43.i
  %_9.i44.i = getelementptr inbounds nuw i8, ptr %state.sroa.9.186.i, i64 12
  %_3.i.i.i45.i = load i32, ptr %_9.i44.i, align 4, !alias.scope !1216, !noalias !1223, !noundef !18
  %_0.i47.i = icmp slt i32 %_3.i.i.i45.i, %_4.i.i.i.i30
  %59 = getelementptr inbounds i8, ptr %state.sroa.43.187.i, i64 -16
  %dst_base.sroa.0.0.i49.i = select i1 %_0.i47.i, ptr %scratch.0, ptr %59
  %dst.i51.i = getelementptr inbounds nuw i32, ptr %dst_base.sroa.0.0.i49.i, i64 %58
  store i32 %_3.i.i.i45.i, ptr %dst.i51.i, align 4, !alias.scope !1164, !noalias !1227
  %_8.i53.i = zext i1 %_0.i47.i to i64
  %60 = add i64 %58, %_8.i53.i
  %_9.i54.i = getelementptr inbounds nuw i8, ptr %state.sroa.9.186.i, i64 16
  %_19.i32 = icmp ult ptr %_9.i54.i, %unroll_end.i
  br i1 %_19.i32, label %bb6.i28, label %bb16.i

bb16.i:                                           ; preds = %bb6.i28, %bb3.i26
  %state.sroa.27.1.lcssa.i = phi i64 [ %state.sroa.27.0.i, %bb3.i26 ], [ %60, %bb6.i28 ]
  %state.sroa.9.1.lcssa.i = phi ptr [ %state.sroa.9.0.i, %bb3.i26 ], [ %_9.i54.i, %bb6.i28 ]
  %state.sroa.43.1.lcssa.i = phi ptr [ %state.sroa.43.0.i, %bb3.i26 ], [ %59, %bb6.i28 ]
  %loop_end.i = getelementptr inbounds nuw i32, ptr %v.sroa.0.0.ph140, i64 %pivot_pos.sroa.0.0.i
  %_4790.i = icmp ult ptr %state.sroa.9.1.lcssa.i, %loop_end.i
  br i1 %_4790.i, label %bb18.i.preheader, label %bb21.i

bb18.i.preheader:                                 ; preds = %bb16.i
  %_4.i.i.i56.i = load i32, ptr %src, align 4, !alias.scope !1230, !noalias !1237, !noundef !18
  br label %bb18.i

bb21.i:                                           ; preds = %bb18.i, %bb16.i
  %state.sroa.27.2.lcssa.i = phi i64 [ %state.sroa.27.1.lcssa.i, %bb16.i ], [ %62, %bb18.i ]
  %state.sroa.9.2.lcssa.i = phi ptr [ %state.sroa.9.1.lcssa.i, %bb16.i ], [ %_9.i64.i, %bb18.i ]
  %state.sroa.43.2.lcssa.i = phi ptr [ %state.sroa.43.1.lcssa.i, %bb16.i ], [ %61, %bb18.i ]
  %_55.i27 = icmp eq i64 %pivot_pos.sroa.0.0.i, %v.sroa.16.0132
  br i1 %_55.i27, label %bb22.i, label %bb23.i

bb18.i:                                           ; preds = %bb18.i.preheader, %bb18.i
  %state.sroa.43.293.i = phi ptr [ %61, %bb18.i ], [ %state.sroa.43.1.lcssa.i, %bb18.i.preheader ]
  %state.sroa.9.292.i = phi ptr [ %_9.i64.i, %bb18.i ], [ %state.sroa.9.1.lcssa.i, %bb18.i.preheader ]
  %state.sroa.27.291.i = phi i64 [ %62, %bb18.i ], [ %state.sroa.27.1.lcssa.i, %bb18.i.preheader ]
  call void @llvm.experimental.noalias.scope.decl(metadata !1241)
  call void @llvm.experimental.noalias.scope.decl(metadata !1242)
  call void @llvm.experimental.noalias.scope.decl(metadata !1243)
  call void @llvm.experimental.noalias.scope.decl(metadata !1244)
  call void @llvm.experimental.noalias.scope.decl(metadata !1245)
  call void @llvm.experimental.noalias.scope.decl(metadata !1246)
  %_3.i.i.i55.i = load i32, ptr %state.sroa.9.292.i, align 4, !alias.scope !1247, !noalias !1248, !noundef !18
  %_0.i57.i = icmp slt i32 %_3.i.i.i55.i, %_4.i.i.i56.i
  %61 = getelementptr inbounds i8, ptr %state.sroa.43.293.i, i64 -4
  %dst_base.sroa.0.0.i59.i = select i1 %_0.i57.i, ptr %scratch.0, ptr %61
  %dst.i61.i = getelementptr inbounds nuw i32, ptr %dst_base.sroa.0.0.i59.i, i64 %state.sroa.27.291.i
  store i32 %_3.i.i.i55.i, ptr %dst.i61.i, align 4, !alias.scope !1164, !noalias !1249
  %_8.i63.i = zext i1 %_0.i57.i to i64
  %62 = add i64 %state.sroa.27.291.i, %_8.i63.i
  %_9.i64.i = getelementptr inbounds nuw i8, ptr %state.sroa.9.292.i, i64 4
  %_47.i = icmp ult ptr %_9.i64.i, %loop_end.i
  br i1 %_47.i, label %bb18.i, label %bb21.i

bb23.i:                                           ; preds = %bb21.i
  %63 = getelementptr inbounds i8, ptr %state.sroa.43.2.lcssa.i, i64 -4
  %dst.i68.i = getelementptr inbounds nuw i32, ptr %63, i64 %state.sroa.27.2.lcssa.i
  %64 = load i32, ptr %state.sroa.9.2.lcssa.i, align 4, !alias.scope !1161, !noalias !1252
  store i32 %64, ptr %dst.i68.i, align 4, !alias.scope !1164, !noalias !1255
  %_9.i70.i = getelementptr inbounds nuw i8, ptr %state.sroa.9.2.lcssa.i, i64 4
  br label %bb3.i26

bb22.i:                                           ; preds = %bb21.i
  %65 = shl i64 %state.sroa.27.2.lcssa.i, 2
  call void @llvm.memcpy.p0.p0.i64(ptr nonnull align 4 %v.sroa.0.0.ph140, ptr nonnull align 4 %scratch.0, i64 %65, i1 false), !alias.scope !1256
  %_63.i = sub i64 %v.sroa.16.0132, %state.sroa.27.2.lcssa.i
  %_9797.not.i = icmp eq i64 %v.sroa.16.0132, %state.sroa.27.2.lcssa.i
  br i1 %_9797.not.i, label %bb16, label %bb42.lr.ph.i

bb42.lr.ph.i:                                     ; preds = %bb22.i
  %66 = getelementptr i32, ptr %v.sroa.0.0.ph140, i64 %state.sroa.27.2.lcssa.i
  %min.iters.check265 = icmp ult i64 %_63.i, 8
  br i1 %min.iters.check265, label %bb42.i.preheader, label %vector.ph266

vector.ph266:                                     ; preds = %bb42.lr.ph.i
  %n.vec268 = and i64 %_63.i, -8
  br label %vector.body269

vector.body269:                                   ; preds = %vector.body269, %vector.ph266
  %index270 = phi i64 [ 0, %vector.ph266 ], [ %index.next275, %vector.body269 ]
  %67 = getelementptr i32, ptr %66, i64 %index270
  %68 = xor i64 %index270, -1
  %69 = getelementptr i32, ptr %_86.i, i64 %68
  %70 = getelementptr i8, ptr %69, i64 -12
  %71 = getelementptr i8, ptr %69, i64 -28
  %wide.load271 = load <4 x i32>, ptr %70, align 4, !alias.scope !1164, !noalias !1161
  %reverse272 = shufflevector <4 x i32> %wide.load271, <4 x i32> poison, <4 x i32> <i32 3, i32 2, i32 1, i32 0>
  %wide.load273 = load <4 x i32>, ptr %71, align 4, !alias.scope !1164, !noalias !1161
  %reverse274 = shufflevector <4 x i32> %wide.load273, <4 x i32> poison, <4 x i32> <i32 3, i32 2, i32 1, i32 0>
  %72 = getelementptr i8, ptr %67, i64 16
  store <4 x i32> %reverse272, ptr %67, align 4, !alias.scope !1161, !noalias !1164
  store <4 x i32> %reverse274, ptr %72, align 4, !alias.scope !1161, !noalias !1164
  %index.next275 = add nuw i64 %index270, 8
  %73 = icmp eq i64 %index.next275, %n.vec268
  br i1 %73, label %middle.block276, label %vector.body269, !llvm.loop !1257

middle.block276:                                  ; preds = %vector.body269
  %cmp.n277 = icmp eq i64 %_63.i, %n.vec268
  br i1 %cmp.n277, label %bb16, label %bb42.i.preheader

bb42.i.preheader:                                 ; preds = %bb42.lr.ph.i, %middle.block276
  %iter.sroa.0.098.i.ph = phi i64 [ 0, %bb42.lr.ph.i ], [ %n.vec268, %middle.block276 ]
  br label %bb42.i

bb42.i:                                           ; preds = %bb42.i.preheader, %bb42.i
  %iter.sroa.0.098.i = phi i64 [ %74, %bb42.i ], [ %iter.sroa.0.098.i.ph, %bb42.i.preheader ]
  %74 = add nuw i64 %iter.sroa.0.098.i, 1
  %75 = getelementptr i32, ptr %66, i64 %iter.sroa.0.098.i
  %76 = xor i64 %iter.sroa.0.098.i, -1
  %77 = getelementptr i32, ptr %_86.i, i64 %76
  %78 = load i32, ptr %77, align 4, !alias.scope !1164, !noalias !1161
  store i32 %78, ptr %75, align 4, !alias.scope !1161, !noalias !1164
  %exitcond.not.i = icmp eq i64 %74, %_63.i
  br i1 %exitcond.not.i, label %bb16, label %bb42.i, !llvm.loop !1258

bb16:                                             ; preds = %bb42.i, %middle.block276, %bb22.i
  %79 = icmp eq i64 %state.sroa.27.2.lcssa.i, 0
  br i1 %79, label %bb17, label %bb19

bb19:                                             ; preds = %bb16
  %_6.not.i = icmp ugt i64 %state.sroa.27.2.lcssa.i, %v.sroa.16.0132
  br i1 %_6.not.i, label %bb3.i33, label %"_ZN4core5slice29_$LT$impl$u20$$u5b$T$u5d$$GT$12split_at_mut17hbf97a915e50deb38E.exit", !prof !1259

bb3.i33:                                          ; preds = %bb19
; call core::panicking::panic_fmt
  call void @_ZN4core9panicking9panic_fmt17ha4414e4328fe24a0E(ptr noundef nonnull @alloc_d1084648e479974e70c9329824bf76f9, ptr noundef nonnull inttoptr (i64 19 to ptr), ptr noalias noundef nonnull readonly align 8 captures(address, read_provenance) dereferenceable(24) @alloc_58d434a1e795f965ef82c8e9c5db822a) #18, !noalias !1260
  unreachable

"_ZN4core5slice29_$LT$impl$u20$$u5b$T$u5d$$GT$12split_at_mut17hbf97a915e50deb38E.exit": ; preds = %bb19
  %80 = getelementptr inbounds nuw i32, ptr %v.sroa.0.0.ph140, i64 %state.sroa.27.2.lcssa.i
; call core::slice::sort::stable::quicksort::quicksort
  call void @_ZN4core5slice4sort6stable9quicksort9quicksort17h28a6924c1970dcc5E(ptr noalias noundef nonnull align 4 %80, i64 noundef %_63.i, ptr noalias noundef nonnull align 4 %scratch.0, i64 noundef %scratch.1, i32 noundef %48, ptr noalias noundef nonnull readonly align 4 captures(address, read_provenance) dereferenceable_or_null(4) %pivot_copy, ptr noalias noundef nonnull align 8 dereferenceable(8) %is_less) #21
  call void @llvm.lifetime.end.p0(i64 4, ptr nonnull %pivot_copy)
  %_8 = icmp ult i64 %state.sroa.27.2.lcssa.i, 33
  br i1 %_8, label %bb3, label %bb5

bb17:                                             ; preds = %bb12, %bb16
  call void @llvm.experimental.noalias.scope.decl(metadata !1264)
  call void @llvm.experimental.noalias.scope.decl(metadata !1267)
  %_8.i34.not = icmp samesign ult i64 %scratch.1, %v.sroa.16.0132
  br i1 %_8.i34.not, label %bb31.i37, label %bb33.i38, !prof !271

bb33.i38:                                         ; preds = %bb17
  %_86.i40 = getelementptr i32, ptr %scratch.0, i64 %v.sroa.16.0132
  br label %bb3.i41

bb31.i37:                                         ; preds = %bb17
  call void @llvm.trap()
  unreachable

bb3.i41:                                          ; preds = %bb23.i59, %bb33.i38
  %state.sroa.27.0.i42 = phi i64 [ 0, %bb33.i38 ], [ %94, %bb23.i59 ]
  %state.sroa.9.0.i43 = phi ptr [ %v.sroa.0.0.ph140, %bb33.i38 ], [ %_9.i70.i61, %bb23.i59 ]
  %state.sroa.43.0.i44 = phi ptr [ %_86.i40, %bb33.i38 ], [ %92, %bb23.i59 ]
  %pivot_pos.sroa.0.0.i45 = phi i64 [ %index.sroa.0.0.i, %bb33.i38 ], [ %v.sroa.16.0132, %bb23.i59 ]
  %81 = call i64 @llvm.usub.sat.i64(i64 %pivot_pos.sroa.0.0.i45, i64 3)
  %unroll_end.i46 = getelementptr inbounds nuw i32, ptr %v.sroa.0.0.ph140, i64 %81
  %_1984.i47 = icmp ult ptr %state.sroa.9.0.i43, %unroll_end.i46
  br i1 %_1984.i47, label %bb6.i78.preheader, label %bb16.i48

bb6.i78.preheader:                                ; preds = %bb3.i41
  %_3.i.i.i.i.i82 = load i32, ptr %src, align 4, !alias.scope !1269, !noalias !1278, !noundef !18
  br label %bb6.i78

bb6.i78:                                          ; preds = %bb6.i78.preheader, %bb6.i78
  %state.sroa.43.187.i79 = phi ptr [ %88, %bb6.i78 ], [ %state.sroa.43.0.i44, %bb6.i78.preheader ]
  %state.sroa.9.186.i80 = phi ptr [ %_9.i54.i100, %bb6.i78 ], [ %state.sroa.9.0.i43, %bb6.i78.preheader ]
  %state.sroa.27.185.i81 = phi i64 [ %89, %bb6.i78 ], [ %state.sroa.27.0.i42, %bb6.i78.preheader ]
  call void @llvm.experimental.noalias.scope.decl(metadata !1283)
  call void @llvm.experimental.noalias.scope.decl(metadata !1284)
  call void @llvm.experimental.noalias.scope.decl(metadata !1285)
  call void @llvm.experimental.noalias.scope.decl(metadata !1286)
  call void @llvm.experimental.noalias.scope.decl(metadata !1287)
  call void @llvm.experimental.noalias.scope.decl(metadata !1288)
  call void @llvm.experimental.noalias.scope.decl(metadata !1289)
  call void @llvm.experimental.noalias.scope.decl(metadata !1290)
  %_4.i.i.i.i.i83 = load i32, ptr %state.sroa.9.186.i80, align 4, !alias.scope !1291, !noalias !1292, !noundef !18
  %_0.i.i.i84 = icmp sge i32 %_3.i.i.i.i.i82, %_4.i.i.i.i.i83
  %82 = getelementptr inbounds i8, ptr %state.sroa.43.187.i79, i64 -4
  %dst_base.sroa.0.0.i.i85 = select i1 %_0.i.i.i84, ptr %scratch.0, ptr %82
  %dst.i.i86 = getelementptr inbounds nuw i32, ptr %dst_base.sroa.0.0.i.i85, i64 %state.sroa.27.185.i81
  store i32 %_4.i.i.i.i.i83, ptr %dst.i.i86, align 4, !alias.scope !1267, !noalias !1293
  %_8.i.i87 = zext i1 %_0.i.i.i84 to i64
  %83 = add i64 %state.sroa.27.185.i81, %_8.i.i87
  %_9.i.i88 = getelementptr inbounds nuw i8, ptr %state.sroa.9.186.i80, i64 4
  %_4.i.i.i.i26.i = load i32, ptr %_9.i.i88, align 4, !alias.scope !1296, !noalias !1305, !noundef !18
  %_0.i.i27.i = icmp sge i32 %_3.i.i.i.i.i82, %_4.i.i.i.i26.i
  %84 = getelementptr inbounds i8, ptr %state.sroa.43.187.i79, i64 -8
  %dst_base.sroa.0.0.i29.i89 = select i1 %_0.i.i27.i, ptr %scratch.0, ptr %84
  %dst.i31.i90 = getelementptr inbounds nuw i32, ptr %dst_base.sroa.0.0.i29.i89, i64 %83
  store i32 %_4.i.i.i.i26.i, ptr %dst.i31.i90, align 4, !alias.scope !1267, !noalias !1310
  %_8.i33.i91 = zext i1 %_0.i.i27.i to i64
  %85 = add i64 %83, %_8.i33.i91
  %_9.i34.i92 = getelementptr inbounds nuw i8, ptr %state.sroa.9.186.i80, i64 8
  %_4.i.i.i.i36.i = load i32, ptr %_9.i34.i92, align 4, !alias.scope !1313, !noalias !1322, !noundef !18
  %_0.i.i37.i = icmp sge i32 %_3.i.i.i.i.i82, %_4.i.i.i.i36.i
  %86 = getelementptr inbounds i8, ptr %state.sroa.43.187.i79, i64 -12
  %dst_base.sroa.0.0.i39.i93 = select i1 %_0.i.i37.i, ptr %scratch.0, ptr %86
  %dst.i41.i94 = getelementptr inbounds nuw i32, ptr %dst_base.sroa.0.0.i39.i93, i64 %85
  store i32 %_4.i.i.i.i36.i, ptr %dst.i41.i94, align 4, !alias.scope !1267, !noalias !1327
  %_8.i43.i95 = zext i1 %_0.i.i37.i to i64
  %87 = add i64 %85, %_8.i43.i95
  %_9.i44.i96 = getelementptr inbounds nuw i8, ptr %state.sroa.9.186.i80, i64 12
  %_4.i.i.i.i46.i = load i32, ptr %_9.i44.i96, align 4, !alias.scope !1330, !noalias !1339, !noundef !18
  %_0.i.i47.i = icmp sge i32 %_3.i.i.i.i.i82, %_4.i.i.i.i46.i
  %88 = getelementptr inbounds i8, ptr %state.sroa.43.187.i79, i64 -16
  %dst_base.sroa.0.0.i49.i97 = select i1 %_0.i.i47.i, ptr %scratch.0, ptr %88
  %dst.i51.i98 = getelementptr inbounds nuw i32, ptr %dst_base.sroa.0.0.i49.i97, i64 %87
  store i32 %_4.i.i.i.i46.i, ptr %dst.i51.i98, align 4, !alias.scope !1267, !noalias !1344
  %_8.i53.i99 = zext i1 %_0.i.i47.i to i64
  %89 = add i64 %87, %_8.i53.i99
  %_9.i54.i100 = getelementptr inbounds nuw i8, ptr %state.sroa.9.186.i80, i64 16
  %_19.i101 = icmp ult ptr %_9.i54.i100, %unroll_end.i46
  br i1 %_19.i101, label %bb6.i78, label %bb16.i48

bb16.i48:                                         ; preds = %bb6.i78, %bb3.i41
  %state.sroa.27.1.lcssa.i49 = phi i64 [ %state.sroa.27.0.i42, %bb3.i41 ], [ %89, %bb6.i78 ]
  %state.sroa.9.1.lcssa.i50 = phi ptr [ %state.sroa.9.0.i43, %bb3.i41 ], [ %_9.i54.i100, %bb6.i78 ]
  %state.sroa.43.1.lcssa.i51 = phi ptr [ %state.sroa.43.0.i44, %bb3.i41 ], [ %88, %bb6.i78 ]
  %loop_end.i52 = getelementptr inbounds nuw i32, ptr %v.sroa.0.0.ph140, i64 %pivot_pos.sroa.0.0.i45
  %_4790.i53 = icmp ult ptr %state.sroa.9.1.lcssa.i50, %loop_end.i52
  br i1 %_4790.i53, label %bb18.i69.preheader, label %bb21.i54

bb18.i69.preheader:                               ; preds = %bb16.i48
  %_3.i.i.i.i55.i = load i32, ptr %src, align 4, !alias.scope !1347, !noalias !1356, !noundef !18
  br label %bb18.i69

bb21.i54:                                         ; preds = %bb18.i69, %bb16.i48
  %state.sroa.27.2.lcssa.i55 = phi i64 [ %state.sroa.27.1.lcssa.i49, %bb16.i48 ], [ %91, %bb18.i69 ]
  %state.sroa.9.2.lcssa.i56 = phi ptr [ %state.sroa.9.1.lcssa.i50, %bb16.i48 ], [ %_9.i64.i76, %bb18.i69 ]
  %state.sroa.43.2.lcssa.i57 = phi ptr [ %state.sroa.43.1.lcssa.i51, %bb16.i48 ], [ %90, %bb18.i69 ]
  %_55.i58 = icmp eq i64 %pivot_pos.sroa.0.0.i45, %v.sroa.16.0132
  br i1 %_55.i58, label %bb22.i62, label %bb23.i59

bb18.i69:                                         ; preds = %bb18.i69.preheader, %bb18.i69
  %state.sroa.43.293.i70 = phi ptr [ %90, %bb18.i69 ], [ %state.sroa.43.1.lcssa.i51, %bb18.i69.preheader ]
  %state.sroa.9.292.i71 = phi ptr [ %_9.i64.i76, %bb18.i69 ], [ %state.sroa.9.1.lcssa.i50, %bb18.i69.preheader ]
  %state.sroa.27.291.i72 = phi i64 [ %91, %bb18.i69 ], [ %state.sroa.27.1.lcssa.i49, %bb18.i69.preheader ]
  call void @llvm.experimental.noalias.scope.decl(metadata !1361)
  call void @llvm.experimental.noalias.scope.decl(metadata !1362)
  call void @llvm.experimental.noalias.scope.decl(metadata !1363)
  call void @llvm.experimental.noalias.scope.decl(metadata !1364)
  call void @llvm.experimental.noalias.scope.decl(metadata !1365)
  call void @llvm.experimental.noalias.scope.decl(metadata !1366)
  call void @llvm.experimental.noalias.scope.decl(metadata !1367)
  call void @llvm.experimental.noalias.scope.decl(metadata !1368)
  %_4.i.i.i.i56.i = load i32, ptr %state.sroa.9.292.i71, align 4, !alias.scope !1369, !noalias !1370, !noundef !18
  %_0.i.i57.i = icmp sge i32 %_3.i.i.i.i55.i, %_4.i.i.i.i56.i
  %90 = getelementptr inbounds i8, ptr %state.sroa.43.293.i70, i64 -4
  %dst_base.sroa.0.0.i59.i73 = select i1 %_0.i.i57.i, ptr %scratch.0, ptr %90
  %dst.i61.i74 = getelementptr inbounds nuw i32, ptr %dst_base.sroa.0.0.i59.i73, i64 %state.sroa.27.291.i72
  store i32 %_4.i.i.i.i56.i, ptr %dst.i61.i74, align 4, !alias.scope !1267, !noalias !1371
  %_8.i63.i75 = zext i1 %_0.i.i57.i to i64
  %91 = add i64 %state.sroa.27.291.i72, %_8.i63.i75
  %_9.i64.i76 = getelementptr inbounds nuw i8, ptr %state.sroa.9.292.i71, i64 4
  %_47.i77 = icmp ult ptr %_9.i64.i76, %loop_end.i52
  br i1 %_47.i77, label %bb18.i69, label %bb21.i54

bb23.i59:                                         ; preds = %bb21.i54
  %92 = getelementptr inbounds i8, ptr %state.sroa.43.2.lcssa.i57, i64 -4
  %dst.i68.i60 = getelementptr inbounds nuw i32, ptr %scratch.0, i64 %state.sroa.27.2.lcssa.i55
  %93 = load i32, ptr %state.sroa.9.2.lcssa.i56, align 4, !alias.scope !1264, !noalias !1374
  store i32 %93, ptr %dst.i68.i60, align 4, !alias.scope !1267, !noalias !1377
  %94 = add i64 %state.sroa.27.2.lcssa.i55, 1
  %_9.i70.i61 = getelementptr inbounds nuw i8, ptr %state.sroa.9.2.lcssa.i56, i64 4
  br label %bb3.i41

bb22.i62:                                         ; preds = %bb21.i54
  %95 = shl i64 %state.sroa.27.2.lcssa.i55, 2
  call void @llvm.memcpy.p0.p0.i64(ptr nonnull align 4 %v.sroa.0.0.ph140, ptr nonnull align 4 %scratch.0, i64 %95, i1 false), !alias.scope !1378
  %_63.i63 = sub i64 %v.sroa.16.0132, %state.sroa.27.2.lcssa.i55
  %_9797.not.i64 = icmp eq i64 %v.sroa.16.0132, %state.sroa.27.2.lcssa.i55
  br i1 %_9797.not.i64, label %bb3.thread, label %bb42.lr.ph.i65

bb42.lr.ph.i65:                                   ; preds = %bb22.i62
  %96 = getelementptr i32, ptr %v.sroa.0.0.ph140, i64 %state.sroa.27.2.lcssa.i55
  %min.iters.check = icmp ult i64 %_63.i63, 8
  br i1 %min.iters.check, label %bb42.i66.preheader, label %vector.ph

vector.ph:                                        ; preds = %bb42.lr.ph.i65
  %n.vec = and i64 %_63.i63, -8
  br label %vector.body

vector.body:                                      ; preds = %vector.body, %vector.ph
  %index = phi i64 [ 0, %vector.ph ], [ %index.next, %vector.body ]
  %97 = getelementptr i32, ptr %96, i64 %index
  %98 = xor i64 %index, -1
  %99 = getelementptr i32, ptr %_86.i40, i64 %98
  %100 = getelementptr i8, ptr %99, i64 -12
  %101 = getelementptr i8, ptr %99, i64 -28
  %wide.load = load <4 x i32>, ptr %100, align 4, !alias.scope !1267, !noalias !1264
  %reverse = shufflevector <4 x i32> %wide.load, <4 x i32> poison, <4 x i32> <i32 3, i32 2, i32 1, i32 0>
  %wide.load262 = load <4 x i32>, ptr %101, align 4, !alias.scope !1267, !noalias !1264
  %reverse263 = shufflevector <4 x i32> %wide.load262, <4 x i32> poison, <4 x i32> <i32 3, i32 2, i32 1, i32 0>
  %102 = getelementptr i8, ptr %97, i64 16
  store <4 x i32> %reverse, ptr %97, align 4, !alias.scope !1264, !noalias !1267
  store <4 x i32> %reverse263, ptr %102, align 4, !alias.scope !1264, !noalias !1267
  %index.next = add nuw i64 %index, 8
  %103 = icmp eq i64 %index.next, %n.vec
  br i1 %103, label %middle.block, label %vector.body, !llvm.loop !1379

middle.block:                                     ; preds = %vector.body
  %cmp.n = icmp eq i64 %_63.i63, %n.vec
  br i1 %cmp.n, label %_ZN4core5slice4sort6stable9quicksort16stable_partition17hd1960052eec6e7bfE.exit, label %bb42.i66.preheader

bb42.i66.preheader:                               ; preds = %bb42.lr.ph.i65, %middle.block
  %iter.sroa.0.098.i67.ph = phi i64 [ 0, %bb42.lr.ph.i65 ], [ %n.vec, %middle.block ]
  br label %bb42.i66

bb42.i66:                                         ; preds = %bb42.i66.preheader, %bb42.i66
  %iter.sroa.0.098.i67 = phi i64 [ %104, %bb42.i66 ], [ %iter.sroa.0.098.i67.ph, %bb42.i66.preheader ]
  %104 = add nuw i64 %iter.sroa.0.098.i67, 1
  %105 = getelementptr i32, ptr %96, i64 %iter.sroa.0.098.i67
  %106 = xor i64 %iter.sroa.0.098.i67, -1
  %107 = getelementptr i32, ptr %_86.i40, i64 %106
  %108 = load i32, ptr %107, align 4, !alias.scope !1267, !noalias !1264
  store i32 %108, ptr %105, align 4, !alias.scope !1264, !noalias !1267
  %exitcond.not.i68 = icmp eq i64 %104, %_63.i63
  br i1 %exitcond.not.i68, label %_ZN4core5slice4sort6stable9quicksort16stable_partition17hd1960052eec6e7bfE.exit, label %bb42.i66, !llvm.loop !1380

_ZN4core5slice4sort6stable9quicksort16stable_partition17hd1960052eec6e7bfE.exit: ; preds = %bb42.i66, %middle.block
  %_47 = icmp ugt i64 %state.sroa.27.2.lcssa.i55, %v.sroa.16.0132
  br i1 %_47, label %bb27, label %bb28, !prof !1259

bb3.thread:                                       ; preds = %bb22.i62
  call void @llvm.lifetime.end.p0(i64 4, ptr nonnull %pivot_copy)
  br label %bb22

bb28:                                             ; preds = %_ZN4core5slice4sort6stable9quicksort16stable_partition17hd1960052eec6e7bfE.exit
  %_54 = getelementptr inbounds nuw i32, ptr %v.sroa.0.0.ph140, i64 %state.sroa.27.2.lcssa.i55
  call void @llvm.lifetime.end.p0(i64 4, ptr nonnull %pivot_copy)
  %_8130 = icmp ult i64 %_63.i63, 33
  br i1 %_8130, label %bb3, label %bb5.lr.ph

bb27:                                             ; preds = %_ZN4core5slice4sort6stable9quicksort16stable_partition17hd1960052eec6e7bfE.exit
; call core::slice::index::slice_index_fail
  call void @_ZN4core5slice5index16slice_index_fail17h62807bcaa490c9c1E(i64 noundef %state.sroa.27.2.lcssa.i55, i64 noundef %v.sroa.16.0132, i64 noundef %v.sroa.16.0132, ptr noalias noundef readonly align 8 captures(address, read_provenance) dereferenceable(24) @alloc_0766b232215672ee1bd2195fdb153938) #18
  unreachable

bb22:                                             ; preds = %bb3.thread, %bb9.i.i, %bb3, %bb6
  ret void
}

; core::slice::sort::stable::quicksort::quicksort
; Function Attrs: noinline nonlazybind uwtable
define void @_ZN4core5slice4sort6stable9quicksort9quicksort17hdfe40f669e50b91dE(ptr noalias noundef nonnull align 4 %0, i64 noundef range(i64 0, 2305843009213693952) %1, ptr noalias noundef nonnull align 4 %scratch.0, i64 noundef range(i64 0, 2305843009213693952) %scratch.1, i32 noundef %2, ptr noalias noundef readonly align 4 captures(address) dereferenceable_or_null(4) %3, ptr noalias noundef nonnull align 1 %is_less) unnamed_addr #2 personality ptr @rust_eh_personality {
start:
  %pivot_copy = alloca [4 x i8], align 4
  %_8130136 = icmp samesign ult i64 %1, 33
  br i1 %_8130136, label %bb3, label %bb5.lr.ph

bb5.lr.ph:                                        ; preds = %start, %bb28
  %v.sroa.0.0.ph140 = phi ptr [ %_54, %bb28 ], [ %0, %start ]
  %v.sroa.16.0.ph139 = phi i64 [ %_63.i63, %bb28 ], [ %1, %start ]
  %limit.sroa.0.0.ph138 = phi i32 [ %48, %bb28 ], [ %2, %start ]
  %left_ancestor_pivot.sroa.0.0.ph137 = phi ptr [ null, %bb28 ], [ %3, %start ]
  %4 = ptrtoint ptr %v.sroa.0.0.ph140 to i64
  %.not = icmp eq ptr %left_ancestor_pivot.sroa.0.0.ph137, null
  br label %bb5

bb5:                                              ; preds = %bb5.lr.ph, %"_ZN4core5slice29_$LT$impl$u20$$u5b$T$u5d$$GT$12split_at_mut17hbf97a915e50deb38E.exit"
  %v.sroa.16.0132 = phi i64 [ %v.sroa.16.0.ph139, %bb5.lr.ph ], [ %state.sroa.27.2.lcssa.i, %"_ZN4core5slice29_$LT$impl$u20$$u5b$T$u5d$$GT$12split_at_mut17hbf97a915e50deb38E.exit" ]
  %limit.sroa.0.0131 = phi i32 [ %limit.sroa.0.0.ph138, %bb5.lr.ph ], [ %48, %"_ZN4core5slice29_$LT$impl$u20$$u5b$T$u5d$$GT$12split_at_mut17hbf97a915e50deb38E.exit" ]
  %_11 = icmp eq i32 %limit.sroa.0.0131, 0
  br i1 %_11, label %bb6, label %bb7

bb3:                                              ; preds = %bb28, %"_ZN4core5slice29_$LT$impl$u20$$u5b$T$u5d$$GT$12split_at_mut17hbf97a915e50deb38E.exit", %start
  %v.sroa.0.0.ph.lcssa129 = phi ptr [ %0, %start ], [ %v.sroa.0.0.ph140, %"_ZN4core5slice29_$LT$impl$u20$$u5b$T$u5d$$GT$12split_at_mut17hbf97a915e50deb38E.exit" ], [ %_54, %bb28 ]
  %v.sroa.16.0.lcssa = phi i64 [ %1, %start ], [ %state.sroa.27.2.lcssa.i, %"_ZN4core5slice29_$LT$impl$u20$$u5b$T$u5d$$GT$12split_at_mut17hbf97a915e50deb38E.exit" ], [ %_63.i63, %bb28 ]
  call void @llvm.experimental.noalias.scope.decl(metadata !1381)
  call void @llvm.experimental.noalias.scope.decl(metadata !1384)
  %_5.i = icmp samesign ult i64 %v.sroa.16.0.lcssa, 2
  br i1 %_5.i, label %bb22, label %bb2.i

bb2.i:                                            ; preds = %bb3
  %_8.i = add nuw nsw i64 %v.sroa.16.0.lcssa, 16
  %_6.i = icmp samesign ult i64 %scratch.1, %_8.i
  br i1 %_6.i, label %bb3.i, label %bb4.i

bb4.i:                                            ; preds = %bb2.i
  %len_div_211.i = lshr i64 %v.sroa.16.0.lcssa, 1
  %_14.i = icmp samesign ugt i64 %v.sroa.16.0.lcssa, 15
  br i1 %_14.i, label %bb6.i, label %bb9.i

bb3.i:                                            ; preds = %bb2.i
  call void @llvm.trap()
  unreachable

bb9.i:                                            ; preds = %bb4.i
  %_22.i = icmp samesign ugt i64 %v.sroa.16.0.lcssa, 7
  br i1 %_22.i, label %bb10.i, label %bb46.i

bb6.i:                                            ; preds = %bb4.i
  %_16.i = getelementptr inbounds nuw i32, ptr %scratch.0, i64 %v.sroa.16.0.lcssa
; call core::slice::sort::shared::smallsort::sort8_stable
  call fastcc void @_ZN4core5slice4sort6shared9smallsort12sort8_stable17h1c443ab95844fbe0E(ptr noundef nonnull align 4 %v.sroa.0.0.ph.lcssa129, ptr noundef nonnull align 4 %scratch.0, ptr noundef %_16.i)
  %_18.i = getelementptr inbounds nuw i32, ptr %v.sroa.0.0.ph.lcssa129, i64 %len_div_211.i
  %_19.i = getelementptr inbounds nuw i32, ptr %scratch.0, i64 %len_div_211.i
  %_20.i = getelementptr inbounds nuw i8, ptr %_16.i, i64 32
; call core::slice::sort::shared::smallsort::sort8_stable
  call fastcc void @_ZN4core5slice4sort6shared9smallsort12sort8_stable17h1c443ab95844fbe0E(ptr noundef %_18.i, ptr noundef %_19.i, ptr noundef %_20.i)
  br label %bb15.i

bb10.i:                                           ; preds = %bb9.i
  %_7.i.i = getelementptr inbounds nuw i8, ptr %v.sroa.0.0.ph.lcssa129, i64 4
  call void @llvm.experimental.noalias.scope.decl(metadata !1386)
  call void @llvm.experimental.noalias.scope.decl(metadata !1389)
  call void @llvm.experimental.noalias.scope.decl(metadata !1391)
  call void @llvm.experimental.noalias.scope.decl(metadata !1394)
  %_3.i.i.i.i = load i32, ptr %_7.i.i, align 4, !alias.scope !1396, !noalias !1397, !noundef !18
  %_4.i.i.i.i = load i32, ptr %v.sroa.0.0.ph.lcssa129, align 4, !alias.scope !1399, !noalias !1400, !noundef !18
  %_0.i.i.i.i = icmp slt i32 %_3.i.i.i.i, %_4.i.i.i.i
  %_12.i.i = getelementptr inbounds nuw i8, ptr %v.sroa.0.0.ph.lcssa129, i64 12
  %_14.i.i = getelementptr inbounds nuw i8, ptr %v.sroa.0.0.ph.lcssa129, i64 8
  call void @llvm.experimental.noalias.scope.decl(metadata !1401)
  call void @llvm.experimental.noalias.scope.decl(metadata !1404)
  call void @llvm.experimental.noalias.scope.decl(metadata !1406)
  call void @llvm.experimental.noalias.scope.decl(metadata !1409)
  %_3.i.i7.i.i = load i32, ptr %_12.i.i, align 4, !alias.scope !1411, !noalias !1412, !noundef !18
  %_4.i.i8.i.i = load i32, ptr %_14.i.i, align 4, !alias.scope !1413, !noalias !1414, !noundef !18
  %_0.i.i9.i.i = icmp slt i32 %_3.i.i7.i.i, %_4.i.i8.i.i
  %count.i.i = zext i1 %_0.i.i.i.i to i64
  %a.i.i = getelementptr inbounds nuw i32, ptr %v.sroa.0.0.ph.lcssa129, i64 %count.i.i
  %_19.i.i = xor i1 %_0.i.i.i.i, true
  %count2.i.i = zext i1 %_19.i.i to i64
  %b.i.i = getelementptr inbounds nuw i32, ptr %v.sroa.0.0.ph.lcssa129, i64 %count2.i.i
  %count3.i.i = select i1 %_0.i.i9.i.i, i64 3, i64 2
  %c.i.i = getelementptr inbounds nuw i32, ptr %v.sroa.0.0.ph.lcssa129, i64 %count3.i.i
  %count4.i.i = select i1 %_0.i.i9.i.i, i64 2, i64 3
  %d.i.i = getelementptr inbounds nuw i32, ptr %v.sroa.0.0.ph.lcssa129, i64 %count4.i.i
  call void @llvm.experimental.noalias.scope.decl(metadata !1415)
  call void @llvm.experimental.noalias.scope.decl(metadata !1418)
  call void @llvm.experimental.noalias.scope.decl(metadata !1420)
  call void @llvm.experimental.noalias.scope.decl(metadata !1423)
  %_3.i.i10.i.i = load i32, ptr %c.i.i, align 4, !alias.scope !1425, !noalias !1426, !noundef !18
  %_4.i.i11.i.i = load i32, ptr %a.i.i, align 4, !alias.scope !1427, !noalias !1428, !noundef !18
  %_0.i.i12.i.i = icmp slt i32 %_3.i.i10.i.i, %_4.i.i11.i.i
  call void @llvm.experimental.noalias.scope.decl(metadata !1429)
  call void @llvm.experimental.noalias.scope.decl(metadata !1432)
  call void @llvm.experimental.noalias.scope.decl(metadata !1434)
  call void @llvm.experimental.noalias.scope.decl(metadata !1437)
  %_3.i.i13.i.i = load i32, ptr %d.i.i, align 4, !alias.scope !1439, !noalias !1440, !noundef !18
  %_4.i.i14.i.i = load i32, ptr %b.i.i, align 4, !alias.scope !1441, !noalias !1442, !noundef !18
  %_0.i.i15.i.i = icmp slt i32 %_3.i.i13.i.i, %_4.i.i14.i.i
  %5 = call i32 @llvm.smin.i32(i32 %_3.i.i10.i.i, i32 %_4.i.i11.i.i)
  %6 = select i1 %_0.i.i15.i.i, ptr %c.i.i, ptr %b.i.i, !unpredictable !18
  %7 = select i1 %_0.i.i12.i.i, ptr %a.i.i, ptr %6, !unpredictable !18
  %8 = select i1 %_0.i.i12.i.i, ptr %b.i.i, ptr %c.i.i, !unpredictable !18
  %9 = select i1 %_0.i.i15.i.i, ptr %d.i.i, ptr %8, !unpredictable !18
  call void @llvm.experimental.noalias.scope.decl(metadata !1443)
  call void @llvm.experimental.noalias.scope.decl(metadata !1446)
  call void @llvm.experimental.noalias.scope.decl(metadata !1448)
  call void @llvm.experimental.noalias.scope.decl(metadata !1451)
  %_3.i.i16.i.i = load i32, ptr %9, align 4, !alias.scope !1453, !noalias !1454, !noundef !18
  %_4.i.i17.i.i = load i32, ptr %7, align 4, !alias.scope !1455, !noalias !1456, !noundef !18
  store i32 %5, ptr %scratch.0, align 4, !alias.scope !1384, !noalias !1457
  %dst5.i.i = getelementptr inbounds nuw i8, ptr %scratch.0, i64 4
  %10 = call i32 @llvm.smin.i32(i32 %_3.i.i16.i.i, i32 %_4.i.i17.i.i)
  store i32 %10, ptr %dst5.i.i, align 4, !alias.scope !1384, !noalias !1457
  %dst6.i.i = getelementptr inbounds nuw i8, ptr %scratch.0, i64 8
  %11 = call i32 @llvm.smax.i32(i32 %_3.i.i16.i.i, i32 %_4.i.i17.i.i)
  store i32 %11, ptr %dst6.i.i, align 4, !alias.scope !1384, !noalias !1457
  %12 = getelementptr inbounds nuw i8, ptr %scratch.0, i64 12
  %13 = call i32 @llvm.smax.i32(i32 %_3.i.i13.i.i, i32 %_4.i.i14.i.i)
  store i32 %13, ptr %12, align 4, !alias.scope !1384, !noalias !1457
  %_27.i = getelementptr inbounds nuw i32, ptr %v.sroa.0.0.ph.lcssa129, i64 %len_div_211.i
  %_28.i = getelementptr inbounds nuw i32, ptr %scratch.0, i64 %len_div_211.i
  %_7.i13.i = getelementptr inbounds nuw i8, ptr %_27.i, i64 4
  call void @llvm.experimental.noalias.scope.decl(metadata !1458)
  call void @llvm.experimental.noalias.scope.decl(metadata !1461)
  call void @llvm.experimental.noalias.scope.decl(metadata !1463)
  call void @llvm.experimental.noalias.scope.decl(metadata !1466)
  %_3.i.i.i14.i = load i32, ptr %_7.i13.i, align 4, !alias.scope !1468, !noalias !1469, !noundef !18
  %_4.i.i.i15.i = load i32, ptr %_27.i, align 4, !alias.scope !1470, !noalias !1471, !noundef !18
  %_0.i.i.i16.i = icmp slt i32 %_3.i.i.i14.i, %_4.i.i.i15.i
  %_12.i17.i = getelementptr inbounds nuw i8, ptr %_27.i, i64 12
  %_14.i18.i = getelementptr inbounds nuw i8, ptr %_27.i, i64 8
  call void @llvm.experimental.noalias.scope.decl(metadata !1472)
  call void @llvm.experimental.noalias.scope.decl(metadata !1475)
  call void @llvm.experimental.noalias.scope.decl(metadata !1477)
  call void @llvm.experimental.noalias.scope.decl(metadata !1480)
  %_3.i.i7.i19.i = load i32, ptr %_12.i17.i, align 4, !alias.scope !1482, !noalias !1483, !noundef !18
  %_4.i.i8.i20.i = load i32, ptr %_14.i18.i, align 4, !alias.scope !1484, !noalias !1485, !noundef !18
  %_0.i.i9.i21.i = icmp slt i32 %_3.i.i7.i19.i, %_4.i.i8.i20.i
  %count.i22.i = zext i1 %_0.i.i.i16.i to i64
  %a.i23.i = getelementptr inbounds nuw i32, ptr %_27.i, i64 %count.i22.i
  %_19.i24.i = xor i1 %_0.i.i.i16.i, true
  %count2.i25.i = zext i1 %_19.i24.i to i64
  %b.i26.i = getelementptr inbounds nuw i32, ptr %_27.i, i64 %count2.i25.i
  %count3.i27.i = select i1 %_0.i.i9.i21.i, i64 3, i64 2
  %c.i28.i = getelementptr inbounds nuw i32, ptr %_27.i, i64 %count3.i27.i
  %count4.i29.i = select i1 %_0.i.i9.i21.i, i64 2, i64 3
  %d.i30.i = getelementptr inbounds nuw i32, ptr %_27.i, i64 %count4.i29.i
  call void @llvm.experimental.noalias.scope.decl(metadata !1486)
  call void @llvm.experimental.noalias.scope.decl(metadata !1489)
  call void @llvm.experimental.noalias.scope.decl(metadata !1491)
  call void @llvm.experimental.noalias.scope.decl(metadata !1494)
  %_3.i.i10.i31.i = load i32, ptr %c.i28.i, align 4, !alias.scope !1496, !noalias !1497, !noundef !18
  %_4.i.i11.i32.i = load i32, ptr %a.i23.i, align 4, !alias.scope !1498, !noalias !1499, !noundef !18
  %_0.i.i12.i33.i = icmp slt i32 %_3.i.i10.i31.i, %_4.i.i11.i32.i
  call void @llvm.experimental.noalias.scope.decl(metadata !1500)
  call void @llvm.experimental.noalias.scope.decl(metadata !1503)
  call void @llvm.experimental.noalias.scope.decl(metadata !1505)
  call void @llvm.experimental.noalias.scope.decl(metadata !1508)
  %_3.i.i13.i34.i = load i32, ptr %d.i30.i, align 4, !alias.scope !1510, !noalias !1511, !noundef !18
  %_4.i.i14.i35.i = load i32, ptr %b.i26.i, align 4, !alias.scope !1512, !noalias !1513, !noundef !18
  %_0.i.i15.i36.i = icmp slt i32 %_3.i.i13.i34.i, %_4.i.i14.i35.i
  %14 = call i32 @llvm.smin.i32(i32 %_3.i.i10.i31.i, i32 %_4.i.i11.i32.i)
  %15 = select i1 %_0.i.i15.i36.i, ptr %c.i28.i, ptr %b.i26.i, !unpredictable !18
  %16 = select i1 %_0.i.i12.i33.i, ptr %a.i23.i, ptr %15, !unpredictable !18
  %17 = select i1 %_0.i.i12.i33.i, ptr %b.i26.i, ptr %c.i28.i, !unpredictable !18
  %18 = select i1 %_0.i.i15.i36.i, ptr %d.i30.i, ptr %17, !unpredictable !18
  call void @llvm.experimental.noalias.scope.decl(metadata !1514)
  call void @llvm.experimental.noalias.scope.decl(metadata !1517)
  call void @llvm.experimental.noalias.scope.decl(metadata !1519)
  call void @llvm.experimental.noalias.scope.decl(metadata !1522)
  %_3.i.i16.i37.i = load i32, ptr %18, align 4, !alias.scope !1524, !noalias !1525, !noundef !18
  %_4.i.i17.i38.i = load i32, ptr %16, align 4, !alias.scope !1526, !noalias !1527, !noundef !18
  store i32 %14, ptr %_28.i, align 4, !alias.scope !1384, !noalias !1457
  %dst5.i40.i = getelementptr inbounds nuw i8, ptr %_28.i, i64 4
  %19 = call i32 @llvm.smin.i32(i32 %_3.i.i16.i37.i, i32 %_4.i.i17.i38.i)
  store i32 %19, ptr %dst5.i40.i, align 4, !alias.scope !1384, !noalias !1457
  %dst6.i43.i = getelementptr inbounds nuw i8, ptr %_28.i, i64 8
  %20 = call i32 @llvm.smax.i32(i32 %_3.i.i16.i37.i, i32 %_4.i.i17.i38.i)
  store i32 %20, ptr %dst6.i43.i, align 4, !alias.scope !1384, !noalias !1457
  %21 = getelementptr inbounds nuw i8, ptr %_28.i, i64 12
  %22 = call i32 @llvm.smax.i32(i32 %_3.i.i13.i34.i, i32 %_4.i.i14.i35.i)
  store i32 %22, ptr %21, align 4, !alias.scope !1384, !noalias !1457
  br label %bb15.i

bb46.i:                                           ; preds = %bb9.i
  %23 = load i32, ptr %v.sroa.0.0.ph.lcssa129, align 4, !alias.scope !1381, !noalias !1528
  store i32 %23, ptr %scratch.0, align 4, !alias.scope !1384, !noalias !1457
  %_31.i = getelementptr inbounds nuw i32, ptr %v.sroa.0.0.ph.lcssa129, i64 %len_div_211.i
  %24 = getelementptr inbounds nuw i32, ptr %scratch.0, i64 %len_div_211.i
  %25 = load i32, ptr %_31.i, align 4, !alias.scope !1381, !noalias !1528
  store i32 %25, ptr %24, align 4, !alias.scope !1384, !noalias !1457
  br label %bb15.i

bb15.i:                                           ; preds = %bb46.i, %bb10.i, %bb6.i
  %presorted_len.sroa.0.0.i = phi i64 [ 8, %bb6.i ], [ 4, %bb10.i ], [ 1, %bb46.i ]
  %26 = sub nsw i64 %v.sroa.16.0.lcssa, %len_div_211.i
  %_8061.i = icmp samesign ult i64 %presorted_len.sroa.0.0.i, %len_div_211.i
  br i1 %_8061.i, label %bb24.preheader.i, label %bb16.loopexit.i

bb16.loopexit.i:                                  ; preds = %_ZN4core5slice4sort6shared9smallsort11insert_tail17h72095183ceb5ec4bE.exit.i, %bb15.i
  %src5.1.i = getelementptr inbounds nuw i32, ptr %v.sroa.0.0.ph.lcssa129, i64 %len_div_211.i
  %dst6.1.i = getelementptr i32, ptr %scratch.0, i64 %len_div_211.i
  %_8061.1.i = icmp ult i64 %presorted_len.sroa.0.0.i, %26
  br i1 %_8061.1.i, label %bb24.preheader.1.i, label %bb16.loopexit.1.i

bb24.preheader.1.i:                               ; preds = %bb16.loopexit.i
  %iter1.sroa.0.163.1.i = add nuw nsw i64 %presorted_len.sroa.0.0.i, 1
  br label %bb24.1.i

bb24.1.i:                                         ; preds = %_ZN4core5slice4sort6shared9smallsort11insert_tail17h72095183ceb5ec4bE.exit.1.i, %bb24.preheader.1.i
  %iter1.sroa.0.165.1.i = phi i64 [ %iter1.sroa.0.1.1.i, %_ZN4core5slice4sort6shared9smallsort11insert_tail17h72095183ceb5ec4bE.exit.1.i ], [ %iter1.sroa.0.163.1.i, %bb24.preheader.1.i ]
  %iter1.sroa.0.064.1.i = phi i64 [ %iter1.sroa.0.165.1.i, %_ZN4core5slice4sort6shared9smallsort11insert_tail17h72095183ceb5ec4bE.exit.1.i ], [ %presorted_len.sroa.0.0.i, %bb24.preheader.1.i ]
  %_55.1.i = getelementptr inbounds nuw i32, ptr %src5.1.i, i64 %iter1.sroa.0.064.1.i
  %dst7.1.i = getelementptr inbounds nuw i32, ptr %dst6.1.i, i64 %iter1.sroa.0.064.1.i
  %27 = load i32, ptr %_55.1.i, align 4, !alias.scope !1381, !noalias !1528
  store i32 %27, ptr %dst7.1.i, align 4, !alias.scope !1384, !noalias !1457
  %28 = getelementptr inbounds i8, ptr %dst7.1.i, i64 -4
  %_4.i.i.i55.1.i = load i32, ptr %28, align 4, !alias.scope !1529, !noalias !1534, !noundef !18
  %_0.i.i.i56.1.i = icmp slt i32 %27, %_4.i.i.i55.1.i
  br i1 %_0.i.i.i56.1.i, label %bb4.i.1.i, label %_ZN4core5slice4sort6shared9smallsort11insert_tail17h72095183ceb5ec4bE.exit.1.i

bb4.i.1.i:                                        ; preds = %bb24.1.i, %bb7.i.1.i
  %29 = phi i32 [ %_4.i.i2.i.1.i, %bb7.i.1.i ], [ %_4.i.i.i55.1.i, %bb24.1.i ]
  %gap_guard.sroa.5.0.i.1.i = phi ptr [ %sift.sroa.0.0.i.1.i, %bb7.i.1.i ], [ %dst7.1.i, %bb24.1.i ]
  %sift.sroa.0.0.i.1.i = phi ptr [ %30, %bb7.i.1.i ], [ %28, %bb24.1.i ]
  store i32 %29, ptr %gap_guard.sroa.5.0.i.1.i, align 4, !alias.scope !1384, !noalias !1457
  %_18.i.1.i = icmp eq ptr %sift.sroa.0.0.i.1.i, %dst6.1.i
  br i1 %_18.i.1.i, label %bb10.i.1.i, label %bb7.i.1.i

bb7.i.1.i:                                        ; preds = %bb4.i.1.i
  %30 = getelementptr inbounds i8, ptr %sift.sroa.0.0.i.1.i, i64 -4
  %_4.i.i2.i.1.i = load i32, ptr %30, align 4, !alias.scope !1537, !noalias !1542, !noundef !18
  %_0.i.i3.i.1.i = icmp slt i32 %27, %_4.i.i2.i.1.i
  br i1 %_0.i.i3.i.1.i, label %bb4.i.1.i, label %bb10.i.1.i

bb10.i.1.i:                                       ; preds = %bb7.i.1.i, %bb4.i.1.i
  %sift.sroa.0.0.i.lcssa.1.i = phi ptr [ %sift.sroa.0.0.i.1.i, %bb7.i.1.i ], [ %dst6.1.i, %bb4.i.1.i ]
  store i32 %27, ptr %sift.sroa.0.0.i.lcssa.1.i, align 4, !alias.scope !1384, !noalias !1545
  br label %_ZN4core5slice4sort6shared9smallsort11insert_tail17h72095183ceb5ec4bE.exit.1.i

_ZN4core5slice4sort6shared9smallsort11insert_tail17h72095183ceb5ec4bE.exit.1.i: ; preds = %bb10.i.1.i, %bb24.1.i
  %_80.1.i = icmp ult i64 %iter1.sroa.0.165.1.i, %26
  %_84.1.i = zext i1 %_80.1.i to i64
  %iter1.sroa.0.1.1.i = add nuw i64 %iter1.sroa.0.165.1.i, %_84.1.i
  br i1 %_80.1.i, label %bb24.1.i, label %bb16.loopexit.1.i

bb16.loopexit.1.i:                                ; preds = %_ZN4core5slice4sort6shared9smallsort11insert_tail17h72095183ceb5ec4bE.exit.1.i, %bb16.loopexit.i
  call void @llvm.experimental.noalias.scope.decl(metadata !1550)
  %count1.i.i = add nsw i64 %v.sroa.16.0.lcssa, -1
  %31 = getelementptr inbounds nuw i32, ptr %v.sroa.0.0.ph.lcssa129, i64 %count1.i.i
  %32 = getelementptr inbounds nuw i32, ptr %scratch.0, i64 %count1.i.i
  %33 = getelementptr i8, ptr %dst6.1.i, i64 -4
  br label %bb15.i.i

bb24.preheader.i:                                 ; preds = %bb15.i
  %iter1.sroa.0.163.i = add nuw nsw i64 %presorted_len.sroa.0.0.i, 1
  br label %bb24.i

bb16.i.i:                                         ; preds = %bb15.i.i
  %34 = getelementptr i8, ptr %39, i64 4
  %35 = getelementptr i8, ptr %38, i64 4
  %_44.i.i = and i64 %v.sroa.16.0.lcssa, 1
  %_22.i.i = icmp eq i64 %_44.i.i, 0
  br i1 %_22.i.i, label %bb9.i.i, label %bb5.i.i

bb15.i.i:                                         ; preds = %bb15.i.i, %bb16.loopexit.1.i
  %dst.sroa.0.029.i.i = phi ptr [ %_16.i.i.i, %bb15.i.i ], [ %v.sroa.0.0.ph.lcssa129, %bb16.loopexit.1.i ]
  %iter.sroa.0.028.i.i = phi i64 [ %_39.i.i, %bb15.i.i ], [ 0, %bb16.loopexit.1.i ]
  %left.sroa.0.027.i.i = phi ptr [ %_14.i.i.i, %bb15.i.i ], [ %scratch.0, %bb16.loopexit.1.i ]
  %right.sroa.0.026.i.i = phi ptr [ %_12.i.i.i, %bb15.i.i ], [ %dst6.1.i, %bb16.loopexit.1.i ]
  %left_rev.sroa.0.025.i.i = phi ptr [ %39, %bb15.i.i ], [ %33, %bb16.loopexit.1.i ]
  %right_rev.sroa.0.024.i.i = phi ptr [ %38, %bb15.i.i ], [ %32, %bb16.loopexit.1.i ]
  %dst_rev.sroa.0.023.i.i = phi ptr [ %40, %bb15.i.i ], [ %31, %bb16.loopexit.1.i ]
  %_39.i.i = add nuw nsw i64 %iter.sroa.0.028.i.i, 1
  call void @llvm.experimental.noalias.scope.decl(metadata !1553)
  call void @llvm.experimental.noalias.scope.decl(metadata !1556)
  call void @llvm.experimental.noalias.scope.decl(metadata !1558), !noalias !1561
  call void @llvm.experimental.noalias.scope.decl(metadata !1564), !noalias !1561
  %_3.i.i.i48.i = load i32, ptr %right.sroa.0.026.i.i, align 4, !alias.scope !1566, !noalias !1567, !noundef !18
  %_4.i.i.i49.i = load i32, ptr %left.sroa.0.027.i.i, align 4, !alias.scope !1568, !noalias !1569, !noundef !18
  %_0.i.i.i50.i = icmp slt i32 %_3.i.i.i48.i, %_4.i.i.i49.i
  %is_l.i18.i.i = xor i1 %_0.i.i.i50.i, true
  %36 = call i32 @llvm.smin.i32(i32 %_3.i.i.i48.i, i32 %_4.i.i.i49.i)
  store i32 %36, ptr %dst.sroa.0.029.i.i, align 4, !alias.scope !1381, !noalias !1570
  %count.i.i.i = zext i1 %_0.i.i.i50.i to i64
  %_12.i.i.i = getelementptr inbounds nuw i32, ptr %right.sroa.0.026.i.i, i64 %count.i.i.i
  %count2.i.i.i = zext i1 %is_l.i18.i.i to i64
  %_14.i.i.i = getelementptr inbounds nuw i32, ptr %left.sroa.0.027.i.i, i64 %count2.i.i.i
  %_16.i.i.i = getelementptr inbounds nuw i8, ptr %dst.sroa.0.029.i.i, i64 4
  call void @llvm.experimental.noalias.scope.decl(metadata !1572)
  call void @llvm.experimental.noalias.scope.decl(metadata !1575)
  call void @llvm.experimental.noalias.scope.decl(metadata !1577), !noalias !1580
  call void @llvm.experimental.noalias.scope.decl(metadata !1583), !noalias !1580
  %_3.i.i19.i.i = load i32, ptr %right_rev.sroa.0.024.i.i, align 4, !alias.scope !1585, !noalias !1586, !noundef !18
  %_4.i.i20.i.i = load i32, ptr %left_rev.sroa.0.025.i.i, align 4, !alias.scope !1587, !noalias !1588, !noundef !18
  %_0.i.i21.i.i = icmp slt i32 %_3.i.i19.i.i, %_4.i.i20.i.i
  %is_l.i.i.i = xor i1 %_0.i.i21.i.i, true
  %37 = call i32 @llvm.smax.i32(i32 %_3.i.i19.i.i, i32 %_4.i.i20.i.i)
  store i32 %37, ptr %dst_rev.sroa.0.023.i.i, align 4, !alias.scope !1381, !noalias !1589
  %count.neg.i.i.i = sext i1 %is_l.i.i.i to i64
  %38 = getelementptr i32, ptr %right_rev.sroa.0.024.i.i, i64 %count.neg.i.i.i
  %count3.neg.i.i.i = sext i1 %_0.i.i21.i.i to i64
  %39 = getelementptr i32, ptr %left_rev.sroa.0.025.i.i, i64 %count3.neg.i.i.i
  %40 = getelementptr inbounds i8, ptr %dst_rev.sroa.0.023.i.i, i64 -4
  %exitcond.not.i.i = icmp eq i64 %_39.i.i, %len_div_211.i
  br i1 %exitcond.not.i.i, label %bb16.i.i, label %bb15.i.i

bb5.i.i:                                          ; preds = %bb16.i.i
  %left_nonempty.i.i = icmp ult ptr %_14.i.i.i, %34
  %left.sroa.0.0.right.sroa.0.0.i.i = select i1 %left_nonempty.i.i, ptr %_14.i.i.i, ptr %_12.i.i.i
  %41 = load i32, ptr %left.sroa.0.0.right.sroa.0.0.i.i, align 4, !alias.scope !1591, !noalias !1457
  store i32 %41, ptr %_16.i.i.i, align 4, !alias.scope !1381, !noalias !1592
  %count2.i51.i = zext i1 %left_nonempty.i.i to i64
  %_26.i.i = getelementptr inbounds nuw i32, ptr %_14.i.i.i, i64 %count2.i51.i
  %_30.i.i = xor i1 %left_nonempty.i.i, true
  %count3.i52.i = zext i1 %_30.i.i to i64
  %_28.i.i = getelementptr inbounds nuw i32, ptr %_12.i.i.i, i64 %count3.i52.i
  br label %bb9.i.i

bb9.i.i:                                          ; preds = %bb5.i.i, %bb16.i.i
  %right.sroa.0.1.i.i = phi ptr [ %_12.i.i.i, %bb16.i.i ], [ %_28.i.i, %bb5.i.i ]
  %left.sroa.0.1.i.i = phi ptr [ %_14.i.i.i, %bb16.i.i ], [ %_26.i.i, %bb5.i.i ]
  %_31.i.i = icmp ne ptr %left.sroa.0.1.i.i, %34
  %_32.i.i = icmp ne ptr %right.sroa.0.1.i.i, %35
  %or.cond.i.i = select i1 %_31.i.i, i1 true, i1 %_32.i.i
  br i1 %or.cond.i.i, label %bb13.i.i, label %bb22, !prof !271

bb13.i.i:                                         ; preds = %bb9.i.i
; invoke core::slice::sort::shared::smallsort::panic_on_ord_violation
  invoke void @_ZN4core5slice4sort6shared9smallsort22panic_on_ord_violation17hc77a22a2d50782cdE() #18
          to label %.noexc.i unwind label %cleanup2.i, !noalias !1593

.noexc.i:                                         ; preds = %bb13.i.i
  unreachable

cleanup2.i:                                       ; preds = %bb13.i.i
  %42 = landingpad { ptr, i32 }
          cleanup
  %43 = shl nuw nsw i64 %v.sroa.16.0.lcssa, 2
  call void @llvm.memcpy.p0.p0.i64(ptr nonnull align 4 %v.sroa.0.0.ph.lcssa129, ptr nonnull align 4 %scratch.0, i64 %43, i1 false), !alias.scope !1594, !noalias !1595
  resume { ptr, i32 } %42

bb24.i:                                           ; preds = %_ZN4core5slice4sort6shared9smallsort11insert_tail17h72095183ceb5ec4bE.exit.i, %bb24.preheader.i
  %iter1.sroa.0.165.i = phi i64 [ %iter1.sroa.0.1.i, %_ZN4core5slice4sort6shared9smallsort11insert_tail17h72095183ceb5ec4bE.exit.i ], [ %iter1.sroa.0.163.i, %bb24.preheader.i ]
  %iter1.sroa.0.064.i = phi i64 [ %iter1.sroa.0.165.i, %_ZN4core5slice4sort6shared9smallsort11insert_tail17h72095183ceb5ec4bE.exit.i ], [ %presorted_len.sroa.0.0.i, %bb24.preheader.i ]
  %_55.i = getelementptr inbounds nuw i32, ptr %v.sroa.0.0.ph.lcssa129, i64 %iter1.sroa.0.064.i
  %dst7.i = getelementptr inbounds nuw i32, ptr %scratch.0, i64 %iter1.sroa.0.064.i
  %44 = load i32, ptr %_55.i, align 4, !alias.scope !1381, !noalias !1528
  store i32 %44, ptr %dst7.i, align 4, !alias.scope !1384, !noalias !1457
  %45 = getelementptr inbounds i8, ptr %dst7.i, i64 -4
  %_4.i.i.i55.i = load i32, ptr %45, align 4, !alias.scope !1529, !noalias !1534, !noundef !18
  %_0.i.i.i56.i = icmp slt i32 %44, %_4.i.i.i55.i
  br i1 %_0.i.i.i56.i, label %bb4.i.i, label %_ZN4core5slice4sort6shared9smallsort11insert_tail17h72095183ceb5ec4bE.exit.i

bb4.i.i:                                          ; preds = %bb24.i, %bb7.i.i
  %46 = phi i32 [ %_4.i.i2.i.i, %bb7.i.i ], [ %_4.i.i.i55.i, %bb24.i ]
  %gap_guard.sroa.5.0.i.i = phi ptr [ %sift.sroa.0.0.i.i, %bb7.i.i ], [ %dst7.i, %bb24.i ]
  %sift.sroa.0.0.i.i = phi ptr [ %47, %bb7.i.i ], [ %45, %bb24.i ]
  store i32 %46, ptr %gap_guard.sroa.5.0.i.i, align 4, !alias.scope !1384, !noalias !1457
  %_18.i.i = icmp eq ptr %sift.sroa.0.0.i.i, %scratch.0
  br i1 %_18.i.i, label %bb10.i.i, label %bb7.i.i

bb7.i.i:                                          ; preds = %bb4.i.i
  %47 = getelementptr inbounds i8, ptr %sift.sroa.0.0.i.i, i64 -4
  %_4.i.i2.i.i = load i32, ptr %47, align 4, !alias.scope !1537, !noalias !1542, !noundef !18
  %_0.i.i3.i.i = icmp slt i32 %44, %_4.i.i2.i.i
  br i1 %_0.i.i3.i.i, label %bb4.i.i, label %bb10.i.i

bb10.i.i:                                         ; preds = %bb7.i.i, %bb4.i.i
  %sift.sroa.0.0.i.lcssa.i = phi ptr [ %sift.sroa.0.0.i.i, %bb7.i.i ], [ %scratch.0, %bb4.i.i ]
  store i32 %44, ptr %sift.sroa.0.0.i.lcssa.i, align 4, !alias.scope !1384, !noalias !1545
  br label %_ZN4core5slice4sort6shared9smallsort11insert_tail17h72095183ceb5ec4bE.exit.i

_ZN4core5slice4sort6shared9smallsort11insert_tail17h72095183ceb5ec4bE.exit.i: ; preds = %bb10.i.i, %bb24.i
  %_80.i = icmp ult i64 %iter1.sroa.0.165.i, %len_div_211.i
  %_84.i = zext i1 %_80.i to i64
  %iter1.sroa.0.1.i = add nuw i64 %iter1.sroa.0.165.i, %_84.i
  br i1 %_80.i, label %bb24.i, label %bb16.loopexit.i

bb7:                                              ; preds = %bb5
  %48 = add i32 %limit.sroa.0.0131, -1
  %len_div_84.i = lshr i64 %v.sroa.16.0132, 3
  %b.idx.i = shl nuw nsw i64 %len_div_84.i, 4
  %b.i = getelementptr inbounds nuw i8, ptr %v.sroa.0.0.ph140, i64 %b.idx.i
  %c.idx.i = mul nuw nsw i64 %len_div_84.i, 28
  %c.i = getelementptr inbounds nuw i8, ptr %v.sroa.0.0.ph140, i64 %c.idx.i
  %_12.i = icmp samesign ult i64 %v.sroa.16.0132, 64
  br i1 %_12.i, label %bb3.i23, label %bb5.i

bb5.i:                                            ; preds = %bb7
; call core::slice::sort::shared::pivot::median3_rec
  %self.i = call fastcc noundef ptr @_ZN4core5slice4sort6shared5pivot11median3_rec17h5724a240ae491708E(ptr noundef nonnull readonly align 4 %v.sroa.0.0.ph140, ptr noundef readonly %b.i, ptr noundef readonly %c.i, i64 noundef %len_div_84.i)
  br label %bb10

bb3.i23:                                          ; preds = %bb7
  call void @llvm.experimental.noalias.scope.decl(metadata !1600)
  call void @llvm.experimental.noalias.scope.decl(metadata !1603)
  call void @llvm.experimental.noalias.scope.decl(metadata !1605), !noalias !1608
  call void @llvm.experimental.noalias.scope.decl(metadata !1611), !noalias !1608
  %_3.i.i.i = load i32, ptr %v.sroa.0.0.ph140, align 4, !alias.scope !1613, !noalias !1616, !noundef !18
  %_4.i.i.i = load i32, ptr %b.i, align 4, !alias.scope !1618, !noalias !1619, !noundef !18
  %_0.i.i.i = icmp slt i32 %_3.i.i.i, %_4.i.i.i
  %_4.i.i6.i = load i32, ptr %c.i, align 4, !alias.scope !1620, !noalias !1625, !noundef !18
  %_0.i.i7.i = icmp slt i32 %_3.i.i.i, %_4.i.i6.i
  %49 = xor i1 %_0.i.i.i, %_0.i.i7.i
  %_0.i.i10.i = icmp slt i32 %_4.i.i.i, %_4.i.i6.i
  %_12.i.i24 = xor i1 %_0.i.i.i, %_0.i.i10.i
  %c.b.i.i = select i1 %_12.i.i24, ptr %c.i, ptr %b.i
  %_0.sroa.0.0.i.i = select i1 %49, ptr %v.sroa.0.0.ph140, ptr %c.b.i.i
  br label %bb10

bb6:                                              ; preds = %bb5
; call core::slice::sort::stable::drift::sort
  call fastcc void @_ZN4core5slice4sort6stable5drift4sort17h9bbabab016b921ceE(ptr noalias noundef nonnull align 4 %v.sroa.0.0.ph140, i64 noundef %v.sroa.16.0132, ptr noalias noundef nonnull align 4 %scratch.0, i64 noundef %scratch.1, i1 noundef zeroext true, ptr noalias noundef nonnull align 1 %is_less)
  br label %bb22

bb10:                                             ; preds = %bb3.i23, %bb5.i
  %_0.sroa.0.0.i.sink.i = phi ptr [ %_0.sroa.0.0.i.i, %bb3.i23 ], [ %self.i, %bb5.i ]
  %50 = ptrtoint ptr %_0.sroa.0.0.i.sink.i to i64
  %51 = sub nuw i64 %50, %4
  %index.sroa.0.0.i = lshr exact i64 %51, 2
  %cond.i = icmp samesign ult i64 %index.sroa.0.0.i, %v.sroa.16.0132
  call void @llvm.assume(i1 %cond.i)
  call void @llvm.lifetime.start.p0(i64 4, ptr nonnull %pivot_copy)
  %src = getelementptr inbounds nuw i8, ptr %v.sroa.0.0.ph140, i64 %51
  %value = load i32, ptr %src, align 4, !noundef !18
  store i32 %value, ptr %pivot_copy, align 4
  br i1 %.not, label %bb14, label %bb12

bb12:                                             ; preds = %bb10
  %_3.i.i = load i32, ptr %left_ancestor_pivot.sroa.0.0.ph137, align 4, !alias.scope !1628, !noalias !1633, !noundef !18
  %_0.i.i = icmp slt i32 %_3.i.i, %value
  br i1 %_0.i.i, label %bb14, label %bb17

bb14:                                             ; preds = %bb10, %bb12
  call void @llvm.experimental.noalias.scope.decl(metadata !1636)
  call void @llvm.experimental.noalias.scope.decl(metadata !1639)
  %_8.i25.not = icmp samesign ult i64 %scratch.1, %v.sroa.16.0132
  br i1 %_8.i25.not, label %bb31.i, label %bb33.i, !prof !271

bb33.i:                                           ; preds = %bb14
  %_86.i = getelementptr i32, ptr %scratch.0, i64 %v.sroa.16.0132
  br label %bb3.i26

bb31.i:                                           ; preds = %bb14
  call void @llvm.trap()
  unreachable

bb3.i26:                                          ; preds = %bb23.i, %bb33.i
  %state.sroa.27.0.i = phi i64 [ 0, %bb33.i ], [ %state.sroa.27.2.lcssa.i, %bb23.i ]
  %state.sroa.9.0.i = phi ptr [ %v.sroa.0.0.ph140, %bb33.i ], [ %_9.i70.i, %bb23.i ]
  %state.sroa.43.0.i = phi ptr [ %_86.i, %bb33.i ], [ %63, %bb23.i ]
  %pivot_pos.sroa.0.0.i = phi i64 [ %index.sroa.0.0.i, %bb33.i ], [ %v.sroa.16.0132, %bb23.i ]
  %52 = call i64 @llvm.usub.sat.i64(i64 %pivot_pos.sroa.0.0.i, i64 3)
  %unroll_end.i = getelementptr inbounds nuw i32, ptr %v.sroa.0.0.ph140, i64 %52
  %_1984.i = icmp ult ptr %state.sroa.9.0.i, %unroll_end.i
  br i1 %_1984.i, label %bb6.i28.preheader, label %bb16.i

bb6.i28.preheader:                                ; preds = %bb3.i26
  %_4.i.i.i30 = load i32, ptr %src, align 4, !alias.scope !1641, !noalias !1646, !noundef !18
  br label %bb6.i28

bb6.i28:                                          ; preds = %bb6.i28.preheader, %bb6.i28
  %state.sroa.43.187.i = phi ptr [ %59, %bb6.i28 ], [ %state.sroa.43.0.i, %bb6.i28.preheader ]
  %state.sroa.9.186.i = phi ptr [ %_9.i54.i, %bb6.i28 ], [ %state.sroa.9.0.i, %bb6.i28.preheader ]
  %state.sroa.27.185.i = phi i64 [ %60, %bb6.i28 ], [ %state.sroa.27.0.i, %bb6.i28.preheader ]
  call void @llvm.experimental.noalias.scope.decl(metadata !1649)
  call void @llvm.experimental.noalias.scope.decl(metadata !1650)
  call void @llvm.experimental.noalias.scope.decl(metadata !1651)
  call void @llvm.experimental.noalias.scope.decl(metadata !1652)
  %_3.i.i.i29 = load i32, ptr %state.sroa.9.186.i, align 4, !alias.scope !1653, !noalias !1654, !noundef !18
  %_0.i.i.i31 = icmp slt i32 %_3.i.i.i29, %_4.i.i.i30
  %53 = getelementptr inbounds i8, ptr %state.sroa.43.187.i, i64 -4
  %dst_base.sroa.0.0.i.i = select i1 %_0.i.i.i31, ptr %scratch.0, ptr %53
  %dst.i.i = getelementptr inbounds nuw i32, ptr %dst_base.sroa.0.0.i.i, i64 %state.sroa.27.185.i
  store i32 %_3.i.i.i29, ptr %dst.i.i, align 4, !alias.scope !1639, !noalias !1655
  %_8.i.i = zext i1 %_0.i.i.i31 to i64
  %54 = add i64 %state.sroa.27.185.i, %_8.i.i
  %_9.i.i = getelementptr inbounds nuw i8, ptr %state.sroa.9.186.i, i64 4
  %_3.i.i25.i = load i32, ptr %_9.i.i, align 4, !alias.scope !1658, !noalias !1663, !noundef !18
  %_0.i.i27.i = icmp slt i32 %_3.i.i25.i, %_4.i.i.i30
  %55 = getelementptr inbounds i8, ptr %state.sroa.43.187.i, i64 -8
  %dst_base.sroa.0.0.i29.i = select i1 %_0.i.i27.i, ptr %scratch.0, ptr %55
  %dst.i31.i = getelementptr inbounds nuw i32, ptr %dst_base.sroa.0.0.i29.i, i64 %54
  store i32 %_3.i.i25.i, ptr %dst.i31.i, align 4, !alias.scope !1639, !noalias !1666
  %_8.i33.i = zext i1 %_0.i.i27.i to i64
  %56 = add i64 %54, %_8.i33.i
  %_9.i34.i = getelementptr inbounds nuw i8, ptr %state.sroa.9.186.i, i64 8
  %_3.i.i35.i = load i32, ptr %_9.i34.i, align 4, !alias.scope !1669, !noalias !1674, !noundef !18
  %_0.i.i37.i = icmp slt i32 %_3.i.i35.i, %_4.i.i.i30
  %57 = getelementptr inbounds i8, ptr %state.sroa.43.187.i, i64 -12
  %dst_base.sroa.0.0.i39.i = select i1 %_0.i.i37.i, ptr %scratch.0, ptr %57
  %dst.i41.i = getelementptr inbounds nuw i32, ptr %dst_base.sroa.0.0.i39.i, i64 %56
  store i32 %_3.i.i35.i, ptr %dst.i41.i, align 4, !alias.scope !1639, !noalias !1677
  %_8.i43.i = zext i1 %_0.i.i37.i to i64
  %58 = add i64 %56, %_8.i43.i
  %_9.i44.i = getelementptr inbounds nuw i8, ptr %state.sroa.9.186.i, i64 12
  %_3.i.i45.i = load i32, ptr %_9.i44.i, align 4, !alias.scope !1680, !noalias !1685, !noundef !18
  %_0.i.i47.i = icmp slt i32 %_3.i.i45.i, %_4.i.i.i30
  %59 = getelementptr inbounds i8, ptr %state.sroa.43.187.i, i64 -16
  %dst_base.sroa.0.0.i49.i = select i1 %_0.i.i47.i, ptr %scratch.0, ptr %59
  %dst.i51.i = getelementptr inbounds nuw i32, ptr %dst_base.sroa.0.0.i49.i, i64 %58
  store i32 %_3.i.i45.i, ptr %dst.i51.i, align 4, !alias.scope !1639, !noalias !1688
  %_8.i53.i = zext i1 %_0.i.i47.i to i64
  %60 = add i64 %58, %_8.i53.i
  %_9.i54.i = getelementptr inbounds nuw i8, ptr %state.sroa.9.186.i, i64 16
  %_19.i32 = icmp ult ptr %_9.i54.i, %unroll_end.i
  br i1 %_19.i32, label %bb6.i28, label %bb16.i

bb16.i:                                           ; preds = %bb6.i28, %bb3.i26
  %state.sroa.27.1.lcssa.i = phi i64 [ %state.sroa.27.0.i, %bb3.i26 ], [ %60, %bb6.i28 ]
  %state.sroa.9.1.lcssa.i = phi ptr [ %state.sroa.9.0.i, %bb3.i26 ], [ %_9.i54.i, %bb6.i28 ]
  %state.sroa.43.1.lcssa.i = phi ptr [ %state.sroa.43.0.i, %bb3.i26 ], [ %59, %bb6.i28 ]
  %loop_end.i = getelementptr inbounds nuw i32, ptr %v.sroa.0.0.ph140, i64 %pivot_pos.sroa.0.0.i
  %_4790.i = icmp ult ptr %state.sroa.9.1.lcssa.i, %loop_end.i
  br i1 %_4790.i, label %bb18.i.preheader, label %bb21.i

bb18.i.preheader:                                 ; preds = %bb16.i
  %_4.i.i56.i = load i32, ptr %src, align 4, !alias.scope !1691, !noalias !1696, !noundef !18
  br label %bb18.i

bb21.i:                                           ; preds = %bb18.i, %bb16.i
  %state.sroa.27.2.lcssa.i = phi i64 [ %state.sroa.27.1.lcssa.i, %bb16.i ], [ %62, %bb18.i ]
  %state.sroa.9.2.lcssa.i = phi ptr [ %state.sroa.9.1.lcssa.i, %bb16.i ], [ %_9.i64.i, %bb18.i ]
  %state.sroa.43.2.lcssa.i = phi ptr [ %state.sroa.43.1.lcssa.i, %bb16.i ], [ %61, %bb18.i ]
  %_55.i27 = icmp eq i64 %pivot_pos.sroa.0.0.i, %v.sroa.16.0132
  br i1 %_55.i27, label %bb22.i, label %bb23.i

bb18.i:                                           ; preds = %bb18.i.preheader, %bb18.i
  %state.sroa.43.293.i = phi ptr [ %61, %bb18.i ], [ %state.sroa.43.1.lcssa.i, %bb18.i.preheader ]
  %state.sroa.9.292.i = phi ptr [ %_9.i64.i, %bb18.i ], [ %state.sroa.9.1.lcssa.i, %bb18.i.preheader ]
  %state.sroa.27.291.i = phi i64 [ %62, %bb18.i ], [ %state.sroa.27.1.lcssa.i, %bb18.i.preheader ]
  call void @llvm.experimental.noalias.scope.decl(metadata !1699)
  call void @llvm.experimental.noalias.scope.decl(metadata !1700)
  call void @llvm.experimental.noalias.scope.decl(metadata !1701)
  call void @llvm.experimental.noalias.scope.decl(metadata !1702)
  %_3.i.i55.i = load i32, ptr %state.sroa.9.292.i, align 4, !alias.scope !1703, !noalias !1704, !noundef !18
  %_0.i.i57.i = icmp slt i32 %_3.i.i55.i, %_4.i.i56.i
  %61 = getelementptr inbounds i8, ptr %state.sroa.43.293.i, i64 -4
  %dst_base.sroa.0.0.i59.i = select i1 %_0.i.i57.i, ptr %scratch.0, ptr %61
  %dst.i61.i = getelementptr inbounds nuw i32, ptr %dst_base.sroa.0.0.i59.i, i64 %state.sroa.27.291.i
  store i32 %_3.i.i55.i, ptr %dst.i61.i, align 4, !alias.scope !1639, !noalias !1705
  %_8.i63.i = zext i1 %_0.i.i57.i to i64
  %62 = add i64 %state.sroa.27.291.i, %_8.i63.i
  %_9.i64.i = getelementptr inbounds nuw i8, ptr %state.sroa.9.292.i, i64 4
  %_47.i = icmp ult ptr %_9.i64.i, %loop_end.i
  br i1 %_47.i, label %bb18.i, label %bb21.i

bb23.i:                                           ; preds = %bb21.i
  %63 = getelementptr inbounds i8, ptr %state.sroa.43.2.lcssa.i, i64 -4
  %dst.i68.i = getelementptr inbounds nuw i32, ptr %63, i64 %state.sroa.27.2.lcssa.i
  %64 = load i32, ptr %state.sroa.9.2.lcssa.i, align 4, !alias.scope !1636, !noalias !1708
  store i32 %64, ptr %dst.i68.i, align 4, !alias.scope !1639, !noalias !1711
  %_9.i70.i = getelementptr inbounds nuw i8, ptr %state.sroa.9.2.lcssa.i, i64 4
  br label %bb3.i26

bb22.i:                                           ; preds = %bb21.i
  %65 = shl i64 %state.sroa.27.2.lcssa.i, 2
  call void @llvm.memcpy.p0.p0.i64(ptr nonnull align 4 %v.sroa.0.0.ph140, ptr nonnull align 4 %scratch.0, i64 %65, i1 false), !alias.scope !1712
  %_63.i = sub i64 %v.sroa.16.0132, %state.sroa.27.2.lcssa.i
  %_9797.not.i = icmp eq i64 %v.sroa.16.0132, %state.sroa.27.2.lcssa.i
  br i1 %_9797.not.i, label %bb16, label %bb42.lr.ph.i

bb42.lr.ph.i:                                     ; preds = %bb22.i
  %66 = getelementptr i32, ptr %v.sroa.0.0.ph140, i64 %state.sroa.27.2.lcssa.i
  %min.iters.check265 = icmp ult i64 %_63.i, 8
  br i1 %min.iters.check265, label %bb42.i.preheader, label %vector.ph266

vector.ph266:                                     ; preds = %bb42.lr.ph.i
  %n.vec268 = and i64 %_63.i, -8
  br label %vector.body269

vector.body269:                                   ; preds = %vector.body269, %vector.ph266
  %index270 = phi i64 [ 0, %vector.ph266 ], [ %index.next275, %vector.body269 ]
  %67 = getelementptr i32, ptr %66, i64 %index270
  %68 = xor i64 %index270, -1
  %69 = getelementptr i32, ptr %_86.i, i64 %68
  %70 = getelementptr i8, ptr %69, i64 -12
  %71 = getelementptr i8, ptr %69, i64 -28
  %wide.load271 = load <4 x i32>, ptr %70, align 4, !alias.scope !1639, !noalias !1636
  %reverse272 = shufflevector <4 x i32> %wide.load271, <4 x i32> poison, <4 x i32> <i32 3, i32 2, i32 1, i32 0>
  %wide.load273 = load <4 x i32>, ptr %71, align 4, !alias.scope !1639, !noalias !1636
  %reverse274 = shufflevector <4 x i32> %wide.load273, <4 x i32> poison, <4 x i32> <i32 3, i32 2, i32 1, i32 0>
  %72 = getelementptr i8, ptr %67, i64 16
  store <4 x i32> %reverse272, ptr %67, align 4, !alias.scope !1636, !noalias !1639
  store <4 x i32> %reverse274, ptr %72, align 4, !alias.scope !1636, !noalias !1639
  %index.next275 = add nuw i64 %index270, 8
  %73 = icmp eq i64 %index.next275, %n.vec268
  br i1 %73, label %middle.block276, label %vector.body269, !llvm.loop !1713

middle.block276:                                  ; preds = %vector.body269
  %cmp.n277 = icmp eq i64 %_63.i, %n.vec268
  br i1 %cmp.n277, label %bb16, label %bb42.i.preheader

bb42.i.preheader:                                 ; preds = %bb42.lr.ph.i, %middle.block276
  %iter.sroa.0.098.i.ph = phi i64 [ 0, %bb42.lr.ph.i ], [ %n.vec268, %middle.block276 ]
  br label %bb42.i

bb42.i:                                           ; preds = %bb42.i.preheader, %bb42.i
  %iter.sroa.0.098.i = phi i64 [ %74, %bb42.i ], [ %iter.sroa.0.098.i.ph, %bb42.i.preheader ]
  %74 = add nuw i64 %iter.sroa.0.098.i, 1
  %75 = getelementptr i32, ptr %66, i64 %iter.sroa.0.098.i
  %76 = xor i64 %iter.sroa.0.098.i, -1
  %77 = getelementptr i32, ptr %_86.i, i64 %76
  %78 = load i32, ptr %77, align 4, !alias.scope !1639, !noalias !1636
  store i32 %78, ptr %75, align 4, !alias.scope !1636, !noalias !1639
  %exitcond.not.i = icmp eq i64 %74, %_63.i
  br i1 %exitcond.not.i, label %bb16, label %bb42.i, !llvm.loop !1714

bb16:                                             ; preds = %bb42.i, %middle.block276, %bb22.i
  %79 = icmp eq i64 %state.sroa.27.2.lcssa.i, 0
  br i1 %79, label %bb17, label %bb19

bb19:                                             ; preds = %bb16
  %_6.not.i = icmp ugt i64 %state.sroa.27.2.lcssa.i, %v.sroa.16.0132
  br i1 %_6.not.i, label %bb3.i33, label %"_ZN4core5slice29_$LT$impl$u20$$u5b$T$u5d$$GT$12split_at_mut17hbf97a915e50deb38E.exit", !prof !1259

bb3.i33:                                          ; preds = %bb19
; call core::panicking::panic_fmt
  call void @_ZN4core9panicking9panic_fmt17ha4414e4328fe24a0E(ptr noundef nonnull @alloc_d1084648e479974e70c9329824bf76f9, ptr noundef nonnull inttoptr (i64 19 to ptr), ptr noalias noundef nonnull readonly align 8 captures(address, read_provenance) dereferenceable(24) @alloc_58d434a1e795f965ef82c8e9c5db822a) #18, !noalias !1715
  unreachable

"_ZN4core5slice29_$LT$impl$u20$$u5b$T$u5d$$GT$12split_at_mut17hbf97a915e50deb38E.exit": ; preds = %bb19
  %80 = getelementptr inbounds nuw i32, ptr %v.sroa.0.0.ph140, i64 %state.sroa.27.2.lcssa.i
; call core::slice::sort::stable::quicksort::quicksort
  call void @_ZN4core5slice4sort6stable9quicksort9quicksort17hdfe40f669e50b91dE(ptr noalias noundef nonnull align 4 %80, i64 noundef %_63.i, ptr noalias noundef nonnull align 4 %scratch.0, i64 noundef %scratch.1, i32 noundef %48, ptr noalias noundef nonnull readonly align 4 captures(address, read_provenance) dereferenceable_or_null(4) %pivot_copy, ptr noalias noundef nonnull align 1 %is_less) #21
  call void @llvm.lifetime.end.p0(i64 4, ptr nonnull %pivot_copy)
  %_8 = icmp ult i64 %state.sroa.27.2.lcssa.i, 33
  br i1 %_8, label %bb3, label %bb5

bb17:                                             ; preds = %bb12, %bb16
  call void @llvm.experimental.noalias.scope.decl(metadata !1719)
  call void @llvm.experimental.noalias.scope.decl(metadata !1722)
  %_8.i34.not = icmp samesign ult i64 %scratch.1, %v.sroa.16.0132
  br i1 %_8.i34.not, label %bb31.i37, label %bb33.i38, !prof !271

bb33.i38:                                         ; preds = %bb17
  %_86.i40 = getelementptr i32, ptr %scratch.0, i64 %v.sroa.16.0132
  br label %bb3.i41

bb31.i37:                                         ; preds = %bb17
  call void @llvm.trap()
  unreachable

bb3.i41:                                          ; preds = %bb23.i59, %bb33.i38
  %state.sroa.27.0.i42 = phi i64 [ 0, %bb33.i38 ], [ %94, %bb23.i59 ]
  %state.sroa.9.0.i43 = phi ptr [ %v.sroa.0.0.ph140, %bb33.i38 ], [ %_9.i70.i61, %bb23.i59 ]
  %state.sroa.43.0.i44 = phi ptr [ %_86.i40, %bb33.i38 ], [ %92, %bb23.i59 ]
  %pivot_pos.sroa.0.0.i45 = phi i64 [ %index.sroa.0.0.i, %bb33.i38 ], [ %v.sroa.16.0132, %bb23.i59 ]
  %81 = call i64 @llvm.usub.sat.i64(i64 %pivot_pos.sroa.0.0.i45, i64 3)
  %unroll_end.i46 = getelementptr inbounds nuw i32, ptr %v.sroa.0.0.ph140, i64 %81
  %_1984.i47 = icmp ult ptr %state.sroa.9.0.i43, %unroll_end.i46
  br i1 %_1984.i47, label %bb6.i78.preheader, label %bb16.i48

bb6.i78.preheader:                                ; preds = %bb3.i41
  %_3.i.i.i.i82 = load i32, ptr %src, align 4, !alias.scope !1724, !noalias !1731, !noundef !18
  br label %bb6.i78

bb6.i78:                                          ; preds = %bb6.i78.preheader, %bb6.i78
  %state.sroa.43.187.i79 = phi ptr [ %88, %bb6.i78 ], [ %state.sroa.43.0.i44, %bb6.i78.preheader ]
  %state.sroa.9.186.i80 = phi ptr [ %_9.i54.i100, %bb6.i78 ], [ %state.sroa.9.0.i43, %bb6.i78.preheader ]
  %state.sroa.27.185.i81 = phi i64 [ %89, %bb6.i78 ], [ %state.sroa.27.0.i42, %bb6.i78.preheader ]
  call void @llvm.experimental.noalias.scope.decl(metadata !1735)
  call void @llvm.experimental.noalias.scope.decl(metadata !1736)
  call void @llvm.experimental.noalias.scope.decl(metadata !1737)
  call void @llvm.experimental.noalias.scope.decl(metadata !1738)
  call void @llvm.experimental.noalias.scope.decl(metadata !1739)
  call void @llvm.experimental.noalias.scope.decl(metadata !1740)
  %_4.i.i.i.i83 = load i32, ptr %state.sroa.9.186.i80, align 4, !alias.scope !1741, !noalias !1742, !noundef !18
  %_0.i.i.i.i84 = icmp sge i32 %_3.i.i.i.i82, %_4.i.i.i.i83
  %82 = getelementptr inbounds i8, ptr %state.sroa.43.187.i79, i64 -4
  %dst_base.sroa.0.0.i.i85 = select i1 %_0.i.i.i.i84, ptr %scratch.0, ptr %82
  %dst.i.i86 = getelementptr inbounds nuw i32, ptr %dst_base.sroa.0.0.i.i85, i64 %state.sroa.27.185.i81
  store i32 %_4.i.i.i.i83, ptr %dst.i.i86, align 4, !alias.scope !1722, !noalias !1743
  %_8.i.i87 = zext i1 %_0.i.i.i.i84 to i64
  %83 = add i64 %state.sroa.27.185.i81, %_8.i.i87
  %_9.i.i88 = getelementptr inbounds nuw i8, ptr %state.sroa.9.186.i80, i64 4
  %_4.i.i.i26.i = load i32, ptr %_9.i.i88, align 4, !alias.scope !1746, !noalias !1753, !noundef !18
  %_0.i.i.i27.i = icmp sge i32 %_3.i.i.i.i82, %_4.i.i.i26.i
  %84 = getelementptr inbounds i8, ptr %state.sroa.43.187.i79, i64 -8
  %dst_base.sroa.0.0.i29.i89 = select i1 %_0.i.i.i27.i, ptr %scratch.0, ptr %84
  %dst.i31.i90 = getelementptr inbounds nuw i32, ptr %dst_base.sroa.0.0.i29.i89, i64 %83
  store i32 %_4.i.i.i26.i, ptr %dst.i31.i90, align 4, !alias.scope !1722, !noalias !1757
  %_8.i33.i91 = zext i1 %_0.i.i.i27.i to i64
  %85 = add i64 %83, %_8.i33.i91
  %_9.i34.i92 = getelementptr inbounds nuw i8, ptr %state.sroa.9.186.i80, i64 8
  %_4.i.i.i36.i = load i32, ptr %_9.i34.i92, align 4, !alias.scope !1760, !noalias !1767, !noundef !18
  %_0.i.i.i37.i = icmp sge i32 %_3.i.i.i.i82, %_4.i.i.i36.i
  %86 = getelementptr inbounds i8, ptr %state.sroa.43.187.i79, i64 -12
  %dst_base.sroa.0.0.i39.i93 = select i1 %_0.i.i.i37.i, ptr %scratch.0, ptr %86
  %dst.i41.i94 = getelementptr inbounds nuw i32, ptr %dst_base.sroa.0.0.i39.i93, i64 %85
  store i32 %_4.i.i.i36.i, ptr %dst.i41.i94, align 4, !alias.scope !1722, !noalias !1771
  %_8.i43.i95 = zext i1 %_0.i.i.i37.i to i64
  %87 = add i64 %85, %_8.i43.i95
  %_9.i44.i96 = getelementptr inbounds nuw i8, ptr %state.sroa.9.186.i80, i64 12
  %_4.i.i.i46.i = load i32, ptr %_9.i44.i96, align 4, !alias.scope !1774, !noalias !1781, !noundef !18
  %_0.i.i.i47.i = icmp sge i32 %_3.i.i.i.i82, %_4.i.i.i46.i
  %88 = getelementptr inbounds i8, ptr %state.sroa.43.187.i79, i64 -16
  %dst_base.sroa.0.0.i49.i97 = select i1 %_0.i.i.i47.i, ptr %scratch.0, ptr %88
  %dst.i51.i98 = getelementptr inbounds nuw i32, ptr %dst_base.sroa.0.0.i49.i97, i64 %87
  store i32 %_4.i.i.i46.i, ptr %dst.i51.i98, align 4, !alias.scope !1722, !noalias !1785
  %_8.i53.i99 = zext i1 %_0.i.i.i47.i to i64
  %89 = add i64 %87, %_8.i53.i99
  %_9.i54.i100 = getelementptr inbounds nuw i8, ptr %state.sroa.9.186.i80, i64 16
  %_19.i101 = icmp ult ptr %_9.i54.i100, %unroll_end.i46
  br i1 %_19.i101, label %bb6.i78, label %bb16.i48

bb16.i48:                                         ; preds = %bb6.i78, %bb3.i41
  %state.sroa.27.1.lcssa.i49 = phi i64 [ %state.sroa.27.0.i42, %bb3.i41 ], [ %89, %bb6.i78 ]
  %state.sroa.9.1.lcssa.i50 = phi ptr [ %state.sroa.9.0.i43, %bb3.i41 ], [ %_9.i54.i100, %bb6.i78 ]
  %state.sroa.43.1.lcssa.i51 = phi ptr [ %state.sroa.43.0.i44, %bb3.i41 ], [ %88, %bb6.i78 ]
  %loop_end.i52 = getelementptr inbounds nuw i32, ptr %v.sroa.0.0.ph140, i64 %pivot_pos.sroa.0.0.i45
  %_4790.i53 = icmp ult ptr %state.sroa.9.1.lcssa.i50, %loop_end.i52
  br i1 %_4790.i53, label %bb18.i69.preheader, label %bb21.i54

bb18.i69.preheader:                               ; preds = %bb16.i48
  %_3.i.i.i55.i = load i32, ptr %src, align 4, !alias.scope !1788, !noalias !1795, !noundef !18
  br label %bb18.i69

bb21.i54:                                         ; preds = %bb18.i69, %bb16.i48
  %state.sroa.27.2.lcssa.i55 = phi i64 [ %state.sroa.27.1.lcssa.i49, %bb16.i48 ], [ %91, %bb18.i69 ]
  %state.sroa.9.2.lcssa.i56 = phi ptr [ %state.sroa.9.1.lcssa.i50, %bb16.i48 ], [ %_9.i64.i76, %bb18.i69 ]
  %state.sroa.43.2.lcssa.i57 = phi ptr [ %state.sroa.43.1.lcssa.i51, %bb16.i48 ], [ %90, %bb18.i69 ]
  %_55.i58 = icmp eq i64 %pivot_pos.sroa.0.0.i45, %v.sroa.16.0132
  br i1 %_55.i58, label %bb22.i62, label %bb23.i59

bb18.i69:                                         ; preds = %bb18.i69.preheader, %bb18.i69
  %state.sroa.43.293.i70 = phi ptr [ %90, %bb18.i69 ], [ %state.sroa.43.1.lcssa.i51, %bb18.i69.preheader ]
  %state.sroa.9.292.i71 = phi ptr [ %_9.i64.i76, %bb18.i69 ], [ %state.sroa.9.1.lcssa.i50, %bb18.i69.preheader ]
  %state.sroa.27.291.i72 = phi i64 [ %91, %bb18.i69 ], [ %state.sroa.27.1.lcssa.i49, %bb18.i69.preheader ]
  call void @llvm.experimental.noalias.scope.decl(metadata !1799)
  call void @llvm.experimental.noalias.scope.decl(metadata !1800)
  call void @llvm.experimental.noalias.scope.decl(metadata !1801)
  call void @llvm.experimental.noalias.scope.decl(metadata !1802)
  call void @llvm.experimental.noalias.scope.decl(metadata !1803)
  call void @llvm.experimental.noalias.scope.decl(metadata !1804)
  %_4.i.i.i56.i = load i32, ptr %state.sroa.9.292.i71, align 4, !alias.scope !1805, !noalias !1806, !noundef !18
  %_0.i.i.i57.i = icmp sge i32 %_3.i.i.i55.i, %_4.i.i.i56.i
  %90 = getelementptr inbounds i8, ptr %state.sroa.43.293.i70, i64 -4
  %dst_base.sroa.0.0.i59.i73 = select i1 %_0.i.i.i57.i, ptr %scratch.0, ptr %90
  %dst.i61.i74 = getelementptr inbounds nuw i32, ptr %dst_base.sroa.0.0.i59.i73, i64 %state.sroa.27.291.i72
  store i32 %_4.i.i.i56.i, ptr %dst.i61.i74, align 4, !alias.scope !1722, !noalias !1807
  %_8.i63.i75 = zext i1 %_0.i.i.i57.i to i64
  %91 = add i64 %state.sroa.27.291.i72, %_8.i63.i75
  %_9.i64.i76 = getelementptr inbounds nuw i8, ptr %state.sroa.9.292.i71, i64 4
  %_47.i77 = icmp ult ptr %_9.i64.i76, %loop_end.i52
  br i1 %_47.i77, label %bb18.i69, label %bb21.i54

bb23.i59:                                         ; preds = %bb21.i54
  %92 = getelementptr inbounds i8, ptr %state.sroa.43.2.lcssa.i57, i64 -4
  %dst.i68.i60 = getelementptr inbounds nuw i32, ptr %scratch.0, i64 %state.sroa.27.2.lcssa.i55
  %93 = load i32, ptr %state.sroa.9.2.lcssa.i56, align 4, !alias.scope !1719, !noalias !1810
  store i32 %93, ptr %dst.i68.i60, align 4, !alias.scope !1722, !noalias !1813
  %94 = add i64 %state.sroa.27.2.lcssa.i55, 1
  %_9.i70.i61 = getelementptr inbounds nuw i8, ptr %state.sroa.9.2.lcssa.i56, i64 4
  br label %bb3.i41

bb22.i62:                                         ; preds = %bb21.i54
  %95 = shl i64 %state.sroa.27.2.lcssa.i55, 2
  call void @llvm.memcpy.p0.p0.i64(ptr nonnull align 4 %v.sroa.0.0.ph140, ptr nonnull align 4 %scratch.0, i64 %95, i1 false), !alias.scope !1814
  %_63.i63 = sub i64 %v.sroa.16.0132, %state.sroa.27.2.lcssa.i55
  %_9797.not.i64 = icmp eq i64 %v.sroa.16.0132, %state.sroa.27.2.lcssa.i55
  br i1 %_9797.not.i64, label %bb3.thread, label %bb42.lr.ph.i65

bb42.lr.ph.i65:                                   ; preds = %bb22.i62
  %96 = getelementptr i32, ptr %v.sroa.0.0.ph140, i64 %state.sroa.27.2.lcssa.i55
  %min.iters.check = icmp ult i64 %_63.i63, 8
  br i1 %min.iters.check, label %bb42.i66.preheader, label %vector.ph

vector.ph:                                        ; preds = %bb42.lr.ph.i65
  %n.vec = and i64 %_63.i63, -8
  br label %vector.body

vector.body:                                      ; preds = %vector.body, %vector.ph
  %index = phi i64 [ 0, %vector.ph ], [ %index.next, %vector.body ]
  %97 = getelementptr i32, ptr %96, i64 %index
  %98 = xor i64 %index, -1
  %99 = getelementptr i32, ptr %_86.i40, i64 %98
  %100 = getelementptr i8, ptr %99, i64 -12
  %101 = getelementptr i8, ptr %99, i64 -28
  %wide.load = load <4 x i32>, ptr %100, align 4, !alias.scope !1722, !noalias !1719
  %reverse = shufflevector <4 x i32> %wide.load, <4 x i32> poison, <4 x i32> <i32 3, i32 2, i32 1, i32 0>
  %wide.load262 = load <4 x i32>, ptr %101, align 4, !alias.scope !1722, !noalias !1719
  %reverse263 = shufflevector <4 x i32> %wide.load262, <4 x i32> poison, <4 x i32> <i32 3, i32 2, i32 1, i32 0>
  %102 = getelementptr i8, ptr %97, i64 16
  store <4 x i32> %reverse, ptr %97, align 4, !alias.scope !1719, !noalias !1722
  store <4 x i32> %reverse263, ptr %102, align 4, !alias.scope !1719, !noalias !1722
  %index.next = add nuw i64 %index, 8
  %103 = icmp eq i64 %index.next, %n.vec
  br i1 %103, label %middle.block, label %vector.body, !llvm.loop !1815

middle.block:                                     ; preds = %vector.body
  %cmp.n = icmp eq i64 %_63.i63, %n.vec
  br i1 %cmp.n, label %_ZN4core5slice4sort6stable9quicksort16stable_partition17hd213d5bd3398c00dE.exit, label %bb42.i66.preheader

bb42.i66.preheader:                               ; preds = %bb42.lr.ph.i65, %middle.block
  %iter.sroa.0.098.i67.ph = phi i64 [ 0, %bb42.lr.ph.i65 ], [ %n.vec, %middle.block ]
  br label %bb42.i66

bb42.i66:                                         ; preds = %bb42.i66.preheader, %bb42.i66
  %iter.sroa.0.098.i67 = phi i64 [ %104, %bb42.i66 ], [ %iter.sroa.0.098.i67.ph, %bb42.i66.preheader ]
  %104 = add nuw i64 %iter.sroa.0.098.i67, 1
  %105 = getelementptr i32, ptr %96, i64 %iter.sroa.0.098.i67
  %106 = xor i64 %iter.sroa.0.098.i67, -1
  %107 = getelementptr i32, ptr %_86.i40, i64 %106
  %108 = load i32, ptr %107, align 4, !alias.scope !1722, !noalias !1719
  store i32 %108, ptr %105, align 4, !alias.scope !1719, !noalias !1722
  %exitcond.not.i68 = icmp eq i64 %104, %_63.i63
  br i1 %exitcond.not.i68, label %_ZN4core5slice4sort6stable9quicksort16stable_partition17hd213d5bd3398c00dE.exit, label %bb42.i66, !llvm.loop !1816

_ZN4core5slice4sort6stable9quicksort16stable_partition17hd213d5bd3398c00dE.exit: ; preds = %bb42.i66, %middle.block
  %_47 = icmp ugt i64 %state.sroa.27.2.lcssa.i55, %v.sroa.16.0132
  br i1 %_47, label %bb27, label %bb28, !prof !1259

bb3.thread:                                       ; preds = %bb22.i62
  call void @llvm.lifetime.end.p0(i64 4, ptr nonnull %pivot_copy)
  br label %bb22

bb28:                                             ; preds = %_ZN4core5slice4sort6stable9quicksort16stable_partition17hd213d5bd3398c00dE.exit
  %_54 = getelementptr inbounds nuw i32, ptr %v.sroa.0.0.ph140, i64 %state.sroa.27.2.lcssa.i55
  call void @llvm.lifetime.end.p0(i64 4, ptr nonnull %pivot_copy)
  %_8130 = icmp ult i64 %_63.i63, 33
  br i1 %_8130, label %bb3, label %bb5.lr.ph

bb27:                                             ; preds = %_ZN4core5slice4sort6stable9quicksort16stable_partition17hd213d5bd3398c00dE.exit
; call core::slice::index::slice_index_fail
  call void @_ZN4core5slice5index16slice_index_fail17h62807bcaa490c9c1E(i64 noundef %state.sroa.27.2.lcssa.i55, i64 noundef %v.sroa.16.0132, i64 noundef %v.sroa.16.0132, ptr noalias noundef readonly align 8 captures(address, read_provenance) dereferenceable(24) @alloc_0766b232215672ee1bd2195fdb153938) #18
  unreachable

bb22:                                             ; preds = %bb3.thread, %bb9.i.i, %bb3, %bb6
  ret void
}

; Function Attrs: mustprogress nofree norecurse nosync nounwind nonlazybind willreturn memory(argmem: read) uwtable
define noundef range(i8 -1, 2) i8 @cmpfunc(ptr noalias noundef readonly align 4 captures(none) dereferenceable(4) %a, ptr noalias noundef readonly align 4 captures(none) dereferenceable(4) %b) unnamed_addr #3 {
start:
  %_3 = load i32, ptr %a, align 4, !noundef !18
  %_4 = load i32, ptr %b, align 4, !noundef !18
  %_0 = tail call i8 @llvm.scmp.i8.i32(i32 %_3, i32 %_4)
  ret i8 %_0
}

; Function Attrs: nonlazybind uwtable
define noundef i32 @f_gold(ptr noalias noundef nonnull align 4 %arr.0, i64 noundef range(i64 0, 2305843009213693952) %arr.1, i32 noundef %n) unnamed_addr #1 personality ptr @rust_eh_personality {
start:
  %is_less.i = alloca [0 x i8], align 1
  %_3 = icmp slt i32 %n, 3
  br i1 %_3, label %bb9, label %bb2

bb2:                                              ; preds = %start
  call void @llvm.lifetime.start.p0(i64 0, ptr nonnull %is_less.i)
  %b.i = icmp samesign ult i64 %arr.1, 2
  br i1 %b.i, label %_ZN5alloc5slice11stable_sort17h88655ab64fa7366dE.exit, label %bb7.i, !prof !1817

bb7.i:                                            ; preds = %bb2
  %b1.i = icmp samesign ult i64 %arr.1, 21
  br i1 %b1.i, label %bb9.i, label %bb10.i, !prof !1817

bb10.i:                                           ; preds = %bb7.i
; call core::slice::sort::stable::driftsort_main
  call void @_ZN4core5slice4sort6stable14driftsort_main17h3f79a0458fe1f799E(ptr noalias noundef nonnull align 4 %arr.0, i64 noundef range(i64 0, 2305843009213693952) %arr.1, ptr noalias noundef nonnull align 1 %is_less.i)
  br label %_ZN5alloc5slice11stable_sort17h88655ab64fa7366dE.exit

bb9.i:                                            ; preds = %bb7.i
  %v_end.idx.i.i = shl nuw nsw i64 %arr.1, 2
  %v_end.i.i = getelementptr inbounds nuw i8, ptr %arr.0, i64 %v_end.idx.i.i
  %tail.sroa.0.01.i.i = getelementptr inbounds nuw i8, ptr %arr.0, i64 4
  %0 = and i64 %arr.1, 1
  %lcmp.mod.not.not = icmp eq i64 %0, 0
  br i1 %lcmp.mod.not.not, label %bb5.i.i.prol, label %bb5.i.i.prol.loopexit

bb5.i.i.prol:                                     ; preds = %bb9.i
  tail call void @llvm.experimental.noalias.scope.decl(metadata !1818)
  tail call void @llvm.experimental.noalias.scope.decl(metadata !1821)
  tail call void @llvm.experimental.noalias.scope.decl(metadata !1823)
  tail call void @llvm.experimental.noalias.scope.decl(metadata !1826)
  %_3.i.i.i.i.i.prol = load i32, ptr %tail.sroa.0.01.i.i, align 4, !alias.scope !1828, !noalias !1833, !noundef !18
  %_4.i.i.i.i.i.prol = load i32, ptr %arr.0, align 4, !alias.scope !1834, !noalias !1835, !noundef !18
  %_0.i.i.i.i.i.prol = icmp slt i32 %_3.i.i.i.i.i.prol, %_4.i.i.i.i.i.prol
  br i1 %_0.i.i.i.i.i.prol, label %bb4.i.i.i.prol, label %_ZN4core5slice4sort6shared9smallsort11insert_tail17h72095183ceb5ec4bE.exit.i.i.prol

bb4.i.i.i.prol:                                   ; preds = %bb5.i.i.prol, %bb7.i.i.i.prol
  %1 = phi i32 [ %_4.i.i2.i.i.i.prol, %bb7.i.i.i.prol ], [ %_4.i.i.i.i.i.prol, %bb5.i.i.prol ]
  %gap_guard.sroa.5.0.i.i.i.prol = phi ptr [ %sift.sroa.0.0.i.i.i.prol, %bb7.i.i.i.prol ], [ %tail.sroa.0.01.i.i, %bb5.i.i.prol ]
  %sift.sroa.0.0.i.i.i.prol = phi ptr [ %2, %bb7.i.i.i.prol ], [ %arr.0, %bb5.i.i.prol ]
  store i32 %1, ptr %gap_guard.sroa.5.0.i.i.i.prol, align 4, !alias.scope !1836
  %_18.i.i.i.prol = icmp eq ptr %sift.sroa.0.0.i.i.i.prol, %arr.0
  br i1 %_18.i.i.i.prol, label %bb10.i.i.i.prol, label %bb7.i.i.i.prol

bb7.i.i.i.prol:                                   ; preds = %bb4.i.i.i.prol
  %2 = getelementptr inbounds i8, ptr %sift.sroa.0.0.i.i.i.prol, i64 -4
  %_4.i.i2.i.i.i.prol = load i32, ptr %2, align 4, !alias.scope !1837, !noalias !1842, !noundef !18
  %_0.i.i3.i.i.i.prol = icmp slt i32 %_3.i.i.i.i.i.prol, %_4.i.i2.i.i.i.prol
  br i1 %_0.i.i3.i.i.i.prol, label %bb4.i.i.i.prol, label %bb10.i.i.i.prol

bb10.i.i.i.prol:                                  ; preds = %bb7.i.i.i.prol, %bb4.i.i.i.prol
  %sift.sroa.0.0.i.lcssa.i.i.prol = phi ptr [ %sift.sroa.0.0.i.i.i.prol, %bb7.i.i.i.prol ], [ %arr.0, %bb4.i.i.i.prol ]
  store i32 %_3.i.i.i.i.i.prol, ptr %sift.sroa.0.0.i.lcssa.i.i.prol, align 4, !alias.scope !1836, !noalias !1845
  br label %_ZN4core5slice4sort6shared9smallsort11insert_tail17h72095183ceb5ec4bE.exit.i.i.prol

_ZN4core5slice4sort6shared9smallsort11insert_tail17h72095183ceb5ec4bE.exit.i.i.prol: ; preds = %bb10.i.i.i.prol, %bb5.i.i.prol
  %tail.sroa.0.0.i.i.prol = getelementptr inbounds nuw i8, ptr %arr.0, i64 8
  br label %bb5.i.i.prol.loopexit

bb5.i.i.prol.loopexit:                            ; preds = %_ZN4core5slice4sort6shared9smallsort11insert_tail17h72095183ceb5ec4bE.exit.i.i.prol, %bb9.i
  %tail.sroa.0.04.i.i.unr = phi ptr [ %tail.sroa.0.01.i.i, %bb9.i ], [ %tail.sroa.0.0.i.i.prol, %_ZN4core5slice4sort6shared9smallsort11insert_tail17h72095183ceb5ec4bE.exit.i.i.prol ]
  %v.0.pn3.i.i.unr = phi ptr [ %arr.0, %bb9.i ], [ %tail.sroa.0.01.i.i, %_ZN4core5slice4sort6shared9smallsort11insert_tail17h72095183ceb5ec4bE.exit.i.i.prol ]
  %3 = icmp eq i64 %arr.1, 2
  br i1 %3, label %_ZN5alloc5slice11stable_sort17h88655ab64fa7366dE.exit, label %bb5.i.i

bb5.i.i:                                          ; preds = %bb5.i.i.prol.loopexit, %_ZN4core5slice4sort6shared9smallsort11insert_tail17h72095183ceb5ec4bE.exit.i.i.1
  %tail.sroa.0.04.i.i = phi ptr [ %tail.sroa.0.0.i.i.1, %_ZN4core5slice4sort6shared9smallsort11insert_tail17h72095183ceb5ec4bE.exit.i.i.1 ], [ %tail.sroa.0.04.i.i.unr, %bb5.i.i.prol.loopexit ]
  %v.0.pn3.i.i = phi ptr [ %tail.sroa.0.0.i.i, %_ZN4core5slice4sort6shared9smallsort11insert_tail17h72095183ceb5ec4bE.exit.i.i.1 ], [ %v.0.pn3.i.i.unr, %bb5.i.i.prol.loopexit ]
  tail call void @llvm.experimental.noalias.scope.decl(metadata !1818)
  tail call void @llvm.experimental.noalias.scope.decl(metadata !1821)
  tail call void @llvm.experimental.noalias.scope.decl(metadata !1823)
  tail call void @llvm.experimental.noalias.scope.decl(metadata !1826)
  %_3.i.i.i.i.i = load i32, ptr %tail.sroa.0.04.i.i, align 4, !alias.scope !1828, !noalias !1833, !noundef !18
  %_4.i.i.i.i.i = load i32, ptr %v.0.pn3.i.i, align 4, !alias.scope !1834, !noalias !1835, !noundef !18
  %_0.i.i.i.i.i = icmp slt i32 %_3.i.i.i.i.i, %_4.i.i.i.i.i
  br i1 %_0.i.i.i.i.i, label %bb4.i.i.i, label %_ZN4core5slice4sort6shared9smallsort11insert_tail17h72095183ceb5ec4bE.exit.i.i

bb4.i.i.i:                                        ; preds = %bb5.i.i, %bb7.i.i.i
  %4 = phi i32 [ %_4.i.i2.i.i.i, %bb7.i.i.i ], [ %_4.i.i.i.i.i, %bb5.i.i ]
  %gap_guard.sroa.5.0.i.i.i = phi ptr [ %sift.sroa.0.0.i.i.i, %bb7.i.i.i ], [ %tail.sroa.0.04.i.i, %bb5.i.i ]
  %sift.sroa.0.0.i.i.i = phi ptr [ %5, %bb7.i.i.i ], [ %v.0.pn3.i.i, %bb5.i.i ]
  store i32 %4, ptr %gap_guard.sroa.5.0.i.i.i, align 4, !alias.scope !1836
  %_18.i.i.i = icmp eq ptr %sift.sroa.0.0.i.i.i, %arr.0
  br i1 %_18.i.i.i, label %bb10.i.i.i, label %bb7.i.i.i

bb7.i.i.i:                                        ; preds = %bb4.i.i.i
  %5 = getelementptr inbounds i8, ptr %sift.sroa.0.0.i.i.i, i64 -4
  %_4.i.i2.i.i.i = load i32, ptr %5, align 4, !alias.scope !1837, !noalias !1842, !noundef !18
  %_0.i.i3.i.i.i = icmp slt i32 %_3.i.i.i.i.i, %_4.i.i2.i.i.i
  br i1 %_0.i.i3.i.i.i, label %bb4.i.i.i, label %bb10.i.i.i

bb10.i.i.i:                                       ; preds = %bb7.i.i.i, %bb4.i.i.i
  %sift.sroa.0.0.i.lcssa.i.i = phi ptr [ %sift.sroa.0.0.i.i.i, %bb7.i.i.i ], [ %arr.0, %bb4.i.i.i ]
  store i32 %_3.i.i.i.i.i, ptr %sift.sroa.0.0.i.lcssa.i.i, align 4, !alias.scope !1836, !noalias !1845
  br label %_ZN4core5slice4sort6shared9smallsort11insert_tail17h72095183ceb5ec4bE.exit.i.i

_ZN4core5slice4sort6shared9smallsort11insert_tail17h72095183ceb5ec4bE.exit.i.i: ; preds = %bb10.i.i.i, %bb5.i.i
  %tail.sroa.0.0.i.i = getelementptr inbounds nuw i8, ptr %tail.sroa.0.04.i.i, i64 4
  tail call void @llvm.experimental.noalias.scope.decl(metadata !1850)
  tail call void @llvm.experimental.noalias.scope.decl(metadata !1852)
  tail call void @llvm.experimental.noalias.scope.decl(metadata !1854)
  tail call void @llvm.experimental.noalias.scope.decl(metadata !1856)
  %_3.i.i.i.i.i.1 = load i32, ptr %tail.sroa.0.0.i.i, align 4, !alias.scope !1858, !noalias !1859, !noundef !18
  %_4.i.i.i.i.i.1 = load i32, ptr %tail.sroa.0.04.i.i, align 4, !alias.scope !1860, !noalias !1861, !noundef !18
  %_0.i.i.i.i.i.1 = icmp slt i32 %_3.i.i.i.i.i.1, %_4.i.i.i.i.i.1
  br i1 %_0.i.i.i.i.i.1, label %bb4.i.i.i.1, label %_ZN4core5slice4sort6shared9smallsort11insert_tail17h72095183ceb5ec4bE.exit.i.i.1

bb4.i.i.i.1:                                      ; preds = %_ZN4core5slice4sort6shared9smallsort11insert_tail17h72095183ceb5ec4bE.exit.i.i, %bb7.i.i.i.1
  %6 = phi i32 [ %_4.i.i2.i.i.i.1, %bb7.i.i.i.1 ], [ %_4.i.i.i.i.i.1, %_ZN4core5slice4sort6shared9smallsort11insert_tail17h72095183ceb5ec4bE.exit.i.i ]
  %gap_guard.sroa.5.0.i.i.i.1 = phi ptr [ %sift.sroa.0.0.i.i.i.1, %bb7.i.i.i.1 ], [ %tail.sroa.0.0.i.i, %_ZN4core5slice4sort6shared9smallsort11insert_tail17h72095183ceb5ec4bE.exit.i.i ]
  %sift.sroa.0.0.i.i.i.1 = phi ptr [ %7, %bb7.i.i.i.1 ], [ %tail.sroa.0.04.i.i, %_ZN4core5slice4sort6shared9smallsort11insert_tail17h72095183ceb5ec4bE.exit.i.i ]
  store i32 %6, ptr %gap_guard.sroa.5.0.i.i.i.1, align 4, !alias.scope !1836
  %_18.i.i.i.1 = icmp eq ptr %sift.sroa.0.0.i.i.i.1, %arr.0
  br i1 %_18.i.i.i.1, label %bb10.i.i.i.1, label %bb7.i.i.i.1

bb7.i.i.i.1:                                      ; preds = %bb4.i.i.i.1
  %7 = getelementptr inbounds i8, ptr %sift.sroa.0.0.i.i.i.1, i64 -4
  %_4.i.i2.i.i.i.1 = load i32, ptr %7, align 4, !alias.scope !1837, !noalias !1842, !noundef !18
  %_0.i.i3.i.i.i.1 = icmp slt i32 %_3.i.i.i.i.i.1, %_4.i.i2.i.i.i.1
  br i1 %_0.i.i3.i.i.i.1, label %bb4.i.i.i.1, label %bb10.i.i.i.1

bb10.i.i.i.1:                                     ; preds = %bb7.i.i.i.1, %bb4.i.i.i.1
  %sift.sroa.0.0.i.lcssa.i.i.1 = phi ptr [ %sift.sroa.0.0.i.i.i.1, %bb7.i.i.i.1 ], [ %arr.0, %bb4.i.i.i.1 ]
  store i32 %_3.i.i.i.i.i.1, ptr %sift.sroa.0.0.i.lcssa.i.i.1, align 4, !alias.scope !1836, !noalias !1845
  br label %_ZN4core5slice4sort6shared9smallsort11insert_tail17h72095183ceb5ec4bE.exit.i.i.1

_ZN4core5slice4sort6shared9smallsort11insert_tail17h72095183ceb5ec4bE.exit.i.i.1: ; preds = %bb10.i.i.i.1, %_ZN4core5slice4sort6shared9smallsort11insert_tail17h72095183ceb5ec4bE.exit.i.i
  %tail.sroa.0.0.i.i.1 = getelementptr inbounds nuw i8, ptr %tail.sroa.0.04.i.i, i64 8
  %_11.not.i.i.1 = icmp eq ptr %tail.sroa.0.0.i.i.1, %v_end.i.i
  br i1 %_11.not.i.i.1, label %_ZN5alloc5slice11stable_sort17h88655ab64fa7366dE.exit, label %bb5.i.i

_ZN5alloc5slice11stable_sort17h88655ab64fa7366dE.exit: ; preds = %bb5.i.i.prol.loopexit, %_ZN4core5slice4sort6shared9smallsort11insert_tail17h72095183ceb5ec4bE.exit.i.i.1, %bb2, %bb10.i
  call void @llvm.lifetime.end.p0(i64 0, ptr nonnull %is_less.i)
  switch i64 %arr.1, label %bb4 [
    i64 0, label %panic
    i64 1, label %panic1
  ]

panic:                                            ; preds = %_ZN5alloc5slice11stable_sort17h88655ab64fa7366dE.exit
; call core::panicking::panic_bounds_check
  call void @_ZN4core9panicking18panic_bounds_check17hb15443e8431033c2E(i64 noundef 0, i64 noundef 0, ptr noalias noundef readonly align 8 captures(address, read_provenance) dereferenceable(24) @alloc_3521aa7f5478fcf32067ded2d99bb6f1) #18
  unreachable

bb4:                                              ; preds = %_ZN5alloc5slice11stable_sort17h88655ab64fa7366dE.exit
  %_13 = zext nneg i32 %n to i64
  %_12 = add nsw i64 %_13, -1
  %_14 = icmp ult i64 %_12, %arr.1
  br i1 %_14, label %bb5, label %panic2

panic1:                                           ; preds = %_ZN5alloc5slice11stable_sort17h88655ab64fa7366dE.exit
; call core::panicking::panic_bounds_check
  call void @_ZN4core9panicking18panic_bounds_check17hb15443e8431033c2E(i64 noundef 1, i64 noundef 1, ptr noalias noundef readonly align 8 captures(address, read_provenance) dereferenceable(24) @alloc_868a185cf299b700f382c085076181de) #18
  unreachable

bb5:                                              ; preds = %bb4
  %_6 = load i32, ptr %arr.0, align 4, !noundef !18
  %8 = getelementptr inbounds nuw i8, ptr %arr.0, i64 4
  %_9 = load i32, ptr %8, align 4, !noundef !18
  %_5 = mul i32 %_9, %_6
  %9 = getelementptr inbounds nuw i32, ptr %arr.0, i64 %_12
  %_11 = load i32, ptr %9, align 4, !noundef !18
  %_4 = mul i32 %_5, %_11
  %_19 = add nsw i64 %_13, -2
  %_20 = icmp ult i64 %_19, %arr.1
  br i1 %_20, label %bb7, label %panic4

panic2:                                           ; preds = %bb4
; call core::panicking::panic_bounds_check
  call void @_ZN4core9panicking18panic_bounds_check17hb15443e8431033c2E(i64 noundef %_12, i64 noundef %arr.1, ptr noalias noundef readonly align 8 captures(address, read_provenance) dereferenceable(24) @alloc_d60ca30a257a7fa26d826080aaa27cf0) #18
  unreachable

bb7:                                              ; preds = %bb5
  %_22 = add nsw i64 %_13, -3
  %_23 = icmp ult i64 %_22, %arr.1
  br i1 %_23, label %bb8, label %panic5

panic4:                                           ; preds = %bb5
; call core::panicking::panic_bounds_check
  call void @_ZN4core9panicking18panic_bounds_check17hb15443e8431033c2E(i64 noundef %_19, i64 noundef %arr.1, ptr noalias noundef readonly align 8 captures(address, read_provenance) dereferenceable(24) @alloc_36f0489c3c5a4d4bc3ebf869687918e7) #18
  unreachable

bb8:                                              ; preds = %bb7
  %10 = getelementptr inbounds nuw i32, ptr %arr.0, i64 %_19
  %_18 = load i32, ptr %10, align 4, !noundef !18
  %_16 = mul i32 %_18, %_11
  %11 = getelementptr inbounds nuw i32, ptr %arr.0, i64 %_22
  %_21 = load i32, ptr %11, align 4, !noundef !18
  %_15 = mul i32 %_16, %_21
  %_0.sroa.0.0.i = call noundef i32 @llvm.smax.i32(i32 %_15, i32 %_4)
  br label %bb9

panic5:                                           ; preds = %bb7
; call core::panicking::panic_bounds_check
  call void @_ZN4core9panicking18panic_bounds_check17hb15443e8431033c2E(i64 noundef %_22, i64 noundef %arr.1, ptr noalias noundef readonly align 8 captures(address, read_provenance) dereferenceable(24) @alloc_8185af6250b77bc8858b10571ba86212) #18
  unreachable

bb9:                                              ; preds = %start, %bb8
  %_0.sroa.0.0 = phi i32 [ %_0.sroa.0.0.i, %bb8 ], [ -1, %start ]
  ret i32 %_0.sroa.0.0
}

; Function Attrs: mustprogress nofree norecurse nosync nounwind nonlazybind willreturn memory(none) uwtable
define noundef range(i64 0, 2305843009213693952) i64 @len(ptr noalias noundef nonnull readonly align 4 captures(none) %arr.0, i64 noundef returned range(i64 0, 2305843009213693952) %arr.1) unnamed_addr #4 {
start:
  ret i64 %arr.1
}

; Function Attrs: mustprogress nofree norecurse nosync nounwind nonlazybind willreturn memory(none) uwtable
define noundef i32 @max(i32 noundef %x, i32 noundef %y) unnamed_addr #4 {
start:
  %x.y = tail call i32 @llvm.smax.i32(i32 %x, i32 %y)
  ret i32 %x.y
}

; Function Attrs: mustprogress nofree norecurse nosync nounwind nonlazybind willreturn memory(none) uwtable
define noundef i32 @min(i32 noundef %x, i32 noundef %y) unnamed_addr #4 {
start:
  %x.y = tail call i32 @llvm.smin.i32(i32 %x, i32 %y)
  ret i32 %x.y
}

; Function Attrs: nonlazybind uwtable
define void @sort(ptr noalias noundef nonnull align 4 %arr.0, i64 noundef range(i64 0, 2305843009213693952) %arr.1) unnamed_addr #1 personality ptr @rust_eh_personality {
start:
  %compare.i = alloca [0 x i8], align 1
  %is_less.i.i = alloca [8 x i8], align 8
  tail call void @llvm.experimental.noalias.scope.decl(metadata !1862)
  call void @llvm.lifetime.start.p0(i64 0, ptr nonnull %compare.i)
  tail call void @llvm.experimental.noalias.scope.decl(metadata !1865)
  call void @llvm.lifetime.start.p0(i64 8, ptr nonnull %is_less.i.i), !noalias !1862
  store ptr %compare.i, ptr %is_less.i.i, align 8, !noalias !1868
  %b.i.i = icmp samesign ult i64 %arr.1, 2
  br i1 %b.i.i, label %"_ZN5alloc5slice29_$LT$impl$u20$$u5b$T$u5d$$GT$7sort_by17h6d26463e50a7749eE.exit", label %bb7.i.i, !prof !1817

bb7.i.i:                                          ; preds = %start
  %b1.i.i = icmp samesign ult i64 %arr.1, 21
  br i1 %b1.i.i, label %bb9.i.i, label %bb10.i.i, !prof !1817

bb10.i.i:                                         ; preds = %bb7.i.i
; call core::slice::sort::stable::driftsort_main
  call void @_ZN4core5slice4sort6stable14driftsort_main17hb58fc6a03d76b02cE(ptr noalias noundef nonnull align 4 %arr.0, i64 noundef range(i64 0, 2305843009213693952) %arr.1, ptr noalias noundef nonnull align 8 dereferenceable(8) %is_less.i.i)
  br label %"_ZN5alloc5slice29_$LT$impl$u20$$u5b$T$u5d$$GT$7sort_by17h6d26463e50a7749eE.exit"

bb9.i.i:                                          ; preds = %bb7.i.i
  %v_end.idx.i.i.i = shl nuw nsw i64 %arr.1, 2
  %v_end.i.i.i = getelementptr inbounds nuw i8, ptr %arr.0, i64 %v_end.idx.i.i.i
  %tail.sroa.0.01.i.i.i = getelementptr inbounds nuw i8, ptr %arr.0, i64 4
  %0 = and i64 %arr.1, 1
  %lcmp.mod.not.not = icmp eq i64 %0, 0
  br i1 %lcmp.mod.not.not, label %bb5.i.i.i.prol, label %bb5.i.i.i.prol.loopexit

bb5.i.i.i.prol:                                   ; preds = %bb9.i.i
  call void @llvm.experimental.noalias.scope.decl(metadata !1870)
  call void @llvm.experimental.noalias.scope.decl(metadata !1873)
  call void @llvm.experimental.noalias.scope.decl(metadata !1875)
  call void @llvm.experimental.noalias.scope.decl(metadata !1878)
  call void @llvm.experimental.noalias.scope.decl(metadata !1880)
  call void @llvm.experimental.noalias.scope.decl(metadata !1883)
  %_3.i.i.i.i.i.i.i.prol = load i32, ptr %tail.sroa.0.01.i.i.i, align 4, !alias.scope !1885, !noalias !1888, !noundef !18
  %_4.i.i.i.i.i.i.i.prol = load i32, ptr %arr.0, align 4, !alias.scope !1889, !noalias !1890, !noundef !18
  %_0.i.i.i.i.i.prol = icmp slt i32 %_3.i.i.i.i.i.i.i.prol, %_4.i.i.i.i.i.i.i.prol
  br i1 %_0.i.i.i.i.i.prol, label %bb4.i.i.i.i.prol, label %_ZN4core5slice4sort6shared9smallsort11insert_tail17hdaaefc793253765bE.exit.i.i.i.prol

bb4.i.i.i.i.prol:                                 ; preds = %bb5.i.i.i.prol, %bb7.i.i.i.i.prol
  %1 = phi i32 [ %_4.i.i.i2.i.i.i.i.prol, %bb7.i.i.i.i.prol ], [ %_4.i.i.i.i.i.i.i.prol, %bb5.i.i.i.prol ]
  %gap_guard.sroa.5.0.i.i.i.i.prol = phi ptr [ %sift.sroa.0.0.i.i.i.i.prol, %bb7.i.i.i.i.prol ], [ %tail.sroa.0.01.i.i.i, %bb5.i.i.i.prol ]
  %sift.sroa.0.0.i.i.i.i.prol = phi ptr [ %2, %bb7.i.i.i.i.prol ], [ %arr.0, %bb5.i.i.i.prol ]
  store i32 %1, ptr %gap_guard.sroa.5.0.i.i.i.i.prol, align 4, !alias.scope !1891, !noalias !1892
  %_18.i.i.i.i.prol = icmp eq ptr %sift.sroa.0.0.i.i.i.i.prol, %arr.0
  br i1 %_18.i.i.i.i.prol, label %bb10.i.i.i.i.prol, label %bb7.i.i.i.i.prol

bb7.i.i.i.i.prol:                                 ; preds = %bb4.i.i.i.i.prol
  %2 = getelementptr inbounds i8, ptr %sift.sroa.0.0.i.i.i.i.prol, i64 -4
  %_4.i.i.i2.i.i.i.i.prol = load i32, ptr %2, align 4, !alias.scope !1893, !noalias !1900, !noundef !18
  %_0.i3.i.i.i.i.prol = icmp slt i32 %_3.i.i.i.i.i.i.i.prol, %_4.i.i.i2.i.i.i.i.prol
  br i1 %_0.i3.i.i.i.i.prol, label %bb4.i.i.i.i.prol, label %bb10.i.i.i.i.prol

bb10.i.i.i.i.prol:                                ; preds = %bb7.i.i.i.i.prol, %bb4.i.i.i.i.prol
  %sift.sroa.0.0.i.lcssa.i.i.i.prol = phi ptr [ %sift.sroa.0.0.i.i.i.i.prol, %bb7.i.i.i.i.prol ], [ %arr.0, %bb4.i.i.i.i.prol ]
  store i32 %_3.i.i.i.i.i.i.i.prol, ptr %sift.sroa.0.0.i.lcssa.i.i.i.prol, align 4, !alias.scope !1891, !noalias !1904
  br label %_ZN4core5slice4sort6shared9smallsort11insert_tail17hdaaefc793253765bE.exit.i.i.i.prol

_ZN4core5slice4sort6shared9smallsort11insert_tail17hdaaefc793253765bE.exit.i.i.i.prol: ; preds = %bb10.i.i.i.i.prol, %bb5.i.i.i.prol
  %tail.sroa.0.0.i.i.i.prol = getelementptr inbounds nuw i8, ptr %arr.0, i64 8
  br label %bb5.i.i.i.prol.loopexit

bb5.i.i.i.prol.loopexit:                          ; preds = %_ZN4core5slice4sort6shared9smallsort11insert_tail17hdaaefc793253765bE.exit.i.i.i.prol, %bb9.i.i
  %tail.sroa.0.04.i.i.i.unr = phi ptr [ %tail.sroa.0.01.i.i.i, %bb9.i.i ], [ %tail.sroa.0.0.i.i.i.prol, %_ZN4core5slice4sort6shared9smallsort11insert_tail17hdaaefc793253765bE.exit.i.i.i.prol ]
  %v.0.pn3.i.i.i.unr = phi ptr [ %arr.0, %bb9.i.i ], [ %tail.sroa.0.01.i.i.i, %_ZN4core5slice4sort6shared9smallsort11insert_tail17hdaaefc793253765bE.exit.i.i.i.prol ]
  %3 = icmp eq i64 %arr.1, 2
  br i1 %3, label %"_ZN5alloc5slice29_$LT$impl$u20$$u5b$T$u5d$$GT$7sort_by17h6d26463e50a7749eE.exit", label %bb5.i.i.i

bb5.i.i.i:                                        ; preds = %bb5.i.i.i.prol.loopexit, %_ZN4core5slice4sort6shared9smallsort11insert_tail17hdaaefc793253765bE.exit.i.i.i.1
  %tail.sroa.0.04.i.i.i = phi ptr [ %tail.sroa.0.0.i.i.i.1, %_ZN4core5slice4sort6shared9smallsort11insert_tail17hdaaefc793253765bE.exit.i.i.i.1 ], [ %tail.sroa.0.04.i.i.i.unr, %bb5.i.i.i.prol.loopexit ]
  %v.0.pn3.i.i.i = phi ptr [ %tail.sroa.0.0.i.i.i, %_ZN4core5slice4sort6shared9smallsort11insert_tail17hdaaefc793253765bE.exit.i.i.i.1 ], [ %v.0.pn3.i.i.i.unr, %bb5.i.i.i.prol.loopexit ]
  call void @llvm.experimental.noalias.scope.decl(metadata !1870)
  call void @llvm.experimental.noalias.scope.decl(metadata !1873)
  call void @llvm.experimental.noalias.scope.decl(metadata !1875)
  call void @llvm.experimental.noalias.scope.decl(metadata !1878)
  call void @llvm.experimental.noalias.scope.decl(metadata !1880)
  call void @llvm.experimental.noalias.scope.decl(metadata !1883)
  %_3.i.i.i.i.i.i.i = load i32, ptr %tail.sroa.0.04.i.i.i, align 4, !alias.scope !1885, !noalias !1888, !noundef !18
  %_4.i.i.i.i.i.i.i = load i32, ptr %v.0.pn3.i.i.i, align 4, !alias.scope !1889, !noalias !1890, !noundef !18
  %_0.i.i.i.i.i = icmp slt i32 %_3.i.i.i.i.i.i.i, %_4.i.i.i.i.i.i.i
  br i1 %_0.i.i.i.i.i, label %bb4.i.i.i.i, label %_ZN4core5slice4sort6shared9smallsort11insert_tail17hdaaefc793253765bE.exit.i.i.i

bb4.i.i.i.i:                                      ; preds = %bb5.i.i.i, %bb7.i.i.i.i
  %4 = phi i32 [ %_4.i.i.i2.i.i.i.i, %bb7.i.i.i.i ], [ %_4.i.i.i.i.i.i.i, %bb5.i.i.i ]
  %gap_guard.sroa.5.0.i.i.i.i = phi ptr [ %sift.sroa.0.0.i.i.i.i, %bb7.i.i.i.i ], [ %tail.sroa.0.04.i.i.i, %bb5.i.i.i ]
  %sift.sroa.0.0.i.i.i.i = phi ptr [ %5, %bb7.i.i.i.i ], [ %v.0.pn3.i.i.i, %bb5.i.i.i ]
  store i32 %4, ptr %gap_guard.sroa.5.0.i.i.i.i, align 4, !alias.scope !1891, !noalias !1892
  %_18.i.i.i.i = icmp eq ptr %sift.sroa.0.0.i.i.i.i, %arr.0
  br i1 %_18.i.i.i.i, label %bb10.i.i.i.i, label %bb7.i.i.i.i

bb7.i.i.i.i:                                      ; preds = %bb4.i.i.i.i
  %5 = getelementptr inbounds i8, ptr %sift.sroa.0.0.i.i.i.i, i64 -4
  %_4.i.i.i2.i.i.i.i = load i32, ptr %5, align 4, !alias.scope !1893, !noalias !1900, !noundef !18
  %_0.i3.i.i.i.i = icmp slt i32 %_3.i.i.i.i.i.i.i, %_4.i.i.i2.i.i.i.i
  br i1 %_0.i3.i.i.i.i, label %bb4.i.i.i.i, label %bb10.i.i.i.i

bb10.i.i.i.i:                                     ; preds = %bb7.i.i.i.i, %bb4.i.i.i.i
  %sift.sroa.0.0.i.lcssa.i.i.i = phi ptr [ %sift.sroa.0.0.i.i.i.i, %bb7.i.i.i.i ], [ %arr.0, %bb4.i.i.i.i ]
  store i32 %_3.i.i.i.i.i.i.i, ptr %sift.sroa.0.0.i.lcssa.i.i.i, align 4, !alias.scope !1891, !noalias !1904
  br label %_ZN4core5slice4sort6shared9smallsort11insert_tail17hdaaefc793253765bE.exit.i.i.i

_ZN4core5slice4sort6shared9smallsort11insert_tail17hdaaefc793253765bE.exit.i.i.i: ; preds = %bb10.i.i.i.i, %bb5.i.i.i
  %tail.sroa.0.0.i.i.i = getelementptr inbounds nuw i8, ptr %tail.sroa.0.04.i.i.i, i64 4
  call void @llvm.experimental.noalias.scope.decl(metadata !1909)
  call void @llvm.experimental.noalias.scope.decl(metadata !1911)
  call void @llvm.experimental.noalias.scope.decl(metadata !1913)
  call void @llvm.experimental.noalias.scope.decl(metadata !1915)
  call void @llvm.experimental.noalias.scope.decl(metadata !1917)
  call void @llvm.experimental.noalias.scope.decl(metadata !1919)
  %_3.i.i.i.i.i.i.i.1 = load i32, ptr %tail.sroa.0.0.i.i.i, align 4, !alias.scope !1921, !noalias !1922, !noundef !18
  %_4.i.i.i.i.i.i.i.1 = load i32, ptr %tail.sroa.0.04.i.i.i, align 4, !alias.scope !1923, !noalias !1924, !noundef !18
  %_0.i.i.i.i.i.1 = icmp slt i32 %_3.i.i.i.i.i.i.i.1, %_4.i.i.i.i.i.i.i.1
  br i1 %_0.i.i.i.i.i.1, label %bb4.i.i.i.i.1, label %_ZN4core5slice4sort6shared9smallsort11insert_tail17hdaaefc793253765bE.exit.i.i.i.1

bb4.i.i.i.i.1:                                    ; preds = %_ZN4core5slice4sort6shared9smallsort11insert_tail17hdaaefc793253765bE.exit.i.i.i, %bb7.i.i.i.i.1
  %6 = phi i32 [ %_4.i.i.i2.i.i.i.i.1, %bb7.i.i.i.i.1 ], [ %_4.i.i.i.i.i.i.i.1, %_ZN4core5slice4sort6shared9smallsort11insert_tail17hdaaefc793253765bE.exit.i.i.i ]
  %gap_guard.sroa.5.0.i.i.i.i.1 = phi ptr [ %sift.sroa.0.0.i.i.i.i.1, %bb7.i.i.i.i.1 ], [ %tail.sroa.0.0.i.i.i, %_ZN4core5slice4sort6shared9smallsort11insert_tail17hdaaefc793253765bE.exit.i.i.i ]
  %sift.sroa.0.0.i.i.i.i.1 = phi ptr [ %7, %bb7.i.i.i.i.1 ], [ %tail.sroa.0.04.i.i.i, %_ZN4core5slice4sort6shared9smallsort11insert_tail17hdaaefc793253765bE.exit.i.i.i ]
  store i32 %6, ptr %gap_guard.sroa.5.0.i.i.i.i.1, align 4, !alias.scope !1891, !noalias !1892
  %_18.i.i.i.i.1 = icmp eq ptr %sift.sroa.0.0.i.i.i.i.1, %arr.0
  br i1 %_18.i.i.i.i.1, label %bb10.i.i.i.i.1, label %bb7.i.i.i.i.1

bb7.i.i.i.i.1:                                    ; preds = %bb4.i.i.i.i.1
  %7 = getelementptr inbounds i8, ptr %sift.sroa.0.0.i.i.i.i.1, i64 -4
  %_4.i.i.i2.i.i.i.i.1 = load i32, ptr %7, align 4, !alias.scope !1893, !noalias !1900, !noundef !18
  %_0.i3.i.i.i.i.1 = icmp slt i32 %_3.i.i.i.i.i.i.i.1, %_4.i.i.i2.i.i.i.i.1
  br i1 %_0.i3.i.i.i.i.1, label %bb4.i.i.i.i.1, label %bb10.i.i.i.i.1

bb10.i.i.i.i.1:                                   ; preds = %bb7.i.i.i.i.1, %bb4.i.i.i.i.1
  %sift.sroa.0.0.i.lcssa.i.i.i.1 = phi ptr [ %sift.sroa.0.0.i.i.i.i.1, %bb7.i.i.i.i.1 ], [ %arr.0, %bb4.i.i.i.i.1 ]
  store i32 %_3.i.i.i.i.i.i.i.1, ptr %sift.sroa.0.0.i.lcssa.i.i.i.1, align 4, !alias.scope !1891, !noalias !1904
  br label %_ZN4core5slice4sort6shared9smallsort11insert_tail17hdaaefc793253765bE.exit.i.i.i.1

_ZN4core5slice4sort6shared9smallsort11insert_tail17hdaaefc793253765bE.exit.i.i.i.1: ; preds = %bb10.i.i.i.i.1, %_ZN4core5slice4sort6shared9smallsort11insert_tail17hdaaefc793253765bE.exit.i.i.i
  %tail.sroa.0.0.i.i.i.1 = getelementptr inbounds nuw i8, ptr %tail.sroa.0.04.i.i.i, i64 8
  %_11.not.i.i.i.1 = icmp eq ptr %tail.sroa.0.0.i.i.i.1, %v_end.i.i.i
  br i1 %_11.not.i.i.i.1, label %"_ZN5alloc5slice29_$LT$impl$u20$$u5b$T$u5d$$GT$7sort_by17h6d26463e50a7749eE.exit", label %bb5.i.i.i

"_ZN5alloc5slice29_$LT$impl$u20$$u5b$T$u5d$$GT$7sort_by17h6d26463e50a7749eE.exit": ; preds = %bb5.i.i.i.prol.loopexit, %_ZN4core5slice4sort6shared9smallsort11insert_tail17hdaaefc793253765bE.exit.i.i.i.1, %start, %bb10.i.i
  call void @llvm.lifetime.end.p0(i64 8, ptr nonnull %is_less.i.i), !noalias !1862
  call void @llvm.lifetime.end.p0(i64 0, ptr nonnull %compare.i)
  ret void
}

; Function Attrs: nounwind nonlazybind uwtable
declare noundef range(i32 0, 10) i32 @rust_eh_personality(i32 noundef, i32 noundef, i64 noundef, ptr noundef, ptr noundef) unnamed_addr #5

; Function Attrs: mustprogress nocallback nofree nosync nounwind willreturn memory(argmem: readwrite)
declare void @llvm.lifetime.start.p0(i64 immarg, ptr captures(none)) #6

; Function Attrs: mustprogress nocallback nofree nosync nounwind willreturn memory(argmem: readwrite)
declare void @llvm.lifetime.end.p0(i64 immarg, ptr captures(none)) #6

; Function Attrs: mustprogress nocallback nofree nosync nounwind willreturn memory(inaccessiblemem: write)
declare void @llvm.assume(i1 noundef) #7

; Function Attrs: mustprogress nocallback nofree nounwind willreturn memory(argmem: readwrite)
declare void @llvm.memcpy.p0.p0.i64(ptr noalias writeonly captures(none), ptr noalias readonly captures(none), i64, i1 immarg) #8

; core::panicking::panic_fmt
; Function Attrs: cold noinline noreturn nonlazybind uwtable
declare void @_ZN4core9panicking9panic_fmt17ha4414e4328fe24a0E(ptr noundef nonnull, ptr noundef nonnull, ptr noalias noundef readonly align 8 captures(address, read_provenance) dereferenceable(24)) unnamed_addr #9

; core::panicking::panic_bounds_check
; Function Attrs: cold minsize noinline noreturn nonlazybind optsize uwtable
declare void @_ZN4core9panicking18panic_bounds_check17hb15443e8431033c2E(i64 noundef, i64 noundef, ptr noalias noundef readonly align 8 captures(address, read_provenance) dereferenceable(24)) unnamed_addr #10

; Function Attrs: cold noreturn nounwind memory(inaccessiblemem: write)
declare void @llvm.trap() #11

; core::slice::sort::shared::smallsort::panic_on_ord_violation
; Function Attrs: cold noinline noreturn nonlazybind uwtable
declare void @_ZN4core5slice4sort6shared9smallsort22panic_on_ord_violation17hc77a22a2d50782cdE() unnamed_addr #9

; core::slice::index::slice_index_fail
; Function Attrs: cold noinline noreturn nonlazybind uwtable
declare void @_ZN4core5slice5index16slice_index_fail17h62807bcaa490c9c1E(i64 noundef, i64 noundef, i64 noundef, ptr noalias noundef readonly align 8 captures(address, read_provenance) dereferenceable(24)) unnamed_addr #9

; Function Attrs: mustprogress nocallback nofree nosync nounwind speculatable willreturn memory(none)
declare i64 @llvm.ctlz.i64(i64, i1 immarg) #12

; core::slice::sort::stable::drift::sqrt_approx
; Function Attrs: nonlazybind uwtable
declare noundef i64 @_ZN4core5slice4sort6stable5drift11sqrt_approx17h72a4dc1ae46294f4E(i64 noundef) unnamed_addr #1

; Function Attrs: mustprogress nocallback nofree nosync nounwind speculatable willreturn memory(none)
declare i64 @llvm.usub.sat.i64(i64, i64) #12

; __rustc::__rust_no_alloc_shim_is_unstable_v2
; Function Attrs: nounwind nonlazybind uwtable
declare void @_RNvCsdBezzDwma51_7___rustc35___rust_no_alloc_shim_is_unstable_v2() unnamed_addr #5

; __rustc::__rust_alloc
; Function Attrs: nounwind nonlazybind allockind("alloc,uninitialized,aligned") allocsize(0) uwtable
declare noalias noundef ptr @_RNvCsdBezzDwma51_7___rustc12___rust_alloc(i64 noundef, i64 allocalign noundef) unnamed_addr #13

; alloc::raw_vec::handle_error
; Function Attrs: cold minsize noreturn nonlazybind optsize uwtable
declare void @_ZN5alloc7raw_vec12handle_error17h3a8c375904e593b2E(i64 noundef range(i64 0, -9223372036854775807), i64) unnamed_addr #14

; __rustc::__rust_dealloc
; Function Attrs: nounwind nonlazybind allockind("free") uwtable
declare void @_RNvCsdBezzDwma51_7___rustc14___rust_dealloc(ptr allocptr noundef, i64 noundef, i64 noundef) unnamed_addr #15

