; ModuleID = 'MINIMUM_NUMBER_PLATFORMS_REQUIRED_RAILWAYBUS_STATION_emit.efa8d2e32eca9c34-cgu.0'
source_filename = "MINIMUM_NUMBER_PLATFORMS_REQUIRED_RAILWAYBUS_STATION_emit.efa8d2e32eca9c34-cgu.0"
target datalayout = "e-m:e-p270:32:32-p271:32:32-p272:64:64-i64:64-i128:128-f80:128-n8:16:32:64-S128"
target triple = "x86_64-unknown-linux-gnu"

%"core::mem::maybe_uninit::MaybeUninit<[u8; 8]>" = type { [8 x i8] }

@alloc_d1084648e479974e70c9329824bf76f9 = private unnamed_addr constant [9 x i8] c"mid > len", align 1
@alloc_e8e5fd9f509afcb950667480b3e3e42a = private unnamed_addr constant [126 x i8] c"/root/.rustup/toolchains/stable-x86_64-unknown-linux-gnu/lib/rustlib/src/rust/library/core/src/slice/sort/stable/quicksort.rs\00", align 1
@alloc_58d434a1e795f965ef82c8e9c5db822a = private unnamed_addr constant <{ ptr, [16 x i8] }> <{ ptr @alloc_e8e5fd9f509afcb950667480b3e3e42a, [16 x i8] c"}\00\00\00\00\00\00\00J\00\00\00\1F\00\00\00" }>, align 8
@alloc_0766b232215672ee1bd2195fdb153938 = private unnamed_addr constant <{ ptr, [16 x i8] }> <{ ptr @alloc_e8e5fd9f509afcb950667480b3e3e42a, [16 x i8] c"}\00\00\00\00\00\00\00D\00\00\00\17\00\00\00" }>, align 8
@alloc_6b2e82176a5aafe1b43fb4b27c084f95 = private unnamed_addr constant [159 x i8] c"/root/es/vert/vert/rust_funcs/cpp_transcoder/MINIMUM_NUMBER_PLATFORMS_REQUIRED_RAILWAYBUS_STATION/MINIMUM_NUMBER_PLATFORMS_REQUIRED_RAILWAYBUS_STATION_emit.rs\00", align 1
@alloc_c9cdb9f9d0503e049398aa6d3bf73999 = private unnamed_addr constant <{ ptr, [16 x i8] }> <{ ptr @alloc_6b2e82176a5aafe1b43fb4b27c084f95, [16 x i8] c"\9E\00\00\00\00\00\00\00 \00\00\00\0F\00\00\00" }>, align 8
@alloc_a5c4585621a4e58303b4158919bee345 = private unnamed_addr constant <{ ptr, [16 x i8] }> <{ ptr @alloc_6b2e82176a5aafe1b43fb4b27c084f95, [16 x i8] c"\9E\00\00\00\00\00\00\00 \00\00\00\19\00\00\00" }>, align 8

; core::ptr::swap_nonoverlapping_bytes::swap_nonoverlapping_chunks
; Function Attrs: nofree norecurse nosync nounwind nonlazybind memory(argmem: readwrite, inaccessiblemem: readwrite) uwtable
define void @_ZN4core3ptr25swap_nonoverlapping_bytes26swap_nonoverlapping_chunks17h45e3d002f3ec9e8aE(ptr noundef captures(none) %x, ptr noundef captures(none) %y, i64 noundef range(i64 1, 0) %chunks) unnamed_addr #0 {
start:
  %xtraiter = and i64 %chunks, 1
  %0 = icmp eq i64 %chunks, 1
  br i1 %0, label %bb4.unr-lcssa, label %start.new

start.new:                                        ; preds = %start
  %unroll_iter = and i64 %chunks, -2
  br label %bb3

bb4.unr-lcssa:                                    ; preds = %bb3, %start
  %iter.sroa.0.02.unr = phi i64 [ 0, %start ], [ %_18.1, %bb3 ]
  %lcmp.mod.not = icmp eq i64 %xtraiter, 0
  br i1 %lcmp.mod.not, label %bb4, label %bb3.epil

bb3.epil:                                         ; preds = %bb4.unr-lcssa
  %_11.epil = getelementptr inbounds nuw %"core::mem::maybe_uninit::MaybeUninit<[u8; 8]>", ptr %x, i64 %iter.sroa.0.02.unr
  %_13.epil = getelementptr inbounds nuw %"core::mem::maybe_uninit::MaybeUninit<[u8; 8]>", ptr %y, i64 %iter.sroa.0.02.unr
  tail call void @llvm.experimental.noalias.scope.decl(metadata !3)
  tail call void @llvm.experimental.noalias.scope.decl(metadata !6)
  %_3.sroa.0.0.copyload.i.epil = load i64, ptr %_11.epil, align 1, !alias.scope !3, !noalias !6
  %_4.sroa.0.0.copyload.i.epil = load i64, ptr %_13.epil, align 1, !alias.scope !6, !noalias !3
  store i64 %_4.sroa.0.0.copyload.i.epil, ptr %_11.epil, align 1, !alias.scope !3, !noalias !6
  store i64 %_3.sroa.0.0.copyload.i.epil, ptr %_13.epil, align 1, !alias.scope !6, !noalias !3
  br label %bb4

bb4:                                              ; preds = %bb4.unr-lcssa, %bb3.epil
  ret void

bb3:                                              ; preds = %bb3, %start.new
  %iter.sroa.0.02 = phi i64 [ 0, %start.new ], [ %_18.1, %bb3 ]
  %niter = phi i64 [ 0, %start.new ], [ %niter.next.1, %bb3 ]
  %_18 = or disjoint i64 %iter.sroa.0.02, 1
  %_11 = getelementptr inbounds nuw %"core::mem::maybe_uninit::MaybeUninit<[u8; 8]>", ptr %x, i64 %iter.sroa.0.02
  %_13 = getelementptr inbounds nuw %"core::mem::maybe_uninit::MaybeUninit<[u8; 8]>", ptr %y, i64 %iter.sroa.0.02
  tail call void @llvm.experimental.noalias.scope.decl(metadata !3)
  tail call void @llvm.experimental.noalias.scope.decl(metadata !6)
  %_3.sroa.0.0.copyload.i = load i64, ptr %_11, align 1, !alias.scope !3, !noalias !6
  %_4.sroa.0.0.copyload.i = load i64, ptr %_13, align 1, !alias.scope !6, !noalias !3
  store i64 %_4.sroa.0.0.copyload.i, ptr %_11, align 1, !alias.scope !3, !noalias !6
  store i64 %_3.sroa.0.0.copyload.i, ptr %_13, align 1, !alias.scope !6, !noalias !3
  %_18.1 = add nuw i64 %iter.sroa.0.02, 2
  %_11.1 = getelementptr inbounds nuw %"core::mem::maybe_uninit::MaybeUninit<[u8; 8]>", ptr %x, i64 %_18
  %_13.1 = getelementptr inbounds nuw %"core::mem::maybe_uninit::MaybeUninit<[u8; 8]>", ptr %y, i64 %_18
  tail call void @llvm.experimental.noalias.scope.decl(metadata !8)
  tail call void @llvm.experimental.noalias.scope.decl(metadata !10)
  %_3.sroa.0.0.copyload.i.1 = load i64, ptr %_11.1, align 1, !alias.scope !8, !noalias !10
  %_4.sroa.0.0.copyload.i.1 = load i64, ptr %_13.1, align 1, !alias.scope !10, !noalias !8
  store i64 %_4.sroa.0.0.copyload.i.1, ptr %_11.1, align 1, !alias.scope !8, !noalias !10
  store i64 %_3.sroa.0.0.copyload.i.1, ptr %_13.1, align 1, !alias.scope !10, !noalias !8
  %niter.next.1 = add i64 %niter, 2
  %niter.ncmp.1 = icmp eq i64 %niter.next.1, %unroll_iter
  br i1 %niter.ncmp.1, label %bb4.unr-lcssa, label %bb3
}

; core::slice::sort::shared::pivot::median3_rec
; Function Attrs: nofree nosync nounwind nonlazybind memory(read, inaccessiblemem: readwrite) uwtable
define noundef nonnull ptr @_ZN4core5slice4sort6shared5pivot11median3_rec17h837b35bafd5b34f4E(ptr noundef %0, ptr noundef %1, ptr noundef %2, i64 noundef %n, ptr noalias noundef nonnull align 1 %is_less) unnamed_addr #1 {
start:
  %3 = and i64 %n, 2305843009213693944
  %_6.not = icmp eq i64 %3, 0
  br i1 %_6.not, label %bb6, label %bb1

bb1:                                              ; preds = %start
  %n84 = lshr i64 %n, 3
  %count = shl nuw nsw i64 %n84, 2
  %_10 = getelementptr inbounds nuw i32, ptr %0, i64 %count
  %count1 = mul nuw i64 %n84, 7
  %_13 = getelementptr inbounds nuw i32, ptr %0, i64 %count1
; call core::slice::sort::shared::pivot::median3_rec
  %4 = tail call noundef ptr @_ZN4core5slice4sort6shared5pivot11median3_rec17h837b35bafd5b34f4E(ptr noundef %0, ptr noundef %_10, ptr noundef %_13, i64 noundef %n84, ptr noalias noundef nonnull align 1 %is_less)
  %_16 = getelementptr inbounds nuw i32, ptr %1, i64 %count
  %_18 = getelementptr inbounds nuw i32, ptr %1, i64 %count1
; call core::slice::sort::shared::pivot::median3_rec
  %5 = tail call noundef ptr @_ZN4core5slice4sort6shared5pivot11median3_rec17h837b35bafd5b34f4E(ptr noundef %1, ptr noundef %_16, ptr noundef %_18, i64 noundef %n84, ptr noalias noundef nonnull align 1 %is_less)
  %_20 = getelementptr inbounds nuw i32, ptr %2, i64 %count
  %_22 = getelementptr inbounds nuw i32, ptr %2, i64 %count1
; call core::slice::sort::shared::pivot::median3_rec
  %6 = tail call noundef ptr @_ZN4core5slice4sort6shared5pivot11median3_rec17h837b35bafd5b34f4E(ptr noundef %2, ptr noundef %_20, ptr noundef %_22, i64 noundef %n84, ptr noalias noundef nonnull align 1 %is_less)
  br label %bb6

bb6:                                              ; preds = %start, %bb1
  %c.sroa.0.0 = phi ptr [ %6, %bb1 ], [ %2, %start ]
  %b.sroa.0.0 = phi ptr [ %5, %bb1 ], [ %1, %start ]
  %a.sroa.0.0 = phi ptr [ %4, %bb1 ], [ %0, %start ]
  tail call void @llvm.experimental.noalias.scope.decl(metadata !12)
  tail call void @llvm.experimental.noalias.scope.decl(metadata !15)
  tail call void @llvm.experimental.noalias.scope.decl(metadata !17), !noalias !20
  tail call void @llvm.experimental.noalias.scope.decl(metadata !23), !noalias !20
  %_3.i.i = load i32, ptr %a.sroa.0.0, align 4, !alias.scope !25, !noalias !26, !noundef !27
  %_4.i.i = load i32, ptr %b.sroa.0.0, align 4, !alias.scope !28, !noalias !29, !noundef !27
  %_0.i.i = icmp slt i32 %_3.i.i, %_4.i.i
  %_4.i.i6 = load i32, ptr %c.sroa.0.0, align 4, !alias.scope !30, !noalias !35, !noundef !27
  %_0.i.i7 = icmp slt i32 %_3.i.i, %_4.i.i6
  %7 = xor i1 %_0.i.i, %_0.i.i7
  %_0.i.i10 = icmp slt i32 %_4.i.i, %_4.i.i6
  %_12.i = xor i1 %_0.i.i, %_0.i.i10
  %c.b.i = select i1 %_12.i, ptr %c.sroa.0.0, ptr %b.sroa.0.0
  %_0.sroa.0.0.i = select i1 %7, ptr %a.sroa.0.0, ptr %c.b.i
  ret ptr %_0.sroa.0.0.i
}

; core::slice::sort::shared::pivot::median3_rec
; Function Attrs: nofree nosync nounwind nonlazybind memory(read, inaccessiblemem: readwrite) uwtable
define noundef nonnull ptr @_ZN4core5slice4sort6shared5pivot11median3_rec17hbf1b11d40dd392beE(ptr noundef %0, ptr noundef %1, ptr noundef %2, i64 noundef %n, ptr noalias noundef align 8 dereferenceable(8) %is_less) unnamed_addr #1 {
start:
  %3 = and i64 %n, 2305843009213693944
  %_6.not = icmp eq i64 %3, 0
  br i1 %_6.not, label %bb6, label %bb1

bb1:                                              ; preds = %start
  %n84 = lshr i64 %n, 3
  %count = shl nuw nsw i64 %n84, 2
  %_10 = getelementptr inbounds nuw i32, ptr %0, i64 %count
  %count1 = mul nuw i64 %n84, 7
  %_13 = getelementptr inbounds nuw i32, ptr %0, i64 %count1
; call core::slice::sort::shared::pivot::median3_rec
  %4 = tail call noundef ptr @_ZN4core5slice4sort6shared5pivot11median3_rec17hbf1b11d40dd392beE(ptr noundef %0, ptr noundef %_10, ptr noundef %_13, i64 noundef %n84, ptr noalias noundef align 8 dereferenceable(8) %is_less)
  %_16 = getelementptr inbounds nuw i32, ptr %1, i64 %count
  %_18 = getelementptr inbounds nuw i32, ptr %1, i64 %count1
; call core::slice::sort::shared::pivot::median3_rec
  %5 = tail call noundef ptr @_ZN4core5slice4sort6shared5pivot11median3_rec17hbf1b11d40dd392beE(ptr noundef %1, ptr noundef %_16, ptr noundef %_18, i64 noundef %n84, ptr noalias noundef align 8 dereferenceable(8) %is_less)
  %_20 = getelementptr inbounds nuw i32, ptr %2, i64 %count
  %_22 = getelementptr inbounds nuw i32, ptr %2, i64 %count1
; call core::slice::sort::shared::pivot::median3_rec
  %6 = tail call noundef ptr @_ZN4core5slice4sort6shared5pivot11median3_rec17hbf1b11d40dd392beE(ptr noundef %2, ptr noundef %_20, ptr noundef %_22, i64 noundef %n84, ptr noalias noundef align 8 dereferenceable(8) %is_less)
  br label %bb6

bb6:                                              ; preds = %start, %bb1
  %c.sroa.0.0 = phi ptr [ %6, %bb1 ], [ %2, %start ]
  %b.sroa.0.0 = phi ptr [ %5, %bb1 ], [ %1, %start ]
  %a.sroa.0.0 = phi ptr [ %4, %bb1 ], [ %0, %start ]
  tail call void @llvm.experimental.noalias.scope.decl(metadata !38)
  tail call void @llvm.experimental.noalias.scope.decl(metadata !41)
  tail call void @llvm.experimental.noalias.scope.decl(metadata !43), !noalias !46
  tail call void @llvm.experimental.noalias.scope.decl(metadata !49), !noalias !46
  tail call void @llvm.experimental.noalias.scope.decl(metadata !51), !noalias !46
  tail call void @llvm.experimental.noalias.scope.decl(metadata !54), !noalias !46
  tail call void @llvm.experimental.noalias.scope.decl(metadata !56), !noalias !46
  tail call void @llvm.experimental.noalias.scope.decl(metadata !59), !noalias !46
  %_3.i.i.i.i = load i32, ptr %a.sroa.0.0, align 4, !alias.scope !61, !noalias !62, !noundef !27
  %_4.i.i.i.i = load i32, ptr %b.sroa.0.0, align 4, !alias.scope !63, !noalias !64, !noundef !27
  %_0.i = icmp slt i32 %_3.i.i.i.i, %_4.i.i.i.i
  %_4.i.i.i.i6 = load i32, ptr %c.sroa.0.0, align 4, !alias.scope !65, !noalias !74, !noundef !27
  %_0.i7 = icmp slt i32 %_3.i.i.i.i, %_4.i.i.i.i6
  %7 = xor i1 %_0.i, %_0.i7
  %_0.i10 = icmp slt i32 %_4.i.i.i.i, %_4.i.i.i.i6
  %_12.i = xor i1 %_0.i, %_0.i10
  %c.b.i = select i1 %_12.i, ptr %c.sroa.0.0, ptr %b.sroa.0.0
  %_0.sroa.0.0.i = select i1 %7, ptr %a.sroa.0.0, ptr %c.b.i
  ret ptr %_0.sroa.0.0.i
}

; core::slice::sort::shared::smallsort::insert_tail
; Function Attrs: nofree norecurse nosync nounwind nonlazybind memory(argmem: readwrite, inaccessiblemem: readwrite) uwtable
define void @_ZN4core5slice4sort6shared9smallsort11insert_tail17h690eb7bd9866e190E(ptr noundef readnone captures(address) %begin, ptr noundef captures(address) %tail, ptr noalias noundef nonnull readnone align 1 captures(none) %is_less) unnamed_addr #0 personality ptr @rust_eh_personality {
start:
  %0 = getelementptr inbounds i8, ptr %tail, i64 -4
  tail call void @llvm.experimental.noalias.scope.decl(metadata !79)
  tail call void @llvm.experimental.noalias.scope.decl(metadata !82)
  tail call void @llvm.experimental.noalias.scope.decl(metadata !84)
  tail call void @llvm.experimental.noalias.scope.decl(metadata !87)
  %_3.i.i = load i32, ptr %tail, align 4, !alias.scope !89, !noalias !90, !noundef !27
  %_4.i.i = load i32, ptr %0, align 4, !alias.scope !90, !noalias !89, !noundef !27
  %_0.i.i = icmp slt i32 %_3.i.i, %_4.i.i
  br i1 %_0.i.i, label %bb4, label %bb12

bb12:                                             ; preds = %start, %bb10
  ret void

bb4:                                              ; preds = %start, %bb6
  %gap_guard.sroa.5.0 = phi ptr [ %sift.sroa.0.0, %bb6 ], [ %tail, %start ]
  %sift.sroa.0.0 = phi ptr [ %2, %bb6 ], [ %0, %start ]
  %1 = load i32, ptr %sift.sroa.0.0, align 4
  store i32 %1, ptr %gap_guard.sroa.5.0, align 4
  %_18 = icmp eq ptr %sift.sroa.0.0, %begin
  br i1 %_18, label %bb10, label %bb6

bb6:                                              ; preds = %bb4
  %2 = getelementptr inbounds i8, ptr %sift.sroa.0.0, i64 -4
  %_4.i.i2 = load i32, ptr %2, align 4, !alias.scope !91, !noalias !96, !noundef !27
  %_0.i.i3 = icmp slt i32 %_3.i.i, %_4.i.i2
  br i1 %_0.i.i3, label %bb4, label %bb10

bb10:                                             ; preds = %bb6, %bb4
  store i32 %_3.i.i, ptr %sift.sroa.0.0, align 4, !noalias !99
  br label %bb12
}

; core::slice::sort::shared::smallsort::insert_tail
; Function Attrs: nofree norecurse nosync nounwind nonlazybind memory(argmem: readwrite, inaccessiblemem: readwrite) uwtable
define void @_ZN4core5slice4sort6shared9smallsort11insert_tail17ha4586d07b860b06aE(ptr noundef readnone captures(address) %begin, ptr noundef captures(address) %tail, ptr noalias noundef readnone align 8 captures(none) dereferenceable(8) %is_less) unnamed_addr #0 personality ptr @rust_eh_personality {
start:
  %0 = getelementptr inbounds i8, ptr %tail, i64 -4
  tail call void @llvm.experimental.noalias.scope.decl(metadata !104)
  tail call void @llvm.experimental.noalias.scope.decl(metadata !107)
  tail call void @llvm.experimental.noalias.scope.decl(metadata !109)
  tail call void @llvm.experimental.noalias.scope.decl(metadata !112)
  tail call void @llvm.experimental.noalias.scope.decl(metadata !114)
  tail call void @llvm.experimental.noalias.scope.decl(metadata !117)
  tail call void @llvm.experimental.noalias.scope.decl(metadata !119)
  tail call void @llvm.experimental.noalias.scope.decl(metadata !122)
  %_3.i.i.i.i = load i32, ptr %tail, align 4, !alias.scope !124, !noalias !125, !noundef !27
  %_4.i.i.i.i = load i32, ptr %0, align 4, !alias.scope !125, !noalias !124, !noundef !27
  %_0.i = icmp slt i32 %_3.i.i.i.i, %_4.i.i.i.i
  br i1 %_0.i, label %bb4, label %bb12

bb12:                                             ; preds = %start, %bb10
  ret void

bb4:                                              ; preds = %start, %bb6
  %gap_guard.sroa.5.0 = phi ptr [ %sift.sroa.0.0, %bb6 ], [ %tail, %start ]
  %sift.sroa.0.0 = phi ptr [ %2, %bb6 ], [ %0, %start ]
  %1 = load i32, ptr %sift.sroa.0.0, align 4
  store i32 %1, ptr %gap_guard.sroa.5.0, align 4
  %_18 = icmp eq ptr %sift.sroa.0.0, %begin
  br i1 %_18, label %bb10, label %bb6

bb6:                                              ; preds = %bb4
  %2 = getelementptr inbounds i8, ptr %sift.sroa.0.0, i64 -4
  %_4.i.i.i.i2 = load i32, ptr %2, align 4, !alias.scope !126, !noalias !135, !noundef !27
  %_0.i3 = icmp slt i32 %_3.i.i.i.i, %_4.i.i.i.i2
  br i1 %_0.i3, label %bb4, label %bb10

bb10:                                             ; preds = %bb6, %bb4
  store i32 %_3.i.i.i.i, ptr %sift.sroa.0.0, align 4, !noalias !140
  br label %bb12
}

; core::slice::sort::shared::smallsort::sort4_stable
; Function Attrs: mustprogress nofree norecurse nosync nounwind nonlazybind willreturn memory(argmem: readwrite, inaccessiblemem: readwrite) uwtable
define void @_ZN4core5slice4sort6shared9smallsort12sort4_stable17h006a3c8cb7f784c5E(ptr noundef readonly captures(none) %v_base, ptr noundef writeonly captures(none) initializes((0, 16)) %dst, ptr noalias noundef nonnull readnone align 1 captures(none) %is_less) unnamed_addr #2 personality ptr @rust_eh_personality {
start:
  %_7 = getelementptr inbounds nuw i8, ptr %v_base, i64 4
  tail call void @llvm.experimental.noalias.scope.decl(metadata !145)
  tail call void @llvm.experimental.noalias.scope.decl(metadata !148)
  tail call void @llvm.experimental.noalias.scope.decl(metadata !150)
  tail call void @llvm.experimental.noalias.scope.decl(metadata !153)
  %_3.i.i = load i32, ptr %_7, align 4, !alias.scope !155, !noalias !156, !noundef !27
  %_4.i.i = load i32, ptr %v_base, align 4, !alias.scope !156, !noalias !155, !noundef !27
  %_0.i.i = icmp slt i32 %_3.i.i, %_4.i.i
  %_12 = getelementptr inbounds nuw i8, ptr %v_base, i64 12
  %_14 = getelementptr inbounds nuw i8, ptr %v_base, i64 8
  tail call void @llvm.experimental.noalias.scope.decl(metadata !157)
  tail call void @llvm.experimental.noalias.scope.decl(metadata !160)
  tail call void @llvm.experimental.noalias.scope.decl(metadata !162)
  tail call void @llvm.experimental.noalias.scope.decl(metadata !165)
  %_3.i.i7 = load i32, ptr %_12, align 4, !alias.scope !167, !noalias !168, !noundef !27
  %_4.i.i8 = load i32, ptr %_14, align 4, !alias.scope !168, !noalias !167, !noundef !27
  %_0.i.i9 = icmp slt i32 %_3.i.i7, %_4.i.i8
  %count = zext i1 %_0.i.i to i64
  %a = getelementptr inbounds nuw i32, ptr %v_base, i64 %count
  %_19 = xor i1 %_0.i.i, true
  %count2 = zext i1 %_19 to i64
  %b = getelementptr inbounds nuw i32, ptr %v_base, i64 %count2
  %count3 = select i1 %_0.i.i9, i64 3, i64 2
  %c = getelementptr inbounds nuw i32, ptr %v_base, i64 %count3
  %count4 = select i1 %_0.i.i9, i64 2, i64 3
  %d = getelementptr inbounds nuw i32, ptr %v_base, i64 %count4
  tail call void @llvm.experimental.noalias.scope.decl(metadata !169)
  tail call void @llvm.experimental.noalias.scope.decl(metadata !172)
  tail call void @llvm.experimental.noalias.scope.decl(metadata !174)
  tail call void @llvm.experimental.noalias.scope.decl(metadata !177)
  %_3.i.i10 = load i32, ptr %c, align 4, !alias.scope !179, !noalias !180, !noundef !27
  %_4.i.i11 = load i32, ptr %a, align 4, !alias.scope !180, !noalias !179, !noundef !27
  %_0.i.i12 = icmp slt i32 %_3.i.i10, %_4.i.i11
  tail call void @llvm.experimental.noalias.scope.decl(metadata !181)
  tail call void @llvm.experimental.noalias.scope.decl(metadata !184)
  tail call void @llvm.experimental.noalias.scope.decl(metadata !186)
  tail call void @llvm.experimental.noalias.scope.decl(metadata !189)
  %_3.i.i13 = load i32, ptr %d, align 4, !alias.scope !191, !noalias !192, !noundef !27
  %_4.i.i14 = load i32, ptr %b, align 4, !alias.scope !192, !noalias !191, !noundef !27
  %_0.i.i15 = icmp slt i32 %_3.i.i13, %_4.i.i14
  %0 = select i1 %_0.i.i12, ptr %c, ptr %a, !unpredictable !27
  %1 = select i1 %_0.i.i15, ptr %c, ptr %b, !unpredictable !27
  %2 = select i1 %_0.i.i12, ptr %a, ptr %1, !unpredictable !27
  %3 = select i1 %_0.i.i12, ptr %b, ptr %c, !unpredictable !27
  %4 = select i1 %_0.i.i15, ptr %d, ptr %3, !unpredictable !27
  tail call void @llvm.experimental.noalias.scope.decl(metadata !193)
  tail call void @llvm.experimental.noalias.scope.decl(metadata !196)
  tail call void @llvm.experimental.noalias.scope.decl(metadata !198)
  tail call void @llvm.experimental.noalias.scope.decl(metadata !201)
  %_3.i.i16 = load i32, ptr %4, align 4, !alias.scope !203, !noalias !204, !noundef !27
  %_4.i.i17 = load i32, ptr %2, align 4, !alias.scope !204, !noalias !203, !noundef !27
  %_0.i.i18 = icmp slt i32 %_3.i.i16, %_4.i.i17
  %5 = load i32, ptr %0, align 4
  store i32 %5, ptr %dst, align 4
  %dst5 = getelementptr inbounds nuw i8, ptr %dst, i64 4
  %.val = load i32, ptr %4, align 4
  %.val19 = load i32, ptr %2, align 4
  %6 = select i1 %_0.i.i18, i32 %.val, i32 %.val19
  store i32 %6, ptr %dst5, align 4
  %dst6 = getelementptr inbounds nuw i8, ptr %dst, i64 8
  %.val20 = load i32, ptr %2, align 4
  %.val21 = load i32, ptr %4, align 4
  %7 = select i1 %_0.i.i18, i32 %.val20, i32 %.val21
  store i32 %7, ptr %dst6, align 4
  %8 = getelementptr inbounds nuw i8, ptr %dst, i64 12
  %b.val = load i32, ptr %b, align 4
  %d.val = load i32, ptr %d, align 4
  %9 = select i1 %_0.i.i15, i32 %b.val, i32 %d.val
  store i32 %9, ptr %8, align 4
  ret void
}

; core::slice::sort::shared::smallsort::sort4_stable
; Function Attrs: mustprogress nofree norecurse nosync nounwind nonlazybind willreturn memory(argmem: readwrite, inaccessiblemem: readwrite) uwtable
define void @_ZN4core5slice4sort6shared9smallsort12sort4_stable17h5c148c2e738176a6E(ptr noundef readonly captures(none) %v_base, ptr noundef writeonly captures(none) initializes((0, 16)) %dst, ptr noalias noundef readnone align 8 captures(none) dereferenceable(8) %is_less) unnamed_addr #2 personality ptr @rust_eh_personality {
start:
  %_7 = getelementptr inbounds nuw i8, ptr %v_base, i64 4
  tail call void @llvm.experimental.noalias.scope.decl(metadata !205)
  tail call void @llvm.experimental.noalias.scope.decl(metadata !208)
  tail call void @llvm.experimental.noalias.scope.decl(metadata !210)
  tail call void @llvm.experimental.noalias.scope.decl(metadata !213)
  tail call void @llvm.experimental.noalias.scope.decl(metadata !215)
  tail call void @llvm.experimental.noalias.scope.decl(metadata !218)
  tail call void @llvm.experimental.noalias.scope.decl(metadata !220)
  tail call void @llvm.experimental.noalias.scope.decl(metadata !223)
  %_3.i.i.i.i = load i32, ptr %_7, align 4, !alias.scope !225, !noalias !226, !noundef !27
  %_4.i.i.i.i = load i32, ptr %v_base, align 4, !alias.scope !226, !noalias !225, !noundef !27
  %_0.i = icmp slt i32 %_3.i.i.i.i, %_4.i.i.i.i
  %_12 = getelementptr inbounds nuw i8, ptr %v_base, i64 12
  %_14 = getelementptr inbounds nuw i8, ptr %v_base, i64 8
  tail call void @llvm.experimental.noalias.scope.decl(metadata !227)
  tail call void @llvm.experimental.noalias.scope.decl(metadata !230)
  tail call void @llvm.experimental.noalias.scope.decl(metadata !232)
  tail call void @llvm.experimental.noalias.scope.decl(metadata !235)
  tail call void @llvm.experimental.noalias.scope.decl(metadata !237)
  tail call void @llvm.experimental.noalias.scope.decl(metadata !240)
  tail call void @llvm.experimental.noalias.scope.decl(metadata !242)
  tail call void @llvm.experimental.noalias.scope.decl(metadata !245)
  %_3.i.i.i.i7 = load i32, ptr %_12, align 4, !alias.scope !247, !noalias !248, !noundef !27
  %_4.i.i.i.i8 = load i32, ptr %_14, align 4, !alias.scope !248, !noalias !247, !noundef !27
  %_0.i9 = icmp slt i32 %_3.i.i.i.i7, %_4.i.i.i.i8
  %count = zext i1 %_0.i to i64
  %a = getelementptr inbounds nuw i32, ptr %v_base, i64 %count
  %_19 = xor i1 %_0.i, true
  %count2 = zext i1 %_19 to i64
  %b = getelementptr inbounds nuw i32, ptr %v_base, i64 %count2
  %count3 = select i1 %_0.i9, i64 3, i64 2
  %c = getelementptr inbounds nuw i32, ptr %v_base, i64 %count3
  %count4 = select i1 %_0.i9, i64 2, i64 3
  %d = getelementptr inbounds nuw i32, ptr %v_base, i64 %count4
  tail call void @llvm.experimental.noalias.scope.decl(metadata !249)
  tail call void @llvm.experimental.noalias.scope.decl(metadata !252)
  tail call void @llvm.experimental.noalias.scope.decl(metadata !254)
  tail call void @llvm.experimental.noalias.scope.decl(metadata !257)
  tail call void @llvm.experimental.noalias.scope.decl(metadata !259)
  tail call void @llvm.experimental.noalias.scope.decl(metadata !262)
  tail call void @llvm.experimental.noalias.scope.decl(metadata !264)
  tail call void @llvm.experimental.noalias.scope.decl(metadata !267)
  %_3.i.i.i.i10 = load i32, ptr %c, align 4, !alias.scope !269, !noalias !270, !noundef !27
  %_4.i.i.i.i11 = load i32, ptr %a, align 4, !alias.scope !270, !noalias !269, !noundef !27
  %_0.i12 = icmp slt i32 %_3.i.i.i.i10, %_4.i.i.i.i11
  tail call void @llvm.experimental.noalias.scope.decl(metadata !271)
  tail call void @llvm.experimental.noalias.scope.decl(metadata !274)
  tail call void @llvm.experimental.noalias.scope.decl(metadata !276)
  tail call void @llvm.experimental.noalias.scope.decl(metadata !279)
  tail call void @llvm.experimental.noalias.scope.decl(metadata !281)
  tail call void @llvm.experimental.noalias.scope.decl(metadata !284)
  tail call void @llvm.experimental.noalias.scope.decl(metadata !286)
  tail call void @llvm.experimental.noalias.scope.decl(metadata !289)
  %_3.i.i.i.i13 = load i32, ptr %d, align 4, !alias.scope !291, !noalias !292, !noundef !27
  %_4.i.i.i.i14 = load i32, ptr %b, align 4, !alias.scope !292, !noalias !291, !noundef !27
  %_0.i15 = icmp slt i32 %_3.i.i.i.i13, %_4.i.i.i.i14
  %0 = select i1 %_0.i12, ptr %c, ptr %a, !unpredictable !27
  %1 = select i1 %_0.i15, ptr %c, ptr %b, !unpredictable !27
  %2 = select i1 %_0.i12, ptr %a, ptr %1, !unpredictable !27
  %3 = select i1 %_0.i12, ptr %b, ptr %c, !unpredictable !27
  %4 = select i1 %_0.i15, ptr %d, ptr %3, !unpredictable !27
  tail call void @llvm.experimental.noalias.scope.decl(metadata !293)
  tail call void @llvm.experimental.noalias.scope.decl(metadata !296)
  tail call void @llvm.experimental.noalias.scope.decl(metadata !298)
  tail call void @llvm.experimental.noalias.scope.decl(metadata !301)
  tail call void @llvm.experimental.noalias.scope.decl(metadata !303)
  tail call void @llvm.experimental.noalias.scope.decl(metadata !306)
  tail call void @llvm.experimental.noalias.scope.decl(metadata !308)
  tail call void @llvm.experimental.noalias.scope.decl(metadata !311)
  %_3.i.i.i.i16 = load i32, ptr %4, align 4, !alias.scope !313, !noalias !314, !noundef !27
  %_4.i.i.i.i17 = load i32, ptr %2, align 4, !alias.scope !314, !noalias !313, !noundef !27
  %_0.i18 = icmp slt i32 %_3.i.i.i.i16, %_4.i.i.i.i17
  %5 = load i32, ptr %0, align 4
  store i32 %5, ptr %dst, align 4
  %dst5 = getelementptr inbounds nuw i8, ptr %dst, i64 4
  %.val = load i32, ptr %4, align 4
  %.val19 = load i32, ptr %2, align 4
  %6 = select i1 %_0.i18, i32 %.val, i32 %.val19
  store i32 %6, ptr %dst5, align 4
  %dst6 = getelementptr inbounds nuw i8, ptr %dst, i64 8
  %.val20 = load i32, ptr %2, align 4
  %.val21 = load i32, ptr %4, align 4
  %7 = select i1 %_0.i18, i32 %.val20, i32 %.val21
  store i32 %7, ptr %dst6, align 4
  %8 = getelementptr inbounds nuw i8, ptr %dst, i64 12
  %b.val = load i32, ptr %b, align 4
  %d.val = load i32, ptr %d, align 4
  %9 = select i1 %_0.i15, i32 %b.val, i32 %d.val
  store i32 %9, ptr %8, align 4
  ret void
}

; core::slice::sort::shared::smallsort::sort8_stable
; Function Attrs: nonlazybind uwtable
define void @_ZN4core5slice4sort6shared9smallsort12sort8_stable17h87a85e6e94a6856cE(ptr noundef readonly captures(none) %v_base, ptr noundef writeonly captures(none) initializes((0, 32)) %dst, ptr noundef captures(address) initializes((0, 32)) %scratch_base, ptr noalias nonnull readnone align 1 captures(none) %is_less) unnamed_addr #3 personality ptr @rust_eh_personality {
start:
  %_7.i = getelementptr inbounds nuw i8, ptr %v_base, i64 4
  tail call void @llvm.experimental.noalias.scope.decl(metadata !315)
  tail call void @llvm.experimental.noalias.scope.decl(metadata !318)
  tail call void @llvm.experimental.noalias.scope.decl(metadata !320)
  tail call void @llvm.experimental.noalias.scope.decl(metadata !323)
  %_3.i.i.i = load i32, ptr %_7.i, align 4, !alias.scope !325, !noalias !326, !noundef !27
  %_4.i.i.i = load i32, ptr %v_base, align 4, !alias.scope !326, !noalias !325, !noundef !27
  %_0.i.i.i = icmp slt i32 %_3.i.i.i, %_4.i.i.i
  %_12.i = getelementptr inbounds nuw i8, ptr %v_base, i64 12
  %_14.i = getelementptr inbounds nuw i8, ptr %v_base, i64 8
  tail call void @llvm.experimental.noalias.scope.decl(metadata !327)
  tail call void @llvm.experimental.noalias.scope.decl(metadata !330)
  tail call void @llvm.experimental.noalias.scope.decl(metadata !332)
  tail call void @llvm.experimental.noalias.scope.decl(metadata !335)
  %_3.i.i7.i = load i32, ptr %_12.i, align 4, !alias.scope !337, !noalias !338, !noundef !27
  %_4.i.i8.i = load i32, ptr %_14.i, align 4, !alias.scope !338, !noalias !337, !noundef !27
  %_0.i.i9.i = icmp slt i32 %_3.i.i7.i, %_4.i.i8.i
  %count.i = zext i1 %_0.i.i.i to i64
  %a.i = getelementptr inbounds nuw i32, ptr %v_base, i64 %count.i
  %_19.i = xor i1 %_0.i.i.i, true
  %count2.i = zext i1 %_19.i to i64
  %b.i = getelementptr inbounds nuw i32, ptr %v_base, i64 %count2.i
  %count3.i = select i1 %_0.i.i9.i, i64 3, i64 2
  %c.i = getelementptr inbounds nuw i32, ptr %v_base, i64 %count3.i
  %count4.i = select i1 %_0.i.i9.i, i64 2, i64 3
  %d.i = getelementptr inbounds nuw i32, ptr %v_base, i64 %count4.i
  tail call void @llvm.experimental.noalias.scope.decl(metadata !339)
  tail call void @llvm.experimental.noalias.scope.decl(metadata !342)
  tail call void @llvm.experimental.noalias.scope.decl(metadata !344)
  tail call void @llvm.experimental.noalias.scope.decl(metadata !347)
  %_3.i.i10.i = load i32, ptr %c.i, align 4, !alias.scope !349, !noalias !350, !noundef !27
  %_4.i.i11.i = load i32, ptr %a.i, align 4, !alias.scope !350, !noalias !349, !noundef !27
  %_0.i.i12.i = icmp slt i32 %_3.i.i10.i, %_4.i.i11.i
  tail call void @llvm.experimental.noalias.scope.decl(metadata !351)
  tail call void @llvm.experimental.noalias.scope.decl(metadata !354)
  tail call void @llvm.experimental.noalias.scope.decl(metadata !356)
  tail call void @llvm.experimental.noalias.scope.decl(metadata !359)
  %_3.i.i13.i = load i32, ptr %d.i, align 4, !alias.scope !361, !noalias !362, !noundef !27
  %_4.i.i14.i = load i32, ptr %b.i, align 4, !alias.scope !362, !noalias !361, !noundef !27
  %_0.i.i15.i = icmp slt i32 %_3.i.i13.i, %_4.i.i14.i
  %0 = select i1 %_0.i.i12.i, ptr %c.i, ptr %a.i, !unpredictable !27
  %1 = select i1 %_0.i.i15.i, ptr %c.i, ptr %b.i, !unpredictable !27
  %2 = select i1 %_0.i.i12.i, ptr %a.i, ptr %1, !unpredictable !27
  %3 = select i1 %_0.i.i12.i, ptr %b.i, ptr %c.i, !unpredictable !27
  %4 = select i1 %_0.i.i15.i, ptr %d.i, ptr %3, !unpredictable !27
  tail call void @llvm.experimental.noalias.scope.decl(metadata !363)
  tail call void @llvm.experimental.noalias.scope.decl(metadata !366)
  tail call void @llvm.experimental.noalias.scope.decl(metadata !368)
  tail call void @llvm.experimental.noalias.scope.decl(metadata !371)
  %_3.i.i16.i = load i32, ptr %4, align 4, !alias.scope !373, !noalias !374, !noundef !27
  %_4.i.i17.i = load i32, ptr %2, align 4, !alias.scope !374, !noalias !373, !noundef !27
  %_0.i.i18.i = icmp slt i32 %_3.i.i16.i, %_4.i.i17.i
  %5 = load i32, ptr %0, align 4
  store i32 %5, ptr %scratch_base, align 4
  %dst5.i = getelementptr inbounds nuw i8, ptr %scratch_base, i64 4
  %.val.i = load i32, ptr %4, align 4
  %.val19.i = load i32, ptr %2, align 4
  %6 = select i1 %_0.i.i18.i, i32 %.val.i, i32 %.val19.i
  store i32 %6, ptr %dst5.i, align 4
  %dst6.i = getelementptr inbounds nuw i8, ptr %scratch_base, i64 8
  %.val20.i = load i32, ptr %2, align 4
  %.val21.i = load i32, ptr %4, align 4
  %7 = select i1 %_0.i.i18.i, i32 %.val20.i, i32 %.val21.i
  store i32 %7, ptr %dst6.i, align 4
  %8 = getelementptr inbounds nuw i8, ptr %scratch_base, i64 12
  %b.val.i = load i32, ptr %b.i, align 4
  %d.val.i = load i32, ptr %d.i, align 4
  %9 = select i1 %_0.i.i15.i, i32 %b.val.i, i32 %d.val.i
  store i32 %9, ptr %8, align 4
  %_9 = getelementptr inbounds nuw i8, ptr %v_base, i64 16
  %_10 = getelementptr i8, ptr %scratch_base, i64 16
  %_7.i1 = getelementptr inbounds nuw i8, ptr %v_base, i64 20
  tail call void @llvm.experimental.noalias.scope.decl(metadata !375)
  tail call void @llvm.experimental.noalias.scope.decl(metadata !378)
  tail call void @llvm.experimental.noalias.scope.decl(metadata !380)
  tail call void @llvm.experimental.noalias.scope.decl(metadata !383)
  %_3.i.i.i2 = load i32, ptr %_7.i1, align 4, !alias.scope !385, !noalias !386, !noundef !27
  %_4.i.i.i3 = load i32, ptr %_9, align 4, !alias.scope !386, !noalias !385, !noundef !27
  %_0.i.i.i4 = icmp slt i32 %_3.i.i.i2, %_4.i.i.i3
  %_12.i5 = getelementptr inbounds nuw i8, ptr %v_base, i64 28
  %_14.i6 = getelementptr inbounds nuw i8, ptr %v_base, i64 24
  tail call void @llvm.experimental.noalias.scope.decl(metadata !387)
  tail call void @llvm.experimental.noalias.scope.decl(metadata !390)
  tail call void @llvm.experimental.noalias.scope.decl(metadata !392)
  tail call void @llvm.experimental.noalias.scope.decl(metadata !395)
  %_3.i.i7.i7 = load i32, ptr %_12.i5, align 4, !alias.scope !397, !noalias !398, !noundef !27
  %_4.i.i8.i8 = load i32, ptr %_14.i6, align 4, !alias.scope !398, !noalias !397, !noundef !27
  %_0.i.i9.i9 = icmp slt i32 %_3.i.i7.i7, %_4.i.i8.i8
  %count.i10 = zext i1 %_0.i.i.i4 to i64
  %a.i11 = getelementptr inbounds nuw i32, ptr %_9, i64 %count.i10
  %_19.i12 = xor i1 %_0.i.i.i4, true
  %count2.i13 = zext i1 %_19.i12 to i64
  %b.i14 = getelementptr inbounds nuw i32, ptr %_9, i64 %count2.i13
  %count3.i15 = select i1 %_0.i.i9.i9, i64 3, i64 2
  %c.i16 = getelementptr inbounds nuw i32, ptr %_9, i64 %count3.i15
  %count4.i17 = select i1 %_0.i.i9.i9, i64 2, i64 3
  %d.i18 = getelementptr inbounds nuw i32, ptr %_9, i64 %count4.i17
  tail call void @llvm.experimental.noalias.scope.decl(metadata !399)
  tail call void @llvm.experimental.noalias.scope.decl(metadata !402)
  tail call void @llvm.experimental.noalias.scope.decl(metadata !404)
  tail call void @llvm.experimental.noalias.scope.decl(metadata !407)
  %_3.i.i10.i19 = load i32, ptr %c.i16, align 4, !alias.scope !409, !noalias !410, !noundef !27
  %_4.i.i11.i20 = load i32, ptr %a.i11, align 4, !alias.scope !410, !noalias !409, !noundef !27
  %_0.i.i12.i21 = icmp slt i32 %_3.i.i10.i19, %_4.i.i11.i20
  tail call void @llvm.experimental.noalias.scope.decl(metadata !411)
  tail call void @llvm.experimental.noalias.scope.decl(metadata !414)
  tail call void @llvm.experimental.noalias.scope.decl(metadata !416)
  tail call void @llvm.experimental.noalias.scope.decl(metadata !419)
  %_3.i.i13.i22 = load i32, ptr %d.i18, align 4, !alias.scope !421, !noalias !422, !noundef !27
  %_4.i.i14.i23 = load i32, ptr %b.i14, align 4, !alias.scope !422, !noalias !421, !noundef !27
  %_0.i.i15.i24 = icmp slt i32 %_3.i.i13.i22, %_4.i.i14.i23
  %10 = select i1 %_0.i.i12.i21, ptr %c.i16, ptr %a.i11, !unpredictable !27
  %11 = select i1 %_0.i.i15.i24, ptr %c.i16, ptr %b.i14, !unpredictable !27
  %12 = select i1 %_0.i.i12.i21, ptr %a.i11, ptr %11, !unpredictable !27
  %13 = select i1 %_0.i.i12.i21, ptr %b.i14, ptr %c.i16, !unpredictable !27
  %14 = select i1 %_0.i.i15.i24, ptr %d.i18, ptr %13, !unpredictable !27
  tail call void @llvm.experimental.noalias.scope.decl(metadata !423)
  tail call void @llvm.experimental.noalias.scope.decl(metadata !426)
  tail call void @llvm.experimental.noalias.scope.decl(metadata !428)
  tail call void @llvm.experimental.noalias.scope.decl(metadata !431)
  %_3.i.i16.i25 = load i32, ptr %14, align 4, !alias.scope !433, !noalias !434, !noundef !27
  %_4.i.i17.i26 = load i32, ptr %12, align 4, !alias.scope !434, !noalias !433, !noundef !27
  %_0.i.i18.i27 = icmp slt i32 %_3.i.i16.i25, %_4.i.i17.i26
  %15 = load i32, ptr %10, align 4
  store i32 %15, ptr %_10, align 4
  %dst5.i28 = getelementptr i8, ptr %scratch_base, i64 20
  %.val.i29 = load i32, ptr %14, align 4
  %.val19.i30 = load i32, ptr %12, align 4
  %16 = select i1 %_0.i.i18.i27, i32 %.val.i29, i32 %.val19.i30
  store i32 %16, ptr %dst5.i28, align 4
  %dst6.i31 = getelementptr i8, ptr %scratch_base, i64 24
  %.val20.i32 = load i32, ptr %12, align 4
  %.val21.i33 = load i32, ptr %14, align 4
  %17 = select i1 %_0.i.i18.i27, i32 %.val20.i32, i32 %.val21.i33
  store i32 %17, ptr %dst6.i31, align 4
  %18 = getelementptr i8, ptr %scratch_base, i64 28
  %b.val.i34 = load i32, ptr %b.i14, align 4
  %d.val.i35 = load i32, ptr %d.i18, align 4
  %19 = select i1 %_0.i.i15.i24, i32 %b.val.i34, i32 %d.val.i35
  store i32 %19, ptr %18, align 4
  tail call void @llvm.experimental.noalias.scope.decl(metadata !435)
  %20 = getelementptr i8, ptr %scratch_base, i64 12
  %21 = getelementptr inbounds nuw i8, ptr %scratch_base, i64 28
  %22 = getelementptr inbounds nuw i8, ptr %dst, i64 28
  tail call void @llvm.experimental.noalias.scope.decl(metadata !438)
  tail call void @llvm.experimental.noalias.scope.decl(metadata !441)
  tail call void @llvm.experimental.noalias.scope.decl(metadata !443), !noalias !446
  tail call void @llvm.experimental.noalias.scope.decl(metadata !449), !noalias !446
  %_3.i.i.i36 = load i32, ptr %_10, align 4, !alias.scope !451, !noalias !452, !noundef !27
  %_4.i.i.i37 = load i32, ptr %scratch_base, align 4, !alias.scope !453, !noalias !454, !noundef !27
  %_0.i.i.i38 = icmp slt i32 %_3.i.i.i36, %_4.i.i.i37
  %is_l.i18.i = xor i1 %_0.i.i.i38, true
  %23 = tail call i32 @llvm.smin.i32(i32 %_3.i.i.i36, i32 %_4.i.i.i37)
  store i32 %23, ptr %dst, align 4, !noalias !455
  %count.i.i = zext i1 %_0.i.i.i38 to i64
  %_12.i.i = getelementptr inbounds nuw i32, ptr %_10, i64 %count.i.i
  %count2.i.i = zext i1 %is_l.i18.i to i64
  %_14.i.i = getelementptr inbounds nuw i32, ptr %scratch_base, i64 %count2.i.i
  %_16.i.i = getelementptr inbounds nuw i8, ptr %dst, i64 4
  tail call void @llvm.experimental.noalias.scope.decl(metadata !457)
  tail call void @llvm.experimental.noalias.scope.decl(metadata !460)
  tail call void @llvm.experimental.noalias.scope.decl(metadata !462), !noalias !465
  tail call void @llvm.experimental.noalias.scope.decl(metadata !468), !noalias !465
  %_3.i.i19.i = load i32, ptr %21, align 4, !alias.scope !470, !noalias !471, !noundef !27
  %_4.i.i20.i = load i32, ptr %20, align 4, !alias.scope !472, !noalias !473, !noundef !27
  %_0.i.i21.i = icmp slt i32 %_3.i.i19.i, %_4.i.i20.i
  %is_l.i.i = xor i1 %_0.i.i21.i, true
  %24 = tail call i32 @llvm.smax.i32(i32 %_3.i.i19.i, i32 %_4.i.i20.i)
  store i32 %24, ptr %22, align 4, !noalias !474
  %count.neg.i.i = sext i1 %is_l.i.i to i64
  %25 = getelementptr i32, ptr %21, i64 %count.neg.i.i
  %count3.neg.i.i = sext i1 %_0.i.i21.i to i64
  %26 = getelementptr i32, ptr %20, i64 %count3.neg.i.i
  %27 = getelementptr inbounds nuw i8, ptr %dst, i64 24
  tail call void @llvm.experimental.noalias.scope.decl(metadata !476)
  tail call void @llvm.experimental.noalias.scope.decl(metadata !478)
  tail call void @llvm.experimental.noalias.scope.decl(metadata !480), !noalias !446
  tail call void @llvm.experimental.noalias.scope.decl(metadata !482), !noalias !446
  %_3.i.i.i36.1 = load i32, ptr %_12.i.i, align 4, !alias.scope !484, !noalias !485, !noundef !27
  %_4.i.i.i37.1 = load i32, ptr %_14.i.i, align 4, !alias.scope !486, !noalias !487, !noundef !27
  %_0.i.i.i38.1 = icmp slt i32 %_3.i.i.i36.1, %_4.i.i.i37.1
  %is_l.i18.i.1 = xor i1 %_0.i.i.i38.1, true
  %28 = tail call i32 @llvm.smin.i32(i32 %_3.i.i.i36.1, i32 %_4.i.i.i37.1)
  store i32 %28, ptr %_16.i.i, align 4, !noalias !455
  %count.i.i.1 = zext i1 %_0.i.i.i38.1 to i64
  %_12.i.i.1 = getelementptr inbounds nuw i32, ptr %_12.i.i, i64 %count.i.i.1
  %count2.i.i.1 = zext i1 %is_l.i18.i.1 to i64
  %_14.i.i.1 = getelementptr inbounds nuw i32, ptr %_14.i.i, i64 %count2.i.i.1
  %_16.i.i.1 = getelementptr inbounds nuw i8, ptr %dst, i64 8
  tail call void @llvm.experimental.noalias.scope.decl(metadata !488)
  tail call void @llvm.experimental.noalias.scope.decl(metadata !490)
  tail call void @llvm.experimental.noalias.scope.decl(metadata !492), !noalias !465
  tail call void @llvm.experimental.noalias.scope.decl(metadata !494), !noalias !465
  %_3.i.i19.i.1 = load i32, ptr %25, align 4, !alias.scope !496, !noalias !497, !noundef !27
  %_4.i.i20.i.1 = load i32, ptr %26, align 4, !alias.scope !498, !noalias !499, !noundef !27
  %_0.i.i21.i.1 = icmp slt i32 %_3.i.i19.i.1, %_4.i.i20.i.1
  %is_l.i.i.1 = xor i1 %_0.i.i21.i.1, true
  %29 = tail call i32 @llvm.smax.i32(i32 %_3.i.i19.i.1, i32 %_4.i.i20.i.1)
  store i32 %29, ptr %27, align 4, !noalias !474
  %count.neg.i.i.1 = sext i1 %is_l.i.i.1 to i64
  %30 = getelementptr i32, ptr %25, i64 %count.neg.i.i.1
  %count3.neg.i.i.1 = sext i1 %_0.i.i21.i.1 to i64
  %31 = getelementptr i32, ptr %26, i64 %count3.neg.i.i.1
  %32 = getelementptr inbounds nuw i8, ptr %dst, i64 20
  tail call void @llvm.experimental.noalias.scope.decl(metadata !500)
  tail call void @llvm.experimental.noalias.scope.decl(metadata !502)
  tail call void @llvm.experimental.noalias.scope.decl(metadata !504), !noalias !446
  tail call void @llvm.experimental.noalias.scope.decl(metadata !506), !noalias !446
  %_3.i.i.i36.2 = load i32, ptr %_12.i.i.1, align 4, !alias.scope !508, !noalias !509, !noundef !27
  %_4.i.i.i37.2 = load i32, ptr %_14.i.i.1, align 4, !alias.scope !510, !noalias !511, !noundef !27
  %_0.i.i.i38.2 = icmp slt i32 %_3.i.i.i36.2, %_4.i.i.i37.2
  %is_l.i18.i.2 = xor i1 %_0.i.i.i38.2, true
  %33 = tail call i32 @llvm.smin.i32(i32 %_3.i.i.i36.2, i32 %_4.i.i.i37.2)
  store i32 %33, ptr %_16.i.i.1, align 4, !noalias !455
  %count.i.i.2 = zext i1 %_0.i.i.i38.2 to i64
  %_12.i.i.2 = getelementptr inbounds nuw i32, ptr %_12.i.i.1, i64 %count.i.i.2
  %count2.i.i.2 = zext i1 %is_l.i18.i.2 to i64
  %_14.i.i.2 = getelementptr inbounds nuw i32, ptr %_14.i.i.1, i64 %count2.i.i.2
  %_16.i.i.2 = getelementptr inbounds nuw i8, ptr %dst, i64 12
  tail call void @llvm.experimental.noalias.scope.decl(metadata !512)
  tail call void @llvm.experimental.noalias.scope.decl(metadata !514)
  tail call void @llvm.experimental.noalias.scope.decl(metadata !516), !noalias !465
  tail call void @llvm.experimental.noalias.scope.decl(metadata !518), !noalias !465
  %_3.i.i19.i.2 = load i32, ptr %30, align 4, !alias.scope !520, !noalias !521, !noundef !27
  %_4.i.i20.i.2 = load i32, ptr %31, align 4, !alias.scope !522, !noalias !523, !noundef !27
  %_0.i.i21.i.2 = icmp slt i32 %_3.i.i19.i.2, %_4.i.i20.i.2
  %is_l.i.i.2 = xor i1 %_0.i.i21.i.2, true
  %34 = tail call i32 @llvm.smax.i32(i32 %_3.i.i19.i.2, i32 %_4.i.i20.i.2)
  store i32 %34, ptr %32, align 4, !noalias !474
  %count.neg.i.i.2 = sext i1 %is_l.i.i.2 to i64
  %35 = getelementptr i32, ptr %30, i64 %count.neg.i.i.2
  %count3.neg.i.i.2 = sext i1 %_0.i.i21.i.2 to i64
  %36 = getelementptr i32, ptr %31, i64 %count3.neg.i.i.2
  %37 = getelementptr inbounds nuw i8, ptr %dst, i64 16
  tail call void @llvm.experimental.noalias.scope.decl(metadata !524)
  tail call void @llvm.experimental.noalias.scope.decl(metadata !526)
  tail call void @llvm.experimental.noalias.scope.decl(metadata !528), !noalias !446
  tail call void @llvm.experimental.noalias.scope.decl(metadata !530), !noalias !446
  %_3.i.i.i36.3 = load i32, ptr %_12.i.i.2, align 4, !alias.scope !532, !noalias !533, !noundef !27
  %_4.i.i.i37.3 = load i32, ptr %_14.i.i.2, align 4, !alias.scope !534, !noalias !535, !noundef !27
  %_0.i.i.i38.3 = icmp slt i32 %_3.i.i.i36.3, %_4.i.i.i37.3
  %is_l.i18.i.3 = xor i1 %_0.i.i.i38.3, true
  %38 = tail call i32 @llvm.smin.i32(i32 %_3.i.i.i36.3, i32 %_4.i.i.i37.3)
  store i32 %38, ptr %_16.i.i.2, align 4, !noalias !455
  %count.i.i.3 = zext i1 %_0.i.i.i38.3 to i64
  %_12.i.i.3 = getelementptr inbounds nuw i32, ptr %_12.i.i.2, i64 %count.i.i.3
  %count2.i.i.3 = zext i1 %is_l.i18.i.3 to i64
  %_14.i.i.3 = getelementptr inbounds nuw i32, ptr %_14.i.i.2, i64 %count2.i.i.3
  tail call void @llvm.experimental.noalias.scope.decl(metadata !536)
  tail call void @llvm.experimental.noalias.scope.decl(metadata !538)
  tail call void @llvm.experimental.noalias.scope.decl(metadata !540), !noalias !465
  tail call void @llvm.experimental.noalias.scope.decl(metadata !542), !noalias !465
  %_3.i.i19.i.3 = load i32, ptr %35, align 4, !alias.scope !544, !noalias !545, !noundef !27
  %_4.i.i20.i.3 = load i32, ptr %36, align 4, !alias.scope !546, !noalias !547, !noundef !27
  %_0.i.i21.i.3 = icmp slt i32 %_3.i.i19.i.3, %_4.i.i20.i.3
  %is_l.i.i.3 = xor i1 %_0.i.i21.i.3, true
  %39 = tail call i32 @llvm.smax.i32(i32 %_3.i.i19.i.3, i32 %_4.i.i20.i.3)
  store i32 %39, ptr %37, align 4, !noalias !474
  %count.neg.i.i.3 = sext i1 %is_l.i.i.3 to i64
  %40 = getelementptr i32, ptr %35, i64 %count.neg.i.i.3
  %count3.neg.i.i.3 = sext i1 %_0.i.i21.i.3 to i64
  %41 = getelementptr i32, ptr %36, i64 %count3.neg.i.i.3
  %42 = getelementptr i8, ptr %41, i64 4
  %43 = getelementptr i8, ptr %40, i64 4
  %_31.i = icmp ne ptr %_14.i.i.3, %42
  %_32.i = icmp ne ptr %_12.i.i.3, %43
  %or.cond.i = select i1 %_31.i, i1 true, i1 %_32.i
  br i1 %or.cond.i, label %bb13.i, label %_ZN4core5slice4sort6shared9smallsort19bidirectional_merge17h8db8a3f193f9c422E.exit, !prof !548

bb13.i:                                           ; preds = %start
; call core::slice::sort::shared::smallsort::panic_on_ord_violation
  tail call void @_ZN4core5slice4sort6shared9smallsort22panic_on_ord_violation17hc77a22a2d50782cdE() #24, !noalias !435
  unreachable

_ZN4core5slice4sort6shared9smallsort19bidirectional_merge17h8db8a3f193f9c422E.exit: ; preds = %start
  ret void
}

; core::slice::sort::shared::smallsort::sort8_stable
; Function Attrs: nonlazybind uwtable
define void @_ZN4core5slice4sort6shared9smallsort12sort8_stable17hc53ea4f392c565c9E(ptr noundef readonly captures(none) %v_base, ptr noundef writeonly captures(none) initializes((0, 32)) %dst, ptr noundef captures(address) initializes((0, 32)) %scratch_base, ptr noalias readnone align 8 captures(none) %is_less) unnamed_addr #3 personality ptr @rust_eh_personality {
start:
  %_7.i = getelementptr inbounds nuw i8, ptr %v_base, i64 4
  tail call void @llvm.experimental.noalias.scope.decl(metadata !549)
  tail call void @llvm.experimental.noalias.scope.decl(metadata !552)
  tail call void @llvm.experimental.noalias.scope.decl(metadata !554)
  tail call void @llvm.experimental.noalias.scope.decl(metadata !557)
  tail call void @llvm.experimental.noalias.scope.decl(metadata !559)
  tail call void @llvm.experimental.noalias.scope.decl(metadata !562)
  tail call void @llvm.experimental.noalias.scope.decl(metadata !564)
  tail call void @llvm.experimental.noalias.scope.decl(metadata !567)
  %_3.i.i.i.i.i = load i32, ptr %_7.i, align 4, !alias.scope !569, !noalias !570, !noundef !27
  %_4.i.i.i.i.i = load i32, ptr %v_base, align 4, !alias.scope !570, !noalias !569, !noundef !27
  %_0.i.i = icmp slt i32 %_3.i.i.i.i.i, %_4.i.i.i.i.i
  %_12.i = getelementptr inbounds nuw i8, ptr %v_base, i64 12
  %_14.i = getelementptr inbounds nuw i8, ptr %v_base, i64 8
  tail call void @llvm.experimental.noalias.scope.decl(metadata !571)
  tail call void @llvm.experimental.noalias.scope.decl(metadata !574)
  tail call void @llvm.experimental.noalias.scope.decl(metadata !576)
  tail call void @llvm.experimental.noalias.scope.decl(metadata !579)
  tail call void @llvm.experimental.noalias.scope.decl(metadata !581)
  tail call void @llvm.experimental.noalias.scope.decl(metadata !584)
  tail call void @llvm.experimental.noalias.scope.decl(metadata !586)
  tail call void @llvm.experimental.noalias.scope.decl(metadata !589)
  %_3.i.i.i.i7.i = load i32, ptr %_12.i, align 4, !alias.scope !591, !noalias !592, !noundef !27
  %_4.i.i.i.i8.i = load i32, ptr %_14.i, align 4, !alias.scope !592, !noalias !591, !noundef !27
  %_0.i9.i = icmp slt i32 %_3.i.i.i.i7.i, %_4.i.i.i.i8.i
  %count.i = zext i1 %_0.i.i to i64
  %a.i = getelementptr inbounds nuw i32, ptr %v_base, i64 %count.i
  %_19.i = xor i1 %_0.i.i, true
  %count2.i = zext i1 %_19.i to i64
  %b.i = getelementptr inbounds nuw i32, ptr %v_base, i64 %count2.i
  %count3.i = select i1 %_0.i9.i, i64 3, i64 2
  %c.i = getelementptr inbounds nuw i32, ptr %v_base, i64 %count3.i
  %count4.i = select i1 %_0.i9.i, i64 2, i64 3
  %d.i = getelementptr inbounds nuw i32, ptr %v_base, i64 %count4.i
  tail call void @llvm.experimental.noalias.scope.decl(metadata !593)
  tail call void @llvm.experimental.noalias.scope.decl(metadata !596)
  tail call void @llvm.experimental.noalias.scope.decl(metadata !598)
  tail call void @llvm.experimental.noalias.scope.decl(metadata !601)
  tail call void @llvm.experimental.noalias.scope.decl(metadata !603)
  tail call void @llvm.experimental.noalias.scope.decl(metadata !606)
  tail call void @llvm.experimental.noalias.scope.decl(metadata !608)
  tail call void @llvm.experimental.noalias.scope.decl(metadata !611)
  %_3.i.i.i.i10.i = load i32, ptr %c.i, align 4, !alias.scope !613, !noalias !614, !noundef !27
  %_4.i.i.i.i11.i = load i32, ptr %a.i, align 4, !alias.scope !614, !noalias !613, !noundef !27
  %_0.i12.i = icmp slt i32 %_3.i.i.i.i10.i, %_4.i.i.i.i11.i
  tail call void @llvm.experimental.noalias.scope.decl(metadata !615)
  tail call void @llvm.experimental.noalias.scope.decl(metadata !618)
  tail call void @llvm.experimental.noalias.scope.decl(metadata !620)
  tail call void @llvm.experimental.noalias.scope.decl(metadata !623)
  tail call void @llvm.experimental.noalias.scope.decl(metadata !625)
  tail call void @llvm.experimental.noalias.scope.decl(metadata !628)
  tail call void @llvm.experimental.noalias.scope.decl(metadata !630)
  tail call void @llvm.experimental.noalias.scope.decl(metadata !633)
  %_3.i.i.i.i13.i = load i32, ptr %d.i, align 4, !alias.scope !635, !noalias !636, !noundef !27
  %_4.i.i.i.i14.i = load i32, ptr %b.i, align 4, !alias.scope !636, !noalias !635, !noundef !27
  %_0.i15.i = icmp slt i32 %_3.i.i.i.i13.i, %_4.i.i.i.i14.i
  %0 = select i1 %_0.i12.i, ptr %c.i, ptr %a.i, !unpredictable !27
  %1 = select i1 %_0.i15.i, ptr %c.i, ptr %b.i, !unpredictable !27
  %2 = select i1 %_0.i12.i, ptr %a.i, ptr %1, !unpredictable !27
  %3 = select i1 %_0.i12.i, ptr %b.i, ptr %c.i, !unpredictable !27
  %4 = select i1 %_0.i15.i, ptr %d.i, ptr %3, !unpredictable !27
  tail call void @llvm.experimental.noalias.scope.decl(metadata !637)
  tail call void @llvm.experimental.noalias.scope.decl(metadata !640)
  tail call void @llvm.experimental.noalias.scope.decl(metadata !642)
  tail call void @llvm.experimental.noalias.scope.decl(metadata !645)
  tail call void @llvm.experimental.noalias.scope.decl(metadata !647)
  tail call void @llvm.experimental.noalias.scope.decl(metadata !650)
  tail call void @llvm.experimental.noalias.scope.decl(metadata !652)
  tail call void @llvm.experimental.noalias.scope.decl(metadata !655)
  %_3.i.i.i.i16.i = load i32, ptr %4, align 4, !alias.scope !657, !noalias !658, !noundef !27
  %_4.i.i.i.i17.i = load i32, ptr %2, align 4, !alias.scope !658, !noalias !657, !noundef !27
  %_0.i18.i = icmp slt i32 %_3.i.i.i.i16.i, %_4.i.i.i.i17.i
  %5 = load i32, ptr %0, align 4
  store i32 %5, ptr %scratch_base, align 4
  %dst5.i = getelementptr inbounds nuw i8, ptr %scratch_base, i64 4
  %.val.i = load i32, ptr %4, align 4
  %.val19.i = load i32, ptr %2, align 4
  %6 = select i1 %_0.i18.i, i32 %.val.i, i32 %.val19.i
  store i32 %6, ptr %dst5.i, align 4
  %dst6.i = getelementptr inbounds nuw i8, ptr %scratch_base, i64 8
  %.val20.i = load i32, ptr %2, align 4
  %.val21.i = load i32, ptr %4, align 4
  %7 = select i1 %_0.i18.i, i32 %.val20.i, i32 %.val21.i
  store i32 %7, ptr %dst6.i, align 4
  %8 = getelementptr inbounds nuw i8, ptr %scratch_base, i64 12
  %b.val.i = load i32, ptr %b.i, align 4
  %d.val.i = load i32, ptr %d.i, align 4
  %9 = select i1 %_0.i15.i, i32 %b.val.i, i32 %d.val.i
  store i32 %9, ptr %8, align 4
  %_9 = getelementptr inbounds nuw i8, ptr %v_base, i64 16
  %_10 = getelementptr i8, ptr %scratch_base, i64 16
  %_7.i1 = getelementptr inbounds nuw i8, ptr %v_base, i64 20
  tail call void @llvm.experimental.noalias.scope.decl(metadata !659)
  tail call void @llvm.experimental.noalias.scope.decl(metadata !662)
  tail call void @llvm.experimental.noalias.scope.decl(metadata !664)
  tail call void @llvm.experimental.noalias.scope.decl(metadata !667)
  tail call void @llvm.experimental.noalias.scope.decl(metadata !669)
  tail call void @llvm.experimental.noalias.scope.decl(metadata !672)
  tail call void @llvm.experimental.noalias.scope.decl(metadata !674)
  tail call void @llvm.experimental.noalias.scope.decl(metadata !677)
  %_3.i.i.i.i.i2 = load i32, ptr %_7.i1, align 4, !alias.scope !679, !noalias !680, !noundef !27
  %_4.i.i.i.i.i3 = load i32, ptr %_9, align 4, !alias.scope !680, !noalias !679, !noundef !27
  %_0.i.i4 = icmp slt i32 %_3.i.i.i.i.i2, %_4.i.i.i.i.i3
  %_12.i5 = getelementptr inbounds nuw i8, ptr %v_base, i64 28
  %_14.i6 = getelementptr inbounds nuw i8, ptr %v_base, i64 24
  tail call void @llvm.experimental.noalias.scope.decl(metadata !681)
  tail call void @llvm.experimental.noalias.scope.decl(metadata !684)
  tail call void @llvm.experimental.noalias.scope.decl(metadata !686)
  tail call void @llvm.experimental.noalias.scope.decl(metadata !689)
  tail call void @llvm.experimental.noalias.scope.decl(metadata !691)
  tail call void @llvm.experimental.noalias.scope.decl(metadata !694)
  tail call void @llvm.experimental.noalias.scope.decl(metadata !696)
  tail call void @llvm.experimental.noalias.scope.decl(metadata !699)
  %_3.i.i.i.i7.i7 = load i32, ptr %_12.i5, align 4, !alias.scope !701, !noalias !702, !noundef !27
  %_4.i.i.i.i8.i8 = load i32, ptr %_14.i6, align 4, !alias.scope !702, !noalias !701, !noundef !27
  %_0.i9.i9 = icmp slt i32 %_3.i.i.i.i7.i7, %_4.i.i.i.i8.i8
  %count.i10 = zext i1 %_0.i.i4 to i64
  %a.i11 = getelementptr inbounds nuw i32, ptr %_9, i64 %count.i10
  %_19.i12 = xor i1 %_0.i.i4, true
  %count2.i13 = zext i1 %_19.i12 to i64
  %b.i14 = getelementptr inbounds nuw i32, ptr %_9, i64 %count2.i13
  %count3.i15 = select i1 %_0.i9.i9, i64 3, i64 2
  %c.i16 = getelementptr inbounds nuw i32, ptr %_9, i64 %count3.i15
  %count4.i17 = select i1 %_0.i9.i9, i64 2, i64 3
  %d.i18 = getelementptr inbounds nuw i32, ptr %_9, i64 %count4.i17
  tail call void @llvm.experimental.noalias.scope.decl(metadata !703)
  tail call void @llvm.experimental.noalias.scope.decl(metadata !706)
  tail call void @llvm.experimental.noalias.scope.decl(metadata !708)
  tail call void @llvm.experimental.noalias.scope.decl(metadata !711)
  tail call void @llvm.experimental.noalias.scope.decl(metadata !713)
  tail call void @llvm.experimental.noalias.scope.decl(metadata !716)
  tail call void @llvm.experimental.noalias.scope.decl(metadata !718)
  tail call void @llvm.experimental.noalias.scope.decl(metadata !721)
  %_3.i.i.i.i10.i19 = load i32, ptr %c.i16, align 4, !alias.scope !723, !noalias !724, !noundef !27
  %_4.i.i.i.i11.i20 = load i32, ptr %a.i11, align 4, !alias.scope !724, !noalias !723, !noundef !27
  %_0.i12.i21 = icmp slt i32 %_3.i.i.i.i10.i19, %_4.i.i.i.i11.i20
  tail call void @llvm.experimental.noalias.scope.decl(metadata !725)
  tail call void @llvm.experimental.noalias.scope.decl(metadata !728)
  tail call void @llvm.experimental.noalias.scope.decl(metadata !730)
  tail call void @llvm.experimental.noalias.scope.decl(metadata !733)
  tail call void @llvm.experimental.noalias.scope.decl(metadata !735)
  tail call void @llvm.experimental.noalias.scope.decl(metadata !738)
  tail call void @llvm.experimental.noalias.scope.decl(metadata !740)
  tail call void @llvm.experimental.noalias.scope.decl(metadata !743)
  %_3.i.i.i.i13.i22 = load i32, ptr %d.i18, align 4, !alias.scope !745, !noalias !746, !noundef !27
  %_4.i.i.i.i14.i23 = load i32, ptr %b.i14, align 4, !alias.scope !746, !noalias !745, !noundef !27
  %_0.i15.i24 = icmp slt i32 %_3.i.i.i.i13.i22, %_4.i.i.i.i14.i23
  %10 = select i1 %_0.i12.i21, ptr %c.i16, ptr %a.i11, !unpredictable !27
  %11 = select i1 %_0.i15.i24, ptr %c.i16, ptr %b.i14, !unpredictable !27
  %12 = select i1 %_0.i12.i21, ptr %a.i11, ptr %11, !unpredictable !27
  %13 = select i1 %_0.i12.i21, ptr %b.i14, ptr %c.i16, !unpredictable !27
  %14 = select i1 %_0.i15.i24, ptr %d.i18, ptr %13, !unpredictable !27
  tail call void @llvm.experimental.noalias.scope.decl(metadata !747)
  tail call void @llvm.experimental.noalias.scope.decl(metadata !750)
  tail call void @llvm.experimental.noalias.scope.decl(metadata !752)
  tail call void @llvm.experimental.noalias.scope.decl(metadata !755)
  tail call void @llvm.experimental.noalias.scope.decl(metadata !757)
  tail call void @llvm.experimental.noalias.scope.decl(metadata !760)
  tail call void @llvm.experimental.noalias.scope.decl(metadata !762)
  tail call void @llvm.experimental.noalias.scope.decl(metadata !765)
  %_3.i.i.i.i16.i25 = load i32, ptr %14, align 4, !alias.scope !767, !noalias !768, !noundef !27
  %_4.i.i.i.i17.i26 = load i32, ptr %12, align 4, !alias.scope !768, !noalias !767, !noundef !27
  %_0.i18.i27 = icmp slt i32 %_3.i.i.i.i16.i25, %_4.i.i.i.i17.i26
  %15 = load i32, ptr %10, align 4
  store i32 %15, ptr %_10, align 4
  %dst5.i28 = getelementptr i8, ptr %scratch_base, i64 20
  %.val.i29 = load i32, ptr %14, align 4
  %.val19.i30 = load i32, ptr %12, align 4
  %16 = select i1 %_0.i18.i27, i32 %.val.i29, i32 %.val19.i30
  store i32 %16, ptr %dst5.i28, align 4
  %dst6.i31 = getelementptr i8, ptr %scratch_base, i64 24
  %.val20.i32 = load i32, ptr %12, align 4
  %.val21.i33 = load i32, ptr %14, align 4
  %17 = select i1 %_0.i18.i27, i32 %.val20.i32, i32 %.val21.i33
  store i32 %17, ptr %dst6.i31, align 4
  %18 = getelementptr i8, ptr %scratch_base, i64 28
  %b.val.i34 = load i32, ptr %b.i14, align 4
  %d.val.i35 = load i32, ptr %d.i18, align 4
  %19 = select i1 %_0.i15.i24, i32 %b.val.i34, i32 %d.val.i35
  store i32 %19, ptr %18, align 4
  tail call void @llvm.experimental.noalias.scope.decl(metadata !769)
  %20 = getelementptr i8, ptr %scratch_base, i64 12
  %21 = getelementptr inbounds nuw i8, ptr %scratch_base, i64 28
  %22 = getelementptr inbounds nuw i8, ptr %dst, i64 28
  tail call void @llvm.experimental.noalias.scope.decl(metadata !772)
  tail call void @llvm.experimental.noalias.scope.decl(metadata !775)
  tail call void @llvm.experimental.noalias.scope.decl(metadata !777), !noalias !780
  tail call void @llvm.experimental.noalias.scope.decl(metadata !783), !noalias !780
  tail call void @llvm.experimental.noalias.scope.decl(metadata !785), !noalias !780
  tail call void @llvm.experimental.noalias.scope.decl(metadata !788), !noalias !780
  tail call void @llvm.experimental.noalias.scope.decl(metadata !790), !noalias !780
  tail call void @llvm.experimental.noalias.scope.decl(metadata !793), !noalias !780
  %_3.i.i.i.i.i36 = load i32, ptr %_10, align 4, !alias.scope !795, !noalias !796, !noundef !27
  %_4.i.i.i.i.i37 = load i32, ptr %scratch_base, align 4, !alias.scope !797, !noalias !798, !noundef !27
  %_0.i.i38 = icmp slt i32 %_3.i.i.i.i.i36, %_4.i.i.i.i.i37
  %is_l.i18.i = xor i1 %_0.i.i38, true
  %23 = tail call i32 @llvm.smin.i32(i32 %_3.i.i.i.i.i36, i32 %_4.i.i.i.i.i37)
  store i32 %23, ptr %dst, align 4, !noalias !799
  %count.i.i = zext i1 %_0.i.i38 to i64
  %_12.i.i = getelementptr inbounds nuw i32, ptr %_10, i64 %count.i.i
  %count2.i.i = zext i1 %is_l.i18.i to i64
  %_14.i.i = getelementptr inbounds nuw i32, ptr %scratch_base, i64 %count2.i.i
  %_16.i.i = getelementptr inbounds nuw i8, ptr %dst, i64 4
  tail call void @llvm.experimental.noalias.scope.decl(metadata !801)
  tail call void @llvm.experimental.noalias.scope.decl(metadata !804)
  tail call void @llvm.experimental.noalias.scope.decl(metadata !806), !noalias !809
  tail call void @llvm.experimental.noalias.scope.decl(metadata !812), !noalias !809
  tail call void @llvm.experimental.noalias.scope.decl(metadata !814), !noalias !809
  tail call void @llvm.experimental.noalias.scope.decl(metadata !817), !noalias !809
  tail call void @llvm.experimental.noalias.scope.decl(metadata !819), !noalias !809
  tail call void @llvm.experimental.noalias.scope.decl(metadata !822), !noalias !809
  %_3.i.i.i.i19.i = load i32, ptr %21, align 4, !alias.scope !824, !noalias !825, !noundef !27
  %_4.i.i.i.i20.i = load i32, ptr %20, align 4, !alias.scope !826, !noalias !827, !noundef !27
  %_0.i21.i = icmp slt i32 %_3.i.i.i.i19.i, %_4.i.i.i.i20.i
  %is_l.i.i = xor i1 %_0.i21.i, true
  %24 = tail call i32 @llvm.smax.i32(i32 %_3.i.i.i.i19.i, i32 %_4.i.i.i.i20.i)
  store i32 %24, ptr %22, align 4, !noalias !828
  %count.neg.i.i = sext i1 %is_l.i.i to i64
  %25 = getelementptr i32, ptr %21, i64 %count.neg.i.i
  %count3.neg.i.i = sext i1 %_0.i21.i to i64
  %26 = getelementptr i32, ptr %20, i64 %count3.neg.i.i
  %27 = getelementptr inbounds nuw i8, ptr %dst, i64 24
  tail call void @llvm.experimental.noalias.scope.decl(metadata !830)
  tail call void @llvm.experimental.noalias.scope.decl(metadata !832)
  tail call void @llvm.experimental.noalias.scope.decl(metadata !834), !noalias !780
  tail call void @llvm.experimental.noalias.scope.decl(metadata !836), !noalias !780
  tail call void @llvm.experimental.noalias.scope.decl(metadata !838), !noalias !780
  tail call void @llvm.experimental.noalias.scope.decl(metadata !840), !noalias !780
  tail call void @llvm.experimental.noalias.scope.decl(metadata !842), !noalias !780
  tail call void @llvm.experimental.noalias.scope.decl(metadata !844), !noalias !780
  %_3.i.i.i.i.i36.1 = load i32, ptr %_12.i.i, align 4, !alias.scope !846, !noalias !847, !noundef !27
  %_4.i.i.i.i.i37.1 = load i32, ptr %_14.i.i, align 4, !alias.scope !848, !noalias !849, !noundef !27
  %_0.i.i38.1 = icmp slt i32 %_3.i.i.i.i.i36.1, %_4.i.i.i.i.i37.1
  %is_l.i18.i.1 = xor i1 %_0.i.i38.1, true
  %28 = tail call i32 @llvm.smin.i32(i32 %_3.i.i.i.i.i36.1, i32 %_4.i.i.i.i.i37.1)
  store i32 %28, ptr %_16.i.i, align 4, !noalias !799
  %count.i.i.1 = zext i1 %_0.i.i38.1 to i64
  %_12.i.i.1 = getelementptr inbounds nuw i32, ptr %_12.i.i, i64 %count.i.i.1
  %count2.i.i.1 = zext i1 %is_l.i18.i.1 to i64
  %_14.i.i.1 = getelementptr inbounds nuw i32, ptr %_14.i.i, i64 %count2.i.i.1
  %_16.i.i.1 = getelementptr inbounds nuw i8, ptr %dst, i64 8
  tail call void @llvm.experimental.noalias.scope.decl(metadata !850)
  tail call void @llvm.experimental.noalias.scope.decl(metadata !852)
  tail call void @llvm.experimental.noalias.scope.decl(metadata !854), !noalias !809
  tail call void @llvm.experimental.noalias.scope.decl(metadata !856), !noalias !809
  tail call void @llvm.experimental.noalias.scope.decl(metadata !858), !noalias !809
  tail call void @llvm.experimental.noalias.scope.decl(metadata !860), !noalias !809
  tail call void @llvm.experimental.noalias.scope.decl(metadata !862), !noalias !809
  tail call void @llvm.experimental.noalias.scope.decl(metadata !864), !noalias !809
  %_3.i.i.i.i19.i.1 = load i32, ptr %25, align 4, !alias.scope !866, !noalias !867, !noundef !27
  %_4.i.i.i.i20.i.1 = load i32, ptr %26, align 4, !alias.scope !868, !noalias !869, !noundef !27
  %_0.i21.i.1 = icmp slt i32 %_3.i.i.i.i19.i.1, %_4.i.i.i.i20.i.1
  %is_l.i.i.1 = xor i1 %_0.i21.i.1, true
  %29 = tail call i32 @llvm.smax.i32(i32 %_3.i.i.i.i19.i.1, i32 %_4.i.i.i.i20.i.1)
  store i32 %29, ptr %27, align 4, !noalias !828
  %count.neg.i.i.1 = sext i1 %is_l.i.i.1 to i64
  %30 = getelementptr i32, ptr %25, i64 %count.neg.i.i.1
  %count3.neg.i.i.1 = sext i1 %_0.i21.i.1 to i64
  %31 = getelementptr i32, ptr %26, i64 %count3.neg.i.i.1
  %32 = getelementptr inbounds nuw i8, ptr %dst, i64 20
  tail call void @llvm.experimental.noalias.scope.decl(metadata !870)
  tail call void @llvm.experimental.noalias.scope.decl(metadata !872)
  tail call void @llvm.experimental.noalias.scope.decl(metadata !874), !noalias !780
  tail call void @llvm.experimental.noalias.scope.decl(metadata !876), !noalias !780
  tail call void @llvm.experimental.noalias.scope.decl(metadata !878), !noalias !780
  tail call void @llvm.experimental.noalias.scope.decl(metadata !880), !noalias !780
  tail call void @llvm.experimental.noalias.scope.decl(metadata !882), !noalias !780
  tail call void @llvm.experimental.noalias.scope.decl(metadata !884), !noalias !780
  %_3.i.i.i.i.i36.2 = load i32, ptr %_12.i.i.1, align 4, !alias.scope !886, !noalias !887, !noundef !27
  %_4.i.i.i.i.i37.2 = load i32, ptr %_14.i.i.1, align 4, !alias.scope !888, !noalias !889, !noundef !27
  %_0.i.i38.2 = icmp slt i32 %_3.i.i.i.i.i36.2, %_4.i.i.i.i.i37.2
  %is_l.i18.i.2 = xor i1 %_0.i.i38.2, true
  %33 = tail call i32 @llvm.smin.i32(i32 %_3.i.i.i.i.i36.2, i32 %_4.i.i.i.i.i37.2)
  store i32 %33, ptr %_16.i.i.1, align 4, !noalias !799
  %count.i.i.2 = zext i1 %_0.i.i38.2 to i64
  %_12.i.i.2 = getelementptr inbounds nuw i32, ptr %_12.i.i.1, i64 %count.i.i.2
  %count2.i.i.2 = zext i1 %is_l.i18.i.2 to i64
  %_14.i.i.2 = getelementptr inbounds nuw i32, ptr %_14.i.i.1, i64 %count2.i.i.2
  %_16.i.i.2 = getelementptr inbounds nuw i8, ptr %dst, i64 12
  tail call void @llvm.experimental.noalias.scope.decl(metadata !890)
  tail call void @llvm.experimental.noalias.scope.decl(metadata !892)
  tail call void @llvm.experimental.noalias.scope.decl(metadata !894), !noalias !809
  tail call void @llvm.experimental.noalias.scope.decl(metadata !896), !noalias !809
  tail call void @llvm.experimental.noalias.scope.decl(metadata !898), !noalias !809
  tail call void @llvm.experimental.noalias.scope.decl(metadata !900), !noalias !809
  tail call void @llvm.experimental.noalias.scope.decl(metadata !902), !noalias !809
  tail call void @llvm.experimental.noalias.scope.decl(metadata !904), !noalias !809
  %_3.i.i.i.i19.i.2 = load i32, ptr %30, align 4, !alias.scope !906, !noalias !907, !noundef !27
  %_4.i.i.i.i20.i.2 = load i32, ptr %31, align 4, !alias.scope !908, !noalias !909, !noundef !27
  %_0.i21.i.2 = icmp slt i32 %_3.i.i.i.i19.i.2, %_4.i.i.i.i20.i.2
  %is_l.i.i.2 = xor i1 %_0.i21.i.2, true
  %34 = tail call i32 @llvm.smax.i32(i32 %_3.i.i.i.i19.i.2, i32 %_4.i.i.i.i20.i.2)
  store i32 %34, ptr %32, align 4, !noalias !828
  %count.neg.i.i.2 = sext i1 %is_l.i.i.2 to i64
  %35 = getelementptr i32, ptr %30, i64 %count.neg.i.i.2
  %count3.neg.i.i.2 = sext i1 %_0.i21.i.2 to i64
  %36 = getelementptr i32, ptr %31, i64 %count3.neg.i.i.2
  %37 = getelementptr inbounds nuw i8, ptr %dst, i64 16
  tail call void @llvm.experimental.noalias.scope.decl(metadata !910)
  tail call void @llvm.experimental.noalias.scope.decl(metadata !912)
  tail call void @llvm.experimental.noalias.scope.decl(metadata !914), !noalias !780
  tail call void @llvm.experimental.noalias.scope.decl(metadata !916), !noalias !780
  tail call void @llvm.experimental.noalias.scope.decl(metadata !918), !noalias !780
  tail call void @llvm.experimental.noalias.scope.decl(metadata !920), !noalias !780
  tail call void @llvm.experimental.noalias.scope.decl(metadata !922), !noalias !780
  tail call void @llvm.experimental.noalias.scope.decl(metadata !924), !noalias !780
  %_3.i.i.i.i.i36.3 = load i32, ptr %_12.i.i.2, align 4, !alias.scope !926, !noalias !927, !noundef !27
  %_4.i.i.i.i.i37.3 = load i32, ptr %_14.i.i.2, align 4, !alias.scope !928, !noalias !929, !noundef !27
  %_0.i.i38.3 = icmp slt i32 %_3.i.i.i.i.i36.3, %_4.i.i.i.i.i37.3
  %is_l.i18.i.3 = xor i1 %_0.i.i38.3, true
  %38 = tail call i32 @llvm.smin.i32(i32 %_3.i.i.i.i.i36.3, i32 %_4.i.i.i.i.i37.3)
  store i32 %38, ptr %_16.i.i.2, align 4, !noalias !799
  %count.i.i.3 = zext i1 %_0.i.i38.3 to i64
  %_12.i.i.3 = getelementptr inbounds nuw i32, ptr %_12.i.i.2, i64 %count.i.i.3
  %count2.i.i.3 = zext i1 %is_l.i18.i.3 to i64
  %_14.i.i.3 = getelementptr inbounds nuw i32, ptr %_14.i.i.2, i64 %count2.i.i.3
  tail call void @llvm.experimental.noalias.scope.decl(metadata !930)
  tail call void @llvm.experimental.noalias.scope.decl(metadata !932)
  tail call void @llvm.experimental.noalias.scope.decl(metadata !934), !noalias !809
  tail call void @llvm.experimental.noalias.scope.decl(metadata !936), !noalias !809
  tail call void @llvm.experimental.noalias.scope.decl(metadata !938), !noalias !809
  tail call void @llvm.experimental.noalias.scope.decl(metadata !940), !noalias !809
  tail call void @llvm.experimental.noalias.scope.decl(metadata !942), !noalias !809
  tail call void @llvm.experimental.noalias.scope.decl(metadata !944), !noalias !809
  %_3.i.i.i.i19.i.3 = load i32, ptr %35, align 4, !alias.scope !946, !noalias !947, !noundef !27
  %_4.i.i.i.i20.i.3 = load i32, ptr %36, align 4, !alias.scope !948, !noalias !949, !noundef !27
  %_0.i21.i.3 = icmp slt i32 %_3.i.i.i.i19.i.3, %_4.i.i.i.i20.i.3
  %is_l.i.i.3 = xor i1 %_0.i21.i.3, true
  %39 = tail call i32 @llvm.smax.i32(i32 %_3.i.i.i.i19.i.3, i32 %_4.i.i.i.i20.i.3)
  store i32 %39, ptr %37, align 4, !noalias !828
  %count.neg.i.i.3 = sext i1 %is_l.i.i.3 to i64
  %40 = getelementptr i32, ptr %35, i64 %count.neg.i.i.3
  %count3.neg.i.i.3 = sext i1 %_0.i21.i.3 to i64
  %41 = getelementptr i32, ptr %36, i64 %count3.neg.i.i.3
  %42 = getelementptr i8, ptr %41, i64 4
  %43 = getelementptr i8, ptr %40, i64 4
  %_31.i = icmp ne ptr %_14.i.i.3, %42
  %_32.i = icmp ne ptr %_12.i.i.3, %43
  %or.cond.i = select i1 %_31.i, i1 true, i1 %_32.i
  br i1 %or.cond.i, label %bb13.i, label %_ZN4core5slice4sort6shared9smallsort19bidirectional_merge17haccf474fc9f1e2d3E.exit, !prof !548

bb13.i:                                           ; preds = %start
; call core::slice::sort::shared::smallsort::panic_on_ord_violation
  tail call void @_ZN4core5slice4sort6shared9smallsort22panic_on_ord_violation17hc77a22a2d50782cdE() #24, !noalias !769
  unreachable

_ZN4core5slice4sort6shared9smallsort19bidirectional_merge17haccf474fc9f1e2d3E.exit: ; preds = %start
  ret void
}

; core::slice::sort::shared::smallsort::bidirectional_merge
; Function Attrs: nonlazybind uwtable
define void @_ZN4core5slice4sort6shared9smallsort19bidirectional_merge17h8db8a3f193f9c422E(ptr noalias noundef nonnull readonly align 4 captures(address) %v.0, i64 noundef range(i64 0, 2305843009213693952) %v.1, ptr noundef writeonly captures(none) %0, ptr noalias noundef nonnull readnone align 1 captures(none) %is_less) unnamed_addr #3 {
start:
  %len_div_215 = lshr i64 %v.1, 1
  %_7 = icmp samesign ugt i64 %v.1, 1
  tail call void @llvm.assume(i1 %_7)
  %count1 = add nsw i64 %v.1, -1
  %1 = getelementptr inbounds nuw i32, ptr %0, i64 %count1
  %2 = getelementptr inbounds nuw i32, ptr %v.0, i64 %count1
  %3 = getelementptr i32, ptr %v.0, i64 %len_div_215
  %4 = getelementptr i8, ptr %3, i64 -4
  br label %bb15

bb16:                                             ; preds = %bb15
  %5 = getelementptr i8, ptr %10, i64 4
  %6 = getelementptr i8, ptr %9, i64 4
  %_44 = and i64 %v.1, 1
  %_22 = icmp eq i64 %_44, 0
  br i1 %_22, label %bb9, label %bb5

bb15:                                             ; preds = %start, %bb15
  %dst.sroa.0.029 = phi ptr [ %_16.i, %bb15 ], [ %0, %start ]
  %iter.sroa.0.028 = phi i64 [ %_39, %bb15 ], [ 0, %start ]
  %left.sroa.0.027 = phi ptr [ %_14.i, %bb15 ], [ %v.0, %start ]
  %right.sroa.0.026 = phi ptr [ %_12.i, %bb15 ], [ %3, %start ]
  %left_rev.sroa.0.025 = phi ptr [ %10, %bb15 ], [ %4, %start ]
  %right_rev.sroa.0.024 = phi ptr [ %9, %bb15 ], [ %2, %start ]
  %dst_rev.sroa.0.023 = phi ptr [ %11, %bb15 ], [ %1, %start ]
  %_39 = add nuw nsw i64 %iter.sroa.0.028, 1
  tail call void @llvm.experimental.noalias.scope.decl(metadata !950)
  tail call void @llvm.experimental.noalias.scope.decl(metadata !953)
  tail call void @llvm.experimental.noalias.scope.decl(metadata !955), !noalias !958
  tail call void @llvm.experimental.noalias.scope.decl(metadata !961), !noalias !958
  %_3.i.i = load i32, ptr %right.sroa.0.026, align 4, !alias.scope !963, !noalias !964, !noundef !27
  %_4.i.i = load i32, ptr %left.sroa.0.027, align 4, !alias.scope !965, !noalias !966, !noundef !27
  %_0.i.i = icmp slt i32 %_3.i.i, %_4.i.i
  %is_l.i18 = xor i1 %_0.i.i, true
  %7 = tail call i32 @llvm.smin.i32(i32 %_3.i.i, i32 %_4.i.i)
  store i32 %7, ptr %dst.sroa.0.029, align 4, !noalias !967
  %count.i = zext i1 %_0.i.i to i64
  %_12.i = getelementptr inbounds nuw i32, ptr %right.sroa.0.026, i64 %count.i
  %count2.i = zext i1 %is_l.i18 to i64
  %_14.i = getelementptr inbounds nuw i32, ptr %left.sroa.0.027, i64 %count2.i
  %_16.i = getelementptr inbounds nuw i8, ptr %dst.sroa.0.029, i64 4
  tail call void @llvm.experimental.noalias.scope.decl(metadata !969)
  tail call void @llvm.experimental.noalias.scope.decl(metadata !972)
  tail call void @llvm.experimental.noalias.scope.decl(metadata !974), !noalias !977
  tail call void @llvm.experimental.noalias.scope.decl(metadata !980), !noalias !977
  %_3.i.i19 = load i32, ptr %right_rev.sroa.0.024, align 4, !alias.scope !982, !noalias !983, !noundef !27
  %_4.i.i20 = load i32, ptr %left_rev.sroa.0.025, align 4, !alias.scope !984, !noalias !985, !noundef !27
  %_0.i.i21 = icmp slt i32 %_3.i.i19, %_4.i.i20
  %is_l.i = xor i1 %_0.i.i21, true
  %8 = tail call i32 @llvm.smax.i32(i32 %_3.i.i19, i32 %_4.i.i20)
  store i32 %8, ptr %dst_rev.sroa.0.023, align 4, !noalias !986
  %count.neg.i = sext i1 %is_l.i to i64
  %9 = getelementptr i32, ptr %right_rev.sroa.0.024, i64 %count.neg.i
  %count3.neg.i = sext i1 %_0.i.i21 to i64
  %10 = getelementptr i32, ptr %left_rev.sroa.0.025, i64 %count3.neg.i
  %11 = getelementptr inbounds i8, ptr %dst_rev.sroa.0.023, i64 -4
  %exitcond.not = icmp eq i64 %_39, %len_div_215
  br i1 %exitcond.not, label %bb16, label %bb15

bb5:                                              ; preds = %bb16
  %left_nonempty = icmp ult ptr %_14.i, %5
  %left.sroa.0.0.right.sroa.0.0 = select i1 %left_nonempty, ptr %_14.i, ptr %_12.i
  %12 = load i32, ptr %left.sroa.0.0.right.sroa.0.0, align 4
  store i32 %12, ptr %_16.i, align 4
  %count2 = zext i1 %left_nonempty to i64
  %_26 = getelementptr inbounds nuw i32, ptr %_14.i, i64 %count2
  %_30 = xor i1 %left_nonempty, true
  %count3 = zext i1 %_30 to i64
  %_28 = getelementptr inbounds nuw i32, ptr %_12.i, i64 %count3
  br label %bb9

bb9:                                              ; preds = %bb16, %bb5
  %right.sroa.0.1 = phi ptr [ %_12.i, %bb16 ], [ %_28, %bb5 ]
  %left.sroa.0.1 = phi ptr [ %_14.i, %bb16 ], [ %_26, %bb5 ]
  %_31 = icmp ne ptr %left.sroa.0.1, %5
  %_32 = icmp ne ptr %right.sroa.0.1, %6
  %or.cond = select i1 %_31, i1 true, i1 %_32
  br i1 %or.cond, label %bb13, label %bb14, !prof !548

bb14:                                             ; preds = %bb9
  ret void

bb13:                                             ; preds = %bb9
; call core::slice::sort::shared::smallsort::panic_on_ord_violation
  tail call void @_ZN4core5slice4sort6shared9smallsort22panic_on_ord_violation17hc77a22a2d50782cdE() #24
  unreachable
}

; core::slice::sort::shared::smallsort::bidirectional_merge
; Function Attrs: nonlazybind uwtable
define void @_ZN4core5slice4sort6shared9smallsort19bidirectional_merge17haccf474fc9f1e2d3E(ptr noalias noundef nonnull readonly align 4 captures(address) %v.0, i64 noundef range(i64 0, 2305843009213693952) %v.1, ptr noundef writeonly captures(none) %0, ptr noalias noundef readnone align 8 captures(none) dereferenceable(8) %is_less) unnamed_addr #3 {
start:
  %len_div_215 = lshr i64 %v.1, 1
  %_7 = icmp samesign ugt i64 %v.1, 1
  tail call void @llvm.assume(i1 %_7)
  %count1 = add nsw i64 %v.1, -1
  %1 = getelementptr inbounds nuw i32, ptr %0, i64 %count1
  %2 = getelementptr inbounds nuw i32, ptr %v.0, i64 %count1
  %3 = getelementptr i32, ptr %v.0, i64 %len_div_215
  %4 = getelementptr i8, ptr %3, i64 -4
  br label %bb15

bb16:                                             ; preds = %bb15
  %5 = getelementptr i8, ptr %10, i64 4
  %6 = getelementptr i8, ptr %9, i64 4
  %_44 = and i64 %v.1, 1
  %_22 = icmp eq i64 %_44, 0
  br i1 %_22, label %bb9, label %bb5

bb15:                                             ; preds = %start, %bb15
  %dst.sroa.0.029 = phi ptr [ %_16.i, %bb15 ], [ %0, %start ]
  %iter.sroa.0.028 = phi i64 [ %_39, %bb15 ], [ 0, %start ]
  %left.sroa.0.027 = phi ptr [ %_14.i, %bb15 ], [ %v.0, %start ]
  %right.sroa.0.026 = phi ptr [ %_12.i, %bb15 ], [ %3, %start ]
  %left_rev.sroa.0.025 = phi ptr [ %10, %bb15 ], [ %4, %start ]
  %right_rev.sroa.0.024 = phi ptr [ %9, %bb15 ], [ %2, %start ]
  %dst_rev.sroa.0.023 = phi ptr [ %11, %bb15 ], [ %1, %start ]
  %_39 = add nuw nsw i64 %iter.sroa.0.028, 1
  tail call void @llvm.experimental.noalias.scope.decl(metadata !988)
  tail call void @llvm.experimental.noalias.scope.decl(metadata !991)
  tail call void @llvm.experimental.noalias.scope.decl(metadata !993), !noalias !996
  tail call void @llvm.experimental.noalias.scope.decl(metadata !999), !noalias !996
  tail call void @llvm.experimental.noalias.scope.decl(metadata !1001), !noalias !996
  tail call void @llvm.experimental.noalias.scope.decl(metadata !1004), !noalias !996
  tail call void @llvm.experimental.noalias.scope.decl(metadata !1006), !noalias !996
  tail call void @llvm.experimental.noalias.scope.decl(metadata !1009), !noalias !996
  %_3.i.i.i.i = load i32, ptr %right.sroa.0.026, align 4, !alias.scope !1011, !noalias !1012, !noundef !27
  %_4.i.i.i.i = load i32, ptr %left.sroa.0.027, align 4, !alias.scope !1013, !noalias !1014, !noundef !27
  %_0.i = icmp slt i32 %_3.i.i.i.i, %_4.i.i.i.i
  %is_l.i18 = xor i1 %_0.i, true
  %7 = tail call i32 @llvm.smin.i32(i32 %_3.i.i.i.i, i32 %_4.i.i.i.i)
  store i32 %7, ptr %dst.sroa.0.029, align 4, !noalias !1015
  %count.i = zext i1 %_0.i to i64
  %_12.i = getelementptr inbounds nuw i32, ptr %right.sroa.0.026, i64 %count.i
  %count2.i = zext i1 %is_l.i18 to i64
  %_14.i = getelementptr inbounds nuw i32, ptr %left.sroa.0.027, i64 %count2.i
  %_16.i = getelementptr inbounds nuw i8, ptr %dst.sroa.0.029, i64 4
  tail call void @llvm.experimental.noalias.scope.decl(metadata !1017)
  tail call void @llvm.experimental.noalias.scope.decl(metadata !1020)
  tail call void @llvm.experimental.noalias.scope.decl(metadata !1022), !noalias !1025
  tail call void @llvm.experimental.noalias.scope.decl(metadata !1028), !noalias !1025
  tail call void @llvm.experimental.noalias.scope.decl(metadata !1030), !noalias !1025
  tail call void @llvm.experimental.noalias.scope.decl(metadata !1033), !noalias !1025
  tail call void @llvm.experimental.noalias.scope.decl(metadata !1035), !noalias !1025
  tail call void @llvm.experimental.noalias.scope.decl(metadata !1038), !noalias !1025
  %_3.i.i.i.i19 = load i32, ptr %right_rev.sroa.0.024, align 4, !alias.scope !1040, !noalias !1041, !noundef !27
  %_4.i.i.i.i20 = load i32, ptr %left_rev.sroa.0.025, align 4, !alias.scope !1042, !noalias !1043, !noundef !27
  %_0.i21 = icmp slt i32 %_3.i.i.i.i19, %_4.i.i.i.i20
  %is_l.i = xor i1 %_0.i21, true
  %8 = tail call i32 @llvm.smax.i32(i32 %_3.i.i.i.i19, i32 %_4.i.i.i.i20)
  store i32 %8, ptr %dst_rev.sroa.0.023, align 4, !noalias !1044
  %count.neg.i = sext i1 %is_l.i to i64
  %9 = getelementptr i32, ptr %right_rev.sroa.0.024, i64 %count.neg.i
  %count3.neg.i = sext i1 %_0.i21 to i64
  %10 = getelementptr i32, ptr %left_rev.sroa.0.025, i64 %count3.neg.i
  %11 = getelementptr inbounds i8, ptr %dst_rev.sroa.0.023, i64 -4
  %exitcond.not = icmp eq i64 %_39, %len_div_215
  br i1 %exitcond.not, label %bb16, label %bb15

bb5:                                              ; preds = %bb16
  %left_nonempty = icmp ult ptr %_14.i, %5
  %left.sroa.0.0.right.sroa.0.0 = select i1 %left_nonempty, ptr %_14.i, ptr %_12.i
  %12 = load i32, ptr %left.sroa.0.0.right.sroa.0.0, align 4
  store i32 %12, ptr %_16.i, align 4
  %count2 = zext i1 %left_nonempty to i64
  %_26 = getelementptr inbounds nuw i32, ptr %_14.i, i64 %count2
  %_30 = xor i1 %left_nonempty, true
  %count3 = zext i1 %_30 to i64
  %_28 = getelementptr inbounds nuw i32, ptr %_12.i, i64 %count3
  br label %bb9

bb9:                                              ; preds = %bb16, %bb5
  %right.sroa.0.1 = phi ptr [ %_12.i, %bb16 ], [ %_28, %bb5 ]
  %left.sroa.0.1 = phi ptr [ %_14.i, %bb16 ], [ %_26, %bb5 ]
  %_31 = icmp ne ptr %left.sroa.0.1, %5
  %_32 = icmp ne ptr %right.sroa.0.1, %6
  %or.cond = select i1 %_31, i1 true, i1 %_32
  br i1 %or.cond, label %bb13, label %bb14, !prof !548

bb14:                                             ; preds = %bb9
  ret void

bb13:                                             ; preds = %bb9
; call core::slice::sort::shared::smallsort::panic_on_ord_violation
  tail call void @_ZN4core5slice4sort6shared9smallsort22panic_on_ord_violation17hc77a22a2d50782cdE() #24
  unreachable
}

; core::slice::sort::shared::smallsort::insertion_sort_shift_left
; Function Attrs: nounwind nonlazybind memory(argmem: readwrite, inaccessiblemem: readwrite) uwtable
define void @_ZN4core5slice4sort6shared9smallsort25insertion_sort_shift_left17h57a135f5ff1c6868E(ptr noalias noundef nonnull align 4 captures(address) %v.0, i64 noundef range(i64 0, 2305843009213693952) %v.1, i64 noundef %offset, ptr noalias readnone align 8 captures(none) %is_less) unnamed_addr #4 personality ptr @rust_eh_personality {
start:
  %0 = add i64 %offset, -1
  %or.cond.not = icmp ult i64 %0, %v.1
  br i1 %or.cond.not, label %bb3, label %bb2

bb2:                                              ; preds = %start
  tail call void @llvm.trap()
  unreachable

bb3:                                              ; preds = %start
  %v_end = getelementptr inbounds nuw i32, ptr %v.0, i64 %v.1
  %_11.not1 = icmp samesign eq i64 %offset, %v.1
  br i1 %_11.not1, label %bb7, label %bb5.preheader

bb5.preheader:                                    ; preds = %bb3
  %1 = getelementptr inbounds nuw i32, ptr %v.0, i64 %offset
  br label %bb5

bb7:                                              ; preds = %_ZN4core5slice4sort6shared9smallsort11insert_tail17ha4586d07b860b06aE.exit, %bb3
  ret void

bb5:                                              ; preds = %bb5.preheader, %_ZN4core5slice4sort6shared9smallsort11insert_tail17ha4586d07b860b06aE.exit
  %tail.sroa.0.02 = phi ptr [ %_15, %_ZN4core5slice4sort6shared9smallsort11insert_tail17ha4586d07b860b06aE.exit ], [ %1, %bb5.preheader ]
  %2 = getelementptr inbounds i8, ptr %tail.sroa.0.02, i64 -4
  tail call void @llvm.experimental.noalias.scope.decl(metadata !1046)
  tail call void @llvm.experimental.noalias.scope.decl(metadata !1049)
  tail call void @llvm.experimental.noalias.scope.decl(metadata !1051)
  tail call void @llvm.experimental.noalias.scope.decl(metadata !1054)
  tail call void @llvm.experimental.noalias.scope.decl(metadata !1056)
  tail call void @llvm.experimental.noalias.scope.decl(metadata !1059)
  tail call void @llvm.experimental.noalias.scope.decl(metadata !1061)
  tail call void @llvm.experimental.noalias.scope.decl(metadata !1064)
  %_3.i.i.i.i.i = load i32, ptr %tail.sroa.0.02, align 4, !alias.scope !1066, !noalias !1067, !noundef !27
  %_4.i.i.i.i.i = load i32, ptr %2, align 4, !alias.scope !1067, !noalias !1066, !noundef !27
  %_0.i.i = icmp slt i32 %_3.i.i.i.i.i, %_4.i.i.i.i.i
  br i1 %_0.i.i, label %bb4.i, label %_ZN4core5slice4sort6shared9smallsort11insert_tail17ha4586d07b860b06aE.exit

bb4.i:                                            ; preds = %bb5, %bb6.i
  %gap_guard.sroa.5.0.i = phi ptr [ %sift.sroa.0.0.i, %bb6.i ], [ %tail.sroa.0.02, %bb5 ]
  %sift.sroa.0.0.i = phi ptr [ %4, %bb6.i ], [ %2, %bb5 ]
  %3 = load i32, ptr %sift.sroa.0.0.i, align 4
  store i32 %3, ptr %gap_guard.sroa.5.0.i, align 4
  %_18.i = icmp eq ptr %sift.sroa.0.0.i, %v.0
  br i1 %_18.i, label %bb10.i, label %bb6.i

bb6.i:                                            ; preds = %bb4.i
  %4 = getelementptr inbounds i8, ptr %sift.sroa.0.0.i, i64 -4
  %_4.i.i.i.i2.i = load i32, ptr %4, align 4, !alias.scope !1068, !noalias !1077, !noundef !27
  %_0.i3.i = icmp slt i32 %_3.i.i.i.i.i, %_4.i.i.i.i2.i
  br i1 %_0.i3.i, label %bb4.i, label %bb10.i

bb10.i:                                           ; preds = %bb6.i, %bb4.i
  store i32 %_3.i.i.i.i.i, ptr %sift.sroa.0.0.i, align 4, !noalias !1082
  br label %_ZN4core5slice4sort6shared9smallsort11insert_tail17ha4586d07b860b06aE.exit

_ZN4core5slice4sort6shared9smallsort11insert_tail17ha4586d07b860b06aE.exit: ; preds = %bb5, %bb10.i
  %_15 = getelementptr inbounds nuw i8, ptr %tail.sroa.0.02, i64 4
  %_11.not = icmp eq ptr %_15, %v_end
  br i1 %_11.not, label %bb7, label %bb5
}

; core::slice::sort::shared::smallsort::insertion_sort_shift_left
; Function Attrs: nounwind nonlazybind memory(argmem: readwrite, inaccessiblemem: readwrite) uwtable
define void @_ZN4core5slice4sort6shared9smallsort25insertion_sort_shift_left17hdea3e7367ce10dd0E(ptr noalias noundef nonnull align 4 captures(address) %v.0, i64 noundef range(i64 0, 2305843009213693952) %v.1, i64 noundef %offset, ptr noalias nonnull readnone align 1 captures(none) %is_less) unnamed_addr #4 personality ptr @rust_eh_personality {
start:
  %0 = add i64 %offset, -1
  %or.cond.not = icmp ult i64 %0, %v.1
  br i1 %or.cond.not, label %bb3, label %bb2

bb2:                                              ; preds = %start
  tail call void @llvm.trap()
  unreachable

bb3:                                              ; preds = %start
  %v_end = getelementptr inbounds nuw i32, ptr %v.0, i64 %v.1
  %_11.not1 = icmp samesign eq i64 %offset, %v.1
  br i1 %_11.not1, label %bb7, label %bb5.preheader

bb5.preheader:                                    ; preds = %bb3
  %1 = getelementptr inbounds nuw i32, ptr %v.0, i64 %offset
  br label %bb5

bb7:                                              ; preds = %_ZN4core5slice4sort6shared9smallsort11insert_tail17h690eb7bd9866e190E.exit, %bb3
  ret void

bb5:                                              ; preds = %bb5.preheader, %_ZN4core5slice4sort6shared9smallsort11insert_tail17h690eb7bd9866e190E.exit
  %tail.sroa.0.02 = phi ptr [ %_15, %_ZN4core5slice4sort6shared9smallsort11insert_tail17h690eb7bd9866e190E.exit ], [ %1, %bb5.preheader ]
  %2 = getelementptr inbounds i8, ptr %tail.sroa.0.02, i64 -4
  tail call void @llvm.experimental.noalias.scope.decl(metadata !1087)
  tail call void @llvm.experimental.noalias.scope.decl(metadata !1090)
  tail call void @llvm.experimental.noalias.scope.decl(metadata !1092)
  tail call void @llvm.experimental.noalias.scope.decl(metadata !1095)
  %_3.i.i.i = load i32, ptr %tail.sroa.0.02, align 4, !alias.scope !1097, !noalias !1098, !noundef !27
  %_4.i.i.i = load i32, ptr %2, align 4, !alias.scope !1098, !noalias !1097, !noundef !27
  %_0.i.i.i = icmp slt i32 %_3.i.i.i, %_4.i.i.i
  br i1 %_0.i.i.i, label %bb4.i, label %_ZN4core5slice4sort6shared9smallsort11insert_tail17h690eb7bd9866e190E.exit

bb4.i:                                            ; preds = %bb5, %bb6.i
  %gap_guard.sroa.5.0.i = phi ptr [ %sift.sroa.0.0.i, %bb6.i ], [ %tail.sroa.0.02, %bb5 ]
  %sift.sroa.0.0.i = phi ptr [ %4, %bb6.i ], [ %2, %bb5 ]
  %3 = load i32, ptr %sift.sroa.0.0.i, align 4
  store i32 %3, ptr %gap_guard.sroa.5.0.i, align 4
  %_18.i = icmp eq ptr %sift.sroa.0.0.i, %v.0
  br i1 %_18.i, label %bb10.i, label %bb6.i

bb6.i:                                            ; preds = %bb4.i
  %4 = getelementptr inbounds i8, ptr %sift.sroa.0.0.i, i64 -4
  %_4.i.i2.i = load i32, ptr %4, align 4, !alias.scope !1099, !noalias !1104, !noundef !27
  %_0.i.i3.i = icmp slt i32 %_3.i.i.i, %_4.i.i2.i
  br i1 %_0.i.i3.i, label %bb4.i, label %bb10.i

bb10.i:                                           ; preds = %bb6.i, %bb4.i
  store i32 %_3.i.i.i, ptr %sift.sroa.0.0.i, align 4, !noalias !1107
  br label %_ZN4core5slice4sort6shared9smallsort11insert_tail17h690eb7bd9866e190E.exit

_ZN4core5slice4sort6shared9smallsort11insert_tail17h690eb7bd9866e190E.exit: ; preds = %bb5, %bb10.i
  %_15 = getelementptr inbounds nuw i8, ptr %tail.sroa.0.02, i64 4
  %_11.not = icmp eq ptr %_15, %v_end
  br i1 %_11.not, label %bb7, label %bb5
}

; core::slice::sort::shared::smallsort::small_sort_general_with_scratch
; Function Attrs: nonlazybind uwtable
define void @_ZN4core5slice4sort6shared9smallsort31small_sort_general_with_scratch17h770f65fa233c8efaE(ptr noalias noundef nonnull align 4 captures(none) %v.0, i64 noundef range(i64 0, 2305843009213693952) %v.1, ptr noalias noundef nonnull align 4 captures(address) %scratch.0, i64 noundef range(i64 0, 2305843009213693952) %scratch.1, ptr noalias readnone align 8 captures(none) %is_less) unnamed_addr #3 personality ptr @rust_eh_personality {
start:
  %iter = alloca [32 x i8], align 8
  %_5 = icmp samesign ult i64 %v.1, 2
  br i1 %_5, label %bb29, label %bb2

bb2:                                              ; preds = %start
  %_8 = add nuw nsw i64 %v.1, 16
  %_6 = icmp samesign ult i64 %scratch.1, %_8
  br i1 %_6, label %bb3, label %bb4

bb4:                                              ; preds = %bb2
  %len_div_211 = lshr i64 %v.1, 1
  %_14 = icmp samesign ugt i64 %v.1, 15
  br i1 %_14, label %bb6, label %bb9

bb3:                                              ; preds = %bb2
  tail call void @llvm.trap()
  unreachable

bb9:                                              ; preds = %bb4
  %_22 = icmp samesign ugt i64 %v.1, 7
  br i1 %_22, label %bb10, label %bb46

bb6:                                              ; preds = %bb4
  %_16 = getelementptr inbounds nuw i32, ptr %scratch.0, i64 %v.1
; call core::slice::sort::shared::smallsort::sort8_stable
  tail call void @_ZN4core5slice4sort6shared9smallsort12sort8_stable17hc53ea4f392c565c9E(ptr noundef nonnull %v.0, ptr noundef nonnull %scratch.0, ptr noundef nonnull %_16, ptr noalias align 8 poison)
  %_18 = getelementptr inbounds nuw i32, ptr %v.0, i64 %len_div_211
  %_19 = getelementptr inbounds nuw i32, ptr %scratch.0, i64 %len_div_211
  %_20 = getelementptr inbounds nuw i8, ptr %_16, i64 32
; call core::slice::sort::shared::smallsort::sort8_stable
  tail call void @_ZN4core5slice4sort6shared9smallsort12sort8_stable17hc53ea4f392c565c9E(ptr noundef nonnull %_18, ptr noundef nonnull %_19, ptr noundef nonnull %_20, ptr noalias align 8 poison)
  br label %bb15

bb10:                                             ; preds = %bb9
  %_7.i = getelementptr inbounds nuw i8, ptr %v.0, i64 4
  tail call void @llvm.experimental.noalias.scope.decl(metadata !1112)
  tail call void @llvm.experimental.noalias.scope.decl(metadata !1115)
  tail call void @llvm.experimental.noalias.scope.decl(metadata !1117)
  tail call void @llvm.experimental.noalias.scope.decl(metadata !1120)
  tail call void @llvm.experimental.noalias.scope.decl(metadata !1122)
  tail call void @llvm.experimental.noalias.scope.decl(metadata !1125)
  tail call void @llvm.experimental.noalias.scope.decl(metadata !1127)
  tail call void @llvm.experimental.noalias.scope.decl(metadata !1130)
  %_3.i.i.i.i.i = load i32, ptr %_7.i, align 4, !alias.scope !1132, !noalias !1133, !noundef !27
  %_4.i.i.i.i.i = load i32, ptr %v.0, align 4, !alias.scope !1133, !noalias !1132, !noundef !27
  %_0.i.i = icmp slt i32 %_3.i.i.i.i.i, %_4.i.i.i.i.i
  %_12.i = getelementptr inbounds nuw i8, ptr %v.0, i64 12
  %_14.i = getelementptr inbounds nuw i8, ptr %v.0, i64 8
  tail call void @llvm.experimental.noalias.scope.decl(metadata !1134)
  tail call void @llvm.experimental.noalias.scope.decl(metadata !1137)
  tail call void @llvm.experimental.noalias.scope.decl(metadata !1139)
  tail call void @llvm.experimental.noalias.scope.decl(metadata !1142)
  tail call void @llvm.experimental.noalias.scope.decl(metadata !1144)
  tail call void @llvm.experimental.noalias.scope.decl(metadata !1147)
  tail call void @llvm.experimental.noalias.scope.decl(metadata !1149)
  tail call void @llvm.experimental.noalias.scope.decl(metadata !1152)
  %_3.i.i.i.i7.i = load i32, ptr %_12.i, align 4, !alias.scope !1154, !noalias !1155, !noundef !27
  %_4.i.i.i.i8.i = load i32, ptr %_14.i, align 4, !alias.scope !1155, !noalias !1154, !noundef !27
  %_0.i9.i = icmp slt i32 %_3.i.i.i.i7.i, %_4.i.i.i.i8.i
  %count.i = zext i1 %_0.i.i to i64
  %a.i = getelementptr inbounds nuw i32, ptr %v.0, i64 %count.i
  %_19.i = xor i1 %_0.i.i, true
  %count2.i = zext i1 %_19.i to i64
  %b.i = getelementptr inbounds nuw i32, ptr %v.0, i64 %count2.i
  %count3.i = select i1 %_0.i9.i, i64 3, i64 2
  %c.i = getelementptr inbounds nuw i32, ptr %v.0, i64 %count3.i
  %count4.i = select i1 %_0.i9.i, i64 2, i64 3
  %d.i = getelementptr inbounds nuw i32, ptr %v.0, i64 %count4.i
  tail call void @llvm.experimental.noalias.scope.decl(metadata !1156)
  tail call void @llvm.experimental.noalias.scope.decl(metadata !1159)
  tail call void @llvm.experimental.noalias.scope.decl(metadata !1161)
  tail call void @llvm.experimental.noalias.scope.decl(metadata !1164)
  tail call void @llvm.experimental.noalias.scope.decl(metadata !1166)
  tail call void @llvm.experimental.noalias.scope.decl(metadata !1169)
  tail call void @llvm.experimental.noalias.scope.decl(metadata !1171)
  tail call void @llvm.experimental.noalias.scope.decl(metadata !1174)
  %_3.i.i.i.i10.i = load i32, ptr %c.i, align 4, !alias.scope !1176, !noalias !1177, !noundef !27
  %_4.i.i.i.i11.i = load i32, ptr %a.i, align 4, !alias.scope !1177, !noalias !1176, !noundef !27
  %_0.i12.i = icmp slt i32 %_3.i.i.i.i10.i, %_4.i.i.i.i11.i
  tail call void @llvm.experimental.noalias.scope.decl(metadata !1178)
  tail call void @llvm.experimental.noalias.scope.decl(metadata !1181)
  tail call void @llvm.experimental.noalias.scope.decl(metadata !1183)
  tail call void @llvm.experimental.noalias.scope.decl(metadata !1186)
  tail call void @llvm.experimental.noalias.scope.decl(metadata !1188)
  tail call void @llvm.experimental.noalias.scope.decl(metadata !1191)
  tail call void @llvm.experimental.noalias.scope.decl(metadata !1193)
  tail call void @llvm.experimental.noalias.scope.decl(metadata !1196)
  %_3.i.i.i.i13.i = load i32, ptr %d.i, align 4, !alias.scope !1198, !noalias !1199, !noundef !27
  %_4.i.i.i.i14.i = load i32, ptr %b.i, align 4, !alias.scope !1199, !noalias !1198, !noundef !27
  %_0.i15.i = icmp slt i32 %_3.i.i.i.i13.i, %_4.i.i.i.i14.i
  %0 = select i1 %_0.i12.i, ptr %c.i, ptr %a.i, !unpredictable !27
  %1 = select i1 %_0.i15.i, ptr %c.i, ptr %b.i, !unpredictable !27
  %2 = select i1 %_0.i12.i, ptr %a.i, ptr %1, !unpredictable !27
  %3 = select i1 %_0.i12.i, ptr %b.i, ptr %c.i, !unpredictable !27
  %4 = select i1 %_0.i15.i, ptr %d.i, ptr %3, !unpredictable !27
  tail call void @llvm.experimental.noalias.scope.decl(metadata !1200)
  tail call void @llvm.experimental.noalias.scope.decl(metadata !1203)
  tail call void @llvm.experimental.noalias.scope.decl(metadata !1205)
  tail call void @llvm.experimental.noalias.scope.decl(metadata !1208)
  tail call void @llvm.experimental.noalias.scope.decl(metadata !1210)
  tail call void @llvm.experimental.noalias.scope.decl(metadata !1213)
  tail call void @llvm.experimental.noalias.scope.decl(metadata !1215)
  tail call void @llvm.experimental.noalias.scope.decl(metadata !1218)
  %_3.i.i.i.i16.i = load i32, ptr %4, align 4, !alias.scope !1220, !noalias !1221, !noundef !27
  %_4.i.i.i.i17.i = load i32, ptr %2, align 4, !alias.scope !1221, !noalias !1220, !noundef !27
  %5 = load i32, ptr %0, align 4
  store i32 %5, ptr %scratch.0, align 4
  %dst5.i = getelementptr inbounds nuw i8, ptr %scratch.0, i64 4
  %6 = tail call i32 @llvm.smin.i32(i32 %_3.i.i.i.i16.i, i32 %_4.i.i.i.i17.i)
  store i32 %6, ptr %dst5.i, align 4
  %dst6.i = getelementptr inbounds nuw i8, ptr %scratch.0, i64 8
  %7 = tail call i32 @llvm.smax.i32(i32 %_3.i.i.i.i16.i, i32 %_4.i.i.i.i17.i)
  store i32 %7, ptr %dst6.i, align 4
  %8 = getelementptr inbounds nuw i8, ptr %scratch.0, i64 12
  %9 = tail call i32 @llvm.smax.i32(i32 %_3.i.i.i.i13.i, i32 %_4.i.i.i.i14.i)
  store i32 %9, ptr %8, align 4
  %_27 = getelementptr inbounds nuw i32, ptr %v.0, i64 %len_div_211
  %_28 = getelementptr inbounds nuw i32, ptr %scratch.0, i64 %len_div_211
  %_7.i13 = getelementptr inbounds nuw i8, ptr %_27, i64 4
  tail call void @llvm.experimental.noalias.scope.decl(metadata !1222)
  tail call void @llvm.experimental.noalias.scope.decl(metadata !1225)
  tail call void @llvm.experimental.noalias.scope.decl(metadata !1227)
  tail call void @llvm.experimental.noalias.scope.decl(metadata !1230)
  tail call void @llvm.experimental.noalias.scope.decl(metadata !1232)
  tail call void @llvm.experimental.noalias.scope.decl(metadata !1235)
  tail call void @llvm.experimental.noalias.scope.decl(metadata !1237)
  tail call void @llvm.experimental.noalias.scope.decl(metadata !1240)
  %_3.i.i.i.i.i14 = load i32, ptr %_7.i13, align 4, !alias.scope !1242, !noalias !1243, !noundef !27
  %_4.i.i.i.i.i15 = load i32, ptr %_27, align 4, !alias.scope !1243, !noalias !1242, !noundef !27
  %_0.i.i16 = icmp slt i32 %_3.i.i.i.i.i14, %_4.i.i.i.i.i15
  %_12.i17 = getelementptr inbounds nuw i8, ptr %_27, i64 12
  %_14.i18 = getelementptr inbounds nuw i8, ptr %_27, i64 8
  tail call void @llvm.experimental.noalias.scope.decl(metadata !1244)
  tail call void @llvm.experimental.noalias.scope.decl(metadata !1247)
  tail call void @llvm.experimental.noalias.scope.decl(metadata !1249)
  tail call void @llvm.experimental.noalias.scope.decl(metadata !1252)
  tail call void @llvm.experimental.noalias.scope.decl(metadata !1254)
  tail call void @llvm.experimental.noalias.scope.decl(metadata !1257)
  tail call void @llvm.experimental.noalias.scope.decl(metadata !1259)
  tail call void @llvm.experimental.noalias.scope.decl(metadata !1262)
  %_3.i.i.i.i7.i19 = load i32, ptr %_12.i17, align 4, !alias.scope !1264, !noalias !1265, !noundef !27
  %_4.i.i.i.i8.i20 = load i32, ptr %_14.i18, align 4, !alias.scope !1265, !noalias !1264, !noundef !27
  %_0.i9.i21 = icmp slt i32 %_3.i.i.i.i7.i19, %_4.i.i.i.i8.i20
  %count.i22 = zext i1 %_0.i.i16 to i64
  %a.i23 = getelementptr inbounds nuw i32, ptr %_27, i64 %count.i22
  %_19.i24 = xor i1 %_0.i.i16, true
  %count2.i25 = zext i1 %_19.i24 to i64
  %b.i26 = getelementptr inbounds nuw i32, ptr %_27, i64 %count2.i25
  %count3.i27 = select i1 %_0.i9.i21, i64 3, i64 2
  %c.i28 = getelementptr inbounds nuw i32, ptr %_27, i64 %count3.i27
  %count4.i29 = select i1 %_0.i9.i21, i64 2, i64 3
  %d.i30 = getelementptr inbounds nuw i32, ptr %_27, i64 %count4.i29
  tail call void @llvm.experimental.noalias.scope.decl(metadata !1266)
  tail call void @llvm.experimental.noalias.scope.decl(metadata !1269)
  tail call void @llvm.experimental.noalias.scope.decl(metadata !1271)
  tail call void @llvm.experimental.noalias.scope.decl(metadata !1274)
  tail call void @llvm.experimental.noalias.scope.decl(metadata !1276)
  tail call void @llvm.experimental.noalias.scope.decl(metadata !1279)
  tail call void @llvm.experimental.noalias.scope.decl(metadata !1281)
  tail call void @llvm.experimental.noalias.scope.decl(metadata !1284)
  %_3.i.i.i.i10.i31 = load i32, ptr %c.i28, align 4, !alias.scope !1286, !noalias !1287, !noundef !27
  %_4.i.i.i.i11.i32 = load i32, ptr %a.i23, align 4, !alias.scope !1287, !noalias !1286, !noundef !27
  %_0.i12.i33 = icmp slt i32 %_3.i.i.i.i10.i31, %_4.i.i.i.i11.i32
  tail call void @llvm.experimental.noalias.scope.decl(metadata !1288)
  tail call void @llvm.experimental.noalias.scope.decl(metadata !1291)
  tail call void @llvm.experimental.noalias.scope.decl(metadata !1293)
  tail call void @llvm.experimental.noalias.scope.decl(metadata !1296)
  tail call void @llvm.experimental.noalias.scope.decl(metadata !1298)
  tail call void @llvm.experimental.noalias.scope.decl(metadata !1301)
  tail call void @llvm.experimental.noalias.scope.decl(metadata !1303)
  tail call void @llvm.experimental.noalias.scope.decl(metadata !1306)
  %_3.i.i.i.i13.i34 = load i32, ptr %d.i30, align 4, !alias.scope !1308, !noalias !1309, !noundef !27
  %_4.i.i.i.i14.i35 = load i32, ptr %b.i26, align 4, !alias.scope !1309, !noalias !1308, !noundef !27
  %_0.i15.i36 = icmp slt i32 %_3.i.i.i.i13.i34, %_4.i.i.i.i14.i35
  %10 = select i1 %_0.i12.i33, ptr %c.i28, ptr %a.i23, !unpredictable !27
  %11 = select i1 %_0.i15.i36, ptr %c.i28, ptr %b.i26, !unpredictable !27
  %12 = select i1 %_0.i12.i33, ptr %a.i23, ptr %11, !unpredictable !27
  %13 = select i1 %_0.i12.i33, ptr %b.i26, ptr %c.i28, !unpredictable !27
  %14 = select i1 %_0.i15.i36, ptr %d.i30, ptr %13, !unpredictable !27
  tail call void @llvm.experimental.noalias.scope.decl(metadata !1310)
  tail call void @llvm.experimental.noalias.scope.decl(metadata !1313)
  tail call void @llvm.experimental.noalias.scope.decl(metadata !1315)
  tail call void @llvm.experimental.noalias.scope.decl(metadata !1318)
  tail call void @llvm.experimental.noalias.scope.decl(metadata !1320)
  tail call void @llvm.experimental.noalias.scope.decl(metadata !1323)
  tail call void @llvm.experimental.noalias.scope.decl(metadata !1325)
  tail call void @llvm.experimental.noalias.scope.decl(metadata !1328)
  %_3.i.i.i.i16.i37 = load i32, ptr %14, align 4, !alias.scope !1330, !noalias !1331, !noundef !27
  %_4.i.i.i.i17.i38 = load i32, ptr %12, align 4, !alias.scope !1331, !noalias !1330, !noundef !27
  %15 = load i32, ptr %10, align 4
  store i32 %15, ptr %_28, align 4
  %dst5.i40 = getelementptr inbounds nuw i8, ptr %_28, i64 4
  %16 = tail call i32 @llvm.smin.i32(i32 %_3.i.i.i.i16.i37, i32 %_4.i.i.i.i17.i38)
  store i32 %16, ptr %dst5.i40, align 4
  %dst6.i43 = getelementptr inbounds nuw i8, ptr %_28, i64 8
  %17 = tail call i32 @llvm.smax.i32(i32 %_3.i.i.i.i16.i37, i32 %_4.i.i.i.i17.i38)
  store i32 %17, ptr %dst6.i43, align 4
  %18 = getelementptr inbounds nuw i8, ptr %_28, i64 12
  %19 = tail call i32 @llvm.smax.i32(i32 %_3.i.i.i.i13.i34, i32 %_4.i.i.i.i14.i35)
  store i32 %19, ptr %18, align 4
  br label %bb15

bb46:                                             ; preds = %bb9
  %20 = load i32, ptr %v.0, align 4
  store i32 %20, ptr %scratch.0, align 4
  %_31 = getelementptr inbounds nuw i32, ptr %v.0, i64 %len_div_211
  %21 = getelementptr inbounds nuw i32, ptr %scratch.0, i64 %len_div_211
  %22 = load i32, ptr %_31, align 4
  store i32 %22, ptr %21, align 4
  br label %bb15

bb15:                                             ; preds = %bb46, %bb10, %bb6
  %presorted_len.sroa.0.0 = phi i64 [ 8, %bb6 ], [ 4, %bb10 ], [ 1, %bb46 ]
  call void @llvm.lifetime.start.p0(i64 32, ptr nonnull %iter)
  store i64 0, ptr %iter, align 8
  %_37.sroa.4.0.iter.sroa_idx = getelementptr inbounds nuw i8, ptr %iter, i64 8
  store i64 2, ptr %_37.sroa.4.0.iter.sroa_idx, align 8
  %_37.sroa.5.0.iter.sroa_idx = getelementptr inbounds nuw i8, ptr %iter, i64 16
  store i64 0, ptr %_37.sroa.5.0.iter.sroa_idx, align 8
  %_37.sroa.6.0.iter.sroa_idx = getelementptr inbounds nuw i8, ptr %iter, i64 24
  store i64 %len_div_211, ptr %_37.sroa.6.0.iter.sroa_idx, align 8
  %23 = sub nsw i64 %v.1, %len_div_211
  %iter1.sroa.0.161 = add nuw nsw i64 %presorted_len.sroa.0.0, 1
  br label %bb16

bb16:                                             ; preds = %bb16.backedge, %bb15
  %24 = phi i64 [ 0, %bb15 ], [ %25, %bb16.backedge ]
  %_5.not.i.not = icmp eq i64 %24, 2
  br i1 %_5.not.i.not, label %"_ZN4core5array4iter10iter_inner78PolymorphicIter$LT$$u5b$core..mem..maybe_uninit..MaybeUninit$LT$T$GT$$u5d$$GT$4next17h1016f9159a57957fE.exit", label %bb1.i

bb1.i:                                            ; preds = %bb16
  %_11.i = add nuw nsw i64 %24, 1
  store i64 %_11.i, ptr %iter, align 8, !alias.scope !1332
  %_20.i = icmp ult i64 %24, 2
  tail call void @llvm.assume(i1 %_20.i)
  %self3.i = getelementptr inbounds nuw i64, ptr %_37.sroa.5.0.iter.sroa_idx, i64 %24
  %_15.i = load i64, ptr %self3.i, align 8, !alias.scope !1332, !noundef !27
  br label %"_ZN4core5array4iter10iter_inner78PolymorphicIter$LT$$u5b$core..mem..maybe_uninit..MaybeUninit$LT$T$GT$$u5d$$GT$4next17h1016f9159a57957fE.exit"

"_ZN4core5array4iter10iter_inner78PolymorphicIter$LT$$u5b$core..mem..maybe_uninit..MaybeUninit$LT$T$GT$$u5d$$GT$4next17h1016f9159a57957fE.exit": ; preds = %bb16, %bb1.i
  %25 = phi i64 [ %_11.i, %bb1.i ], [ %24, %bb16 ]
  %_0.sroa.3.0.i = phi i64 [ %_15.i, %bb1.i ], [ undef, %bb16 ]
  br i1 %_5.not.i.not, label %bb19, label %bb18

bb18:                                             ; preds = %"_ZN4core5array4iter10iter_inner78PolymorphicIter$LT$$u5b$core..mem..maybe_uninit..MaybeUninit$LT$T$GT$$u5d$$GT$4next17h1016f9159a57957fE.exit"
  %src5 = getelementptr inbounds nuw i32, ptr %v.0, i64 %_0.sroa.3.0.i
  %dst6 = getelementptr inbounds nuw i32, ptr %scratch.0, i64 %_0.sroa.3.0.i
  %_47 = icmp eq i64 %_0.sroa.3.0.i, 0
  %desired_len.sroa.0.0 = select i1 %_47, i64 %len_div_211, i64 %23
  %_8059 = icmp ult i64 %presorted_len.sroa.0.0, %desired_len.sroa.0.0
  br i1 %_8059, label %bb24, label %bb16.backedge

bb16.backedge:                                    ; preds = %_ZN4core5slice4sort6shared9smallsort11insert_tail17ha4586d07b860b06aE.exit, %bb18
  br label %bb16

bb19:                                             ; preds = %"_ZN4core5array4iter10iter_inner78PolymorphicIter$LT$$u5b$core..mem..maybe_uninit..MaybeUninit$LT$T$GT$$u5d$$GT$4next17h1016f9159a57957fE.exit"
  call void @llvm.lifetime.end.p0(i64 32, ptr nonnull %iter)
  tail call void @llvm.experimental.noalias.scope.decl(metadata !1335)
  %count1.i = add nsw i64 %v.1, -1
  %26 = getelementptr inbounds nuw i32, ptr %v.0, i64 %count1.i
  %27 = getelementptr inbounds nuw i32, ptr %scratch.0, i64 %count1.i
  %28 = getelementptr i32, ptr %scratch.0, i64 %len_div_211
  %29 = getelementptr i8, ptr %28, i64 -4
  br label %bb15.i

bb16.i:                                           ; preds = %bb15.i
  %30 = getelementptr i8, ptr %35, i64 4
  %31 = getelementptr i8, ptr %34, i64 4
  %_44.i = and i64 %v.1, 1
  %_22.i = icmp eq i64 %_44.i, 0
  br i1 %_22.i, label %bb9.i, label %bb5.i

bb15.i:                                           ; preds = %bb15.i, %bb19
  %dst.sroa.0.029.i = phi ptr [ %_16.i.i, %bb15.i ], [ %v.0, %bb19 ]
  %iter.sroa.0.028.i = phi i64 [ %_39.i, %bb15.i ], [ 0, %bb19 ]
  %left.sroa.0.027.i = phi ptr [ %_14.i.i, %bb15.i ], [ %scratch.0, %bb19 ]
  %right.sroa.0.026.i = phi ptr [ %_12.i.i, %bb15.i ], [ %28, %bb19 ]
  %left_rev.sroa.0.025.i = phi ptr [ %35, %bb15.i ], [ %29, %bb19 ]
  %right_rev.sroa.0.024.i = phi ptr [ %34, %bb15.i ], [ %27, %bb19 ]
  %dst_rev.sroa.0.023.i = phi ptr [ %36, %bb15.i ], [ %26, %bb19 ]
  %_39.i = add nuw nsw i64 %iter.sroa.0.028.i, 1
  tail call void @llvm.experimental.noalias.scope.decl(metadata !1338)
  tail call void @llvm.experimental.noalias.scope.decl(metadata !1341)
  tail call void @llvm.experimental.noalias.scope.decl(metadata !1343), !noalias !1346
  tail call void @llvm.experimental.noalias.scope.decl(metadata !1349), !noalias !1346
  tail call void @llvm.experimental.noalias.scope.decl(metadata !1351), !noalias !1346
  tail call void @llvm.experimental.noalias.scope.decl(metadata !1354), !noalias !1346
  tail call void @llvm.experimental.noalias.scope.decl(metadata !1356), !noalias !1346
  tail call void @llvm.experimental.noalias.scope.decl(metadata !1359), !noalias !1346
  %_3.i.i.i.i.i49 = load i32, ptr %right.sroa.0.026.i, align 4, !alias.scope !1361, !noalias !1362, !noundef !27
  %_4.i.i.i.i.i50 = load i32, ptr %left.sroa.0.027.i, align 4, !alias.scope !1363, !noalias !1364, !noundef !27
  %_0.i.i51 = icmp slt i32 %_3.i.i.i.i.i49, %_4.i.i.i.i.i50
  %is_l.i18.i = xor i1 %_0.i.i51, true
  %32 = tail call i32 @llvm.smin.i32(i32 %_3.i.i.i.i.i49, i32 %_4.i.i.i.i.i50)
  store i32 %32, ptr %dst.sroa.0.029.i, align 4, !noalias !1365
  %count.i.i = zext i1 %_0.i.i51 to i64
  %_12.i.i = getelementptr inbounds nuw i32, ptr %right.sroa.0.026.i, i64 %count.i.i
  %count2.i.i = zext i1 %is_l.i18.i to i64
  %_14.i.i = getelementptr inbounds nuw i32, ptr %left.sroa.0.027.i, i64 %count2.i.i
  %_16.i.i = getelementptr inbounds nuw i8, ptr %dst.sroa.0.029.i, i64 4
  tail call void @llvm.experimental.noalias.scope.decl(metadata !1367)
  tail call void @llvm.experimental.noalias.scope.decl(metadata !1370)
  tail call void @llvm.experimental.noalias.scope.decl(metadata !1372), !noalias !1375
  tail call void @llvm.experimental.noalias.scope.decl(metadata !1378), !noalias !1375
  tail call void @llvm.experimental.noalias.scope.decl(metadata !1380), !noalias !1375
  tail call void @llvm.experimental.noalias.scope.decl(metadata !1383), !noalias !1375
  tail call void @llvm.experimental.noalias.scope.decl(metadata !1385), !noalias !1375
  tail call void @llvm.experimental.noalias.scope.decl(metadata !1388), !noalias !1375
  %_3.i.i.i.i19.i = load i32, ptr %right_rev.sroa.0.024.i, align 4, !alias.scope !1390, !noalias !1391, !noundef !27
  %_4.i.i.i.i20.i = load i32, ptr %left_rev.sroa.0.025.i, align 4, !alias.scope !1392, !noalias !1393, !noundef !27
  %_0.i21.i = icmp slt i32 %_3.i.i.i.i19.i, %_4.i.i.i.i20.i
  %is_l.i.i = xor i1 %_0.i21.i, true
  %33 = tail call i32 @llvm.smax.i32(i32 %_3.i.i.i.i19.i, i32 %_4.i.i.i.i20.i)
  store i32 %33, ptr %dst_rev.sroa.0.023.i, align 4, !noalias !1394
  %count.neg.i.i = sext i1 %is_l.i.i to i64
  %34 = getelementptr i32, ptr %right_rev.sroa.0.024.i, i64 %count.neg.i.i
  %count3.neg.i.i = sext i1 %_0.i21.i to i64
  %35 = getelementptr i32, ptr %left_rev.sroa.0.025.i, i64 %count3.neg.i.i
  %36 = getelementptr inbounds i8, ptr %dst_rev.sroa.0.023.i, i64 -4
  %exitcond.not.i = icmp eq i64 %_39.i, %len_div_211
  br i1 %exitcond.not.i, label %bb16.i, label %bb15.i

bb5.i:                                            ; preds = %bb16.i
  %left_nonempty.i = icmp ult ptr %_14.i.i, %30
  %left.sroa.0.0.right.sroa.0.0.i = select i1 %left_nonempty.i, ptr %_14.i.i, ptr %_12.i.i
  %37 = load i32, ptr %left.sroa.0.0.right.sroa.0.0.i, align 4, !alias.scope !1335
  store i32 %37, ptr %_16.i.i, align 4, !noalias !1335
  %count2.i52 = zext i1 %left_nonempty.i to i64
  %_26.i = getelementptr inbounds nuw i32, ptr %_14.i.i, i64 %count2.i52
  %_30.i = xor i1 %left_nonempty.i, true
  %count3.i53 = zext i1 %_30.i to i64
  %_28.i = getelementptr inbounds nuw i32, ptr %_12.i.i, i64 %count3.i53
  br label %bb9.i

bb9.i:                                            ; preds = %bb5.i, %bb16.i
  %right.sroa.0.1.i = phi ptr [ %_12.i.i, %bb16.i ], [ %_28.i, %bb5.i ]
  %left.sroa.0.1.i = phi ptr [ %_14.i.i, %bb16.i ], [ %_26.i, %bb5.i ]
  %_31.i = icmp ne ptr %left.sroa.0.1.i, %30
  %_32.i = icmp ne ptr %right.sroa.0.1.i, %31
  %or.cond.i = select i1 %_31.i, i1 true, i1 %_32.i
  br i1 %or.cond.i, label %bb13.i, label %bb29, !prof !548

bb13.i:                                           ; preds = %bb9.i
; invoke core::slice::sort::shared::smallsort::panic_on_ord_violation
  invoke void @_ZN4core5slice4sort6shared9smallsort22panic_on_ord_violation17hc77a22a2d50782cdE() #24
          to label %.noexc unwind label %cleanup2

.noexc:                                           ; preds = %bb13.i
  unreachable

cleanup2:                                         ; preds = %bb13.i
  %38 = landingpad { ptr, i32 }
          cleanup
  %39 = shl nuw nsw i64 %v.1, 2
  tail call void @llvm.memcpy.p0.p0.i64(ptr nonnull align 4 %v.0, ptr nonnull align 4 %scratch.0, i64 %39, i1 false), !noalias !1396
  resume { ptr, i32 } %38

bb29:                                             ; preds = %bb9.i, %start
  ret void

bb24:                                             ; preds = %bb18, %_ZN4core5slice4sort6shared9smallsort11insert_tail17ha4586d07b860b06aE.exit
  %iter1.sroa.0.163 = phi i64 [ %iter1.sroa.0.1, %_ZN4core5slice4sort6shared9smallsort11insert_tail17ha4586d07b860b06aE.exit ], [ %iter1.sroa.0.161, %bb18 ]
  %iter1.sroa.0.062 = phi i64 [ %iter1.sroa.0.163, %_ZN4core5slice4sort6shared9smallsort11insert_tail17ha4586d07b860b06aE.exit ], [ %presorted_len.sroa.0.0, %bb18 ]
  %_55 = getelementptr inbounds nuw i32, ptr %src5, i64 %iter1.sroa.0.062
  %dst7 = getelementptr inbounds nuw i32, ptr %dst6, i64 %iter1.sroa.0.062
  %40 = load i32, ptr %_55, align 4
  store i32 %40, ptr %dst7, align 4
  %41 = getelementptr inbounds i8, ptr %dst7, i64 -4
  %_4.i.i.i.i.i56 = load i32, ptr %41, align 4, !alias.scope !1401, !noalias !1410, !noundef !27
  %_0.i.i57 = icmp slt i32 %40, %_4.i.i.i.i.i56
  br i1 %_0.i.i57, label %bb4.i, label %_ZN4core5slice4sort6shared9smallsort11insert_tail17ha4586d07b860b06aE.exit

bb4.i:                                            ; preds = %bb24, %bb6.i
  %gap_guard.sroa.5.0.i = phi ptr [ %sift.sroa.0.0.i, %bb6.i ], [ %dst7, %bb24 ]
  %sift.sroa.0.0.i = phi ptr [ %43, %bb6.i ], [ %41, %bb24 ]
  %42 = load i32, ptr %sift.sroa.0.0.i, align 4
  store i32 %42, ptr %gap_guard.sroa.5.0.i, align 4
  %_18.i = icmp eq ptr %sift.sroa.0.0.i, %dst6
  br i1 %_18.i, label %bb10.i, label %bb6.i

bb6.i:                                            ; preds = %bb4.i
  %43 = getelementptr inbounds i8, ptr %sift.sroa.0.0.i, i64 -4
  %_4.i.i.i.i2.i = load i32, ptr %43, align 4, !alias.scope !1415, !noalias !1424, !noundef !27
  %_0.i3.i = icmp slt i32 %40, %_4.i.i.i.i2.i
  br i1 %_0.i3.i, label %bb4.i, label %bb10.i

bb10.i:                                           ; preds = %bb6.i, %bb4.i
  store i32 %40, ptr %sift.sroa.0.0.i, align 4, !noalias !1429
  br label %_ZN4core5slice4sort6shared9smallsort11insert_tail17ha4586d07b860b06aE.exit

_ZN4core5slice4sort6shared9smallsort11insert_tail17ha4586d07b860b06aE.exit: ; preds = %bb24, %bb10.i
  %_80 = icmp ult i64 %iter1.sroa.0.163, %desired_len.sroa.0.0
  %_84 = zext i1 %_80 to i64
  %iter1.sroa.0.1 = add nuw i64 %iter1.sroa.0.163, %_84
  br i1 %_80, label %bb24, label %bb16.backedge
}

; core::slice::sort::shared::smallsort::small_sort_general_with_scratch
; Function Attrs: nonlazybind uwtable
define void @_ZN4core5slice4sort6shared9smallsort31small_sort_general_with_scratch17hc7dce490f3b91274E(ptr noalias noundef nonnull align 4 captures(none) %v.0, i64 noundef range(i64 0, 2305843009213693952) %v.1, ptr noalias noundef nonnull align 4 captures(address) %scratch.0, i64 noundef range(i64 0, 2305843009213693952) %scratch.1, ptr noalias nonnull readnone align 1 captures(none) %is_less) unnamed_addr #3 personality ptr @rust_eh_personality {
start:
  %iter = alloca [32 x i8], align 8
  %_5 = icmp samesign ult i64 %v.1, 2
  br i1 %_5, label %bb29, label %bb2

bb2:                                              ; preds = %start
  %_8 = add nuw nsw i64 %v.1, 16
  %_6 = icmp samesign ult i64 %scratch.1, %_8
  br i1 %_6, label %bb3, label %bb4

bb4:                                              ; preds = %bb2
  %len_div_211 = lshr i64 %v.1, 1
  %_14 = icmp samesign ugt i64 %v.1, 15
  br i1 %_14, label %bb6, label %bb9

bb3:                                              ; preds = %bb2
  tail call void @llvm.trap()
  unreachable

bb9:                                              ; preds = %bb4
  %_22 = icmp samesign ugt i64 %v.1, 7
  br i1 %_22, label %bb10, label %bb46

bb6:                                              ; preds = %bb4
  %_16 = getelementptr inbounds nuw i32, ptr %scratch.0, i64 %v.1
; call core::slice::sort::shared::smallsort::sort8_stable
  tail call void @_ZN4core5slice4sort6shared9smallsort12sort8_stable17h87a85e6e94a6856cE(ptr noundef nonnull %v.0, ptr noundef nonnull %scratch.0, ptr noundef nonnull %_16, ptr noalias nonnull align 1 poison)
  %_18 = getelementptr inbounds nuw i32, ptr %v.0, i64 %len_div_211
  %_19 = getelementptr inbounds nuw i32, ptr %scratch.0, i64 %len_div_211
  %_20 = getelementptr inbounds nuw i8, ptr %_16, i64 32
; call core::slice::sort::shared::smallsort::sort8_stable
  tail call void @_ZN4core5slice4sort6shared9smallsort12sort8_stable17h87a85e6e94a6856cE(ptr noundef nonnull %_18, ptr noundef nonnull %_19, ptr noundef nonnull %_20, ptr noalias nonnull align 1 poison)
  br label %bb15

bb10:                                             ; preds = %bb9
  %_7.i = getelementptr inbounds nuw i8, ptr %v.0, i64 4
  tail call void @llvm.experimental.noalias.scope.decl(metadata !1434)
  tail call void @llvm.experimental.noalias.scope.decl(metadata !1437)
  tail call void @llvm.experimental.noalias.scope.decl(metadata !1439)
  tail call void @llvm.experimental.noalias.scope.decl(metadata !1442)
  %_3.i.i.i = load i32, ptr %_7.i, align 4, !alias.scope !1444, !noalias !1445, !noundef !27
  %_4.i.i.i = load i32, ptr %v.0, align 4, !alias.scope !1445, !noalias !1444, !noundef !27
  %_0.i.i.i = icmp slt i32 %_3.i.i.i, %_4.i.i.i
  %_12.i = getelementptr inbounds nuw i8, ptr %v.0, i64 12
  %_14.i = getelementptr inbounds nuw i8, ptr %v.0, i64 8
  tail call void @llvm.experimental.noalias.scope.decl(metadata !1446)
  tail call void @llvm.experimental.noalias.scope.decl(metadata !1449)
  tail call void @llvm.experimental.noalias.scope.decl(metadata !1451)
  tail call void @llvm.experimental.noalias.scope.decl(metadata !1454)
  %_3.i.i7.i = load i32, ptr %_12.i, align 4, !alias.scope !1456, !noalias !1457, !noundef !27
  %_4.i.i8.i = load i32, ptr %_14.i, align 4, !alias.scope !1457, !noalias !1456, !noundef !27
  %_0.i.i9.i = icmp slt i32 %_3.i.i7.i, %_4.i.i8.i
  %count.i = zext i1 %_0.i.i.i to i64
  %a.i = getelementptr inbounds nuw i32, ptr %v.0, i64 %count.i
  %_19.i = xor i1 %_0.i.i.i, true
  %count2.i = zext i1 %_19.i to i64
  %b.i = getelementptr inbounds nuw i32, ptr %v.0, i64 %count2.i
  %count3.i = select i1 %_0.i.i9.i, i64 3, i64 2
  %c.i = getelementptr inbounds nuw i32, ptr %v.0, i64 %count3.i
  %count4.i = select i1 %_0.i.i9.i, i64 2, i64 3
  %d.i = getelementptr inbounds nuw i32, ptr %v.0, i64 %count4.i
  tail call void @llvm.experimental.noalias.scope.decl(metadata !1458)
  tail call void @llvm.experimental.noalias.scope.decl(metadata !1461)
  tail call void @llvm.experimental.noalias.scope.decl(metadata !1463)
  tail call void @llvm.experimental.noalias.scope.decl(metadata !1466)
  %_3.i.i10.i = load i32, ptr %c.i, align 4, !alias.scope !1468, !noalias !1469, !noundef !27
  %_4.i.i11.i = load i32, ptr %a.i, align 4, !alias.scope !1469, !noalias !1468, !noundef !27
  %_0.i.i12.i = icmp slt i32 %_3.i.i10.i, %_4.i.i11.i
  tail call void @llvm.experimental.noalias.scope.decl(metadata !1470)
  tail call void @llvm.experimental.noalias.scope.decl(metadata !1473)
  tail call void @llvm.experimental.noalias.scope.decl(metadata !1475)
  tail call void @llvm.experimental.noalias.scope.decl(metadata !1478)
  %_3.i.i13.i = load i32, ptr %d.i, align 4, !alias.scope !1480, !noalias !1481, !noundef !27
  %_4.i.i14.i = load i32, ptr %b.i, align 4, !alias.scope !1481, !noalias !1480, !noundef !27
  %_0.i.i15.i = icmp slt i32 %_3.i.i13.i, %_4.i.i14.i
  %0 = select i1 %_0.i.i12.i, ptr %c.i, ptr %a.i, !unpredictable !27
  %1 = select i1 %_0.i.i15.i, ptr %c.i, ptr %b.i, !unpredictable !27
  %2 = select i1 %_0.i.i12.i, ptr %a.i, ptr %1, !unpredictable !27
  %3 = select i1 %_0.i.i12.i, ptr %b.i, ptr %c.i, !unpredictable !27
  %4 = select i1 %_0.i.i15.i, ptr %d.i, ptr %3, !unpredictable !27
  tail call void @llvm.experimental.noalias.scope.decl(metadata !1482)
  tail call void @llvm.experimental.noalias.scope.decl(metadata !1485)
  tail call void @llvm.experimental.noalias.scope.decl(metadata !1487)
  tail call void @llvm.experimental.noalias.scope.decl(metadata !1490)
  %_3.i.i16.i = load i32, ptr %4, align 4, !alias.scope !1492, !noalias !1493, !noundef !27
  %_4.i.i17.i = load i32, ptr %2, align 4, !alias.scope !1493, !noalias !1492, !noundef !27
  %5 = load i32, ptr %0, align 4
  store i32 %5, ptr %scratch.0, align 4
  %dst5.i = getelementptr inbounds nuw i8, ptr %scratch.0, i64 4
  %6 = tail call i32 @llvm.smin.i32(i32 %_3.i.i16.i, i32 %_4.i.i17.i)
  store i32 %6, ptr %dst5.i, align 4
  %dst6.i = getelementptr inbounds nuw i8, ptr %scratch.0, i64 8
  %7 = tail call i32 @llvm.smax.i32(i32 %_3.i.i16.i, i32 %_4.i.i17.i)
  store i32 %7, ptr %dst6.i, align 4
  %8 = getelementptr inbounds nuw i8, ptr %scratch.0, i64 12
  %9 = tail call i32 @llvm.smax.i32(i32 %_3.i.i13.i, i32 %_4.i.i14.i)
  store i32 %9, ptr %8, align 4
  %_27 = getelementptr inbounds nuw i32, ptr %v.0, i64 %len_div_211
  %_28 = getelementptr inbounds nuw i32, ptr %scratch.0, i64 %len_div_211
  %_7.i13 = getelementptr inbounds nuw i8, ptr %_27, i64 4
  tail call void @llvm.experimental.noalias.scope.decl(metadata !1494)
  tail call void @llvm.experimental.noalias.scope.decl(metadata !1497)
  tail call void @llvm.experimental.noalias.scope.decl(metadata !1499)
  tail call void @llvm.experimental.noalias.scope.decl(metadata !1502)
  %_3.i.i.i14 = load i32, ptr %_7.i13, align 4, !alias.scope !1504, !noalias !1505, !noundef !27
  %_4.i.i.i15 = load i32, ptr %_27, align 4, !alias.scope !1505, !noalias !1504, !noundef !27
  %_0.i.i.i16 = icmp slt i32 %_3.i.i.i14, %_4.i.i.i15
  %_12.i17 = getelementptr inbounds nuw i8, ptr %_27, i64 12
  %_14.i18 = getelementptr inbounds nuw i8, ptr %_27, i64 8
  tail call void @llvm.experimental.noalias.scope.decl(metadata !1506)
  tail call void @llvm.experimental.noalias.scope.decl(metadata !1509)
  tail call void @llvm.experimental.noalias.scope.decl(metadata !1511)
  tail call void @llvm.experimental.noalias.scope.decl(metadata !1514)
  %_3.i.i7.i19 = load i32, ptr %_12.i17, align 4, !alias.scope !1516, !noalias !1517, !noundef !27
  %_4.i.i8.i20 = load i32, ptr %_14.i18, align 4, !alias.scope !1517, !noalias !1516, !noundef !27
  %_0.i.i9.i21 = icmp slt i32 %_3.i.i7.i19, %_4.i.i8.i20
  %count.i22 = zext i1 %_0.i.i.i16 to i64
  %a.i23 = getelementptr inbounds nuw i32, ptr %_27, i64 %count.i22
  %_19.i24 = xor i1 %_0.i.i.i16, true
  %count2.i25 = zext i1 %_19.i24 to i64
  %b.i26 = getelementptr inbounds nuw i32, ptr %_27, i64 %count2.i25
  %count3.i27 = select i1 %_0.i.i9.i21, i64 3, i64 2
  %c.i28 = getelementptr inbounds nuw i32, ptr %_27, i64 %count3.i27
  %count4.i29 = select i1 %_0.i.i9.i21, i64 2, i64 3
  %d.i30 = getelementptr inbounds nuw i32, ptr %_27, i64 %count4.i29
  tail call void @llvm.experimental.noalias.scope.decl(metadata !1518)
  tail call void @llvm.experimental.noalias.scope.decl(metadata !1521)
  tail call void @llvm.experimental.noalias.scope.decl(metadata !1523)
  tail call void @llvm.experimental.noalias.scope.decl(metadata !1526)
  %_3.i.i10.i31 = load i32, ptr %c.i28, align 4, !alias.scope !1528, !noalias !1529, !noundef !27
  %_4.i.i11.i32 = load i32, ptr %a.i23, align 4, !alias.scope !1529, !noalias !1528, !noundef !27
  %_0.i.i12.i33 = icmp slt i32 %_3.i.i10.i31, %_4.i.i11.i32
  tail call void @llvm.experimental.noalias.scope.decl(metadata !1530)
  tail call void @llvm.experimental.noalias.scope.decl(metadata !1533)
  tail call void @llvm.experimental.noalias.scope.decl(metadata !1535)
  tail call void @llvm.experimental.noalias.scope.decl(metadata !1538)
  %_3.i.i13.i34 = load i32, ptr %d.i30, align 4, !alias.scope !1540, !noalias !1541, !noundef !27
  %_4.i.i14.i35 = load i32, ptr %b.i26, align 4, !alias.scope !1541, !noalias !1540, !noundef !27
  %_0.i.i15.i36 = icmp slt i32 %_3.i.i13.i34, %_4.i.i14.i35
  %10 = select i1 %_0.i.i12.i33, ptr %c.i28, ptr %a.i23, !unpredictable !27
  %11 = select i1 %_0.i.i15.i36, ptr %c.i28, ptr %b.i26, !unpredictable !27
  %12 = select i1 %_0.i.i12.i33, ptr %a.i23, ptr %11, !unpredictable !27
  %13 = select i1 %_0.i.i12.i33, ptr %b.i26, ptr %c.i28, !unpredictable !27
  %14 = select i1 %_0.i.i15.i36, ptr %d.i30, ptr %13, !unpredictable !27
  tail call void @llvm.experimental.noalias.scope.decl(metadata !1542)
  tail call void @llvm.experimental.noalias.scope.decl(metadata !1545)
  tail call void @llvm.experimental.noalias.scope.decl(metadata !1547)
  tail call void @llvm.experimental.noalias.scope.decl(metadata !1550)
  %_3.i.i16.i37 = load i32, ptr %14, align 4, !alias.scope !1552, !noalias !1553, !noundef !27
  %_4.i.i17.i38 = load i32, ptr %12, align 4, !alias.scope !1553, !noalias !1552, !noundef !27
  %15 = load i32, ptr %10, align 4
  store i32 %15, ptr %_28, align 4
  %dst5.i40 = getelementptr inbounds nuw i8, ptr %_28, i64 4
  %16 = tail call i32 @llvm.smin.i32(i32 %_3.i.i16.i37, i32 %_4.i.i17.i38)
  store i32 %16, ptr %dst5.i40, align 4
  %dst6.i43 = getelementptr inbounds nuw i8, ptr %_28, i64 8
  %17 = tail call i32 @llvm.smax.i32(i32 %_3.i.i16.i37, i32 %_4.i.i17.i38)
  store i32 %17, ptr %dst6.i43, align 4
  %18 = getelementptr inbounds nuw i8, ptr %_28, i64 12
  %19 = tail call i32 @llvm.smax.i32(i32 %_3.i.i13.i34, i32 %_4.i.i14.i35)
  store i32 %19, ptr %18, align 4
  br label %bb15

bb46:                                             ; preds = %bb9
  %20 = load i32, ptr %v.0, align 4
  store i32 %20, ptr %scratch.0, align 4
  %_31 = getelementptr inbounds nuw i32, ptr %v.0, i64 %len_div_211
  %21 = getelementptr inbounds nuw i32, ptr %scratch.0, i64 %len_div_211
  %22 = load i32, ptr %_31, align 4
  store i32 %22, ptr %21, align 4
  br label %bb15

bb15:                                             ; preds = %bb46, %bb10, %bb6
  %presorted_len.sroa.0.0 = phi i64 [ 8, %bb6 ], [ 4, %bb10 ], [ 1, %bb46 ]
  call void @llvm.lifetime.start.p0(i64 32, ptr nonnull %iter)
  store i64 0, ptr %iter, align 8
  %_37.sroa.4.0.iter.sroa_idx = getelementptr inbounds nuw i8, ptr %iter, i64 8
  store i64 2, ptr %_37.sroa.4.0.iter.sroa_idx, align 8
  %_37.sroa.5.0.iter.sroa_idx = getelementptr inbounds nuw i8, ptr %iter, i64 16
  store i64 0, ptr %_37.sroa.5.0.iter.sroa_idx, align 8
  %_37.sroa.6.0.iter.sroa_idx = getelementptr inbounds nuw i8, ptr %iter, i64 24
  store i64 %len_div_211, ptr %_37.sroa.6.0.iter.sroa_idx, align 8
  %23 = sub nsw i64 %v.1, %len_div_211
  %iter1.sroa.0.161 = add nuw nsw i64 %presorted_len.sroa.0.0, 1
  br label %bb16

bb16:                                             ; preds = %bb16.backedge, %bb15
  %24 = phi i64 [ 0, %bb15 ], [ %25, %bb16.backedge ]
  %_5.not.i.not = icmp eq i64 %24, 2
  br i1 %_5.not.i.not, label %"_ZN4core5array4iter10iter_inner78PolymorphicIter$LT$$u5b$core..mem..maybe_uninit..MaybeUninit$LT$T$GT$$u5d$$GT$4next17h1016f9159a57957fE.exit", label %bb1.i

bb1.i:                                            ; preds = %bb16
  %_11.i = add nuw nsw i64 %24, 1
  store i64 %_11.i, ptr %iter, align 8, !alias.scope !1554
  %_20.i = icmp ult i64 %24, 2
  tail call void @llvm.assume(i1 %_20.i)
  %self3.i = getelementptr inbounds nuw i64, ptr %_37.sroa.5.0.iter.sroa_idx, i64 %24
  %_15.i = load i64, ptr %self3.i, align 8, !alias.scope !1554, !noundef !27
  br label %"_ZN4core5array4iter10iter_inner78PolymorphicIter$LT$$u5b$core..mem..maybe_uninit..MaybeUninit$LT$T$GT$$u5d$$GT$4next17h1016f9159a57957fE.exit"

"_ZN4core5array4iter10iter_inner78PolymorphicIter$LT$$u5b$core..mem..maybe_uninit..MaybeUninit$LT$T$GT$$u5d$$GT$4next17h1016f9159a57957fE.exit": ; preds = %bb16, %bb1.i
  %25 = phi i64 [ %_11.i, %bb1.i ], [ %24, %bb16 ]
  %_0.sroa.3.0.i = phi i64 [ %_15.i, %bb1.i ], [ undef, %bb16 ]
  br i1 %_5.not.i.not, label %bb19, label %bb18

bb18:                                             ; preds = %"_ZN4core5array4iter10iter_inner78PolymorphicIter$LT$$u5b$core..mem..maybe_uninit..MaybeUninit$LT$T$GT$$u5d$$GT$4next17h1016f9159a57957fE.exit"
  %src5 = getelementptr inbounds nuw i32, ptr %v.0, i64 %_0.sroa.3.0.i
  %dst6 = getelementptr inbounds nuw i32, ptr %scratch.0, i64 %_0.sroa.3.0.i
  %_47 = icmp eq i64 %_0.sroa.3.0.i, 0
  %desired_len.sroa.0.0 = select i1 %_47, i64 %len_div_211, i64 %23
  %_8059 = icmp ult i64 %presorted_len.sroa.0.0, %desired_len.sroa.0.0
  br i1 %_8059, label %bb24, label %bb16.backedge

bb16.backedge:                                    ; preds = %_ZN4core5slice4sort6shared9smallsort11insert_tail17h690eb7bd9866e190E.exit, %bb18
  br label %bb16

bb19:                                             ; preds = %"_ZN4core5array4iter10iter_inner78PolymorphicIter$LT$$u5b$core..mem..maybe_uninit..MaybeUninit$LT$T$GT$$u5d$$GT$4next17h1016f9159a57957fE.exit"
  call void @llvm.lifetime.end.p0(i64 32, ptr nonnull %iter)
  tail call void @llvm.experimental.noalias.scope.decl(metadata !1557)
  %count1.i = add nsw i64 %v.1, -1
  %26 = getelementptr inbounds nuw i32, ptr %v.0, i64 %count1.i
  %27 = getelementptr inbounds nuw i32, ptr %scratch.0, i64 %count1.i
  %28 = getelementptr i32, ptr %scratch.0, i64 %len_div_211
  %29 = getelementptr i8, ptr %28, i64 -4
  br label %bb15.i

bb16.i:                                           ; preds = %bb15.i
  %30 = getelementptr i8, ptr %35, i64 4
  %31 = getelementptr i8, ptr %34, i64 4
  %_44.i = and i64 %v.1, 1
  %_22.i = icmp eq i64 %_44.i, 0
  br i1 %_22.i, label %bb9.i, label %bb5.i

bb15.i:                                           ; preds = %bb15.i, %bb19
  %dst.sroa.0.029.i = phi ptr [ %_16.i.i, %bb15.i ], [ %v.0, %bb19 ]
  %iter.sroa.0.028.i = phi i64 [ %_39.i, %bb15.i ], [ 0, %bb19 ]
  %left.sroa.0.027.i = phi ptr [ %_14.i.i, %bb15.i ], [ %scratch.0, %bb19 ]
  %right.sroa.0.026.i = phi ptr [ %_12.i.i, %bb15.i ], [ %28, %bb19 ]
  %left_rev.sroa.0.025.i = phi ptr [ %35, %bb15.i ], [ %29, %bb19 ]
  %right_rev.sroa.0.024.i = phi ptr [ %34, %bb15.i ], [ %27, %bb19 ]
  %dst_rev.sroa.0.023.i = phi ptr [ %36, %bb15.i ], [ %26, %bb19 ]
  %_39.i = add nuw nsw i64 %iter.sroa.0.028.i, 1
  tail call void @llvm.experimental.noalias.scope.decl(metadata !1560)
  tail call void @llvm.experimental.noalias.scope.decl(metadata !1563)
  tail call void @llvm.experimental.noalias.scope.decl(metadata !1565), !noalias !1568
  tail call void @llvm.experimental.noalias.scope.decl(metadata !1571), !noalias !1568
  %_3.i.i.i49 = load i32, ptr %right.sroa.0.026.i, align 4, !alias.scope !1573, !noalias !1574, !noundef !27
  %_4.i.i.i50 = load i32, ptr %left.sroa.0.027.i, align 4, !alias.scope !1575, !noalias !1576, !noundef !27
  %_0.i.i.i51 = icmp slt i32 %_3.i.i.i49, %_4.i.i.i50
  %is_l.i18.i = xor i1 %_0.i.i.i51, true
  %32 = tail call i32 @llvm.smin.i32(i32 %_3.i.i.i49, i32 %_4.i.i.i50)
  store i32 %32, ptr %dst.sroa.0.029.i, align 4, !noalias !1577
  %count.i.i = zext i1 %_0.i.i.i51 to i64
  %_12.i.i = getelementptr inbounds nuw i32, ptr %right.sroa.0.026.i, i64 %count.i.i
  %count2.i.i = zext i1 %is_l.i18.i to i64
  %_14.i.i = getelementptr inbounds nuw i32, ptr %left.sroa.0.027.i, i64 %count2.i.i
  %_16.i.i = getelementptr inbounds nuw i8, ptr %dst.sroa.0.029.i, i64 4
  tail call void @llvm.experimental.noalias.scope.decl(metadata !1579)
  tail call void @llvm.experimental.noalias.scope.decl(metadata !1582)
  tail call void @llvm.experimental.noalias.scope.decl(metadata !1584), !noalias !1587
  tail call void @llvm.experimental.noalias.scope.decl(metadata !1590), !noalias !1587
  %_3.i.i19.i = load i32, ptr %right_rev.sroa.0.024.i, align 4, !alias.scope !1592, !noalias !1593, !noundef !27
  %_4.i.i20.i = load i32, ptr %left_rev.sroa.0.025.i, align 4, !alias.scope !1594, !noalias !1595, !noundef !27
  %_0.i.i21.i = icmp slt i32 %_3.i.i19.i, %_4.i.i20.i
  %is_l.i.i = xor i1 %_0.i.i21.i, true
  %33 = tail call i32 @llvm.smax.i32(i32 %_3.i.i19.i, i32 %_4.i.i20.i)
  store i32 %33, ptr %dst_rev.sroa.0.023.i, align 4, !noalias !1596
  %count.neg.i.i = sext i1 %is_l.i.i to i64
  %34 = getelementptr i32, ptr %right_rev.sroa.0.024.i, i64 %count.neg.i.i
  %count3.neg.i.i = sext i1 %_0.i.i21.i to i64
  %35 = getelementptr i32, ptr %left_rev.sroa.0.025.i, i64 %count3.neg.i.i
  %36 = getelementptr inbounds i8, ptr %dst_rev.sroa.0.023.i, i64 -4
  %exitcond.not.i = icmp eq i64 %_39.i, %len_div_211
  br i1 %exitcond.not.i, label %bb16.i, label %bb15.i

bb5.i:                                            ; preds = %bb16.i
  %left_nonempty.i = icmp ult ptr %_14.i.i, %30
  %left.sroa.0.0.right.sroa.0.0.i = select i1 %left_nonempty.i, ptr %_14.i.i, ptr %_12.i.i
  %37 = load i32, ptr %left.sroa.0.0.right.sroa.0.0.i, align 4, !alias.scope !1557
  store i32 %37, ptr %_16.i.i, align 4, !noalias !1557
  %count2.i52 = zext i1 %left_nonempty.i to i64
  %_26.i = getelementptr inbounds nuw i32, ptr %_14.i.i, i64 %count2.i52
  %_30.i = xor i1 %left_nonempty.i, true
  %count3.i53 = zext i1 %_30.i to i64
  %_28.i = getelementptr inbounds nuw i32, ptr %_12.i.i, i64 %count3.i53
  br label %bb9.i

bb9.i:                                            ; preds = %bb5.i, %bb16.i
  %right.sroa.0.1.i = phi ptr [ %_12.i.i, %bb16.i ], [ %_28.i, %bb5.i ]
  %left.sroa.0.1.i = phi ptr [ %_14.i.i, %bb16.i ], [ %_26.i, %bb5.i ]
  %_31.i = icmp ne ptr %left.sroa.0.1.i, %30
  %_32.i = icmp ne ptr %right.sroa.0.1.i, %31
  %or.cond.i = select i1 %_31.i, i1 true, i1 %_32.i
  br i1 %or.cond.i, label %bb13.i, label %bb29, !prof !548

bb13.i:                                           ; preds = %bb9.i
; invoke core::slice::sort::shared::smallsort::panic_on_ord_violation
  invoke void @_ZN4core5slice4sort6shared9smallsort22panic_on_ord_violation17hc77a22a2d50782cdE() #24
          to label %.noexc unwind label %cleanup2

.noexc:                                           ; preds = %bb13.i
  unreachable

cleanup2:                                         ; preds = %bb13.i
  %38 = landingpad { ptr, i32 }
          cleanup
  %39 = shl nuw nsw i64 %v.1, 2
  tail call void @llvm.memcpy.p0.p0.i64(ptr nonnull align 4 %v.0, ptr nonnull align 4 %scratch.0, i64 %39, i1 false), !noalias !1598
  resume { ptr, i32 } %38

bb29:                                             ; preds = %bb9.i, %start
  ret void

bb24:                                             ; preds = %bb18, %_ZN4core5slice4sort6shared9smallsort11insert_tail17h690eb7bd9866e190E.exit
  %iter1.sroa.0.163 = phi i64 [ %iter1.sroa.0.1, %_ZN4core5slice4sort6shared9smallsort11insert_tail17h690eb7bd9866e190E.exit ], [ %iter1.sroa.0.161, %bb18 ]
  %iter1.sroa.0.062 = phi i64 [ %iter1.sroa.0.163, %_ZN4core5slice4sort6shared9smallsort11insert_tail17h690eb7bd9866e190E.exit ], [ %presorted_len.sroa.0.0, %bb18 ]
  %_55 = getelementptr inbounds nuw i32, ptr %src5, i64 %iter1.sroa.0.062
  %dst7 = getelementptr inbounds nuw i32, ptr %dst6, i64 %iter1.sroa.0.062
  %40 = load i32, ptr %_55, align 4
  store i32 %40, ptr %dst7, align 4
  %41 = getelementptr inbounds i8, ptr %dst7, i64 -4
  %_4.i.i.i56 = load i32, ptr %41, align 4, !alias.scope !1603, !noalias !1608, !noundef !27
  %_0.i.i.i57 = icmp slt i32 %40, %_4.i.i.i56
  br i1 %_0.i.i.i57, label %bb4.i, label %_ZN4core5slice4sort6shared9smallsort11insert_tail17h690eb7bd9866e190E.exit

bb4.i:                                            ; preds = %bb24, %bb6.i
  %gap_guard.sroa.5.0.i = phi ptr [ %sift.sroa.0.0.i, %bb6.i ], [ %dst7, %bb24 ]
  %sift.sroa.0.0.i = phi ptr [ %43, %bb6.i ], [ %41, %bb24 ]
  %42 = load i32, ptr %sift.sroa.0.0.i, align 4
  store i32 %42, ptr %gap_guard.sroa.5.0.i, align 4
  %_18.i = icmp eq ptr %sift.sroa.0.0.i, %dst6
  br i1 %_18.i, label %bb10.i, label %bb6.i

bb6.i:                                            ; preds = %bb4.i
  %43 = getelementptr inbounds i8, ptr %sift.sroa.0.0.i, i64 -4
  %_4.i.i2.i = load i32, ptr %43, align 4, !alias.scope !1611, !noalias !1616, !noundef !27
  %_0.i.i3.i = icmp slt i32 %40, %_4.i.i2.i
  br i1 %_0.i.i3.i, label %bb4.i, label %bb10.i

bb10.i:                                           ; preds = %bb6.i, %bb4.i
  store i32 %40, ptr %sift.sroa.0.0.i, align 4, !noalias !1619
  br label %_ZN4core5slice4sort6shared9smallsort11insert_tail17h690eb7bd9866e190E.exit

_ZN4core5slice4sort6shared9smallsort11insert_tail17h690eb7bd9866e190E.exit: ; preds = %bb24, %bb10.i
  %_80 = icmp ult i64 %iter1.sroa.0.163, %desired_len.sroa.0.0
  %_84 = zext i1 %_80 to i64
  %iter1.sroa.0.1 = add nuw i64 %iter1.sroa.0.163, %_84
  br i1 %_80, label %bb24, label %bb16.backedge
}

; core::slice::sort::stable::driftsort_main
; Function Attrs: noinline nonlazybind uwtable
define void @_ZN4core5slice4sort6stable14driftsort_main17hf06d8438d0a559adE(ptr noalias noundef nonnull align 4 %v.0, i64 noundef range(i64 0, 2305843009213693952) %v.1, ptr noalias noundef align 8 dereferenceable(8) %is_less) unnamed_addr #5 personality ptr @rust_eh_personality {
start:
  %_4.i.i = alloca [24 x i8], align 8
  %heap_buf = alloca [24 x i8], align 8
  %stack_buf = alloca [4096 x i8], align 4
  %_105 = lshr i64 %v.1, 1
  %v1 = sub nsw i64 %v.1, %_105
  %_0.sroa.0.0.i = tail call noundef i64 @llvm.umin.i64(i64 %v.1, i64 2000000)
  %_0.sroa.0.0.i6 = tail call noundef i64 @llvm.umax.i64(i64 %_0.sroa.0.0.i, i64 %v1)
  %_0.sroa.0.0.i7 = tail call noundef i64 @llvm.umax.i64(i64 %_0.sroa.0.0.i6, i64 48)
  call void @llvm.lifetime.start.p0(i64 4096, ptr nonnull %stack_buf)
  call void @llvm.lifetime.start.p0(i64 24, ptr nonnull %heap_buf)
  %_15 = icmp ult i64 %_0.sroa.0.0.i6, 1025
  br i1 %_15, label %bb8, label %bb4

bb4:                                              ; preds = %start
  call void @llvm.lifetime.start.p0(i64 24, ptr nonnull %_4.i.i), !noalias !1624
; invoke alloc::raw_vec::RawVecInner<A>::try_allocate_in
  invoke void @"_ZN5alloc7raw_vec20RawVecInner$LT$A$GT$15try_allocate_in17had089b3ffc2704ecE"(ptr noalias noundef sret([24 x i8]) align 8 captures(none) dereferenceable(24) %_4.i.i, i64 noundef %_0.sroa.0.0.i7, i1 noundef zeroext false, i64 noundef 4, i64 noundef 4)
          to label %.noexc unwind label %cleanup

.noexc:                                           ; preds = %bb4
  %_5.i.i = load i64, ptr %_4.i.i, align 8, !range !1627, !noalias !1624, !noundef !27
  %0 = trunc nuw i64 %_5.i.i to i1
  %1 = getelementptr inbounds nuw i8, ptr %_4.i.i, i64 8
  %err.0.i.i = load i64, ptr %1, align 8, !range !1628, !noalias !1624, !noundef !27
  %2 = getelementptr inbounds nuw i8, ptr %_4.i.i, i64 16
  br i1 %0, label %bb3.i.i, label %"_ZN5alloc5slice99_$LT$impl$u20$core..slice..sort..stable..BufGuard$LT$T$GT$$u20$for$u20$alloc..vec..Vec$LT$T$GT$$GT$13with_capacity17h2f79f14f8285b62bE.exit", !prof !1629

bb3.i.i:                                          ; preds = %.noexc
  %err.1.i.i = load i64, ptr %2, align 8, !noalias !1624
; invoke alloc::raw_vec::handle_error
  invoke void @_ZN5alloc7raw_vec12handle_error17h3a8c375904e593b2E(i64 noundef %err.0.i.i, i64 %err.1.i.i) #25
          to label %.noexc8 unwind label %cleanup

.noexc8:                                          ; preds = %bb3.i.i
  unreachable

"_ZN5alloc5slice99_$LT$impl$u20$core..slice..sort..stable..BufGuard$LT$T$GT$$u20$for$u20$alloc..vec..Vec$LT$T$GT$$GT$13with_capacity17h2f79f14f8285b62bE.exit": ; preds = %.noexc
  %this.1.i.i = load ptr, ptr %2, align 8, !noalias !1624, !nonnull !27, !noundef !27
  %_7.i.i = icmp ule i64 %_0.sroa.0.0.i7, %err.0.i.i
  tail call void @llvm.assume(i1 %_7.i.i)
  call void @llvm.lifetime.end.p0(i64 24, ptr nonnull %_4.i.i), !noalias !1624
  store i64 %err.0.i.i, ptr %heap_buf, align 8
  %_18.sroa.4.0.heap_buf.sroa_idx = getelementptr inbounds nuw i8, ptr %heap_buf, i64 8
  store ptr %this.1.i.i, ptr %_18.sroa.4.0.heap_buf.sroa_idx, align 8
  %_18.sroa.5.0.heap_buf.sroa_idx = getelementptr inbounds nuw i8, ptr %heap_buf, i64 16
  store i64 0, ptr %_18.sroa.5.0.heap_buf.sroa_idx, align 8
  br label %bb8

cleanup:                                          ; preds = %bb3.i.i, %bb4, %bb8
  %_24.sroa.0.0 = phi i8 [ %_24.sroa.0.1, %bb8 ], [ 0, %bb4 ], [ 0, %bb3.i.i ]
  %3 = landingpad { ptr, i32 }
          cleanup
  %4 = trunc nuw i8 %_24.sroa.0.0 to i1
  br i1 %4, label %bb13, label %bb11

bb8:                                              ; preds = %"_ZN5alloc5slice99_$LT$impl$u20$core..slice..sort..stable..BufGuard$LT$T$GT$$u20$for$u20$alloc..vec..Vec$LT$T$GT$$GT$13with_capacity17h2f79f14f8285b62bE.exit", %start
  %_24.sroa.0.1 = phi i8 [ 0, %start ], [ 1, %"_ZN5alloc5slice99_$LT$impl$u20$core..slice..sort..stable..BufGuard$LT$T$GT$$u20$for$u20$alloc..vec..Vec$LT$T$GT$$GT$13with_capacity17h2f79f14f8285b62bE.exit" ]
  %stack_scratch.sroa.4.0 = phi i64 [ 1024, %start ], [ %err.0.i.i, %"_ZN5alloc5slice99_$LT$impl$u20$core..slice..sort..stable..BufGuard$LT$T$GT$$u20$for$u20$alloc..vec..Vec$LT$T$GT$$GT$13with_capacity17h2f79f14f8285b62bE.exit" ]
  %stack_buf.pn = phi ptr [ %stack_buf, %start ], [ %this.1.i.i, %"_ZN5alloc5slice99_$LT$impl$u20$core..slice..sort..stable..BufGuard$LT$T$GT$$u20$for$u20$alloc..vec..Vec$LT$T$GT$$GT$13with_capacity17h2f79f14f8285b62bE.exit" ]
  %eager_sort = icmp samesign ult i64 %v.1, 65
; invoke core::slice::sort::stable::drift::sort
  invoke void @_ZN4core5slice4sort6stable5drift4sort17h571b02cc474ffd6dE(ptr noalias noundef nonnull align 4 %v.0, i64 noundef %v.1, ptr noalias noundef nonnull align 4 %stack_buf.pn, i64 noundef %stack_scratch.sroa.4.0, i1 noundef zeroext %eager_sort, ptr noalias noundef align 8 dereferenceable(8) %is_less)
          to label %bb9 unwind label %cleanup

bb9:                                              ; preds = %bb8
  %5 = trunc nuw i8 %_24.sroa.0.1 to i1
  br i1 %5, label %bb12, label %bb10

bb10:                                             ; preds = %bb12, %bb9
  call void @llvm.lifetime.end.p0(i64 24, ptr nonnull %heap_buf)
  call void @llvm.lifetime.end.p0(i64 4096, ptr nonnull %stack_buf)
  ret void

bb12:                                             ; preds = %bb9
; call alloc::raw_vec::RawVecInner<A>::deallocate
  call void @"_ZN5alloc7raw_vec20RawVecInner$LT$A$GT$10deallocate17h6ddf8733b0451bb9E"(ptr noalias noundef nonnull align 8 dereferenceable(24) %heap_buf, i64 noundef 4, i64 noundef 4)
  br label %bb10

bb11:                                             ; preds = %bb13, %cleanup
  resume { ptr, i32 } %3

bb13:                                             ; preds = %cleanup
; invoke alloc::raw_vec::RawVecInner<A>::deallocate
  invoke void @"_ZN5alloc7raw_vec20RawVecInner$LT$A$GT$10deallocate17h6ddf8733b0451bb9E"(ptr noalias noundef nonnull align 8 dereferenceable(24) %heap_buf, i64 noundef 4, i64 noundef 4)
          to label %bb11 unwind label %terminate

terminate:                                        ; preds = %bb13
  %6 = landingpad { ptr, i32 }
          filter [0 x ptr] zeroinitializer
; call core::panicking::panic_in_cleanup
  call void @_ZN4core9panicking16panic_in_cleanup17h5f6bde45d17ae243E() #26
  unreachable
}

; core::slice::sort::stable::driftsort_main
; Function Attrs: noinline nonlazybind uwtable
define void @_ZN4core5slice4sort6stable14driftsort_main17hfc969b57c31c8be9E(ptr noalias noundef nonnull align 4 %v.0, i64 noundef range(i64 0, 2305843009213693952) %v.1, ptr noalias noundef nonnull align 1 %is_less) unnamed_addr #5 personality ptr @rust_eh_personality {
start:
  %_4.i.i = alloca [24 x i8], align 8
  %heap_buf = alloca [24 x i8], align 8
  %stack_buf = alloca [4096 x i8], align 4
  %_105 = lshr i64 %v.1, 1
  %v1 = sub nsw i64 %v.1, %_105
  %_0.sroa.0.0.i = tail call noundef i64 @llvm.umin.i64(i64 %v.1, i64 2000000)
  %_0.sroa.0.0.i6 = tail call noundef i64 @llvm.umax.i64(i64 %_0.sroa.0.0.i, i64 %v1)
  %_0.sroa.0.0.i7 = tail call noundef i64 @llvm.umax.i64(i64 %_0.sroa.0.0.i6, i64 48)
  call void @llvm.lifetime.start.p0(i64 4096, ptr nonnull %stack_buf)
  call void @llvm.lifetime.start.p0(i64 24, ptr nonnull %heap_buf)
  %_15 = icmp ult i64 %_0.sroa.0.0.i6, 1025
  br i1 %_15, label %bb8, label %bb4

bb4:                                              ; preds = %start
  call void @llvm.lifetime.start.p0(i64 24, ptr nonnull %_4.i.i), !noalias !1630
; invoke alloc::raw_vec::RawVecInner<A>::try_allocate_in
  invoke void @"_ZN5alloc7raw_vec20RawVecInner$LT$A$GT$15try_allocate_in17had089b3ffc2704ecE"(ptr noalias noundef sret([24 x i8]) align 8 captures(none) dereferenceable(24) %_4.i.i, i64 noundef %_0.sroa.0.0.i7, i1 noundef zeroext false, i64 noundef 4, i64 noundef 4)
          to label %.noexc unwind label %cleanup

.noexc:                                           ; preds = %bb4
  %_5.i.i = load i64, ptr %_4.i.i, align 8, !range !1627, !noalias !1630, !noundef !27
  %0 = trunc nuw i64 %_5.i.i to i1
  %1 = getelementptr inbounds nuw i8, ptr %_4.i.i, i64 8
  %err.0.i.i = load i64, ptr %1, align 8, !range !1628, !noalias !1630, !noundef !27
  %2 = getelementptr inbounds nuw i8, ptr %_4.i.i, i64 16
  br i1 %0, label %bb3.i.i, label %"_ZN5alloc5slice99_$LT$impl$u20$core..slice..sort..stable..BufGuard$LT$T$GT$$u20$for$u20$alloc..vec..Vec$LT$T$GT$$GT$13with_capacity17h2f79f14f8285b62bE.exit", !prof !1629

bb3.i.i:                                          ; preds = %.noexc
  %err.1.i.i = load i64, ptr %2, align 8, !noalias !1630
; invoke alloc::raw_vec::handle_error
  invoke void @_ZN5alloc7raw_vec12handle_error17h3a8c375904e593b2E(i64 noundef %err.0.i.i, i64 %err.1.i.i) #25
          to label %.noexc8 unwind label %cleanup

.noexc8:                                          ; preds = %bb3.i.i
  unreachable

"_ZN5alloc5slice99_$LT$impl$u20$core..slice..sort..stable..BufGuard$LT$T$GT$$u20$for$u20$alloc..vec..Vec$LT$T$GT$$GT$13with_capacity17h2f79f14f8285b62bE.exit": ; preds = %.noexc
  %this.1.i.i = load ptr, ptr %2, align 8, !noalias !1630, !nonnull !27, !noundef !27
  %_7.i.i = icmp ule i64 %_0.sroa.0.0.i7, %err.0.i.i
  tail call void @llvm.assume(i1 %_7.i.i)
  call void @llvm.lifetime.end.p0(i64 24, ptr nonnull %_4.i.i), !noalias !1630
  store i64 %err.0.i.i, ptr %heap_buf, align 8
  %_18.sroa.4.0.heap_buf.sroa_idx = getelementptr inbounds nuw i8, ptr %heap_buf, i64 8
  store ptr %this.1.i.i, ptr %_18.sroa.4.0.heap_buf.sroa_idx, align 8
  %_18.sroa.5.0.heap_buf.sroa_idx = getelementptr inbounds nuw i8, ptr %heap_buf, i64 16
  store i64 0, ptr %_18.sroa.5.0.heap_buf.sroa_idx, align 8
  br label %bb8

cleanup:                                          ; preds = %bb3.i.i, %bb4, %bb8
  %_24.sroa.0.0 = phi i8 [ %_24.sroa.0.1, %bb8 ], [ 0, %bb4 ], [ 0, %bb3.i.i ]
  %3 = landingpad { ptr, i32 }
          cleanup
  %4 = trunc nuw i8 %_24.sroa.0.0 to i1
  br i1 %4, label %bb13, label %bb11

bb8:                                              ; preds = %"_ZN5alloc5slice99_$LT$impl$u20$core..slice..sort..stable..BufGuard$LT$T$GT$$u20$for$u20$alloc..vec..Vec$LT$T$GT$$GT$13with_capacity17h2f79f14f8285b62bE.exit", %start
  %_24.sroa.0.1 = phi i8 [ 0, %start ], [ 1, %"_ZN5alloc5slice99_$LT$impl$u20$core..slice..sort..stable..BufGuard$LT$T$GT$$u20$for$u20$alloc..vec..Vec$LT$T$GT$$GT$13with_capacity17h2f79f14f8285b62bE.exit" ]
  %stack_scratch.sroa.4.0 = phi i64 [ 1024, %start ], [ %err.0.i.i, %"_ZN5alloc5slice99_$LT$impl$u20$core..slice..sort..stable..BufGuard$LT$T$GT$$u20$for$u20$alloc..vec..Vec$LT$T$GT$$GT$13with_capacity17h2f79f14f8285b62bE.exit" ]
  %stack_buf.pn = phi ptr [ %stack_buf, %start ], [ %this.1.i.i, %"_ZN5alloc5slice99_$LT$impl$u20$core..slice..sort..stable..BufGuard$LT$T$GT$$u20$for$u20$alloc..vec..Vec$LT$T$GT$$GT$13with_capacity17h2f79f14f8285b62bE.exit" ]
  %eager_sort = icmp samesign ult i64 %v.1, 65
; invoke core::slice::sort::stable::drift::sort
  invoke void @_ZN4core5slice4sort6stable5drift4sort17hec4732253a130c5fE(ptr noalias noundef nonnull align 4 %v.0, i64 noundef %v.1, ptr noalias noundef nonnull align 4 %stack_buf.pn, i64 noundef %stack_scratch.sroa.4.0, i1 noundef zeroext %eager_sort, ptr noalias noundef nonnull align 1 %is_less)
          to label %bb9 unwind label %cleanup

bb9:                                              ; preds = %bb8
  %5 = trunc nuw i8 %_24.sroa.0.1 to i1
  br i1 %5, label %bb12, label %bb10

bb10:                                             ; preds = %bb12, %bb9
  call void @llvm.lifetime.end.p0(i64 24, ptr nonnull %heap_buf)
  call void @llvm.lifetime.end.p0(i64 4096, ptr nonnull %stack_buf)
  ret void

bb12:                                             ; preds = %bb9
; call alloc::raw_vec::RawVecInner<A>::deallocate
  call void @"_ZN5alloc7raw_vec20RawVecInner$LT$A$GT$10deallocate17h6ddf8733b0451bb9E"(ptr noalias noundef nonnull align 8 dereferenceable(24) %heap_buf, i64 noundef 4, i64 noundef 4)
  br label %bb10

bb11:                                             ; preds = %bb13, %cleanup
  resume { ptr, i32 } %3

bb13:                                             ; preds = %cleanup
; invoke alloc::raw_vec::RawVecInner<A>::deallocate
  invoke void @"_ZN5alloc7raw_vec20RawVecInner$LT$A$GT$10deallocate17h6ddf8733b0451bb9E"(ptr noalias noundef nonnull align 8 dereferenceable(24) %heap_buf, i64 noundef 4, i64 noundef 4)
          to label %bb11 unwind label %terminate

terminate:                                        ; preds = %bb13
  %6 = landingpad { ptr, i32 }
          filter [0 x ptr] zeroinitializer
; call core::panicking::panic_in_cleanup
  call void @_ZN4core9panicking16panic_in_cleanup17h5f6bde45d17ae243E() #26
  unreachable
}

; core::slice::sort::stable::AlignedStorage<T,_>::as_uninit_slice_mut
; Function Attrs: mustprogress nofree norecurse nosync nounwind nonlazybind willreturn memory(none) uwtable
define { ptr, i64 } @"_ZN4core5slice4sort6stable27AlignedStorage$LT$T$C$_$GT$19as_uninit_slice_mut17hd1d43c77ad9125fbE"(ptr noalias noundef align 4 dereferenceable(4096) %self) unnamed_addr #6 {
start:
  %0 = insertvalue { ptr, i64 } poison, ptr %self, 0
  %1 = insertvalue { ptr, i64 } %0, i64 1024, 1
  ret { ptr, i64 } %1
}

; core::slice::sort::stable::drift::create_run
; Function Attrs: nonlazybind uwtable
define noundef range(i64 0, -1) i64 @_ZN4core5slice4sort6stable5drift10create_run17h1f71a871e3d2e9ddE(ptr noalias noundef nonnull align 4 %v.0, i64 noundef range(i64 0, 2305843009213693952) %v.1, ptr noalias noundef nonnull align 4 %scratch.0, i64 noundef range(i64 0, 2305843009213693952) %scratch.1, i64 noundef %min_good_run_len, i1 noundef zeroext %eager_sort, ptr noalias noundef nonnull align 1 %is_less) unnamed_addr #3 personality ptr @rust_eh_personality {
start:
  %_7.not = icmp ult i64 %v.1, %min_good_run_len
  br i1 %_7.not, label %bb7, label %bb1

bb7:                                              ; preds = %_ZN4core5slice4sort6shared17find_existing_run17h39f7b31a0d6c7a02E.exit, %start
  br i1 %eager_sort, label %bb8, label %bb11

bb1:                                              ; preds = %start
  %_4.i = icmp samesign ult i64 %v.1, 2
  br i1 %_4.i, label %_ZN4core5slice4sort6shared17find_existing_run17h39f7b31a0d6c7a02E.exit, label %bb2.i

bb2.i:                                            ; preds = %bb1
  %_28.i = getelementptr inbounds nuw i8, ptr %v.0, i64 4
  tail call void @llvm.experimental.noalias.scope.decl(metadata !1633)
  tail call void @llvm.experimental.noalias.scope.decl(metadata !1636)
  tail call void @llvm.experimental.noalias.scope.decl(metadata !1638)
  tail call void @llvm.experimental.noalias.scope.decl(metadata !1641)
  %_3.i.i = load i32, ptr %_28.i, align 4, !alias.scope !1643, !noalias !1644, !noundef !27
  %_4.i.i = load i32, ptr %v.0, align 4, !alias.scope !1644, !noalias !1643, !noundef !27
  %_0.i.i = icmp slt i32 %_3.i.i, %_4.i.i
  %_10.i13.not = icmp eq i64 %v.1, 2
  br i1 %_0.i.i, label %bb4.i.preheader, label %bb11.i.preheader

bb11.i.preheader:                                 ; preds = %bb2.i
  br i1 %_10.i13.not, label %_ZN4core5slice4sort6shared17find_existing_run17h39f7b31a0d6c7a02E.exit, label %bb12.i.preheader

bb12.i.preheader:                                 ; preds = %bb11.i.preheader
  %invariant.gep = getelementptr i8, ptr %v.0, i64 -4
  br label %bb12.i

bb4.i.preheader:                                  ; preds = %bb2.i
  br i1 %_10.i13.not, label %_ZN4core5slice4sort6shared17find_existing_run17h39f7b31a0d6c7a02E.exit, label %bb5.i.preheader

bb5.i.preheader:                                  ; preds = %bb4.i.preheader
  %invariant.gep24 = getelementptr i8, ptr %v.0, i64 -4
  br label %bb5.i

bb12.i:                                           ; preds = %bb12.i.preheader, %bb15.i
  %run_len.sroa.0.0.i11 = phi i64 [ %1, %bb15.i ], [ 2, %bb12.i.preheader ]
  %0 = getelementptr inbounds nuw i32, ptr %v.0, i64 %run_len.sroa.0.0.i11
  %gep = getelementptr i32, ptr %invariant.gep, i64 %run_len.sroa.0.0.i11
  tail call void @llvm.experimental.noalias.scope.decl(metadata !1645)
  tail call void @llvm.experimental.noalias.scope.decl(metadata !1648)
  tail call void @llvm.experimental.noalias.scope.decl(metadata !1650)
  tail call void @llvm.experimental.noalias.scope.decl(metadata !1653)
  %_3.i.i1 = load i32, ptr %0, align 4, !alias.scope !1655, !noalias !1656, !noundef !27
  %_4.i.i2 = load i32, ptr %gep, align 4, !alias.scope !1656, !noalias !1655, !noundef !27
  %_0.i.i3 = icmp slt i32 %_3.i.i1, %_4.i.i2
  br i1 %_0.i.i3, label %_ZN4core5slice4sort6shared17find_existing_run17h39f7b31a0d6c7a02E.exit, label %bb15.i

bb15.i:                                           ; preds = %bb12.i
  %1 = add nuw nsw i64 %run_len.sroa.0.0.i11, 1
  %exitcond.not = icmp eq i64 %1, %v.1
  br i1 %exitcond.not, label %_ZN4core5slice4sort6shared17find_existing_run17h39f7b31a0d6c7a02E.exit, label %bb12.i

bb5.i:                                            ; preds = %bb5.i.preheader, %bb7.i
  %run_len.sroa.0.1.i14 = phi i64 [ %3, %bb7.i ], [ 2, %bb5.i.preheader ]
  %2 = getelementptr inbounds nuw i32, ptr %v.0, i64 %run_len.sroa.0.1.i14
  %gep25 = getelementptr i32, ptr %invariant.gep24, i64 %run_len.sroa.0.1.i14
  tail call void @llvm.experimental.noalias.scope.decl(metadata !1657)
  tail call void @llvm.experimental.noalias.scope.decl(metadata !1660)
  tail call void @llvm.experimental.noalias.scope.decl(metadata !1662)
  tail call void @llvm.experimental.noalias.scope.decl(metadata !1665)
  %_3.i.i4 = load i32, ptr %2, align 4, !alias.scope !1667, !noalias !1668, !noundef !27
  %_4.i.i5 = load i32, ptr %gep25, align 4, !alias.scope !1668, !noalias !1667, !noundef !27
  %_0.i.i6 = icmp slt i32 %_3.i.i4, %_4.i.i5
  br i1 %_0.i.i6, label %bb7.i, label %_ZN4core5slice4sort6shared17find_existing_run17h39f7b31a0d6c7a02E.exit

bb7.i:                                            ; preds = %bb5.i
  %3 = add nuw nsw i64 %run_len.sroa.0.1.i14, 1
  %exitcond19.not = icmp eq i64 %3, %v.1
  br i1 %exitcond19.not, label %_ZN4core5slice4sort6shared17find_existing_run17h39f7b31a0d6c7a02E.exit, label %bb5.i

_ZN4core5slice4sort6shared17find_existing_run17h39f7b31a0d6c7a02E.exit: ; preds = %bb12.i, %bb15.i, %bb5.i, %bb7.i, %bb11.i.preheader, %bb4.i.preheader, %bb1
  %_0.sroa.3.0.i = phi i1 [ false, %bb1 ], [ true, %bb4.i.preheader ], [ false, %bb11.i.preheader ], [ true, %bb7.i ], [ true, %bb5.i ], [ false, %bb15.i ], [ false, %bb12.i ]
  %_0.sroa.0.0.i = phi i64 [ %v.1, %bb1 ], [ 2, %bb4.i.preheader ], [ 2, %bb11.i.preheader ], [ %run_len.sroa.0.1.i14, %bb5.i ], [ %v.1, %bb7.i ], [ %run_len.sroa.0.0.i11, %bb12.i ], [ %v.1, %bb15.i ]
  %_12 = icmp samesign ule i64 %_0.sroa.0.0.i, %v.1
  tail call void @llvm.assume(i1 %_12)
  %_13.not = icmp ult i64 %_0.sroa.0.0.i, %min_good_run_len
  br i1 %_13.not, label %bb7, label %bb3

bb3:                                              ; preds = %_ZN4core5slice4sort6shared17find_existing_run17h39f7b31a0d6c7a02E.exit
  br i1 %_0.sroa.3.0.i, label %bb14, label %bb5

bb11:                                             ; preds = %bb7
  %_0.sroa.0.0.i7 = tail call noundef i64 @llvm.umin.i64(i64 range(i64 -2305843009213693950, 2305843009213693952) %v.1, i64 %min_good_run_len)
  %_36 = shl nuw nsw i64 %_0.sroa.0.0.i7, 1
  br label %bb12

bb8:                                              ; preds = %bb7
  %_0.sroa.0.0.i8 = tail call noundef i64 @llvm.umin.i64(i64 range(i64 -2305843009213693950, 2305843009213693952) %v.1, i64 32)
; call core::slice::sort::stable::quicksort::quicksort
  tail call void @_ZN4core5slice4sort6stable9quicksort9quicksort17h9d5b439ecfb40412E(ptr noalias noundef nonnull align 4 %v.0, i64 noundef %_0.sroa.0.0.i8, ptr noalias noundef nonnull align 4 %scratch.0, i64 noundef %scratch.1, i32 noundef 0, ptr noalias noundef readonly align 4 captures(address, read_provenance) dereferenceable_or_null(4) null, ptr noalias noundef nonnull align 1 %is_less) #27
  %_35 = shl nuw nsw i64 %_0.sroa.0.0.i8, 1
  %_34 = or disjoint i64 %_35, 1
  br label %bb12

bb12:                                             ; preds = %bb5, %bb8, %bb11
  %_0.sroa.0.0 = phi i64 [ %_26, %bb5 ], [ %_34, %bb8 ], [ %_36, %bb11 ]
  ret i64 %_0.sroa.0.0

bb5.loopexit.unr-lcssa:                           ; preds = %bb5.i.i, %bb5.i.i.preheader
  %i.sroa.0.016.i.i.unr = phi i64 [ 0, %bb5.i.i.preheader ], [ %15, %bb5.i.i ]
  %4 = and i64 %_0.sroa.0.0.i, 2
  %lcmp.mod.not = icmp eq i64 %4, 0
  br i1 %lcmp.mod.not, label %bb5, label %bb5.i.i.epil

bb5.i.i.epil:                                     ; preds = %bb5.loopexit.unr-lcssa
  %5 = xor i64 %i.sroa.0.016.i.i.unr, -1
  %x.i.i.epil = getelementptr inbounds nuw i32, ptr %v.0, i64 %i.sroa.0.016.i.i.unr
  %y.i.i.epil = getelementptr i32, ptr %end.i, i64 %5
  %6 = load i32, ptr %x.i.i.epil, align 4, !alias.scope !1669, !noalias !1674, !noundef !27
  %7 = load i32, ptr %y.i.i.epil, align 4, !alias.scope !1676, !noalias !1677
  store i32 %7, ptr %x.i.i.epil, align 4, !alias.scope !1669, !noalias !1674
  store i32 %6, ptr %y.i.i.epil, align 4, !alias.scope !1676, !noalias !1677
  br label %bb5

bb5:                                              ; preds = %bb5.i.i.epil, %bb5.loopexit.unr-lcssa, %bb14, %bb3
  %_27 = shl nuw nsw i64 %_0.sroa.0.0.i, 1
  %_26 = or disjoint i64 %_27, 1
  br label %bb12

bb14:                                             ; preds = %bb3
  %half_len2.i = lshr i64 %_0.sroa.0.0.i, 1
  %end.i = getelementptr inbounds nuw i32, ptr %v.0, i64 %_0.sroa.0.0.i
  tail call void @llvm.experimental.noalias.scope.decl(metadata !1677)
  tail call void @llvm.experimental.noalias.scope.decl(metadata !1674)
  %_915.not.i.i = icmp samesign ult i64 %_0.sroa.0.0.i, 2
  br i1 %_915.not.i.i, label %bb5, label %bb5.i.i.preheader

bb5.i.i.preheader:                                ; preds = %bb14
  %8 = icmp eq i64 %half_len2.i, 1
  br i1 %8, label %bb5.loopexit.unr-lcssa, label %bb5.i.i.preheader.new

bb5.i.i.preheader.new:                            ; preds = %bb5.i.i.preheader
  %unroll_iter = and i64 %half_len2.i, 9223372036854775806
  %invariant.gep26 = getelementptr inbounds i8, ptr %v.0, i64 4
  br label %bb5.i.i

bb5.i.i:                                          ; preds = %bb5.i.i, %bb5.i.i.preheader.new
  %i.sroa.0.016.i.i = phi i64 [ 0, %bb5.i.i.preheader.new ], [ %15, %bb5.i.i ]
  %niter = phi i64 [ 0, %bb5.i.i.preheader.new ], [ %niter.next.1, %bb5.i.i ]
  %9 = xor i64 %i.sroa.0.016.i.i, -1
  %x.i.i = getelementptr inbounds nuw i32, ptr %v.0, i64 %i.sroa.0.016.i.i
  %y.i.i = getelementptr i32, ptr %end.i, i64 %9
  %10 = load i32, ptr %x.i.i, align 4, !alias.scope !1669, !noalias !1674, !noundef !27
  %11 = load i32, ptr %y.i.i, align 4, !alias.scope !1676, !noalias !1677
  store i32 %11, ptr %x.i.i, align 4, !alias.scope !1669, !noalias !1674
  store i32 %10, ptr %y.i.i, align 4, !alias.scope !1676, !noalias !1677
  %12 = xor i64 %i.sroa.0.016.i.i, -2
  %gep27 = getelementptr inbounds i32, ptr %invariant.gep26, i64 %i.sroa.0.016.i.i
  %y.i.i.1 = getelementptr i32, ptr %end.i, i64 %12
  %13 = load i32, ptr %gep27, align 4, !alias.scope !1669, !noalias !1674, !noundef !27
  %14 = load i32, ptr %y.i.i.1, align 4, !alias.scope !1676, !noalias !1677
  store i32 %14, ptr %gep27, align 4, !alias.scope !1669, !noalias !1674
  store i32 %13, ptr %y.i.i.1, align 4, !alias.scope !1676, !noalias !1677
  %15 = add nuw nsw i64 %i.sroa.0.016.i.i, 2
  %niter.next.1 = add i64 %niter, 2
  %niter.ncmp.1 = icmp eq i64 %niter.next.1, %unroll_iter
  br i1 %niter.ncmp.1, label %bb5.loopexit.unr-lcssa, label %bb5.i.i
}

; core::slice::sort::stable::drift::create_run
; Function Attrs: nonlazybind uwtable
define noundef range(i64 0, -1) i64 @_ZN4core5slice4sort6stable5drift10create_run17hb7464aa07d7d410dE(ptr noalias noundef nonnull align 4 %v.0, i64 noundef range(i64 0, 2305843009213693952) %v.1, ptr noalias noundef nonnull align 4 %scratch.0, i64 noundef range(i64 0, 2305843009213693952) %scratch.1, i64 noundef %min_good_run_len, i1 noundef zeroext %eager_sort, ptr noalias noundef align 8 dereferenceable(8) %is_less) unnamed_addr #3 personality ptr @rust_eh_personality {
start:
  %_7.not = icmp ult i64 %v.1, %min_good_run_len
  br i1 %_7.not, label %bb7, label %bb1

bb7:                                              ; preds = %_ZN4core5slice4sort6shared17find_existing_run17ha86d917ca375ab9aE.exit, %start
  br i1 %eager_sort, label %bb8, label %bb11

bb1:                                              ; preds = %start
  %_4.i = icmp samesign ult i64 %v.1, 2
  br i1 %_4.i, label %_ZN4core5slice4sort6shared17find_existing_run17ha86d917ca375ab9aE.exit, label %bb2.i

bb2.i:                                            ; preds = %bb1
  %_28.i = getelementptr inbounds nuw i8, ptr %v.0, i64 4
  tail call void @llvm.experimental.noalias.scope.decl(metadata !1678)
  tail call void @llvm.experimental.noalias.scope.decl(metadata !1681)
  tail call void @llvm.experimental.noalias.scope.decl(metadata !1683)
  tail call void @llvm.experimental.noalias.scope.decl(metadata !1686)
  tail call void @llvm.experimental.noalias.scope.decl(metadata !1688)
  tail call void @llvm.experimental.noalias.scope.decl(metadata !1691)
  tail call void @llvm.experimental.noalias.scope.decl(metadata !1693)
  tail call void @llvm.experimental.noalias.scope.decl(metadata !1696)
  %_3.i.i.i.i = load i32, ptr %_28.i, align 4, !alias.scope !1698, !noalias !1699, !noundef !27
  %_4.i.i.i.i = load i32, ptr %v.0, align 4, !alias.scope !1699, !noalias !1698, !noundef !27
  %_0.i = icmp slt i32 %_3.i.i.i.i, %_4.i.i.i.i
  %_10.i13.not = icmp eq i64 %v.1, 2
  br i1 %_0.i, label %bb4.i.preheader, label %bb11.i.preheader

bb11.i.preheader:                                 ; preds = %bb2.i
  br i1 %_10.i13.not, label %_ZN4core5slice4sort6shared17find_existing_run17ha86d917ca375ab9aE.exit, label %bb12.i.preheader

bb12.i.preheader:                                 ; preds = %bb11.i.preheader
  %invariant.gep = getelementptr i8, ptr %v.0, i64 -4
  br label %bb12.i

bb4.i.preheader:                                  ; preds = %bb2.i
  br i1 %_10.i13.not, label %_ZN4core5slice4sort6shared17find_existing_run17ha86d917ca375ab9aE.exit, label %bb5.i.preheader

bb5.i.preheader:                                  ; preds = %bb4.i.preheader
  %invariant.gep24 = getelementptr i8, ptr %v.0, i64 -4
  br label %bb5.i

bb12.i:                                           ; preds = %bb12.i.preheader, %bb15.i
  %run_len.sroa.0.0.i11 = phi i64 [ %1, %bb15.i ], [ 2, %bb12.i.preheader ]
  %0 = getelementptr inbounds nuw i32, ptr %v.0, i64 %run_len.sroa.0.0.i11
  %gep = getelementptr i32, ptr %invariant.gep, i64 %run_len.sroa.0.0.i11
  tail call void @llvm.experimental.noalias.scope.decl(metadata !1700)
  tail call void @llvm.experimental.noalias.scope.decl(metadata !1703)
  tail call void @llvm.experimental.noalias.scope.decl(metadata !1705)
  tail call void @llvm.experimental.noalias.scope.decl(metadata !1708)
  tail call void @llvm.experimental.noalias.scope.decl(metadata !1710)
  tail call void @llvm.experimental.noalias.scope.decl(metadata !1713)
  tail call void @llvm.experimental.noalias.scope.decl(metadata !1715)
  tail call void @llvm.experimental.noalias.scope.decl(metadata !1718)
  %_3.i.i.i.i1 = load i32, ptr %0, align 4, !alias.scope !1720, !noalias !1721, !noundef !27
  %_4.i.i.i.i2 = load i32, ptr %gep, align 4, !alias.scope !1721, !noalias !1720, !noundef !27
  %_0.i3 = icmp slt i32 %_3.i.i.i.i1, %_4.i.i.i.i2
  br i1 %_0.i3, label %_ZN4core5slice4sort6shared17find_existing_run17ha86d917ca375ab9aE.exit, label %bb15.i

bb15.i:                                           ; preds = %bb12.i
  %1 = add nuw nsw i64 %run_len.sroa.0.0.i11, 1
  %exitcond.not = icmp eq i64 %1, %v.1
  br i1 %exitcond.not, label %_ZN4core5slice4sort6shared17find_existing_run17ha86d917ca375ab9aE.exit, label %bb12.i

bb5.i:                                            ; preds = %bb5.i.preheader, %bb7.i
  %run_len.sroa.0.1.i14 = phi i64 [ %3, %bb7.i ], [ 2, %bb5.i.preheader ]
  %2 = getelementptr inbounds nuw i32, ptr %v.0, i64 %run_len.sroa.0.1.i14
  %gep25 = getelementptr i32, ptr %invariant.gep24, i64 %run_len.sroa.0.1.i14
  tail call void @llvm.experimental.noalias.scope.decl(metadata !1722)
  tail call void @llvm.experimental.noalias.scope.decl(metadata !1725)
  tail call void @llvm.experimental.noalias.scope.decl(metadata !1727)
  tail call void @llvm.experimental.noalias.scope.decl(metadata !1730)
  tail call void @llvm.experimental.noalias.scope.decl(metadata !1732)
  tail call void @llvm.experimental.noalias.scope.decl(metadata !1735)
  tail call void @llvm.experimental.noalias.scope.decl(metadata !1737)
  tail call void @llvm.experimental.noalias.scope.decl(metadata !1740)
  %_3.i.i.i.i4 = load i32, ptr %2, align 4, !alias.scope !1742, !noalias !1743, !noundef !27
  %_4.i.i.i.i5 = load i32, ptr %gep25, align 4, !alias.scope !1743, !noalias !1742, !noundef !27
  %_0.i6 = icmp slt i32 %_3.i.i.i.i4, %_4.i.i.i.i5
  br i1 %_0.i6, label %bb7.i, label %_ZN4core5slice4sort6shared17find_existing_run17ha86d917ca375ab9aE.exit

bb7.i:                                            ; preds = %bb5.i
  %3 = add nuw nsw i64 %run_len.sroa.0.1.i14, 1
  %exitcond19.not = icmp eq i64 %3, %v.1
  br i1 %exitcond19.not, label %_ZN4core5slice4sort6shared17find_existing_run17ha86d917ca375ab9aE.exit, label %bb5.i

_ZN4core5slice4sort6shared17find_existing_run17ha86d917ca375ab9aE.exit: ; preds = %bb12.i, %bb15.i, %bb5.i, %bb7.i, %bb11.i.preheader, %bb4.i.preheader, %bb1
  %_0.sroa.3.0.i = phi i1 [ false, %bb1 ], [ true, %bb4.i.preheader ], [ false, %bb11.i.preheader ], [ true, %bb7.i ], [ true, %bb5.i ], [ false, %bb15.i ], [ false, %bb12.i ]
  %_0.sroa.0.0.i = phi i64 [ %v.1, %bb1 ], [ 2, %bb4.i.preheader ], [ 2, %bb11.i.preheader ], [ %run_len.sroa.0.1.i14, %bb5.i ], [ %v.1, %bb7.i ], [ %run_len.sroa.0.0.i11, %bb12.i ], [ %v.1, %bb15.i ]
  %_12 = icmp samesign ule i64 %_0.sroa.0.0.i, %v.1
  tail call void @llvm.assume(i1 %_12)
  %_13.not = icmp ult i64 %_0.sroa.0.0.i, %min_good_run_len
  br i1 %_13.not, label %bb7, label %bb3

bb3:                                              ; preds = %_ZN4core5slice4sort6shared17find_existing_run17ha86d917ca375ab9aE.exit
  br i1 %_0.sroa.3.0.i, label %bb14, label %bb5

bb11:                                             ; preds = %bb7
  %_0.sroa.0.0.i7 = tail call noundef i64 @llvm.umin.i64(i64 range(i64 -2305843009213693950, 2305843009213693952) %v.1, i64 %min_good_run_len)
  %_36 = shl nuw nsw i64 %_0.sroa.0.0.i7, 1
  br label %bb12

bb8:                                              ; preds = %bb7
  %_0.sroa.0.0.i8 = tail call noundef i64 @llvm.umin.i64(i64 range(i64 -2305843009213693950, 2305843009213693952) %v.1, i64 32)
; call core::slice::sort::stable::quicksort::quicksort
  tail call void @_ZN4core5slice4sort6stable9quicksort9quicksort17h502944535356db49E(ptr noalias noundef nonnull align 4 %v.0, i64 noundef %_0.sroa.0.0.i8, ptr noalias noundef nonnull align 4 %scratch.0, i64 noundef %scratch.1, i32 noundef 0, ptr noalias noundef readonly align 4 captures(address, read_provenance) dereferenceable_or_null(4) null, ptr noalias noundef align 8 dereferenceable(8) %is_less) #27
  %_35 = shl nuw nsw i64 %_0.sroa.0.0.i8, 1
  %_34 = or disjoint i64 %_35, 1
  br label %bb12

bb12:                                             ; preds = %bb5, %bb8, %bb11
  %_0.sroa.0.0 = phi i64 [ %_26, %bb5 ], [ %_34, %bb8 ], [ %_36, %bb11 ]
  ret i64 %_0.sroa.0.0

bb5.loopexit.unr-lcssa:                           ; preds = %bb5.i.i, %bb5.i.i.preheader
  %i.sroa.0.016.i.i.unr = phi i64 [ 0, %bb5.i.i.preheader ], [ %15, %bb5.i.i ]
  %4 = and i64 %_0.sroa.0.0.i, 2
  %lcmp.mod.not = icmp eq i64 %4, 0
  br i1 %lcmp.mod.not, label %bb5, label %bb5.i.i.epil

bb5.i.i.epil:                                     ; preds = %bb5.loopexit.unr-lcssa
  %5 = xor i64 %i.sroa.0.016.i.i.unr, -1
  %x.i.i.epil = getelementptr inbounds nuw i32, ptr %v.0, i64 %i.sroa.0.016.i.i.unr
  %y.i.i.epil = getelementptr i32, ptr %end.i, i64 %5
  %6 = load i32, ptr %x.i.i.epil, align 4, !alias.scope !1744, !noalias !1749, !noundef !27
  %7 = load i32, ptr %y.i.i.epil, align 4, !alias.scope !1751, !noalias !1752
  store i32 %7, ptr %x.i.i.epil, align 4, !alias.scope !1744, !noalias !1749
  store i32 %6, ptr %y.i.i.epil, align 4, !alias.scope !1751, !noalias !1752
  br label %bb5

bb5:                                              ; preds = %bb5.i.i.epil, %bb5.loopexit.unr-lcssa, %bb14, %bb3
  %_27 = shl nuw nsw i64 %_0.sroa.0.0.i, 1
  %_26 = or disjoint i64 %_27, 1
  br label %bb12

bb14:                                             ; preds = %bb3
  %half_len2.i = lshr i64 %_0.sroa.0.0.i, 1
  %end.i = getelementptr inbounds nuw i32, ptr %v.0, i64 %_0.sroa.0.0.i
  tail call void @llvm.experimental.noalias.scope.decl(metadata !1752)
  tail call void @llvm.experimental.noalias.scope.decl(metadata !1749)
  %_915.not.i.i = icmp samesign ult i64 %_0.sroa.0.0.i, 2
  br i1 %_915.not.i.i, label %bb5, label %bb5.i.i.preheader

bb5.i.i.preheader:                                ; preds = %bb14
  %8 = icmp eq i64 %half_len2.i, 1
  br i1 %8, label %bb5.loopexit.unr-lcssa, label %bb5.i.i.preheader.new

bb5.i.i.preheader.new:                            ; preds = %bb5.i.i.preheader
  %unroll_iter = and i64 %half_len2.i, 9223372036854775806
  %invariant.gep26 = getelementptr inbounds i8, ptr %v.0, i64 4
  br label %bb5.i.i

bb5.i.i:                                          ; preds = %bb5.i.i, %bb5.i.i.preheader.new
  %i.sroa.0.016.i.i = phi i64 [ 0, %bb5.i.i.preheader.new ], [ %15, %bb5.i.i ]
  %niter = phi i64 [ 0, %bb5.i.i.preheader.new ], [ %niter.next.1, %bb5.i.i ]
  %9 = xor i64 %i.sroa.0.016.i.i, -1
  %x.i.i = getelementptr inbounds nuw i32, ptr %v.0, i64 %i.sroa.0.016.i.i
  %y.i.i = getelementptr i32, ptr %end.i, i64 %9
  %10 = load i32, ptr %x.i.i, align 4, !alias.scope !1744, !noalias !1749, !noundef !27
  %11 = load i32, ptr %y.i.i, align 4, !alias.scope !1751, !noalias !1752
  store i32 %11, ptr %x.i.i, align 4, !alias.scope !1744, !noalias !1749
  store i32 %10, ptr %y.i.i, align 4, !alias.scope !1751, !noalias !1752
  %12 = xor i64 %i.sroa.0.016.i.i, -2
  %gep27 = getelementptr inbounds i32, ptr %invariant.gep26, i64 %i.sroa.0.016.i.i
  %y.i.i.1 = getelementptr i32, ptr %end.i, i64 %12
  %13 = load i32, ptr %gep27, align 4, !alias.scope !1744, !noalias !1749, !noundef !27
  %14 = load i32, ptr %y.i.i.1, align 4, !alias.scope !1751, !noalias !1752
  store i32 %14, ptr %gep27, align 4, !alias.scope !1744, !noalias !1749
  store i32 %13, ptr %y.i.i.1, align 4, !alias.scope !1751, !noalias !1752
  %15 = add nuw nsw i64 %i.sroa.0.016.i.i, 2
  %niter.next.1 = add i64 %niter, 2
  %niter.ncmp.1 = icmp eq i64 %niter.next.1, %unroll_iter
  br i1 %niter.ncmp.1, label %bb5.loopexit.unr-lcssa, label %bb5.i.i
}

; core::slice::sort::stable::drift::stable_quicksort
; Function Attrs: nonlazybind uwtable
define void @_ZN4core5slice4sort6stable5drift16stable_quicksort17h410dacb8fa24fa9bE(ptr noalias noundef nonnull align 4 %v.0, i64 noundef range(i64 0, 2305843009213693952) %v.1, ptr noalias noundef nonnull align 4 %scratch.0, i64 noundef range(i64 0, 2305843009213693952) %scratch.1, ptr noalias noundef align 8 dereferenceable(8) %is_less) unnamed_addr #3 {
start:
  %self = or i64 %v.1, 1
  %0 = tail call range(i64 3, 64) i64 @llvm.ctlz.i64(i64 %self, i1 true)
  %1 = trunc nuw nsw i64 %0 to i32
  %log = shl nuw nsw i32 %1, 1
  %limit = xor i32 %log, 126
; call core::slice::sort::stable::quicksort::quicksort
  tail call void @_ZN4core5slice4sort6stable9quicksort9quicksort17h502944535356db49E(ptr noalias noundef nonnull align 4 %v.0, i64 noundef %v.1, ptr noalias noundef nonnull align 4 %scratch.0, i64 noundef %scratch.1, i32 noundef %limit, ptr noalias noundef readonly align 4 captures(address, read_provenance) dereferenceable_or_null(4) null, ptr noalias noundef align 8 dereferenceable(8) %is_less) #27
  ret void
}

; core::slice::sort::stable::drift::stable_quicksort
; Function Attrs: nonlazybind uwtable
define void @_ZN4core5slice4sort6stable5drift16stable_quicksort17h6435ee805267fbceE(ptr noalias noundef nonnull align 4 %v.0, i64 noundef range(i64 0, 2305843009213693952) %v.1, ptr noalias noundef nonnull align 4 %scratch.0, i64 noundef range(i64 0, 2305843009213693952) %scratch.1, ptr noalias noundef nonnull align 1 %is_less) unnamed_addr #3 {
start:
  %self = or i64 %v.1, 1
  %0 = tail call range(i64 3, 64) i64 @llvm.ctlz.i64(i64 %self, i1 true)
  %1 = trunc nuw nsw i64 %0 to i32
  %log = shl nuw nsw i32 %1, 1
  %limit = xor i32 %log, 126
; call core::slice::sort::stable::quicksort::quicksort
  tail call void @_ZN4core5slice4sort6stable9quicksort9quicksort17h9d5b439ecfb40412E(ptr noalias noundef nonnull align 4 %v.0, i64 noundef %v.1, ptr noalias noundef nonnull align 4 %scratch.0, i64 noundef %scratch.1, i32 noundef %limit, ptr noalias noundef readonly align 4 captures(address, read_provenance) dereferenceable_or_null(4) null, ptr noalias noundef nonnull align 1 %is_less) #27
  ret void
}

; core::slice::sort::stable::drift::sort
; Function Attrs: nonlazybind uwtable
define void @_ZN4core5slice4sort6stable5drift4sort17h571b02cc474ffd6dE(ptr noalias noundef nonnull align 4 %v.0, i64 noundef range(i64 0, 2305843009213693952) %v.1, ptr noalias noundef nonnull align 4 %scratch.0, i64 noundef range(i64 0, 2305843009213693952) %scratch.1, i1 noundef zeroext %eager_sort, ptr noalias noundef align 8 dereferenceable(8) %is_less) unnamed_addr #3 personality ptr @rust_eh_personality {
start:
  %desired_depth_storage = alloca [66 x i8], align 1
  %run_storage = alloca [528 x i8], align 8
  %_6 = icmp samesign ult i64 %v.1, 2
  br i1 %_6, label %bb22, label %bb2

bb2:                                              ; preds = %start
  %d = udiv i64 4611686018427387904, %v.1
  %r = urem i64 4611686018427387904, %v.1
  %_73.not = icmp ne i64 %r, 0
  %0 = zext i1 %_73.not to i64
  %scale_factor.sroa.0.0 = add nuw nsw i64 %d, %0
  %_9 = icmp samesign ult i64 %v.1, 4097
  br i1 %_9, label %bb3, label %bb4

bb4:                                              ; preds = %bb2
; call core::slice::sort::stable::drift::sqrt_approx
  %1 = tail call noundef i64 @_ZN4core5slice4sort6stable5drift11sqrt_approx17h72a4dc1ae46294f4E(i64 noundef %v.1)
  br label %bb5

bb3:                                              ; preds = %bb2
  %_1135 = lshr i64 %v.1, 1
  %v1 = sub nsw i64 %v.1, %_1135
  %_0.sroa.0.0.i36 = tail call noundef i64 @llvm.umin.i64(i64 %v1, i64 64)
  br label %bb5

bb5:                                              ; preds = %bb3, %bb4
  %min_good_run_len.sroa.0.0 = phi i64 [ %_0.sroa.0.0.i36, %bb3 ], [ %1, %bb4 ]
  call void @llvm.lifetime.start.p0(i64 528, ptr nonnull %run_storage)
  call void @llvm.lifetime.start.p0(i64 66, ptr nonnull %desired_depth_storage)
  br label %bb6

bb6:                                              ; preds = %bb19, %bb5
  %prev_run.sroa.0.0 = phi i64 [ 1, %bb5 ], [ %next_run.sroa.0.0, %bb19 ]
  %scan_idx.sroa.0.0 = phi i64 [ 0, %bb5 ], [ %22, %bb19 ]
  %stack_len.sroa.0.0 = phi i64 [ 0, %bb5 ], [ %21, %bb19 ]
  %_22 = icmp ult i64 %scan_idx.sroa.0.0, %v.1
  br i1 %_22, label %bb30, label %bb10

bb10:                                             ; preds = %bb6, %bb30
  %desired_depth.sroa.0.0 = phi i8 [ %4, %bb30 ], [ 0, %bb6 ]
  %next_run.sroa.0.0 = phi i64 [ %2, %bb30 ], [ 1, %bb6 ]
  %_3748 = icmp ugt i64 %stack_len.sroa.0.0, 1
  br i1 %_3748, label %bb12.lr.ph, label %bb17

bb12.lr.ph:                                       ; preds = %bb10
  %v_end.i = getelementptr inbounds nuw i32, ptr %v.0, i64 %scan_idx.sroa.0.0
  br label %bb12

bb30:                                             ; preds = %bb6
  %new_len = sub nuw nsw i64 %v.1, %scan_idx.sroa.0.0
  %_82 = getelementptr inbounds nuw i32, ptr %v.0, i64 %scan_idx.sroa.0.0
; call core::slice::sort::stable::drift::create_run
  %2 = tail call noundef i64 @_ZN4core5slice4sort6stable5drift10create_run17hb7464aa07d7d410dE(ptr noalias noundef nonnull align 4 %_82, i64 noundef %new_len, ptr noalias noundef nonnull align 4 %scratch.0, i64 noundef %scratch.1, i64 noundef %min_good_run_len.sroa.0.0, i1 noundef zeroext %eager_sort, ptr noalias noundef align 8 dereferenceable(8) %is_less)
  %_31 = lshr i64 %prev_run.sroa.0.0, 1
  %_35 = lshr i64 %2, 1
  %factor = shl i64 %scan_idx.sroa.0.0, 1
  %x = sub i64 %factor, %_31
  %reass.add = shl i64 %scan_idx.sroa.0.0, 1
  %y = add i64 %_35, %reass.add
  %_90 = mul i64 %x, %scale_factor.sroa.0.0
  %_91 = mul i64 %y, %scale_factor.sroa.0.0
  %self4 = xor i64 %_91, %_90
  %3 = tail call range(i64 0, 65) i64 @llvm.ctlz.i64(i64 %self4, i1 false)
  %4 = trunc nuw nsw i64 %3 to i8
  br label %bb10

bb12:                                             ; preds = %bb12.lr.ph, %_ZN4core5slice4sort6stable5drift13logical_merge17hec67c3e6e6e4b3b3E.exit
  %stack_len.sroa.0.150 = phi i64 [ %stack_len.sroa.0.0, %bb12.lr.ph ], [ %count, %_ZN4core5slice4sort6stable5drift13logical_merge17hec67c3e6e6e4b3b3E.exit ]
  %prev_run.sroa.0.149 = phi i64 [ %prev_run.sroa.0.0, %bb12.lr.ph ], [ %_0.sroa.0.0.i, %_ZN4core5slice4sort6stable5drift13logical_merge17hec67c3e6e6e4b3b3E.exit ]
  %count = add i64 %stack_len.sroa.0.150, -1
  %_41 = getelementptr inbounds nuw i8, ptr %desired_depth_storage, i64 %count
  %_40 = load i8, ptr %_41, align 1, !noundef !27
  %_39.not = icmp ult i8 %_40, %desired_depth.sroa.0.0
  br i1 %_39.not, label %bb17, label %bb13

bb17:                                             ; preds = %_ZN4core5slice4sort6stable5drift13logical_merge17hec67c3e6e6e4b3b3E.exit, %bb12, %bb10
  %prev_run.sroa.0.1.lcssa = phi i64 [ %prev_run.sroa.0.0, %bb10 ], [ %_0.sroa.0.0.i, %_ZN4core5slice4sort6stable5drift13logical_merge17hec67c3e6e6e4b3b3E.exit ], [ %prev_run.sroa.0.149, %bb12 ]
  %stack_len.sroa.0.1.lcssa = phi i64 [ %stack_len.sroa.0.0, %bb10 ], [ 1, %_ZN4core5slice4sort6stable5drift13logical_merge17hec67c3e6e6e4b3b3E.exit ], [ %stack_len.sroa.0.150, %bb12 ]
  %_59 = getelementptr inbounds nuw i64, ptr %run_storage, i64 %stack_len.sroa.0.1.lcssa
  store i64 %prev_run.sroa.0.1.lcssa, ptr %_59, align 8
  %_61 = getelementptr inbounds nuw i8, ptr %desired_depth_storage, i64 %stack_len.sroa.0.1.lcssa
  store i8 %desired_depth.sroa.0.0, ptr %_61, align 1
  br i1 %_22, label %bb19, label %bb18

bb13:                                             ; preds = %bb12
  %_46 = getelementptr inbounds nuw i64, ptr %run_storage, i64 %count
  %left10 = load i64, ptr %_46, align 8, !noundef !27
  %_50 = lshr i64 %left10, 1
  %_51 = lshr i64 %prev_run.sroa.0.149, 1
  %merged_len = add nuw i64 %_50, %_51
  %merge_start_idx = sub i64 %scan_idx.sroa.0.0, %merged_len
  %_98 = getelementptr inbounds nuw i32, ptr %v.0, i64 %merge_start_idx
  %can_fit_in_scratch.i = icmp samesign ugt i64 %merged_len, %scratch.1
  %_22.i = and i64 %prev_run.sroa.0.149, 1
  %_10.not.i = icmp eq i64 %_22.i, 0
  %5 = or i64 %left10, %prev_run.sroa.0.149
  %6 = and i64 %5, 1
  %7 = icmp ne i64 %6, 0
  %or.cond2.i = or i1 %can_fit_in_scratch.i, %7
  br i1 %or.cond2.i, label %bb3.i, label %bb9.i

bb3.i:                                            ; preds = %bb13
  %_21.i = and i64 %left10, 1
  %_9.not.i = icmp eq i64 %_21.i, 0
  br i1 %_9.not.i, label %bb11.i, label %bb5.i

bb9.i:                                            ; preds = %bb13
  %_40.i = shl nuw nsw i64 %merged_len, 1
  br label %_ZN4core5slice4sort6stable5drift13logical_merge17hec67c3e6e6e4b3b3E.exit

bb5.i:                                            ; preds = %bb11.i, %bb3.i
  br i1 %_10.not.i, label %bb16.i, label %bb7.i

bb11.i:                                           ; preds = %bb3.i
  %self.i = or i64 %_50, 1
  %8 = tail call range(i64 3, 64) i64 @llvm.ctlz.i64(i64 %self.i, i1 true)
  %9 = trunc nuw nsw i64 %8 to i32
  %log.i = shl nuw nsw i32 %9, 1
  %limit.i = xor i32 %log.i, 126
; call core::slice::sort::stable::quicksort::quicksort
  tail call void @_ZN4core5slice4sort6stable9quicksort9quicksort17h502944535356db49E(ptr noalias noundef nonnull align 4 %_98, i64 noundef range(i64 0, 2305843009213693952) %_50, ptr noalias noundef nonnull align 4 %scratch.0, i64 noundef range(i64 0, 2305843009213693952) %scratch.1, i32 noundef %limit.i, ptr noalias noundef readonly align 4 captures(address, read_provenance) dereferenceable_or_null(4) null, ptr noalias noundef nonnull align 8 dereferenceable(8) %is_less) #27
  br label %bb5.i

bb7.i:                                            ; preds = %bb16.i, %bb5.i
  tail call void @llvm.experimental.noalias.scope.decl(metadata !1753)
  tail call void @llvm.experimental.noalias.scope.decl(metadata !1756)
  %_6.i = icmp ult i64 %left10, 2
  %_7.i = icmp ult i64 %prev_run.sroa.0.149, 2
  %or.cond.i = or i1 %_7.i, %_6.i
  br i1 %or.cond.i, label %_ZN4core5slice4sort6stable5merge5merge17h9eb89929781f97feE.exit, label %bb2.i

bb2.i:                                            ; preds = %bb7.i
  %_0.sroa.0.0.i.i = tail call i64 @llvm.umin.i64(i64 %_51, i64 %_50)
  %_8.i = icmp samesign ult i64 %scratch.1, %_0.sroa.0.0.i.i
  br i1 %_8.i, label %_ZN4core5slice4sort6stable5merge5merge17h9eb89929781f97feE.exit, label %bb5.i37

bb5.i37:                                          ; preds = %bb2.i
  %v_mid.i = getelementptr inbounds nuw i32, ptr %_98, i64 %_50
  %left_is_shorter.not.i = icmp samesign ugt i64 %_50, %_51
  %spec.select.i = select i1 %left_is_shorter.not.i, ptr %v_mid.i, ptr %_98
  %10 = shl nuw nsw i64 %_0.sroa.0.0.i.i, 2
  tail call void @llvm.memcpy.p0.p0.i64(ptr nonnull align 4 %scratch.0, ptr nonnull align 4 %spec.select.i, i64 %10, i1 false), !alias.scope !1758
  %_22.i38 = getelementptr inbounds nuw i8, ptr %scratch.0, i64 %10
  br i1 %left_is_shorter.not.i, label %bb1.i.i, label %bb3.i.i

bb1.i.i:                                          ; preds = %bb5.i37, %bb1.i.i
  %_2110.i.i = phi ptr [ %_21.i.i, %bb1.i.i ], [ %_22.i38, %bb5.i37 ]
  %_188.i.i = phi ptr [ %_18.i.i, %bb1.i.i ], [ %spec.select.i, %bb5.i37 ]
  %out.sroa.0.0.i.i = phi ptr [ %13, %bb1.i.i ], [ %v_end.i, %bb5.i37 ]
  %11 = getelementptr inbounds i8, ptr %_188.i.i, i64 -4
  %12 = getelementptr inbounds i8, ptr %_2110.i.i, i64 -4
  %13 = getelementptr inbounds i8, ptr %out.sroa.0.0.i.i, i64 -4
  tail call void @llvm.experimental.noalias.scope.decl(metadata !1759)
  tail call void @llvm.experimental.noalias.scope.decl(metadata !1762)
  tail call void @llvm.experimental.noalias.scope.decl(metadata !1764)
  tail call void @llvm.experimental.noalias.scope.decl(metadata !1767)
  tail call void @llvm.experimental.noalias.scope.decl(metadata !1769)
  tail call void @llvm.experimental.noalias.scope.decl(metadata !1772)
  tail call void @llvm.experimental.noalias.scope.decl(metadata !1774)
  tail call void @llvm.experimental.noalias.scope.decl(metadata !1777)
  %_3.i.i.i.i.i.i = load i32, ptr %12, align 4, !alias.scope !1779, !noalias !1780, !noundef !27
  %_4.i.i.i.i.i.i = load i32, ptr %11, align 4, !alias.scope !1783, !noalias !1784, !noundef !27
  %_0.i.i.i = icmp slt i32 %_3.i.i.i.i.i.i, %_4.i.i.i.i.i.i
  %14 = tail call i32 @llvm.smax.i32(i32 %_3.i.i.i.i.i.i, i32 %_4.i.i.i.i.i.i)
  store i32 %14, ptr %13, align 4, !alias.scope !1753, !noalias !1785
  %_20.i.i = xor i1 %_0.i.i.i, true
  %count.i.i = zext i1 %_20.i.i to i64
  %_18.i.i = getelementptr inbounds nuw i32, ptr %11, i64 %count.i.i
  %count4.i.i = zext i1 %_0.i.i.i to i64
  %_21.i.i = getelementptr inbounds nuw i32, ptr %12, i64 %count4.i.i
  %_23.i.i = icmp eq ptr %_18.i.i, %_98
  %_26.i.i = icmp eq ptr %_21.i.i, %scratch.0
  %or.cond.i.i = select i1 %_23.i.i, i1 true, i1 %_26.i.i
  br i1 %or.cond.i.i, label %bb16.i40, label %bb1.i.i

bb3.i.i:                                          ; preds = %bb5.i37, %bb3.i.i
  %_2511.i.i = phi ptr [ %_25.i.i, %bb3.i.i ], [ %spec.select.i, %bb5.i37 ]
  %right.sroa.0.010.i.i = phi ptr [ %_23.i17.i, %bb3.i.i ], [ %v_mid.i, %bb5.i37 ]
  %_2059.i.i = phi ptr [ %_20.i16.i, %bb3.i.i ], [ %scratch.0, %bb5.i37 ]
  tail call void @llvm.experimental.noalias.scope.decl(metadata !1786)
  tail call void @llvm.experimental.noalias.scope.decl(metadata !1789)
  tail call void @llvm.experimental.noalias.scope.decl(metadata !1791)
  tail call void @llvm.experimental.noalias.scope.decl(metadata !1794)
  tail call void @llvm.experimental.noalias.scope.decl(metadata !1796)
  tail call void @llvm.experimental.noalias.scope.decl(metadata !1799)
  tail call void @llvm.experimental.noalias.scope.decl(metadata !1801)
  tail call void @llvm.experimental.noalias.scope.decl(metadata !1804)
  %_3.i.i.i.i.i12.i = load i32, ptr %right.sroa.0.010.i.i, align 4, !alias.scope !1806, !noalias !1807, !noundef !27
  %_4.i.i.i.i.i13.i = load i32, ptr %_2059.i.i, align 4, !alias.scope !1810, !noalias !1811, !noundef !27
  %_0.i.i14.i = icmp slt i32 %_3.i.i.i.i.i12.i, %_4.i.i.i.i.i13.i
  %consume_left.i.i = xor i1 %_0.i.i14.i, true
  %15 = tail call i32 @llvm.smin.i32(i32 %_3.i.i.i.i.i12.i, i32 %_4.i.i.i.i.i13.i)
  store i32 %15, ptr %_2511.i.i, align 4, !alias.scope !1753, !noalias !1812
  %count.i15.i = zext i1 %consume_left.i.i to i64
  %_20.i16.i = getelementptr inbounds nuw i32, ptr %_2059.i.i, i64 %count.i15.i
  %count2.i.i = zext i1 %_0.i.i14.i to i64
  %_23.i17.i = getelementptr inbounds nuw i32, ptr %right.sroa.0.010.i.i, i64 %count2.i.i
  %_25.i.i = getelementptr inbounds nuw i8, ptr %_2511.i.i, i64 4
  %_7.i.i = icmp ne ptr %_20.i16.i, %_22.i38
  %_10.i.i = icmp ne ptr %_23.i17.i, %v_end.i
  %or.cond.i18.i = select i1 %_7.i.i, i1 %_10.i.i, i1 false
  br i1 %or.cond.i18.i, label %bb3.i.i, label %bb16.i40

bb16.i40:                                         ; preds = %bb3.i.i, %bb1.i.i
  %merge_state.sroa.13.0.i = phi ptr [ %_18.i.i, %bb1.i.i ], [ %_25.i.i, %bb3.i.i ]
  %merge_state.sroa.7.0.i = phi ptr [ %_21.i.i, %bb1.i.i ], [ %_22.i38, %bb3.i.i ]
  %merge_state.sroa.0.0.i = phi ptr [ %scratch.0, %bb1.i.i ], [ %_20.i16.i, %bb3.i.i ]
  %16 = ptrtoint ptr %merge_state.sroa.7.0.i to i64
  %17 = ptrtoint ptr %merge_state.sroa.0.0.i to i64
  %18 = sub nuw i64 %16, %17
  tail call void @llvm.memcpy.p0.p0.i64(ptr align 4 %merge_state.sroa.13.0.i, ptr align 4 %merge_state.sroa.0.0.i, i64 %18, i1 false), !alias.scope !1758, !noalias !1813
  br label %_ZN4core5slice4sort6stable5merge5merge17h9eb89929781f97feE.exit

_ZN4core5slice4sort6stable5merge5merge17h9eb89929781f97feE.exit: ; preds = %bb7.i, %bb2.i, %bb16.i40
  %_39.i = shl nuw nsw i64 %merged_len, 1
  %_38.i = or disjoint i64 %_39.i, 1
  br label %_ZN4core5slice4sort6stable5drift13logical_merge17hec67c3e6e6e4b3b3E.exit

bb16.i:                                           ; preds = %bb5.i
  %_37.i = getelementptr inbounds nuw i32, ptr %_98, i64 %_50
  %self.i41 = or i64 %_51, 1
  %19 = tail call range(i64 3, 64) i64 @llvm.ctlz.i64(i64 %self.i41, i1 true)
  %20 = trunc nuw nsw i64 %19 to i32
  %log.i42 = shl nuw nsw i32 %20, 1
  %limit.i43 = xor i32 %log.i42, 126
; call core::slice::sort::stable::quicksort::quicksort
  tail call void @_ZN4core5slice4sort6stable9quicksort9quicksort17h502944535356db49E(ptr noalias noundef nonnull align 4 %_37.i, i64 noundef range(i64 0, 2305843009213693952) %_51, ptr noalias noundef nonnull align 4 %scratch.0, i64 noundef range(i64 0, 2305843009213693952) %scratch.1, i32 noundef %limit.i43, ptr noalias noundef readonly align 4 captures(address, read_provenance) dereferenceable_or_null(4) null, ptr noalias noundef nonnull align 8 dereferenceable(8) %is_less) #27
  br label %bb7.i

_ZN4core5slice4sort6stable5drift13logical_merge17hec67c3e6e6e4b3b3E.exit: ; preds = %bb9.i, %_ZN4core5slice4sort6stable5merge5merge17h9eb89929781f97feE.exit
  %_0.sroa.0.0.i = phi i64 [ %_38.i, %_ZN4core5slice4sort6stable5merge5merge17h9eb89929781f97feE.exit ], [ %_40.i, %bb9.i ]
  %_37 = icmp ugt i64 %count, 1
  br i1 %_37, label %bb12, label %bb17

bb19:                                             ; preds = %bb17
  %21 = add i64 %stack_len.sroa.0.1.lcssa, 1
  %_65 = lshr i64 %next_run.sroa.0.0, 1
  %22 = add nuw i64 %_65, %scan_idx.sroa.0.0
  br label %bb6

bb18:                                             ; preds = %bb17
  %_99 = and i64 %prev_run.sroa.0.1.lcssa, 1
  %_66.not = icmp eq i64 %_99, 0
  br i1 %_66.not, label %bb20, label %bb21

bb20:                                             ; preds = %bb18
  %self.i44 = or i64 %v.1, 1
  %23 = tail call range(i64 3, 64) i64 @llvm.ctlz.i64(i64 %self.i44, i1 true)
  %24 = trunc nuw nsw i64 %23 to i32
  %log.i45 = shl nuw nsw i32 %24, 1
  %limit.i46 = xor i32 %log.i45, 126
; call core::slice::sort::stable::quicksort::quicksort
  tail call void @_ZN4core5slice4sort6stable9quicksort9quicksort17h502944535356db49E(ptr noalias noundef nonnull align 4 %v.0, i64 noundef range(i64 0, 2305843009213693952) %v.1, ptr noalias noundef nonnull align 4 %scratch.0, i64 noundef range(i64 0, 2305843009213693952) %scratch.1, i32 noundef %limit.i46, ptr noalias noundef readonly align 4 captures(address, read_provenance) dereferenceable_or_null(4) null, ptr noalias noundef align 8 dereferenceable(8) %is_less) #27
  br label %bb21

bb21:                                             ; preds = %bb20, %bb18
  call void @llvm.lifetime.end.p0(i64 66, ptr nonnull %desired_depth_storage)
  call void @llvm.lifetime.end.p0(i64 528, ptr nonnull %run_storage)
  br label %bb22

bb22:                                             ; preds = %start, %bb21
  ret void
}

; core::slice::sort::stable::drift::sort
; Function Attrs: nonlazybind uwtable
define void @_ZN4core5slice4sort6stable5drift4sort17hec4732253a130c5fE(ptr noalias noundef nonnull align 4 %v.0, i64 noundef range(i64 0, 2305843009213693952) %v.1, ptr noalias noundef nonnull align 4 %scratch.0, i64 noundef range(i64 0, 2305843009213693952) %scratch.1, i1 noundef zeroext %eager_sort, ptr noalias noundef nonnull align 1 %is_less) unnamed_addr #3 personality ptr @rust_eh_personality {
start:
  %desired_depth_storage = alloca [66 x i8], align 1
  %run_storage = alloca [528 x i8], align 8
  %_6 = icmp samesign ult i64 %v.1, 2
  br i1 %_6, label %bb22, label %bb2

bb2:                                              ; preds = %start
  %d = udiv i64 4611686018427387904, %v.1
  %r = urem i64 4611686018427387904, %v.1
  %_73.not = icmp ne i64 %r, 0
  %0 = zext i1 %_73.not to i64
  %scale_factor.sroa.0.0 = add nuw nsw i64 %d, %0
  %_9 = icmp samesign ult i64 %v.1, 4097
  br i1 %_9, label %bb3, label %bb4

bb4:                                              ; preds = %bb2
; call core::slice::sort::stable::drift::sqrt_approx
  %1 = tail call noundef i64 @_ZN4core5slice4sort6stable5drift11sqrt_approx17h72a4dc1ae46294f4E(i64 noundef %v.1)
  br label %bb5

bb3:                                              ; preds = %bb2
  %_1135 = lshr i64 %v.1, 1
  %v1 = sub nsw i64 %v.1, %_1135
  %_0.sroa.0.0.i36 = tail call noundef i64 @llvm.umin.i64(i64 %v1, i64 64)
  br label %bb5

bb5:                                              ; preds = %bb3, %bb4
  %min_good_run_len.sroa.0.0 = phi i64 [ %_0.sroa.0.0.i36, %bb3 ], [ %1, %bb4 ]
  call void @llvm.lifetime.start.p0(i64 528, ptr nonnull %run_storage)
  call void @llvm.lifetime.start.p0(i64 66, ptr nonnull %desired_depth_storage)
  br label %bb6

bb6:                                              ; preds = %bb19, %bb5
  %prev_run.sroa.0.0 = phi i64 [ 1, %bb5 ], [ %next_run.sroa.0.0, %bb19 ]
  %scan_idx.sroa.0.0 = phi i64 [ 0, %bb5 ], [ %22, %bb19 ]
  %stack_len.sroa.0.0 = phi i64 [ 0, %bb5 ], [ %21, %bb19 ]
  %_22 = icmp ult i64 %scan_idx.sroa.0.0, %v.1
  br i1 %_22, label %bb30, label %bb10

bb10:                                             ; preds = %bb6, %bb30
  %desired_depth.sroa.0.0 = phi i8 [ %4, %bb30 ], [ 0, %bb6 ]
  %next_run.sroa.0.0 = phi i64 [ %2, %bb30 ], [ 1, %bb6 ]
  %_3748 = icmp ugt i64 %stack_len.sroa.0.0, 1
  br i1 %_3748, label %bb12.lr.ph, label %bb17

bb12.lr.ph:                                       ; preds = %bb10
  %v_end.i = getelementptr inbounds nuw i32, ptr %v.0, i64 %scan_idx.sroa.0.0
  br label %bb12

bb30:                                             ; preds = %bb6
  %new_len = sub nuw nsw i64 %v.1, %scan_idx.sroa.0.0
  %_82 = getelementptr inbounds nuw i32, ptr %v.0, i64 %scan_idx.sroa.0.0
; call core::slice::sort::stable::drift::create_run
  %2 = tail call noundef i64 @_ZN4core5slice4sort6stable5drift10create_run17h1f71a871e3d2e9ddE(ptr noalias noundef nonnull align 4 %_82, i64 noundef %new_len, ptr noalias noundef nonnull align 4 %scratch.0, i64 noundef %scratch.1, i64 noundef %min_good_run_len.sroa.0.0, i1 noundef zeroext %eager_sort, ptr noalias noundef nonnull align 1 %is_less)
  %_31 = lshr i64 %prev_run.sroa.0.0, 1
  %_35 = lshr i64 %2, 1
  %factor = shl i64 %scan_idx.sroa.0.0, 1
  %x = sub i64 %factor, %_31
  %reass.add = shl i64 %scan_idx.sroa.0.0, 1
  %y = add i64 %_35, %reass.add
  %_90 = mul i64 %x, %scale_factor.sroa.0.0
  %_91 = mul i64 %y, %scale_factor.sroa.0.0
  %self4 = xor i64 %_91, %_90
  %3 = tail call range(i64 0, 65) i64 @llvm.ctlz.i64(i64 %self4, i1 false)
  %4 = trunc nuw nsw i64 %3 to i8
  br label %bb10

bb12:                                             ; preds = %bb12.lr.ph, %_ZN4core5slice4sort6stable5drift13logical_merge17h07a6b729fc2d2694E.exit
  %stack_len.sroa.0.150 = phi i64 [ %stack_len.sroa.0.0, %bb12.lr.ph ], [ %count, %_ZN4core5slice4sort6stable5drift13logical_merge17h07a6b729fc2d2694E.exit ]
  %prev_run.sroa.0.149 = phi i64 [ %prev_run.sroa.0.0, %bb12.lr.ph ], [ %_0.sroa.0.0.i, %_ZN4core5slice4sort6stable5drift13logical_merge17h07a6b729fc2d2694E.exit ]
  %count = add i64 %stack_len.sroa.0.150, -1
  %_41 = getelementptr inbounds nuw i8, ptr %desired_depth_storage, i64 %count
  %_40 = load i8, ptr %_41, align 1, !noundef !27
  %_39.not = icmp ult i8 %_40, %desired_depth.sroa.0.0
  br i1 %_39.not, label %bb17, label %bb13

bb17:                                             ; preds = %_ZN4core5slice4sort6stable5drift13logical_merge17h07a6b729fc2d2694E.exit, %bb12, %bb10
  %prev_run.sroa.0.1.lcssa = phi i64 [ %prev_run.sroa.0.0, %bb10 ], [ %_0.sroa.0.0.i, %_ZN4core5slice4sort6stable5drift13logical_merge17h07a6b729fc2d2694E.exit ], [ %prev_run.sroa.0.149, %bb12 ]
  %stack_len.sroa.0.1.lcssa = phi i64 [ %stack_len.sroa.0.0, %bb10 ], [ 1, %_ZN4core5slice4sort6stable5drift13logical_merge17h07a6b729fc2d2694E.exit ], [ %stack_len.sroa.0.150, %bb12 ]
  %_59 = getelementptr inbounds nuw i64, ptr %run_storage, i64 %stack_len.sroa.0.1.lcssa
  store i64 %prev_run.sroa.0.1.lcssa, ptr %_59, align 8
  %_61 = getelementptr inbounds nuw i8, ptr %desired_depth_storage, i64 %stack_len.sroa.0.1.lcssa
  store i8 %desired_depth.sroa.0.0, ptr %_61, align 1
  br i1 %_22, label %bb19, label %bb18

bb13:                                             ; preds = %bb12
  %_46 = getelementptr inbounds nuw i64, ptr %run_storage, i64 %count
  %left10 = load i64, ptr %_46, align 8, !noundef !27
  %_50 = lshr i64 %left10, 1
  %_51 = lshr i64 %prev_run.sroa.0.149, 1
  %merged_len = add nuw i64 %_50, %_51
  %merge_start_idx = sub i64 %scan_idx.sroa.0.0, %merged_len
  %_98 = getelementptr inbounds nuw i32, ptr %v.0, i64 %merge_start_idx
  %can_fit_in_scratch.i = icmp samesign ugt i64 %merged_len, %scratch.1
  %_22.i = and i64 %prev_run.sroa.0.149, 1
  %_10.not.i = icmp eq i64 %_22.i, 0
  %5 = or i64 %left10, %prev_run.sroa.0.149
  %6 = and i64 %5, 1
  %7 = icmp ne i64 %6, 0
  %or.cond2.i = or i1 %can_fit_in_scratch.i, %7
  br i1 %or.cond2.i, label %bb3.i, label %bb9.i

bb3.i:                                            ; preds = %bb13
  %_21.i = and i64 %left10, 1
  %_9.not.i = icmp eq i64 %_21.i, 0
  br i1 %_9.not.i, label %bb11.i, label %bb5.i

bb9.i:                                            ; preds = %bb13
  %_40.i = shl nuw nsw i64 %merged_len, 1
  br label %_ZN4core5slice4sort6stable5drift13logical_merge17h07a6b729fc2d2694E.exit

bb5.i:                                            ; preds = %bb11.i, %bb3.i
  br i1 %_10.not.i, label %bb16.i, label %bb7.i

bb11.i:                                           ; preds = %bb3.i
  %self.i = or i64 %_50, 1
  %8 = tail call range(i64 3, 64) i64 @llvm.ctlz.i64(i64 %self.i, i1 true)
  %9 = trunc nuw nsw i64 %8 to i32
  %log.i = shl nuw nsw i32 %9, 1
  %limit.i = xor i32 %log.i, 126
; call core::slice::sort::stable::quicksort::quicksort
  tail call void @_ZN4core5slice4sort6stable9quicksort9quicksort17h9d5b439ecfb40412E(ptr noalias noundef nonnull align 4 %_98, i64 noundef range(i64 0, 2305843009213693952) %_50, ptr noalias noundef nonnull align 4 %scratch.0, i64 noundef range(i64 0, 2305843009213693952) %scratch.1, i32 noundef %limit.i, ptr noalias noundef readonly align 4 captures(address, read_provenance) dereferenceable_or_null(4) null, ptr noalias noundef nonnull align 1 %is_less) #27
  br label %bb5.i

bb7.i:                                            ; preds = %bb16.i, %bb5.i
  tail call void @llvm.experimental.noalias.scope.decl(metadata !1818)
  tail call void @llvm.experimental.noalias.scope.decl(metadata !1821)
  %_6.i = icmp ult i64 %left10, 2
  %_7.i = icmp ult i64 %prev_run.sroa.0.149, 2
  %or.cond.i = or i1 %_7.i, %_6.i
  br i1 %or.cond.i, label %_ZN4core5slice4sort6stable5merge5merge17h2b5f4899cf09a201E.exit, label %bb2.i

bb2.i:                                            ; preds = %bb7.i
  %_0.sroa.0.0.i.i = tail call i64 @llvm.umin.i64(i64 %_51, i64 %_50)
  %_8.i = icmp samesign ult i64 %scratch.1, %_0.sroa.0.0.i.i
  br i1 %_8.i, label %_ZN4core5slice4sort6stable5merge5merge17h2b5f4899cf09a201E.exit, label %bb5.i37

bb5.i37:                                          ; preds = %bb2.i
  %v_mid.i = getelementptr inbounds nuw i32, ptr %_98, i64 %_50
  %left_is_shorter.not.i = icmp samesign ugt i64 %_50, %_51
  %spec.select.i = select i1 %left_is_shorter.not.i, ptr %v_mid.i, ptr %_98
  %10 = shl nuw nsw i64 %_0.sroa.0.0.i.i, 2
  tail call void @llvm.memcpy.p0.p0.i64(ptr nonnull align 4 %scratch.0, ptr nonnull align 4 %spec.select.i, i64 %10, i1 false), !alias.scope !1823
  %_22.i38 = getelementptr inbounds nuw i8, ptr %scratch.0, i64 %10
  br i1 %left_is_shorter.not.i, label %bb1.i.i, label %bb3.i.i

bb1.i.i:                                          ; preds = %bb5.i37, %bb1.i.i
  %_2110.i.i = phi ptr [ %_21.i.i, %bb1.i.i ], [ %_22.i38, %bb5.i37 ]
  %_188.i.i = phi ptr [ %_18.i.i, %bb1.i.i ], [ %spec.select.i, %bb5.i37 ]
  %out.sroa.0.0.i.i = phi ptr [ %13, %bb1.i.i ], [ %v_end.i, %bb5.i37 ]
  %11 = getelementptr inbounds i8, ptr %_188.i.i, i64 -4
  %12 = getelementptr inbounds i8, ptr %_2110.i.i, i64 -4
  %13 = getelementptr inbounds i8, ptr %out.sroa.0.0.i.i, i64 -4
  tail call void @llvm.experimental.noalias.scope.decl(metadata !1824)
  tail call void @llvm.experimental.noalias.scope.decl(metadata !1827)
  tail call void @llvm.experimental.noalias.scope.decl(metadata !1829)
  tail call void @llvm.experimental.noalias.scope.decl(metadata !1832)
  %_3.i.i.i.i = load i32, ptr %12, align 4, !alias.scope !1834, !noalias !1835, !noundef !27
  %_4.i.i.i.i = load i32, ptr %11, align 4, !alias.scope !1838, !noalias !1839, !noundef !27
  %_0.i.i.i.i = icmp slt i32 %_3.i.i.i.i, %_4.i.i.i.i
  %14 = tail call i32 @llvm.smax.i32(i32 %_3.i.i.i.i, i32 %_4.i.i.i.i)
  store i32 %14, ptr %13, align 4, !alias.scope !1818, !noalias !1840
  %_20.i.i = xor i1 %_0.i.i.i.i, true
  %count.i.i = zext i1 %_20.i.i to i64
  %_18.i.i = getelementptr inbounds nuw i32, ptr %11, i64 %count.i.i
  %count4.i.i = zext i1 %_0.i.i.i.i to i64
  %_21.i.i = getelementptr inbounds nuw i32, ptr %12, i64 %count4.i.i
  %_23.i.i = icmp eq ptr %_18.i.i, %_98
  %_26.i.i = icmp eq ptr %_21.i.i, %scratch.0
  %or.cond.i.i = select i1 %_23.i.i, i1 true, i1 %_26.i.i
  br i1 %or.cond.i.i, label %bb16.i40, label %bb1.i.i

bb3.i.i:                                          ; preds = %bb5.i37, %bb3.i.i
  %_2511.i.i = phi ptr [ %_25.i.i, %bb3.i.i ], [ %spec.select.i, %bb5.i37 ]
  %right.sroa.0.010.i.i = phi ptr [ %_23.i17.i, %bb3.i.i ], [ %v_mid.i, %bb5.i37 ]
  %_2059.i.i = phi ptr [ %_20.i16.i, %bb3.i.i ], [ %scratch.0, %bb5.i37 ]
  tail call void @llvm.experimental.noalias.scope.decl(metadata !1841)
  tail call void @llvm.experimental.noalias.scope.decl(metadata !1844)
  tail call void @llvm.experimental.noalias.scope.decl(metadata !1846)
  tail call void @llvm.experimental.noalias.scope.decl(metadata !1849)
  %_3.i.i.i12.i = load i32, ptr %right.sroa.0.010.i.i, align 4, !alias.scope !1851, !noalias !1852, !noundef !27
  %_4.i.i.i13.i = load i32, ptr %_2059.i.i, align 4, !alias.scope !1855, !noalias !1856, !noundef !27
  %_0.i.i.i14.i = icmp slt i32 %_3.i.i.i12.i, %_4.i.i.i13.i
  %consume_left.i.i = xor i1 %_0.i.i.i14.i, true
  %15 = tail call i32 @llvm.smin.i32(i32 %_3.i.i.i12.i, i32 %_4.i.i.i13.i)
  store i32 %15, ptr %_2511.i.i, align 4, !alias.scope !1818, !noalias !1857
  %count.i15.i = zext i1 %consume_left.i.i to i64
  %_20.i16.i = getelementptr inbounds nuw i32, ptr %_2059.i.i, i64 %count.i15.i
  %count2.i.i = zext i1 %_0.i.i.i14.i to i64
  %_23.i17.i = getelementptr inbounds nuw i32, ptr %right.sroa.0.010.i.i, i64 %count2.i.i
  %_25.i.i = getelementptr inbounds nuw i8, ptr %_2511.i.i, i64 4
  %_7.i.i = icmp ne ptr %_20.i16.i, %_22.i38
  %_10.i.i = icmp ne ptr %_23.i17.i, %v_end.i
  %or.cond.i18.i = select i1 %_7.i.i, i1 %_10.i.i, i1 false
  br i1 %or.cond.i18.i, label %bb3.i.i, label %bb16.i40

bb16.i40:                                         ; preds = %bb3.i.i, %bb1.i.i
  %merge_state.sroa.13.0.i = phi ptr [ %_18.i.i, %bb1.i.i ], [ %_25.i.i, %bb3.i.i ]
  %merge_state.sroa.7.0.i = phi ptr [ %_21.i.i, %bb1.i.i ], [ %_22.i38, %bb3.i.i ]
  %merge_state.sroa.0.0.i = phi ptr [ %scratch.0, %bb1.i.i ], [ %_20.i16.i, %bb3.i.i ]
  %16 = ptrtoint ptr %merge_state.sroa.7.0.i to i64
  %17 = ptrtoint ptr %merge_state.sroa.0.0.i to i64
  %18 = sub nuw i64 %16, %17
  tail call void @llvm.memcpy.p0.p0.i64(ptr align 4 %merge_state.sroa.13.0.i, ptr align 4 %merge_state.sroa.0.0.i, i64 %18, i1 false), !alias.scope !1823, !noalias !1858
  br label %_ZN4core5slice4sort6stable5merge5merge17h2b5f4899cf09a201E.exit

_ZN4core5slice4sort6stable5merge5merge17h2b5f4899cf09a201E.exit: ; preds = %bb7.i, %bb2.i, %bb16.i40
  %_39.i = shl nuw nsw i64 %merged_len, 1
  %_38.i = or disjoint i64 %_39.i, 1
  br label %_ZN4core5slice4sort6stable5drift13logical_merge17h07a6b729fc2d2694E.exit

bb16.i:                                           ; preds = %bb5.i
  %_37.i = getelementptr inbounds nuw i32, ptr %_98, i64 %_50
  %self.i41 = or i64 %_51, 1
  %19 = tail call range(i64 3, 64) i64 @llvm.ctlz.i64(i64 %self.i41, i1 true)
  %20 = trunc nuw nsw i64 %19 to i32
  %log.i42 = shl nuw nsw i32 %20, 1
  %limit.i43 = xor i32 %log.i42, 126
; call core::slice::sort::stable::quicksort::quicksort
  tail call void @_ZN4core5slice4sort6stable9quicksort9quicksort17h9d5b439ecfb40412E(ptr noalias noundef nonnull align 4 %_37.i, i64 noundef range(i64 0, 2305843009213693952) %_51, ptr noalias noundef nonnull align 4 %scratch.0, i64 noundef range(i64 0, 2305843009213693952) %scratch.1, i32 noundef %limit.i43, ptr noalias noundef readonly align 4 captures(address, read_provenance) dereferenceable_or_null(4) null, ptr noalias noundef nonnull align 1 %is_less) #27
  br label %bb7.i

_ZN4core5slice4sort6stable5drift13logical_merge17h07a6b729fc2d2694E.exit: ; preds = %bb9.i, %_ZN4core5slice4sort6stable5merge5merge17h2b5f4899cf09a201E.exit
  %_0.sroa.0.0.i = phi i64 [ %_38.i, %_ZN4core5slice4sort6stable5merge5merge17h2b5f4899cf09a201E.exit ], [ %_40.i, %bb9.i ]
  %_37 = icmp ugt i64 %count, 1
  br i1 %_37, label %bb12, label %bb17

bb19:                                             ; preds = %bb17
  %21 = add i64 %stack_len.sroa.0.1.lcssa, 1
  %_65 = lshr i64 %next_run.sroa.0.0, 1
  %22 = add nuw i64 %_65, %scan_idx.sroa.0.0
  br label %bb6

bb18:                                             ; preds = %bb17
  %_99 = and i64 %prev_run.sroa.0.1.lcssa, 1
  %_66.not = icmp eq i64 %_99, 0
  br i1 %_66.not, label %bb20, label %bb21

bb20:                                             ; preds = %bb18
  %self.i44 = or i64 %v.1, 1
  %23 = tail call range(i64 3, 64) i64 @llvm.ctlz.i64(i64 %self.i44, i1 true)
  %24 = trunc nuw nsw i64 %23 to i32
  %log.i45 = shl nuw nsw i32 %24, 1
  %limit.i46 = xor i32 %log.i45, 126
; call core::slice::sort::stable::quicksort::quicksort
  tail call void @_ZN4core5slice4sort6stable9quicksort9quicksort17h9d5b439ecfb40412E(ptr noalias noundef nonnull align 4 %v.0, i64 noundef range(i64 0, 2305843009213693952) %v.1, ptr noalias noundef nonnull align 4 %scratch.0, i64 noundef range(i64 0, 2305843009213693952) %scratch.1, i32 noundef %limit.i46, ptr noalias noundef readonly align 4 captures(address, read_provenance) dereferenceable_or_null(4) null, ptr noalias noundef nonnull align 1 %is_less) #27
  br label %bb21

bb21:                                             ; preds = %bb20, %bb18
  call void @llvm.lifetime.end.p0(i64 66, ptr nonnull %desired_depth_storage)
  call void @llvm.lifetime.end.p0(i64 528, ptr nonnull %run_storage)
  br label %bb22

bb22:                                             ; preds = %start, %bb21
  ret void
}

; core::slice::sort::stable::merge::MergeState<T>::merge_down
; Function Attrs: nofree norecurse nosync nounwind nonlazybind memory(read, argmem: readwrite, inaccessiblemem: readwrite) uwtable
define void @"_ZN4core5slice4sort6stable5merge19MergeState$LT$T$GT$10merge_down17h5db960f7f2e441e8E"(ptr noalias noundef align 8 captures(none) dereferenceable(24) %self, ptr noundef readnone captures(address) %left_end, ptr noundef readnone captures(address) %right_end, ptr noundef writeonly captures(none) %0, ptr noalias noundef nonnull readnone align 1 captures(none) %is_less) unnamed_addr #7 {
start:
  %1 = getelementptr inbounds nuw i8, ptr %self, i64 16
  %2 = getelementptr inbounds nuw i8, ptr %self, i64 8
  %.promoted = load ptr, ptr %1, align 8
  %.promoted9 = load ptr, ptr %2, align 8
  br label %bb1

bb1:                                              ; preds = %bb1, %start
  %_2110 = phi ptr [ %.promoted9, %start ], [ %_21, %bb1 ]
  %_188 = phi ptr [ %.promoted, %start ], [ %_18, %bb1 ]
  %out.sroa.0.0 = phi ptr [ %0, %start ], [ %5, %bb1 ]
  %3 = getelementptr inbounds i8, ptr %_188, i64 -4
  %4 = getelementptr inbounds i8, ptr %_2110, i64 -4
  %5 = getelementptr inbounds i8, ptr %out.sroa.0.0, i64 -4
  tail call void @llvm.experimental.noalias.scope.decl(metadata !1863)
  tail call void @llvm.experimental.noalias.scope.decl(metadata !1866)
  tail call void @llvm.experimental.noalias.scope.decl(metadata !1868)
  tail call void @llvm.experimental.noalias.scope.decl(metadata !1871)
  %_3.i.i = load i32, ptr %4, align 4, !alias.scope !1873, !noalias !1874, !noundef !27
  %_4.i.i = load i32, ptr %3, align 4, !alias.scope !1874, !noalias !1873, !noundef !27
  %_0.i.i = icmp slt i32 %_3.i.i, %_4.i.i
  %6 = tail call i32 @llvm.smax.i32(i32 %_3.i.i, i32 %_4.i.i)
  store i32 %6, ptr %5, align 4
  %_20 = xor i1 %_0.i.i, true
  %count = zext i1 %_20 to i64
  %_18 = getelementptr inbounds nuw i32, ptr %3, i64 %count
  %count4 = zext i1 %_0.i.i to i64
  %_21 = getelementptr inbounds nuw i32, ptr %4, i64 %count4
  %_23 = icmp eq ptr %_18, %left_end
  %_26 = icmp eq ptr %_21, %right_end
  %or.cond = select i1 %_23, i1 true, i1 %_26
  br i1 %or.cond, label %bb7, label %bb1

bb7:                                              ; preds = %bb1
  store ptr %_18, ptr %1, align 8
  store ptr %_21, ptr %2, align 8
  ret void
}

; core::slice::sort::stable::merge::MergeState<T>::merge_down
; Function Attrs: nofree norecurse nosync nounwind nonlazybind memory(read, argmem: readwrite, inaccessiblemem: readwrite) uwtable
define void @"_ZN4core5slice4sort6stable5merge19MergeState$LT$T$GT$10merge_down17hd8ac2ed011f0f2deE"(ptr noalias noundef align 8 captures(none) dereferenceable(24) %self, ptr noundef readnone captures(address) %left_end, ptr noundef readnone captures(address) %right_end, ptr noundef writeonly captures(none) %0, ptr noalias noundef readnone align 8 captures(none) dereferenceable(8) %is_less) unnamed_addr #7 {
start:
  %1 = getelementptr inbounds nuw i8, ptr %self, i64 16
  %2 = getelementptr inbounds nuw i8, ptr %self, i64 8
  %.promoted = load ptr, ptr %1, align 8
  %.promoted9 = load ptr, ptr %2, align 8
  br label %bb1

bb1:                                              ; preds = %bb1, %start
  %_2110 = phi ptr [ %.promoted9, %start ], [ %_21, %bb1 ]
  %_188 = phi ptr [ %.promoted, %start ], [ %_18, %bb1 ]
  %out.sroa.0.0 = phi ptr [ %0, %start ], [ %5, %bb1 ]
  %3 = getelementptr inbounds i8, ptr %_188, i64 -4
  %4 = getelementptr inbounds i8, ptr %_2110, i64 -4
  %5 = getelementptr inbounds i8, ptr %out.sroa.0.0, i64 -4
  tail call void @llvm.experimental.noalias.scope.decl(metadata !1875)
  tail call void @llvm.experimental.noalias.scope.decl(metadata !1878)
  tail call void @llvm.experimental.noalias.scope.decl(metadata !1880)
  tail call void @llvm.experimental.noalias.scope.decl(metadata !1883)
  tail call void @llvm.experimental.noalias.scope.decl(metadata !1885)
  tail call void @llvm.experimental.noalias.scope.decl(metadata !1888)
  tail call void @llvm.experimental.noalias.scope.decl(metadata !1890)
  tail call void @llvm.experimental.noalias.scope.decl(metadata !1893)
  %_3.i.i.i.i = load i32, ptr %4, align 4, !alias.scope !1895, !noalias !1896, !noundef !27
  %_4.i.i.i.i = load i32, ptr %3, align 4, !alias.scope !1896, !noalias !1895, !noundef !27
  %_0.i = icmp slt i32 %_3.i.i.i.i, %_4.i.i.i.i
  %6 = tail call i32 @llvm.smax.i32(i32 %_3.i.i.i.i, i32 %_4.i.i.i.i)
  store i32 %6, ptr %5, align 4
  %_20 = xor i1 %_0.i, true
  %count = zext i1 %_20 to i64
  %_18 = getelementptr inbounds nuw i32, ptr %3, i64 %count
  %count4 = zext i1 %_0.i to i64
  %_21 = getelementptr inbounds nuw i32, ptr %4, i64 %count4
  %_23 = icmp eq ptr %_18, %left_end
  %_26 = icmp eq ptr %_21, %right_end
  %or.cond = select i1 %_23, i1 true, i1 %_26
  br i1 %or.cond, label %bb7, label %bb1

bb7:                                              ; preds = %bb1
  store ptr %_18, ptr %1, align 8
  store ptr %_21, ptr %2, align 8
  ret void
}

; core::slice::sort::stable::merge::MergeState<T>::merge_up
; Function Attrs: nofree norecurse nosync nounwind nonlazybind uwtable
define void @"_ZN4core5slice4sort6stable5merge19MergeState$LT$T$GT$8merge_up17h46a55b3926706a3eE"(ptr noalias noundef align 8 captures(none) dereferenceable(24) %self, ptr noundef readonly captures(address) %0, ptr noundef readnone captures(address) %right_end, ptr noalias noundef nonnull readnone align 1 captures(none) %is_less) unnamed_addr #8 {
start:
  %1 = getelementptr inbounds nuw i8, ptr %self, i64 8
  %_9 = load ptr, ptr %1, align 8, !noundef !27
  %self.promoted = load ptr, ptr %self, align 8
  %_76 = icmp ne ptr %self.promoted, %_9
  %_107 = icmp ne ptr %0, %right_end
  %or.cond8 = and i1 %_76, %_107
  br i1 %or.cond8, label %bb3.lr.ph, label %bb9

bb3.lr.ph:                                        ; preds = %start
  %2 = getelementptr inbounds nuw i8, ptr %self, i64 16
  %.promoted = load ptr, ptr %2, align 8
  br label %bb3

bb1.bb9_crit_edge:                                ; preds = %bb3
  store ptr %_25, ptr %2, align 8
  store ptr %_20, ptr %self, align 8
  br label %bb9

bb9:                                              ; preds = %bb1.bb9_crit_edge, %start
  ret void

bb3:                                              ; preds = %bb3.lr.ph, %bb3
  %_2511 = phi ptr [ %.promoted, %bb3.lr.ph ], [ %_25, %bb3 ]
  %right.sroa.0.010 = phi ptr [ %0, %bb3.lr.ph ], [ %_23, %bb3 ]
  %_2059 = phi ptr [ %self.promoted, %bb3.lr.ph ], [ %_20, %bb3 ]
  tail call void @llvm.experimental.noalias.scope.decl(metadata !1897)
  tail call void @llvm.experimental.noalias.scope.decl(metadata !1900)
  tail call void @llvm.experimental.noalias.scope.decl(metadata !1902)
  tail call void @llvm.experimental.noalias.scope.decl(metadata !1905)
  %_3.i.i = load i32, ptr %right.sroa.0.010, align 4, !alias.scope !1907, !noalias !1908, !noundef !27
  %_4.i.i = load i32, ptr %_2059, align 4, !alias.scope !1908, !noalias !1907, !noundef !27
  %_0.i.i = icmp slt i32 %_3.i.i, %_4.i.i
  %consume_left = xor i1 %_0.i.i, true
  %3 = tail call i32 @llvm.smin.i32(i32 %_3.i.i, i32 %_4.i.i)
  store i32 %3, ptr %_2511, align 4
  %count = zext i1 %consume_left to i64
  %_20 = getelementptr inbounds nuw i32, ptr %_2059, i64 %count
  %count2 = zext i1 %_0.i.i to i64
  %_23 = getelementptr inbounds nuw i32, ptr %right.sroa.0.010, i64 %count2
  %_25 = getelementptr inbounds nuw i8, ptr %_2511, i64 4
  %_7 = icmp ne ptr %_20, %_9
  %_10 = icmp ne ptr %_23, %right_end
  %or.cond = select i1 %_7, i1 %_10, i1 false
  br i1 %or.cond, label %bb3, label %bb1.bb9_crit_edge
}

; core::slice::sort::stable::merge::MergeState<T>::merge_up
; Function Attrs: nofree norecurse nosync nounwind nonlazybind uwtable
define void @"_ZN4core5slice4sort6stable5merge19MergeState$LT$T$GT$8merge_up17heb7e1b7d1d976a47E"(ptr noalias noundef align 8 captures(none) dereferenceable(24) %self, ptr noundef readonly captures(address) %0, ptr noundef readnone captures(address) %right_end, ptr noalias noundef readnone align 8 captures(none) dereferenceable(8) %is_less) unnamed_addr #8 {
start:
  %1 = getelementptr inbounds nuw i8, ptr %self, i64 8
  %_9 = load ptr, ptr %1, align 8, !noundef !27
  %self.promoted = load ptr, ptr %self, align 8
  %_76 = icmp ne ptr %self.promoted, %_9
  %_107 = icmp ne ptr %0, %right_end
  %or.cond8 = and i1 %_76, %_107
  br i1 %or.cond8, label %bb3.lr.ph, label %bb9

bb3.lr.ph:                                        ; preds = %start
  %2 = getelementptr inbounds nuw i8, ptr %self, i64 16
  %.promoted = load ptr, ptr %2, align 8
  br label %bb3

bb1.bb9_crit_edge:                                ; preds = %bb3
  store ptr %_25, ptr %2, align 8
  store ptr %_20, ptr %self, align 8
  br label %bb9

bb9:                                              ; preds = %bb1.bb9_crit_edge, %start
  ret void

bb3:                                              ; preds = %bb3.lr.ph, %bb3
  %_2511 = phi ptr [ %.promoted, %bb3.lr.ph ], [ %_25, %bb3 ]
  %right.sroa.0.010 = phi ptr [ %0, %bb3.lr.ph ], [ %_23, %bb3 ]
  %_2059 = phi ptr [ %self.promoted, %bb3.lr.ph ], [ %_20, %bb3 ]
  tail call void @llvm.experimental.noalias.scope.decl(metadata !1909)
  tail call void @llvm.experimental.noalias.scope.decl(metadata !1912)
  tail call void @llvm.experimental.noalias.scope.decl(metadata !1914)
  tail call void @llvm.experimental.noalias.scope.decl(metadata !1917)
  tail call void @llvm.experimental.noalias.scope.decl(metadata !1919)
  tail call void @llvm.experimental.noalias.scope.decl(metadata !1922)
  tail call void @llvm.experimental.noalias.scope.decl(metadata !1924)
  tail call void @llvm.experimental.noalias.scope.decl(metadata !1927)
  %_3.i.i.i.i = load i32, ptr %right.sroa.0.010, align 4, !alias.scope !1929, !noalias !1930, !noundef !27
  %_4.i.i.i.i = load i32, ptr %_2059, align 4, !alias.scope !1930, !noalias !1929, !noundef !27
  %_0.i = icmp slt i32 %_3.i.i.i.i, %_4.i.i.i.i
  %consume_left = xor i1 %_0.i, true
  %3 = tail call i32 @llvm.smin.i32(i32 %_3.i.i.i.i, i32 %_4.i.i.i.i)
  store i32 %3, ptr %_2511, align 4
  %count = zext i1 %consume_left to i64
  %_20 = getelementptr inbounds nuw i32, ptr %_2059, i64 %count
  %count2 = zext i1 %_0.i to i64
  %_23 = getelementptr inbounds nuw i32, ptr %right.sroa.0.010, i64 %count2
  %_25 = getelementptr inbounds nuw i8, ptr %_2511, i64 4
  %_7 = icmp ne ptr %_20, %_9
  %_10 = icmp ne ptr %_23, %right_end
  %or.cond = select i1 %_7, i1 %_10, i1 false
  br i1 %or.cond, label %bb3, label %bb1.bb9_crit_edge
}

; core::slice::sort::stable::merge::merge
; Function Attrs: nofree norecurse nosync nounwind nonlazybind memory(argmem: readwrite, inaccessiblemem: readwrite) uwtable
define void @_ZN4core5slice4sort6stable5merge5merge17h2b5f4899cf09a201E(ptr noalias noundef nonnull align 4 captures(address) %v.0, i64 noundef range(i64 0, 2305843009213693952) %v.1, ptr noalias noundef nonnull align 4 %scratch.0, i64 noundef range(i64 0, 2305843009213693952) %scratch.1, i64 noundef %0, ptr noalias noundef nonnull readnone align 1 captures(none) %is_less) unnamed_addr #0 personality ptr @rust_eh_personality {
start:
  %_6 = icmp eq i64 %0, 0
  %_7 = icmp uge i64 %0, %v.1
  %or.cond = or i1 %_6, %_7
  br i1 %or.cond, label %bb18, label %bb2

bb2:                                              ; preds = %start
  %right_len = sub nuw nsw i64 %v.1, %0
  %_0.sroa.0.0.i = tail call noundef i64 @llvm.umin.i64(i64 range(i64 -2305843009213693950, 2305843009213693952) %right_len, i64 %0)
  %_8 = icmp samesign ult i64 %scratch.1, %_0.sroa.0.0.i
  br i1 %_8, label %bb18, label %bb5

bb5:                                              ; preds = %bb2
  %v_mid = getelementptr inbounds nuw i32, ptr %v.0, i64 %0
  %v_end = getelementptr inbounds nuw i32, ptr %v.0, i64 %v.1
  %left_is_shorter.not = icmp ugt i64 %0, %right_len
  %spec.select = select i1 %left_is_shorter.not, ptr %v_mid, ptr %v.0
  %spec.select10 = tail call i64 @llvm.umin.i64(i64 %0, i64 %right_len)
  %1 = shl nuw nsw i64 %spec.select10, 2
  tail call void @llvm.memcpy.p0.p0.i64(ptr nonnull align 4 %scratch.0, ptr nonnull align 4 %spec.select, i64 %1, i1 false)
  %_22.idx = shl nuw nsw i64 %spec.select10, 2
  %_22 = getelementptr inbounds nuw i8, ptr %scratch.0, i64 %_22.idx
  br i1 %left_is_shorter.not, label %bb1.i, label %bb12

bb1.i:                                            ; preds = %bb5, %bb1.i
  %_2110.i = phi ptr [ %_21.i, %bb1.i ], [ %_22, %bb5 ]
  %_188.i = phi ptr [ %_18.i, %bb1.i ], [ %spec.select, %bb5 ]
  %out.sroa.0.0.i = phi ptr [ %4, %bb1.i ], [ %v_end, %bb5 ]
  %2 = getelementptr inbounds i8, ptr %_188.i, i64 -4
  %3 = getelementptr inbounds i8, ptr %_2110.i, i64 -4
  %4 = getelementptr inbounds i8, ptr %out.sroa.0.0.i, i64 -4
  tail call void @llvm.experimental.noalias.scope.decl(metadata !1931)
  tail call void @llvm.experimental.noalias.scope.decl(metadata !1934)
  tail call void @llvm.experimental.noalias.scope.decl(metadata !1936)
  tail call void @llvm.experimental.noalias.scope.decl(metadata !1939)
  %_3.i.i.i = load i32, ptr %3, align 4, !alias.scope !1941, !noalias !1942, !noundef !27
  %_4.i.i.i = load i32, ptr %2, align 4, !alias.scope !1945, !noalias !1946, !noundef !27
  %_0.i.i.i = icmp slt i32 %_3.i.i.i, %_4.i.i.i
  %5 = tail call i32 @llvm.smax.i32(i32 %_3.i.i.i, i32 %_4.i.i.i)
  store i32 %5, ptr %4, align 4, !noalias !1947
  %_20.i = xor i1 %_0.i.i.i, true
  %count.i = zext i1 %_20.i to i64
  %_18.i = getelementptr inbounds nuw i32, ptr %2, i64 %count.i
  %count4.i = zext i1 %_0.i.i.i to i64
  %_21.i = getelementptr inbounds nuw i32, ptr %3, i64 %count4.i
  %_23.i = icmp eq ptr %_18.i, %v.0
  %_26.i = icmp eq ptr %_21.i, %scratch.0
  %or.cond.i = select i1 %_23.i, i1 true, i1 %_26.i
  br i1 %or.cond.i, label %bb16, label %bb1.i

bb12:                                             ; preds = %bb5
  %_76.i.not = icmp eq i64 %0, 0
  br i1 %_76.i.not, label %bb16, label %bb3.i

bb3.i:                                            ; preds = %bb12, %bb3.i
  %_2511.i = phi ptr [ %_25.i, %bb3.i ], [ %spec.select, %bb12 ]
  %right.sroa.0.010.i = phi ptr [ %_23.i17, %bb3.i ], [ %v_mid, %bb12 ]
  %_2059.i = phi ptr [ %_20.i16, %bb3.i ], [ %scratch.0, %bb12 ]
  tail call void @llvm.experimental.noalias.scope.decl(metadata !1948)
  tail call void @llvm.experimental.noalias.scope.decl(metadata !1951)
  tail call void @llvm.experimental.noalias.scope.decl(metadata !1953)
  tail call void @llvm.experimental.noalias.scope.decl(metadata !1956)
  %_3.i.i.i12 = load i32, ptr %right.sroa.0.010.i, align 4, !alias.scope !1958, !noalias !1959, !noundef !27
  %_4.i.i.i13 = load i32, ptr %_2059.i, align 4, !alias.scope !1962, !noalias !1963, !noundef !27
  %_0.i.i.i14 = icmp slt i32 %_3.i.i.i12, %_4.i.i.i13
  %consume_left.i = xor i1 %_0.i.i.i14, true
  %6 = tail call i32 @llvm.smin.i32(i32 %_3.i.i.i12, i32 %_4.i.i.i13)
  store i32 %6, ptr %_2511.i, align 4, !noalias !1964
  %count.i15 = zext i1 %consume_left.i to i64
  %_20.i16 = getelementptr inbounds nuw i32, ptr %_2059.i, i64 %count.i15
  %count2.i = zext i1 %_0.i.i.i14 to i64
  %_23.i17 = getelementptr inbounds nuw i32, ptr %right.sroa.0.010.i, i64 %count2.i
  %_25.i = getelementptr inbounds nuw i8, ptr %_2511.i, i64 4
  %_7.i = icmp ne ptr %_20.i16, %_22
  %_10.i = icmp ne ptr %_23.i17, %v_end
  %or.cond.i18 = select i1 %_7.i, i1 %_10.i, i1 false
  br i1 %or.cond.i18, label %bb3.i, label %bb16

bb16:                                             ; preds = %bb3.i, %bb1.i, %bb12
  %merge_state.sroa.13.0 = phi ptr [ %spec.select, %bb12 ], [ %_18.i, %bb1.i ], [ %_25.i, %bb3.i ]
  %merge_state.sroa.7.0 = phi ptr [ %_22, %bb12 ], [ %_21.i, %bb1.i ], [ %_22, %bb3.i ]
  %merge_state.sroa.0.0 = phi ptr [ %scratch.0, %bb12 ], [ %scratch.0, %bb1.i ], [ %_20.i16, %bb3.i ]
  %7 = ptrtoint ptr %merge_state.sroa.7.0 to i64
  %8 = ptrtoint ptr %merge_state.sroa.0.0 to i64
  %9 = sub nuw i64 %7, %8
  tail call void @llvm.memcpy.p0.p0.i64(ptr align 4 %merge_state.sroa.13.0, ptr align 4 %merge_state.sroa.0.0, i64 %9, i1 false), !noalias !1965
  br label %bb18

bb18:                                             ; preds = %bb2, %start, %bb16
  ret void
}

; core::slice::sort::stable::merge::merge
; Function Attrs: nofree norecurse nosync nounwind nonlazybind memory(argmem: readwrite, inaccessiblemem: readwrite) uwtable
define void @_ZN4core5slice4sort6stable5merge5merge17h9eb89929781f97feE(ptr noalias noundef nonnull align 4 captures(address) %v.0, i64 noundef range(i64 0, 2305843009213693952) %v.1, ptr noalias noundef nonnull align 4 %scratch.0, i64 noundef range(i64 0, 2305843009213693952) %scratch.1, i64 noundef %0, ptr noalias noundef readnone align 8 captures(none) dereferenceable(8) %is_less) unnamed_addr #0 personality ptr @rust_eh_personality {
start:
  %_6 = icmp eq i64 %0, 0
  %_7 = icmp uge i64 %0, %v.1
  %or.cond = or i1 %_6, %_7
  br i1 %or.cond, label %bb18, label %bb2

bb2:                                              ; preds = %start
  %right_len = sub nuw nsw i64 %v.1, %0
  %_0.sroa.0.0.i = tail call noundef i64 @llvm.umin.i64(i64 range(i64 -2305843009213693950, 2305843009213693952) %right_len, i64 %0)
  %_8 = icmp samesign ult i64 %scratch.1, %_0.sroa.0.0.i
  br i1 %_8, label %bb18, label %bb5

bb5:                                              ; preds = %bb2
  %v_mid = getelementptr inbounds nuw i32, ptr %v.0, i64 %0
  %v_end = getelementptr inbounds nuw i32, ptr %v.0, i64 %v.1
  %left_is_shorter.not = icmp ugt i64 %0, %right_len
  %spec.select = select i1 %left_is_shorter.not, ptr %v_mid, ptr %v.0
  %spec.select10 = tail call i64 @llvm.umin.i64(i64 %0, i64 %right_len)
  %1 = shl nuw nsw i64 %spec.select10, 2
  tail call void @llvm.memcpy.p0.p0.i64(ptr nonnull align 4 %scratch.0, ptr nonnull align 4 %spec.select, i64 %1, i1 false)
  %_22.idx = shl nuw nsw i64 %spec.select10, 2
  %_22 = getelementptr inbounds nuw i8, ptr %scratch.0, i64 %_22.idx
  br i1 %left_is_shorter.not, label %bb1.i, label %bb12

bb1.i:                                            ; preds = %bb5, %bb1.i
  %_2110.i = phi ptr [ %_21.i, %bb1.i ], [ %_22, %bb5 ]
  %_188.i = phi ptr [ %_18.i, %bb1.i ], [ %spec.select, %bb5 ]
  %out.sroa.0.0.i = phi ptr [ %4, %bb1.i ], [ %v_end, %bb5 ]
  %2 = getelementptr inbounds i8, ptr %_188.i, i64 -4
  %3 = getelementptr inbounds i8, ptr %_2110.i, i64 -4
  %4 = getelementptr inbounds i8, ptr %out.sroa.0.0.i, i64 -4
  tail call void @llvm.experimental.noalias.scope.decl(metadata !1970)
  tail call void @llvm.experimental.noalias.scope.decl(metadata !1973)
  tail call void @llvm.experimental.noalias.scope.decl(metadata !1975)
  tail call void @llvm.experimental.noalias.scope.decl(metadata !1978)
  tail call void @llvm.experimental.noalias.scope.decl(metadata !1980)
  tail call void @llvm.experimental.noalias.scope.decl(metadata !1983)
  tail call void @llvm.experimental.noalias.scope.decl(metadata !1985)
  tail call void @llvm.experimental.noalias.scope.decl(metadata !1988)
  %_3.i.i.i.i.i = load i32, ptr %3, align 4, !alias.scope !1990, !noalias !1991, !noundef !27
  %_4.i.i.i.i.i = load i32, ptr %2, align 4, !alias.scope !1994, !noalias !1995, !noundef !27
  %_0.i.i = icmp slt i32 %_3.i.i.i.i.i, %_4.i.i.i.i.i
  %5 = tail call i32 @llvm.smax.i32(i32 %_3.i.i.i.i.i, i32 %_4.i.i.i.i.i)
  store i32 %5, ptr %4, align 4, !noalias !1996
  %_20.i = xor i1 %_0.i.i, true
  %count.i = zext i1 %_20.i to i64
  %_18.i = getelementptr inbounds nuw i32, ptr %2, i64 %count.i
  %count4.i = zext i1 %_0.i.i to i64
  %_21.i = getelementptr inbounds nuw i32, ptr %3, i64 %count4.i
  %_23.i = icmp eq ptr %_18.i, %v.0
  %_26.i = icmp eq ptr %_21.i, %scratch.0
  %or.cond.i = select i1 %_23.i, i1 true, i1 %_26.i
  br i1 %or.cond.i, label %bb16, label %bb1.i

bb12:                                             ; preds = %bb5
  %_76.i.not = icmp eq i64 %0, 0
  br i1 %_76.i.not, label %bb16, label %bb3.i

bb3.i:                                            ; preds = %bb12, %bb3.i
  %_2511.i = phi ptr [ %_25.i, %bb3.i ], [ %spec.select, %bb12 ]
  %right.sroa.0.010.i = phi ptr [ %_23.i17, %bb3.i ], [ %v_mid, %bb12 ]
  %_2059.i = phi ptr [ %_20.i16, %bb3.i ], [ %scratch.0, %bb12 ]
  tail call void @llvm.experimental.noalias.scope.decl(metadata !1997)
  tail call void @llvm.experimental.noalias.scope.decl(metadata !2000)
  tail call void @llvm.experimental.noalias.scope.decl(metadata !2002)
  tail call void @llvm.experimental.noalias.scope.decl(metadata !2005)
  tail call void @llvm.experimental.noalias.scope.decl(metadata !2007)
  tail call void @llvm.experimental.noalias.scope.decl(metadata !2010)
  tail call void @llvm.experimental.noalias.scope.decl(metadata !2012)
  tail call void @llvm.experimental.noalias.scope.decl(metadata !2015)
  %_3.i.i.i.i.i12 = load i32, ptr %right.sroa.0.010.i, align 4, !alias.scope !2017, !noalias !2018, !noundef !27
  %_4.i.i.i.i.i13 = load i32, ptr %_2059.i, align 4, !alias.scope !2021, !noalias !2022, !noundef !27
  %_0.i.i14 = icmp slt i32 %_3.i.i.i.i.i12, %_4.i.i.i.i.i13
  %consume_left.i = xor i1 %_0.i.i14, true
  %6 = tail call i32 @llvm.smin.i32(i32 %_3.i.i.i.i.i12, i32 %_4.i.i.i.i.i13)
  store i32 %6, ptr %_2511.i, align 4, !noalias !2023
  %count.i15 = zext i1 %consume_left.i to i64
  %_20.i16 = getelementptr inbounds nuw i32, ptr %_2059.i, i64 %count.i15
  %count2.i = zext i1 %_0.i.i14 to i64
  %_23.i17 = getelementptr inbounds nuw i32, ptr %right.sroa.0.010.i, i64 %count2.i
  %_25.i = getelementptr inbounds nuw i8, ptr %_2511.i, i64 4
  %_7.i = icmp ne ptr %_20.i16, %_22
  %_10.i = icmp ne ptr %_23.i17, %v_end
  %or.cond.i18 = select i1 %_7.i, i1 %_10.i, i1 false
  br i1 %or.cond.i18, label %bb3.i, label %bb16

bb16:                                             ; preds = %bb3.i, %bb1.i, %bb12
  %merge_state.sroa.13.0 = phi ptr [ %spec.select, %bb12 ], [ %_18.i, %bb1.i ], [ %_25.i, %bb3.i ]
  %merge_state.sroa.7.0 = phi ptr [ %_22, %bb12 ], [ %_21.i, %bb1.i ], [ %_22, %bb3.i ]
  %merge_state.sroa.0.0 = phi ptr [ %scratch.0, %bb12 ], [ %scratch.0, %bb1.i ], [ %_20.i16, %bb3.i ]
  %7 = ptrtoint ptr %merge_state.sroa.7.0 to i64
  %8 = ptrtoint ptr %merge_state.sroa.0.0 to i64
  %9 = sub nuw i64 %7, %8
  tail call void @llvm.memcpy.p0.p0.i64(ptr align 4 %merge_state.sroa.13.0, ptr align 4 %merge_state.sroa.0.0, i64 %9, i1 false), !noalias !2024
  br label %bb18

bb18:                                             ; preds = %bb2, %start, %bb16
  ret void
}

; core::slice::sort::stable::quicksort::stable_partition
; Function Attrs: nounwind nonlazybind memory(argmem: readwrite, inaccessiblemem: readwrite) uwtable
define noundef i64 @_ZN4core5slice4sort6stable9quicksort16stable_partition17h04462f93f473f84aE(ptr noalias noundef nonnull align 4 captures(address) %v.0, i64 noundef range(i64 0, 2305843009213693952) %v.1, ptr noalias noundef nonnull align 4 captures(none) %scratch.0, i64 noundef range(i64 0, 2305843009213693952) %scratch.1, i64 noundef %0, i1 noundef zeroext %pivot_goes_left, ptr noalias nonnull readnone align 1 captures(none) %is_less) unnamed_addr #4 {
start:
  %_8 = icmp samesign uge i64 %scratch.1, %v.1
  %.not = icmp ult i64 %0, %v.1
  %or.cond = and i1 %_8, %.not
  br i1 %or.cond, label %bb33, label %bb31, !prof !2029

bb33:                                             ; preds = %start
  %pivot = getelementptr inbounds nuw i32, ptr %v.0, i64 %0
  %_86 = getelementptr i32, ptr %scratch.0, i64 %v.1
  %_8.i70 = zext i1 %pivot_goes_left to i64
  br label %bb3

bb31:                                             ; preds = %start
  tail call void @llvm.trap()
  unreachable

bb3:                                              ; preds = %bb23, %bb33
  %state.sroa.27.0 = phi i64 [ 0, %bb33 ], [ %14, %bb23 ]
  %state.sroa.9.0 = phi ptr [ %v.0, %bb33 ], [ %_9.i71, %bb23 ]
  %state.sroa.43.0 = phi ptr [ %_86, %bb33 ], [ %12, %bb23 ]
  %pivot_pos.sroa.0.0 = phi i64 [ %0, %bb33 ], [ %v.1, %bb23 ]
  %1 = tail call i64 @llvm.usub.sat.i64(i64 %pivot_pos.sroa.0.0, i64 3)
  %unroll_end = getelementptr inbounds nuw i32, ptr %v.0, i64 %1
  %_1985 = icmp ult ptr %state.sroa.9.0, %unroll_end
  br i1 %_1985, label %bb6, label %bb16

bb6:                                              ; preds = %bb3, %bb6
  %state.sroa.43.188 = phi ptr [ %8, %bb6 ], [ %state.sroa.43.0, %bb3 ]
  %state.sroa.9.187 = phi ptr [ %_9.i54, %bb6 ], [ %state.sroa.9.0, %bb3 ]
  %state.sroa.27.186 = phi i64 [ %9, %bb6 ], [ %state.sroa.27.0, %bb3 ]
  tail call void @llvm.experimental.noalias.scope.decl(metadata !2030)
  tail call void @llvm.experimental.noalias.scope.decl(metadata !2033)
  tail call void @llvm.experimental.noalias.scope.decl(metadata !2035)
  tail call void @llvm.experimental.noalias.scope.decl(metadata !2038)
  %_3.i.i = load i32, ptr %state.sroa.9.187, align 4, !alias.scope !2040, !noalias !2041, !noundef !27
  %_4.i.i = load i32, ptr %pivot, align 4, !alias.scope !2041, !noalias !2040, !noundef !27
  %_0.i.i = icmp slt i32 %_3.i.i, %_4.i.i
  %2 = getelementptr inbounds i8, ptr %state.sroa.43.188, i64 -4
  %dst_base.sroa.0.0.i = select i1 %_0.i.i, ptr %scratch.0, ptr %2
  %dst.i = getelementptr inbounds nuw i32, ptr %dst_base.sroa.0.0.i, i64 %state.sroa.27.186
  store i32 %_3.i.i, ptr %dst.i, align 4, !noalias !2042
  %_8.i = zext i1 %_0.i.i to i64
  %3 = add i64 %state.sroa.27.186, %_8.i
  %_9.i = getelementptr inbounds nuw i8, ptr %state.sroa.9.187, i64 4
  tail call void @llvm.experimental.noalias.scope.decl(metadata !2045)
  tail call void @llvm.experimental.noalias.scope.decl(metadata !2048)
  tail call void @llvm.experimental.noalias.scope.decl(metadata !2050)
  tail call void @llvm.experimental.noalias.scope.decl(metadata !2053)
  %_3.i.i25 = load i32, ptr %_9.i, align 4, !alias.scope !2055, !noalias !2056, !noundef !27
  %_4.i.i26 = load i32, ptr %pivot, align 4, !alias.scope !2056, !noalias !2055, !noundef !27
  %_0.i.i27 = icmp slt i32 %_3.i.i25, %_4.i.i26
  %4 = getelementptr inbounds i8, ptr %state.sroa.43.188, i64 -8
  %dst_base.sroa.0.0.i29 = select i1 %_0.i.i27, ptr %scratch.0, ptr %4
  %dst.i31 = getelementptr inbounds nuw i32, ptr %dst_base.sroa.0.0.i29, i64 %3
  store i32 %_3.i.i25, ptr %dst.i31, align 4, !noalias !2057
  %_8.i33 = zext i1 %_0.i.i27 to i64
  %5 = add i64 %3, %_8.i33
  %_9.i34 = getelementptr inbounds nuw i8, ptr %state.sroa.9.187, i64 8
  tail call void @llvm.experimental.noalias.scope.decl(metadata !2060)
  tail call void @llvm.experimental.noalias.scope.decl(metadata !2063)
  tail call void @llvm.experimental.noalias.scope.decl(metadata !2065)
  tail call void @llvm.experimental.noalias.scope.decl(metadata !2068)
  %_3.i.i35 = load i32, ptr %_9.i34, align 4, !alias.scope !2070, !noalias !2071, !noundef !27
  %_4.i.i36 = load i32, ptr %pivot, align 4, !alias.scope !2071, !noalias !2070, !noundef !27
  %_0.i.i37 = icmp slt i32 %_3.i.i35, %_4.i.i36
  %6 = getelementptr inbounds i8, ptr %state.sroa.43.188, i64 -12
  %dst_base.sroa.0.0.i39 = select i1 %_0.i.i37, ptr %scratch.0, ptr %6
  %dst.i41 = getelementptr inbounds nuw i32, ptr %dst_base.sroa.0.0.i39, i64 %5
  store i32 %_3.i.i35, ptr %dst.i41, align 4, !noalias !2072
  %_8.i43 = zext i1 %_0.i.i37 to i64
  %7 = add i64 %5, %_8.i43
  %_9.i44 = getelementptr inbounds nuw i8, ptr %state.sroa.9.187, i64 12
  tail call void @llvm.experimental.noalias.scope.decl(metadata !2075)
  tail call void @llvm.experimental.noalias.scope.decl(metadata !2078)
  tail call void @llvm.experimental.noalias.scope.decl(metadata !2080)
  tail call void @llvm.experimental.noalias.scope.decl(metadata !2083)
  %_3.i.i45 = load i32, ptr %_9.i44, align 4, !alias.scope !2085, !noalias !2086, !noundef !27
  %_4.i.i46 = load i32, ptr %pivot, align 4, !alias.scope !2086, !noalias !2085, !noundef !27
  %_0.i.i47 = icmp slt i32 %_3.i.i45, %_4.i.i46
  %8 = getelementptr inbounds i8, ptr %state.sroa.43.188, i64 -16
  %dst_base.sroa.0.0.i49 = select i1 %_0.i.i47, ptr %scratch.0, ptr %8
  %dst.i51 = getelementptr inbounds nuw i32, ptr %dst_base.sroa.0.0.i49, i64 %7
  store i32 %_3.i.i45, ptr %dst.i51, align 4, !noalias !2087
  %_8.i53 = zext i1 %_0.i.i47 to i64
  %9 = add i64 %7, %_8.i53
  %_9.i54 = getelementptr inbounds nuw i8, ptr %state.sroa.9.187, i64 16
  %_19 = icmp ult ptr %_9.i54, %unroll_end
  br i1 %_19, label %bb6, label %bb16

bb16:                                             ; preds = %bb6, %bb3
  %state.sroa.27.1.lcssa = phi i64 [ %state.sroa.27.0, %bb3 ], [ %9, %bb6 ]
  %state.sroa.9.1.lcssa = phi ptr [ %state.sroa.9.0, %bb3 ], [ %_9.i54, %bb6 ]
  %state.sroa.43.1.lcssa = phi ptr [ %state.sroa.43.0, %bb3 ], [ %8, %bb6 ]
  %loop_end = getelementptr inbounds nuw i32, ptr %v.0, i64 %pivot_pos.sroa.0.0
  %_4791 = icmp ult ptr %state.sroa.9.1.lcssa, %loop_end
  br i1 %_4791, label %bb18, label %bb21

bb21:                                             ; preds = %bb18, %bb16
  %state.sroa.27.2.lcssa = phi i64 [ %state.sroa.27.1.lcssa, %bb16 ], [ %11, %bb18 ]
  %state.sroa.9.2.lcssa = phi ptr [ %state.sroa.9.1.lcssa, %bb16 ], [ %_9.i64, %bb18 ]
  %state.sroa.43.2.lcssa = phi ptr [ %state.sroa.43.1.lcssa, %bb16 ], [ %10, %bb18 ]
  %_55 = icmp eq i64 %pivot_pos.sroa.0.0, %v.1
  br i1 %_55, label %bb22, label %bb23

bb18:                                             ; preds = %bb16, %bb18
  %state.sroa.43.294 = phi ptr [ %10, %bb18 ], [ %state.sroa.43.1.lcssa, %bb16 ]
  %state.sroa.9.293 = phi ptr [ %_9.i64, %bb18 ], [ %state.sroa.9.1.lcssa, %bb16 ]
  %state.sroa.27.292 = phi i64 [ %11, %bb18 ], [ %state.sroa.27.1.lcssa, %bb16 ]
  tail call void @llvm.experimental.noalias.scope.decl(metadata !2090)
  tail call void @llvm.experimental.noalias.scope.decl(metadata !2093)
  tail call void @llvm.experimental.noalias.scope.decl(metadata !2095)
  tail call void @llvm.experimental.noalias.scope.decl(metadata !2098)
  %_3.i.i55 = load i32, ptr %state.sroa.9.293, align 4, !alias.scope !2100, !noalias !2101, !noundef !27
  %_4.i.i56 = load i32, ptr %pivot, align 4, !alias.scope !2101, !noalias !2100, !noundef !27
  %_0.i.i57 = icmp slt i32 %_3.i.i55, %_4.i.i56
  %10 = getelementptr inbounds i8, ptr %state.sroa.43.294, i64 -4
  %dst_base.sroa.0.0.i59 = select i1 %_0.i.i57, ptr %scratch.0, ptr %10
  %dst.i61 = getelementptr inbounds nuw i32, ptr %dst_base.sroa.0.0.i59, i64 %state.sroa.27.292
  store i32 %_3.i.i55, ptr %dst.i61, align 4, !noalias !2102
  %_8.i63 = zext i1 %_0.i.i57 to i64
  %11 = add i64 %state.sroa.27.292, %_8.i63
  %_9.i64 = getelementptr inbounds nuw i8, ptr %state.sroa.9.293, i64 4
  %_47 = icmp ult ptr %_9.i64, %loop_end
  br i1 %_47, label %bb18, label %bb21

bb23:                                             ; preds = %bb21
  %12 = getelementptr inbounds i8, ptr %state.sroa.43.2.lcssa, i64 -4
  %dst_base.sroa.0.0.i66 = select i1 %pivot_goes_left, ptr %scratch.0, ptr %12
  %dst.i68 = getelementptr inbounds nuw i32, ptr %dst_base.sroa.0.0.i66, i64 %state.sroa.27.2.lcssa
  %13 = load i32, ptr %state.sroa.9.2.lcssa, align 4, !noalias !2105
  store i32 %13, ptr %dst.i68, align 4, !noalias !2105
  %14 = add i64 %state.sroa.27.2.lcssa, %_8.i70
  %_9.i71 = getelementptr inbounds nuw i8, ptr %state.sroa.9.2.lcssa, i64 4
  br label %bb3

bb22:                                             ; preds = %bb21
  %15 = shl i64 %state.sroa.27.2.lcssa, 2
  tail call void @llvm.memcpy.p0.p0.i64(ptr nonnull align 4 %v.0, ptr nonnull align 4 %scratch.0, i64 %15, i1 false)
  %_63 = sub i64 %v.1, %state.sroa.27.2.lcssa
  %_9798.not = icmp eq i64 %v.1, %state.sroa.27.2.lcssa
  br i1 %_9798.not, label %bb30, label %bb42.lr.ph

bb42.lr.ph:                                       ; preds = %bb22
  %16 = getelementptr i32, ptr %v.0, i64 %state.sroa.27.2.lcssa
  %xtraiter = and i64 %_63, 3
  %17 = sub i64 %state.sroa.27.2.lcssa, %v.1
  %18 = icmp ugt i64 %17, -4
  br i1 %18, label %bb30.loopexit.unr-lcssa, label %bb42.lr.ph.new

bb42.lr.ph.new:                                   ; preds = %bb42.lr.ph
  %unroll_iter = and i64 %_63, -4
  %invariant.gep = getelementptr i8, ptr %16, i64 4
  %invariant.gep114 = getelementptr i8, ptr %16, i64 8
  %invariant.gep116 = getelementptr i8, ptr %16, i64 12
  br label %bb42

bb42:                                             ; preds = %bb42, %bb42.lr.ph.new
  %iter.sroa.0.099 = phi i64 [ 0, %bb42.lr.ph.new ], [ %29, %bb42 ]
  %niter = phi i64 [ 0, %bb42.lr.ph.new ], [ %niter.next.3, %bb42 ]
  %19 = getelementptr i32, ptr %16, i64 %iter.sroa.0.099
  %20 = xor i64 %iter.sroa.0.099, -1
  %21 = getelementptr i32, ptr %_86, i64 %20
  %22 = load i32, ptr %21, align 4
  store i32 %22, ptr %19, align 4
  %gep = getelementptr i32, ptr %invariant.gep, i64 %iter.sroa.0.099
  %23 = xor i64 %iter.sroa.0.099, -2
  %24 = getelementptr i32, ptr %_86, i64 %23
  %25 = load i32, ptr %24, align 4
  store i32 %25, ptr %gep, align 4
  %gep115 = getelementptr i32, ptr %invariant.gep114, i64 %iter.sroa.0.099
  %26 = xor i64 %iter.sroa.0.099, -3
  %27 = getelementptr i32, ptr %_86, i64 %26
  %28 = load i32, ptr %27, align 4
  store i32 %28, ptr %gep115, align 4
  %29 = add nuw i64 %iter.sroa.0.099, 4
  %gep117 = getelementptr i32, ptr %invariant.gep116, i64 %iter.sroa.0.099
  %30 = xor i64 %iter.sroa.0.099, -4
  %31 = getelementptr i32, ptr %_86, i64 %30
  %32 = load i32, ptr %31, align 4
  store i32 %32, ptr %gep117, align 4
  %niter.next.3 = add i64 %niter, 4
  %niter.ncmp.3 = icmp eq i64 %niter.next.3, %unroll_iter
  br i1 %niter.ncmp.3, label %bb30.loopexit.unr-lcssa, label %bb42

bb30.loopexit.unr-lcssa:                          ; preds = %bb42, %bb42.lr.ph
  %iter.sroa.0.099.unr = phi i64 [ 0, %bb42.lr.ph ], [ %29, %bb42 ]
  %lcmp.mod.not = icmp eq i64 %xtraiter, 0
  br i1 %lcmp.mod.not, label %bb30, label %bb42.epil

bb42.epil:                                        ; preds = %bb30.loopexit.unr-lcssa, %bb42.epil
  %iter.sroa.0.099.epil = phi i64 [ %33, %bb42.epil ], [ %iter.sroa.0.099.unr, %bb30.loopexit.unr-lcssa ]
  %epil.iter = phi i64 [ %epil.iter.next, %bb42.epil ], [ 0, %bb30.loopexit.unr-lcssa ]
  %33 = add nuw i64 %iter.sroa.0.099.epil, 1
  %34 = getelementptr i32, ptr %16, i64 %iter.sroa.0.099.epil
  %35 = xor i64 %iter.sroa.0.099.epil, -1
  %36 = getelementptr i32, ptr %_86, i64 %35
  %37 = load i32, ptr %36, align 4
  store i32 %37, ptr %34, align 4
  %epil.iter.next = add i64 %epil.iter, 1
  %epil.iter.cmp.not = icmp eq i64 %epil.iter.next, %xtraiter
  br i1 %epil.iter.cmp.not, label %bb30, label %bb42.epil, !llvm.loop !2108

bb30:                                             ; preds = %bb30.loopexit.unr-lcssa, %bb42.epil, %bb22
  ret i64 %state.sroa.27.2.lcssa
}

; core::slice::sort::stable::quicksort::stable_partition
; Function Attrs: nounwind nonlazybind memory(argmem: readwrite, inaccessiblemem: readwrite) uwtable
define noundef i64 @_ZN4core5slice4sort6stable9quicksort16stable_partition17h184f05969314347fE(ptr noalias noundef nonnull align 4 captures(address) %v.0, i64 noundef range(i64 0, 2305843009213693952) %v.1, ptr noalias noundef nonnull align 4 captures(none) %scratch.0, i64 noundef range(i64 0, 2305843009213693952) %scratch.1, i64 noundef %0, i1 noundef zeroext %pivot_goes_left, ptr noalias readnone align 8 captures(none) %is_less) unnamed_addr #4 {
start:
  %_8 = icmp samesign uge i64 %scratch.1, %v.1
  %.not = icmp ult i64 %0, %v.1
  %or.cond = and i1 %_8, %.not
  br i1 %or.cond, label %bb33, label %bb31, !prof !2029

bb33:                                             ; preds = %start
  %pivot = getelementptr inbounds nuw i32, ptr %v.0, i64 %0
  %_86 = getelementptr i32, ptr %scratch.0, i64 %v.1
  %_8.i70 = zext i1 %pivot_goes_left to i64
  br label %bb3

bb31:                                             ; preds = %start
  tail call void @llvm.trap()
  unreachable

bb3:                                              ; preds = %bb23, %bb33
  %state.sroa.27.0 = phi i64 [ 0, %bb33 ], [ %14, %bb23 ]
  %state.sroa.9.0 = phi ptr [ %v.0, %bb33 ], [ %_9.i71, %bb23 ]
  %state.sroa.43.0 = phi ptr [ %_86, %bb33 ], [ %12, %bb23 ]
  %pivot_pos.sroa.0.0 = phi i64 [ %0, %bb33 ], [ %v.1, %bb23 ]
  %1 = tail call i64 @llvm.usub.sat.i64(i64 %pivot_pos.sroa.0.0, i64 3)
  %unroll_end = getelementptr inbounds nuw i32, ptr %v.0, i64 %1
  %_1985 = icmp ult ptr %state.sroa.9.0, %unroll_end
  br i1 %_1985, label %bb6, label %bb16

bb6:                                              ; preds = %bb3, %bb6
  %state.sroa.43.188 = phi ptr [ %8, %bb6 ], [ %state.sroa.43.0, %bb3 ]
  %state.sroa.9.187 = phi ptr [ %_9.i54, %bb6 ], [ %state.sroa.9.0, %bb3 ]
  %state.sroa.27.186 = phi i64 [ %9, %bb6 ], [ %state.sroa.27.0, %bb3 ]
  tail call void @llvm.experimental.noalias.scope.decl(metadata !2110)
  tail call void @llvm.experimental.noalias.scope.decl(metadata !2113)
  tail call void @llvm.experimental.noalias.scope.decl(metadata !2115)
  tail call void @llvm.experimental.noalias.scope.decl(metadata !2118)
  tail call void @llvm.experimental.noalias.scope.decl(metadata !2120)
  tail call void @llvm.experimental.noalias.scope.decl(metadata !2123)
  tail call void @llvm.experimental.noalias.scope.decl(metadata !2125)
  tail call void @llvm.experimental.noalias.scope.decl(metadata !2128)
  %_3.i.i.i.i = load i32, ptr %state.sroa.9.187, align 4, !alias.scope !2130, !noalias !2131, !noundef !27
  %_4.i.i.i.i = load i32, ptr %pivot, align 4, !alias.scope !2131, !noalias !2130, !noundef !27
  %_0.i = icmp slt i32 %_3.i.i.i.i, %_4.i.i.i.i
  %2 = getelementptr inbounds i8, ptr %state.sroa.43.188, i64 -4
  %dst_base.sroa.0.0.i = select i1 %_0.i, ptr %scratch.0, ptr %2
  %dst.i = getelementptr inbounds nuw i32, ptr %dst_base.sroa.0.0.i, i64 %state.sroa.27.186
  store i32 %_3.i.i.i.i, ptr %dst.i, align 4, !noalias !2132
  %_8.i = zext i1 %_0.i to i64
  %3 = add i64 %state.sroa.27.186, %_8.i
  %_9.i = getelementptr inbounds nuw i8, ptr %state.sroa.9.187, i64 4
  tail call void @llvm.experimental.noalias.scope.decl(metadata !2135)
  tail call void @llvm.experimental.noalias.scope.decl(metadata !2138)
  tail call void @llvm.experimental.noalias.scope.decl(metadata !2140)
  tail call void @llvm.experimental.noalias.scope.decl(metadata !2143)
  tail call void @llvm.experimental.noalias.scope.decl(metadata !2145)
  tail call void @llvm.experimental.noalias.scope.decl(metadata !2148)
  tail call void @llvm.experimental.noalias.scope.decl(metadata !2150)
  tail call void @llvm.experimental.noalias.scope.decl(metadata !2153)
  %_3.i.i.i.i25 = load i32, ptr %_9.i, align 4, !alias.scope !2155, !noalias !2156, !noundef !27
  %_4.i.i.i.i26 = load i32, ptr %pivot, align 4, !alias.scope !2156, !noalias !2155, !noundef !27
  %_0.i27 = icmp slt i32 %_3.i.i.i.i25, %_4.i.i.i.i26
  %4 = getelementptr inbounds i8, ptr %state.sroa.43.188, i64 -8
  %dst_base.sroa.0.0.i29 = select i1 %_0.i27, ptr %scratch.0, ptr %4
  %dst.i31 = getelementptr inbounds nuw i32, ptr %dst_base.sroa.0.0.i29, i64 %3
  store i32 %_3.i.i.i.i25, ptr %dst.i31, align 4, !noalias !2157
  %_8.i33 = zext i1 %_0.i27 to i64
  %5 = add i64 %3, %_8.i33
  %_9.i34 = getelementptr inbounds nuw i8, ptr %state.sroa.9.187, i64 8
  tail call void @llvm.experimental.noalias.scope.decl(metadata !2160)
  tail call void @llvm.experimental.noalias.scope.decl(metadata !2163)
  tail call void @llvm.experimental.noalias.scope.decl(metadata !2165)
  tail call void @llvm.experimental.noalias.scope.decl(metadata !2168)
  tail call void @llvm.experimental.noalias.scope.decl(metadata !2170)
  tail call void @llvm.experimental.noalias.scope.decl(metadata !2173)
  tail call void @llvm.experimental.noalias.scope.decl(metadata !2175)
  tail call void @llvm.experimental.noalias.scope.decl(metadata !2178)
  %_3.i.i.i.i35 = load i32, ptr %_9.i34, align 4, !alias.scope !2180, !noalias !2181, !noundef !27
  %_4.i.i.i.i36 = load i32, ptr %pivot, align 4, !alias.scope !2181, !noalias !2180, !noundef !27
  %_0.i37 = icmp slt i32 %_3.i.i.i.i35, %_4.i.i.i.i36
  %6 = getelementptr inbounds i8, ptr %state.sroa.43.188, i64 -12
  %dst_base.sroa.0.0.i39 = select i1 %_0.i37, ptr %scratch.0, ptr %6
  %dst.i41 = getelementptr inbounds nuw i32, ptr %dst_base.sroa.0.0.i39, i64 %5
  store i32 %_3.i.i.i.i35, ptr %dst.i41, align 4, !noalias !2182
  %_8.i43 = zext i1 %_0.i37 to i64
  %7 = add i64 %5, %_8.i43
  %_9.i44 = getelementptr inbounds nuw i8, ptr %state.sroa.9.187, i64 12
  tail call void @llvm.experimental.noalias.scope.decl(metadata !2185)
  tail call void @llvm.experimental.noalias.scope.decl(metadata !2188)
  tail call void @llvm.experimental.noalias.scope.decl(metadata !2190)
  tail call void @llvm.experimental.noalias.scope.decl(metadata !2193)
  tail call void @llvm.experimental.noalias.scope.decl(metadata !2195)
  tail call void @llvm.experimental.noalias.scope.decl(metadata !2198)
  tail call void @llvm.experimental.noalias.scope.decl(metadata !2200)
  tail call void @llvm.experimental.noalias.scope.decl(metadata !2203)
  %_3.i.i.i.i45 = load i32, ptr %_9.i44, align 4, !alias.scope !2205, !noalias !2206, !noundef !27
  %_4.i.i.i.i46 = load i32, ptr %pivot, align 4, !alias.scope !2206, !noalias !2205, !noundef !27
  %_0.i47 = icmp slt i32 %_3.i.i.i.i45, %_4.i.i.i.i46
  %8 = getelementptr inbounds i8, ptr %state.sroa.43.188, i64 -16
  %dst_base.sroa.0.0.i49 = select i1 %_0.i47, ptr %scratch.0, ptr %8
  %dst.i51 = getelementptr inbounds nuw i32, ptr %dst_base.sroa.0.0.i49, i64 %7
  store i32 %_3.i.i.i.i45, ptr %dst.i51, align 4, !noalias !2207
  %_8.i53 = zext i1 %_0.i47 to i64
  %9 = add i64 %7, %_8.i53
  %_9.i54 = getelementptr inbounds nuw i8, ptr %state.sroa.9.187, i64 16
  %_19 = icmp ult ptr %_9.i54, %unroll_end
  br i1 %_19, label %bb6, label %bb16

bb16:                                             ; preds = %bb6, %bb3
  %state.sroa.27.1.lcssa = phi i64 [ %state.sroa.27.0, %bb3 ], [ %9, %bb6 ]
  %state.sroa.9.1.lcssa = phi ptr [ %state.sroa.9.0, %bb3 ], [ %_9.i54, %bb6 ]
  %state.sroa.43.1.lcssa = phi ptr [ %state.sroa.43.0, %bb3 ], [ %8, %bb6 ]
  %loop_end = getelementptr inbounds nuw i32, ptr %v.0, i64 %pivot_pos.sroa.0.0
  %_4791 = icmp ult ptr %state.sroa.9.1.lcssa, %loop_end
  br i1 %_4791, label %bb18, label %bb21

bb21:                                             ; preds = %bb18, %bb16
  %state.sroa.27.2.lcssa = phi i64 [ %state.sroa.27.1.lcssa, %bb16 ], [ %11, %bb18 ]
  %state.sroa.9.2.lcssa = phi ptr [ %state.sroa.9.1.lcssa, %bb16 ], [ %_9.i64, %bb18 ]
  %state.sroa.43.2.lcssa = phi ptr [ %state.sroa.43.1.lcssa, %bb16 ], [ %10, %bb18 ]
  %_55 = icmp eq i64 %pivot_pos.sroa.0.0, %v.1
  br i1 %_55, label %bb22, label %bb23

bb18:                                             ; preds = %bb16, %bb18
  %state.sroa.43.294 = phi ptr [ %10, %bb18 ], [ %state.sroa.43.1.lcssa, %bb16 ]
  %state.sroa.9.293 = phi ptr [ %_9.i64, %bb18 ], [ %state.sroa.9.1.lcssa, %bb16 ]
  %state.sroa.27.292 = phi i64 [ %11, %bb18 ], [ %state.sroa.27.1.lcssa, %bb16 ]
  tail call void @llvm.experimental.noalias.scope.decl(metadata !2210)
  tail call void @llvm.experimental.noalias.scope.decl(metadata !2213)
  tail call void @llvm.experimental.noalias.scope.decl(metadata !2215)
  tail call void @llvm.experimental.noalias.scope.decl(metadata !2218)
  tail call void @llvm.experimental.noalias.scope.decl(metadata !2220)
  tail call void @llvm.experimental.noalias.scope.decl(metadata !2223)
  tail call void @llvm.experimental.noalias.scope.decl(metadata !2225)
  tail call void @llvm.experimental.noalias.scope.decl(metadata !2228)
  %_3.i.i.i.i55 = load i32, ptr %state.sroa.9.293, align 4, !alias.scope !2230, !noalias !2231, !noundef !27
  %_4.i.i.i.i56 = load i32, ptr %pivot, align 4, !alias.scope !2231, !noalias !2230, !noundef !27
  %_0.i57 = icmp slt i32 %_3.i.i.i.i55, %_4.i.i.i.i56
  %10 = getelementptr inbounds i8, ptr %state.sroa.43.294, i64 -4
  %dst_base.sroa.0.0.i59 = select i1 %_0.i57, ptr %scratch.0, ptr %10
  %dst.i61 = getelementptr inbounds nuw i32, ptr %dst_base.sroa.0.0.i59, i64 %state.sroa.27.292
  store i32 %_3.i.i.i.i55, ptr %dst.i61, align 4, !noalias !2232
  %_8.i63 = zext i1 %_0.i57 to i64
  %11 = add i64 %state.sroa.27.292, %_8.i63
  %_9.i64 = getelementptr inbounds nuw i8, ptr %state.sroa.9.293, i64 4
  %_47 = icmp ult ptr %_9.i64, %loop_end
  br i1 %_47, label %bb18, label %bb21

bb23:                                             ; preds = %bb21
  %12 = getelementptr inbounds i8, ptr %state.sroa.43.2.lcssa, i64 -4
  %dst_base.sroa.0.0.i66 = select i1 %pivot_goes_left, ptr %scratch.0, ptr %12
  %dst.i68 = getelementptr inbounds nuw i32, ptr %dst_base.sroa.0.0.i66, i64 %state.sroa.27.2.lcssa
  %13 = load i32, ptr %state.sroa.9.2.lcssa, align 4, !noalias !2235
  store i32 %13, ptr %dst.i68, align 4, !noalias !2235
  %14 = add i64 %state.sroa.27.2.lcssa, %_8.i70
  %_9.i71 = getelementptr inbounds nuw i8, ptr %state.sroa.9.2.lcssa, i64 4
  br label %bb3

bb22:                                             ; preds = %bb21
  %15 = shl i64 %state.sroa.27.2.lcssa, 2
  tail call void @llvm.memcpy.p0.p0.i64(ptr nonnull align 4 %v.0, ptr nonnull align 4 %scratch.0, i64 %15, i1 false)
  %_63 = sub i64 %v.1, %state.sroa.27.2.lcssa
  %_9798.not = icmp eq i64 %v.1, %state.sroa.27.2.lcssa
  br i1 %_9798.not, label %bb30, label %bb42.lr.ph

bb42.lr.ph:                                       ; preds = %bb22
  %16 = getelementptr i32, ptr %v.0, i64 %state.sroa.27.2.lcssa
  %xtraiter = and i64 %_63, 3
  %17 = sub i64 %state.sroa.27.2.lcssa, %v.1
  %18 = icmp ugt i64 %17, -4
  br i1 %18, label %bb30.loopexit.unr-lcssa, label %bb42.lr.ph.new

bb42.lr.ph.new:                                   ; preds = %bb42.lr.ph
  %unroll_iter = and i64 %_63, -4
  %invariant.gep = getelementptr i8, ptr %16, i64 4
  %invariant.gep114 = getelementptr i8, ptr %16, i64 8
  %invariant.gep116 = getelementptr i8, ptr %16, i64 12
  br label %bb42

bb42:                                             ; preds = %bb42, %bb42.lr.ph.new
  %iter.sroa.0.099 = phi i64 [ 0, %bb42.lr.ph.new ], [ %29, %bb42 ]
  %niter = phi i64 [ 0, %bb42.lr.ph.new ], [ %niter.next.3, %bb42 ]
  %19 = getelementptr i32, ptr %16, i64 %iter.sroa.0.099
  %20 = xor i64 %iter.sroa.0.099, -1
  %21 = getelementptr i32, ptr %_86, i64 %20
