; ModuleID = 'benchmark/cpp_transcoder/COUNT_NUMBERS_CAN_CONSTRUCTED_USING_TWO_NUMBERS/COUNT_NUMBERS_CAN_CONSTRUCTED_USING_TWO_NUMBERS_processed.cpp'
source_filename = "benchmark/cpp_transcoder/COUNT_NUMBERS_CAN_CONSTRUCTED_USING_TWO_NUMBERS/COUNT_NUMBERS_CAN_CONSTRUCTED_USING_TWO_NUMBERS_processed.cpp"
target datalayout = "e-m:e-p270:32:32-p271:32:32-p272:64:64-i64:64-f80:128-n8:16:32:64-S128"
target triple = "x86_64-pc-linux-gnu"

%"class.std::ios_base::Init" = type { i8 }
%"class.std::vector" = type { %"struct.std::_Bvector_base" }
%"struct.std::_Bvector_base" = type { %"struct.std::_Bvector_base<std::allocator<bool>>::_Bvector_impl" }
%"struct.std::_Bvector_base<std::allocator<bool>>::_Bvector_impl" = type { %"struct.std::_Bvector_base<std::allocator<bool>>::_Bvector_impl_data" }
%"struct.std::_Bvector_base<std::allocator<bool>>::_Bvector_impl_data" = type { %"struct.std::_Bit_iterator", %"struct.std::_Bit_iterator", i64* }
%"struct.std::_Bit_iterator" = type { %"struct.std::_Bit_iterator_base.base", [4 x i8] }
%"struct.std::_Bit_iterator_base.base" = type <{ i64*, i32 }>
%"class.std::allocator.0" = type { i8 }
%"struct.std::_Bit_reference" = type { i64*, i64 }
%"class.__gnu_cxx::new_allocator.1" = type { i8 }
%"class.std::allocator" = type { i8 }
%"struct.std::_Bit_iterator_base" = type <{ i64*, i32, [4 x i8] }>
%"class.__gnu_cxx::new_allocator" = type { i8 }
%"struct.std::iterator" = type { i8 }

$_ZNSaIbEC2Ev = comdat any

$_ZNSt6vectorIbSaIbEEC2EmRKbRKS0_ = comdat any

$_ZNSaIbED2Ev = comdat any

$_ZNSt6vectorIbSaIbEEixEm = comdat any

$_ZNSt14_Bit_referenceaSEb = comdat any

$_ZSt3minIiERKT_S2_S2_ = comdat any

$_ZNKSt14_Bit_referencecvbEv = comdat any

$_ZNSt6vectorIbSaIbEED2Ev = comdat any

$_ZN9__gnu_cxx13new_allocatorIbEC2Ev = comdat any

$_ZN9__gnu_cxx13new_allocatorIbED2Ev = comdat any

$_ZNSt13_Bvector_baseISaIbEEC2ERKS0_ = comdat any

$_ZNSt6vectorIbSaIbEE13_M_initializeEm = comdat any

$_ZNSt6vectorIbSaIbEE19_M_initialize_valueEb = comdat any

$_ZNSt13_Bvector_baseISaIbEED2Ev = comdat any

$_ZNSaImEC2IbEERKSaIT_E = comdat any

$_ZNSt13_Bvector_baseISaIbEE13_Bvector_implC2ERKSaImE = comdat any

$_ZNSaImED2Ev = comdat any

$_ZN9__gnu_cxx13new_allocatorImEC2Ev = comdat any

$_ZNSaImEC2ERKS_ = comdat any

$_ZN9__gnu_cxx13new_allocatorImEC2ERKS1_ = comdat any

$_ZNSt13_Bit_iteratorC2Ev = comdat any

$__clang_call_terminate = comdat any

$_ZNSt18_Bit_iterator_baseC2EPmj = comdat any

$_ZN9__gnu_cxx13new_allocatorImED2Ev = comdat any

$_ZNSt13_Bvector_baseISaIbEE11_M_allocateEm = comdat any

$_ZNSt13_Bvector_baseISaIbEE8_S_nwordEm = comdat any

$_ZSt11__addressofImEPT_RS0_ = comdat any

$_ZNSt13_Bit_iteratorC2EPmj = comdat any

$_ZStplRKSt13_Bit_iteratorl = comdat any

$_ZNSt16allocator_traitsISaImEE8allocateERS0_m = comdat any

$_ZN9__gnu_cxx13new_allocatorImE8allocateEmPKv = comdat any

$_ZNK9__gnu_cxx13new_allocatorImE11_M_max_sizeEv = comdat any

$_ZNSt13_Bit_iteratorpLEl = comdat any

$_ZNSt18_Bit_iterator_base7_M_incrEl = comdat any

$_ZNKSt13_Bvector_baseISaIbEE13_Bvector_impl11_M_end_addrEv = comdat any

$_ZNSt13_Bvector_baseISaIbEE13_M_deallocateEv = comdat any

$_ZNSt13_Bvector_baseISaIbEE13_Bvector_implD2Ev = comdat any

$_ZNSt16allocator_traitsISaImEE10deallocateERS0_Pmm = comdat any

$_ZNSt13_Bvector_baseISaIbEE18_Bvector_impl_data8_M_resetEv = comdat any

$_ZN9__gnu_cxx13new_allocatorImE10deallocateEPmm = comdat any

$_ZNSt13_Bvector_baseISaIbEE18_Bvector_impl_dataC2Ev = comdat any

$_ZNSt6vectorIbSaIbEE5beginEv = comdat any

$_ZNKSt13_Bit_iteratorixEl = comdat any

$_ZNKSt13_Bit_iteratordeEv = comdat any

$_ZNSt14_Bit_referenceC2EPmm = comdat any

@_ZStL8__ioinit = internal global %"class.std::ios_base::Init" zeroinitializer, align 1
@__dso_handle = external hidden global i8
@llvm.global_ctors = appending global [1 x { i32, void ()*, i8* }] [{ i32, void ()*, i8* } { i32 65535, void ()* @_GLOBAL__sub_I_COUNT_NUMBERS_CAN_CONSTRUCTED_USING_TWO_NUMBERS_processed.cpp, i8* null }]

; Function Attrs: noinline uwtable
define internal void @__cxx_global_var_init() #0 section ".text.startup" {
  call void @_ZNSt8ios_base4InitC1Ev(%"class.std::ios_base::Init"* noundef nonnull align 1 dereferenceable(1) @_ZStL8__ioinit)
  %1 = call i32 @__cxa_atexit(void (i8*)* bitcast (void (%"class.std::ios_base::Init"*)* @_ZNSt8ios_base4InitD1Ev to void (i8*)*), i8* getelementptr inbounds (%"class.std::ios_base::Init", %"class.std::ios_base::Init"* @_ZStL8__ioinit, i32 0, i32 0), i8* @__dso_handle) #3
  ret void
}

declare void @_ZNSt8ios_base4InitC1Ev(%"class.std::ios_base::Init"* noundef nonnull align 1 dereferenceable(1)) unnamed_addr #1

; Function Attrs: nounwind
declare void @_ZNSt8ios_base4InitD1Ev(%"class.std::ios_base::Init"* noundef nonnull align 1 dereferenceable(1)) unnamed_addr #2

; Function Attrs: nounwind
declare i32 @__cxa_atexit(void (i8*)*, i8*, i8*) #3

; Function Attrs: mustprogress noinline optnone uwtable
define dso_local noundef i32 @_Z6f_goldiii(i32 noundef %0, i32 noundef %1, i32 noundef %2) #4 personality i8* bitcast (i32 (...)* @__gxx_personality_v0 to i8*) {
  %4 = alloca i32, align 4
  %5 = alloca i32, align 4
  %6 = alloca i32, align 4
  %7 = alloca %"class.std::vector", align 8
  %8 = alloca i8, align 1
  %9 = alloca %"class.std::allocator.0", align 1
  %10 = alloca i8*, align 8
  %11 = alloca i32, align 4
  %12 = alloca %"struct.std::_Bit_reference", align 8
  %13 = alloca %"struct.std::_Bit_reference", align 8
  %14 = alloca i32, align 4
  %15 = alloca i32, align 4
  %16 = alloca %"struct.std::_Bit_reference", align 8
  %17 = alloca %"struct.std::_Bit_reference", align 8
  %18 = alloca %"struct.std::_Bit_reference", align 8
  store i32 %0, i32* %4, align 4
  store i32 %1, i32* %5, align 4
  store i32 %2, i32* %6, align 4
  %19 = load i32, i32* %4, align 4
  %20 = add nsw i32 %19, 1
  %21 = sext i32 %20 to i64
  store i8 0, i8* %8, align 1
  call void @_ZNSaIbEC2Ev(%"class.std::allocator.0"* noundef nonnull align 1 dereferenceable(1) %9) #3
  invoke void @_ZNSt6vectorIbSaIbEEC2EmRKbRKS0_(%"class.std::vector"* noundef nonnull align 8 dereferenceable(40) %7, i64 noundef %21, i8* noundef nonnull align 1 dereferenceable(1) %8, %"class.std::allocator.0"* noundef nonnull align 1 dereferenceable(1) %9)
          to label %22 unwind label %37

22:                                               ; preds = %3
  call void @_ZNSaIbED2Ev(%"class.std::allocator.0"* noundef nonnull align 1 dereferenceable(1) %9) #3
  %23 = load i32, i32* %5, align 4
  %24 = load i32, i32* %4, align 4
  %25 = icmp sle i32 %23, %24
  br i1 %25, label %26, label %45

26:                                               ; preds = %22
  %27 = load i32, i32* %5, align 4
  %28 = sext i32 %27 to i64
  %29 = invoke { i64*, i64 } @_ZNSt6vectorIbSaIbEEixEm(%"class.std::vector"* noundef nonnull align 8 dereferenceable(40) %7, i64 noundef %28)
          to label %30 unwind label %41

30:                                               ; preds = %26
  %31 = bitcast %"struct.std::_Bit_reference"* %12 to { i64*, i64 }*
  %32 = getelementptr inbounds { i64*, i64 }, { i64*, i64 }* %31, i32 0, i32 0
  %33 = extractvalue { i64*, i64 } %29, 0
  store i64* %33, i64** %32, align 8
  %34 = getelementptr inbounds { i64*, i64 }, { i64*, i64 }* %31, i32 0, i32 1
  %35 = extractvalue { i64*, i64 } %29, 1
  store i64 %35, i64* %34, align 8
  %36 = call noundef nonnull align 8 dereferenceable(16) %"struct.std::_Bit_reference"* @_ZNSt14_Bit_referenceaSEb(%"struct.std::_Bit_reference"* noundef nonnull align 8 dereferenceable(16) %12, i1 noundef zeroext true) #3
  br label %45

37:                                               ; preds = %3
  %38 = landingpad { i8*, i32 }
          cleanup
  %39 = extractvalue { i8*, i32 } %38, 0
  store i8* %39, i8** %10, align 8
  %40 = extractvalue { i8*, i32 } %38, 1
  store i32 %40, i32* %11, align 4
  call void @_ZNSaIbED2Ev(%"class.std::allocator.0"* noundef nonnull align 1 dereferenceable(1) %9) #3
  br label %126

41:                                               ; preds = %104, %85, %68, %60, %49, %26
  %42 = landingpad { i8*, i32 }
          cleanup
  %43 = extractvalue { i8*, i32 } %42, 0
  store i8* %43, i8** %10, align 8
  %44 = extractvalue { i8*, i32 } %42, 1
  store i32 %44, i32* %11, align 4
  call void @_ZNSt6vectorIbSaIbEED2Ev(%"class.std::vector"* noundef nonnull align 8 dereferenceable(40) %7) #3
  br label %126

45:                                               ; preds = %30, %22
  %46 = load i32, i32* %6, align 4
  %47 = load i32, i32* %4, align 4
  %48 = icmp sle i32 %46, %47
  br i1 %48, label %49, label %60

49:                                               ; preds = %45
  %50 = load i32, i32* %6, align 4
  %51 = sext i32 %50 to i64
  %52 = invoke { i64*, i64 } @_ZNSt6vectorIbSaIbEEixEm(%"class.std::vector"* noundef nonnull align 8 dereferenceable(40) %7, i64 noundef %51)
          to label %53 unwind label %41

53:                                               ; preds = %49
  %54 = bitcast %"struct.std::_Bit_reference"* %13 to { i64*, i64 }*
  %55 = getelementptr inbounds { i64*, i64 }, { i64*, i64 }* %54, i32 0, i32 0
  %56 = extractvalue { i64*, i64 } %52, 0
  store i64* %56, i64** %55, align 8
  %57 = getelementptr inbounds { i64*, i64 }, { i64*, i64 }* %54, i32 0, i32 1
  %58 = extractvalue { i64*, i64 } %52, 1
  store i64 %58, i64* %57, align 8
  %59 = call noundef nonnull align 8 dereferenceable(16) %"struct.std::_Bit_reference"* @_ZNSt14_Bit_referenceaSEb(%"struct.std::_Bit_reference"* noundef nonnull align 8 dereferenceable(16) %13, i1 noundef zeroext true) #3
  br label %60

60:                                               ; preds = %53, %45
  store i32 0, i32* %14, align 4
  %61 = invoke noundef nonnull align 4 dereferenceable(4) i32* @_ZSt3minIiERKT_S2_S2_(i32* noundef nonnull align 4 dereferenceable(4) %5, i32* noundef nonnull align 4 dereferenceable(4) %6)
          to label %62 unwind label %41

62:                                               ; preds = %60
  %63 = load i32, i32* %61, align 4
  store i32 %63, i32* %15, align 4
  br label %64

64:                                               ; preds = %121, %62
  %65 = load i32, i32* %15, align 4
  %66 = load i32, i32* %4, align 4
  %67 = icmp sle i32 %65, %66
  br i1 %67, label %68, label %124

68:                                               ; preds = %64
  %69 = load i32, i32* %15, align 4
  %70 = sext i32 %69 to i64
  %71 = invoke { i64*, i64 } @_ZNSt6vectorIbSaIbEEixEm(%"class.std::vector"* noundef nonnull align 8 dereferenceable(40) %7, i64 noundef %70)
          to label %72 unwind label %41

72:                                               ; preds = %68
  %73 = bitcast %"struct.std::_Bit_reference"* %16 to { i64*, i64 }*
  %74 = getelementptr inbounds { i64*, i64 }, { i64*, i64 }* %73, i32 0, i32 0
  %75 = extractvalue { i64*, i64 } %71, 0
  store i64* %75, i64** %74, align 8
  %76 = getelementptr inbounds { i64*, i64 }, { i64*, i64 }* %73, i32 0, i32 1
  %77 = extractvalue { i64*, i64 } %71, 1
  store i64 %77, i64* %76, align 8
  %78 = call noundef zeroext i1 @_ZNKSt14_Bit_referencecvbEv(%"struct.std::_Bit_reference"* noundef nonnull align 8 dereferenceable(16) %16) #3
  br i1 %78, label %79, label %120

79:                                               ; preds = %72
  %80 = load i32, i32* %15, align 4
  %81 = load i32, i32* %5, align 4
  %82 = add nsw i32 %80, %81
  %83 = load i32, i32* %4, align 4
  %84 = icmp sle i32 %82, %83
  br i1 %84, label %85, label %98

85:                                               ; preds = %79
  %86 = load i32, i32* %15, align 4
  %87 = load i32, i32* %5, align 4
  %88 = add nsw i32 %86, %87
  %89 = sext i32 %88 to i64
  %90 = invoke { i64*, i64 } @_ZNSt6vectorIbSaIbEEixEm(%"class.std::vector"* noundef nonnull align 8 dereferenceable(40) %7, i64 noundef %89)
          to label %91 unwind label %41

91:                                               ; preds = %85
  %92 = bitcast %"struct.std::_Bit_reference"* %17 to { i64*, i64 }*
  %93 = getelementptr inbounds { i64*, i64 }, { i64*, i64 }* %92, i32 0, i32 0
  %94 = extractvalue { i64*, i64 } %90, 0
  store i64* %94, i64** %93, align 8
  %95 = getelementptr inbounds { i64*, i64 }, { i64*, i64 }* %92, i32 0, i32 1
  %96 = extractvalue { i64*, i64 } %90, 1
  store i64 %96, i64* %95, align 8
  %97 = call noundef nonnull align 8 dereferenceable(16) %"struct.std::_Bit_reference"* @_ZNSt14_Bit_referenceaSEb(%"struct.std::_Bit_reference"* noundef nonnull align 8 dereferenceable(16) %17, i1 noundef zeroext true) #3
  br label %98

98:                                               ; preds = %91, %79
  %99 = load i32, i32* %15, align 4
  %100 = load i32, i32* %6, align 4
  %101 = add nsw i32 %99, %100
  %102 = load i32, i32* %4, align 4
  %103 = icmp sle i32 %101, %102
  br i1 %103, label %104, label %117

104:                                              ; preds = %98
  %105 = load i32, i32* %15, align 4
  %106 = load i32, i32* %6, align 4
  %107 = add nsw i32 %105, %106
  %108 = sext i32 %107 to i64
  %109 = invoke { i64*, i64 } @_ZNSt6vectorIbSaIbEEixEm(%"class.std::vector"* noundef nonnull align 8 dereferenceable(40) %7, i64 noundef %108)
          to label %110 unwind label %41

110:                                              ; preds = %104
  %111 = bitcast %"struct.std::_Bit_reference"* %18 to { i64*, i64 }*
  %112 = getelementptr inbounds { i64*, i64 }, { i64*, i64 }* %111, i32 0, i32 0
  %113 = extractvalue { i64*, i64 } %109, 0
  store i64* %113, i64** %112, align 8
  %114 = getelementptr inbounds { i64*, i64 }, { i64*, i64 }* %111, i32 0, i32 1
  %115 = extractvalue { i64*, i64 } %109, 1
  store i64 %115, i64* %114, align 8
  %116 = call noundef nonnull align 8 dereferenceable(16) %"struct.std::_Bit_reference"* @_ZNSt14_Bit_referenceaSEb(%"struct.std::_Bit_reference"* noundef nonnull align 8 dereferenceable(16) %18, i1 noundef zeroext true) #3
  br label %117

117:                                              ; preds = %110, %98
  %118 = load i32, i32* %14, align 4
  %119 = add nsw i32 %118, 1
  store i32 %119, i32* %14, align 4
  br label %120

120:                                              ; preds = %117, %72
  br label %121

121:                                              ; preds = %120
  %122 = load i32, i32* %15, align 4
  %123 = add nsw i32 %122, 1
  store i32 %123, i32* %15, align 4
  br label %64, !llvm.loop !6

124:                                              ; preds = %64
  %125 = load i32, i32* %14, align 4
  call void @_ZNSt6vectorIbSaIbEED2Ev(%"class.std::vector"* noundef nonnull align 8 dereferenceable(40) %7) #3
  ret i32 %125

126:                                              ; preds = %41, %37
  %127 = load i8*, i8** %10, align 8
  %128 = load i32, i32* %11, align 4
  %129 = insertvalue { i8*, i32 } undef, i8* %127, 0
  %130 = insertvalue { i8*, i32 } %129, i32 %128, 1
  resume { i8*, i32 } %130
}

; Function Attrs: noinline nounwind optnone uwtable
define linkonce_odr dso_local void @_ZNSaIbEC2Ev(%"class.std::allocator.0"* noundef nonnull align 1 dereferenceable(1) %0) unnamed_addr #5 comdat align 2 {
  %2 = alloca %"class.std::allocator.0"*, align 8
  store %"class.std::allocator.0"* %0, %"class.std::allocator.0"** %2, align 8
  %3 = load %"class.std::allocator.0"*, %"class.std::allocator.0"** %2, align 8
  %4 = bitcast %"class.std::allocator.0"* %3 to %"class.__gnu_cxx::new_allocator.1"*
  call void @_ZN9__gnu_cxx13new_allocatorIbEC2Ev(%"class.__gnu_cxx::new_allocator.1"* noundef nonnull align 1 dereferenceable(1) %4) #3
  ret void
}

; Function Attrs: noinline optnone uwtable
define linkonce_odr dso_local void @_ZNSt6vectorIbSaIbEEC2EmRKbRKS0_(%"class.std::vector"* noundef nonnull align 8 dereferenceable(40) %0, i64 noundef %1, i8* noundef nonnull align 1 dereferenceable(1) %2, %"class.std::allocator.0"* noundef nonnull align 1 dereferenceable(1) %3) unnamed_addr #6 comdat align 2 personality i8* bitcast (i32 (...)* @__gxx_personality_v0 to i8*) {
  %5 = alloca %"class.std::vector"*, align 8
  %6 = alloca i64, align 8
  %7 = alloca i8*, align 8
  %8 = alloca %"class.std::allocator.0"*, align 8
  %9 = alloca i8*, align 8
  %10 = alloca i32, align 4
  store %"class.std::vector"* %0, %"class.std::vector"** %5, align 8
  store i64 %1, i64* %6, align 8
  store i8* %2, i8** %7, align 8
  store %"class.std::allocator.0"* %3, %"class.std::allocator.0"** %8, align 8
  %11 = load %"class.std::vector"*, %"class.std::vector"** %5, align 8
  %12 = bitcast %"class.std::vector"* %11 to %"struct.std::_Bvector_base"*
  %13 = load %"class.std::allocator.0"*, %"class.std::allocator.0"** %8, align 8
  call void @_ZNSt13_Bvector_baseISaIbEEC2ERKS0_(%"struct.std::_Bvector_base"* noundef nonnull align 8 dereferenceable(40) %12, %"class.std::allocator.0"* noundef nonnull align 1 dereferenceable(1) %13)
  %14 = load i64, i64* %6, align 8
  invoke void @_ZNSt6vectorIbSaIbEE13_M_initializeEm(%"class.std::vector"* noundef nonnull align 8 dereferenceable(40) %11, i64 noundef %14)
          to label %15 unwind label %20

15:                                               ; preds = %4
  %16 = load i8*, i8** %7, align 8
  %17 = load i8, i8* %16, align 1
  %18 = trunc i8 %17 to i1
  invoke void @_ZNSt6vectorIbSaIbEE19_M_initialize_valueEb(%"class.std::vector"* noundef nonnull align 8 dereferenceable(40) %11, i1 noundef zeroext %18)
          to label %19 unwind label %20

19:                                               ; preds = %15
  ret void

20:                                               ; preds = %15, %4
  %21 = landingpad { i8*, i32 }
          cleanup
  %22 = extractvalue { i8*, i32 } %21, 0
  store i8* %22, i8** %9, align 8
  %23 = extractvalue { i8*, i32 } %21, 1
  store i32 %23, i32* %10, align 4
  %24 = bitcast %"class.std::vector"* %11 to %"struct.std::_Bvector_base"*
  call void @_ZNSt13_Bvector_baseISaIbEED2Ev(%"struct.std::_Bvector_base"* noundef nonnull align 8 dereferenceable(40) %24) #3
  br label %25

25:                                               ; preds = %20
  %26 = load i8*, i8** %9, align 8
  %27 = load i32, i32* %10, align 4
  %28 = insertvalue { i8*, i32 } undef, i8* %26, 0
  %29 = insertvalue { i8*, i32 } %28, i32 %27, 1
  resume { i8*, i32 } %29
}

declare i32 @__gxx_personality_v0(...)

; Function Attrs: noinline nounwind optnone uwtable
define linkonce_odr dso_local void @_ZNSaIbED2Ev(%"class.std::allocator.0"* noundef nonnull align 1 dereferenceable(1) %0) unnamed_addr #5 comdat align 2 {
  %2 = alloca %"class.std::allocator.0"*, align 8
  store %"class.std::allocator.0"* %0, %"class.std::allocator.0"** %2, align 8
  %3 = load %"class.std::allocator.0"*, %"class.std::allocator.0"** %2, align 8
  %4 = bitcast %"class.std::allocator.0"* %3 to %"class.__gnu_cxx::new_allocator.1"*
  call void @_ZN9__gnu_cxx13new_allocatorIbED2Ev(%"class.__gnu_cxx::new_allocator.1"* noundef nonnull align 1 dereferenceable(1) %4) #3
  ret void
}

; Function Attrs: mustprogress noinline optnone uwtable
define linkonce_odr dso_local { i64*, i64 } @_ZNSt6vectorIbSaIbEEixEm(%"class.std::vector"* noundef nonnull align 8 dereferenceable(40) %0, i64 noundef %1) #4 comdat align 2 {
  %3 = alloca %"struct.std::_Bit_reference", align 8
  %4 = alloca %"class.std::vector"*, align 8
  %5 = alloca i64, align 8
  %6 = alloca %"struct.std::_Bit_iterator", align 8
  store %"class.std::vector"* %0, %"class.std::vector"** %4, align 8
  store i64 %1, i64* %5, align 8
  %7 = load %"class.std::vector"*, %"class.std::vector"** %4, align 8
  %8 = call { i64*, i32 } @_ZNSt6vectorIbSaIbEE5beginEv(%"class.std::vector"* noundef nonnull align 8 dereferenceable(40) %7) #3
  %9 = bitcast %"struct.std::_Bit_iterator"* %6 to { i64*, i32 }*
  %10 = getelementptr inbounds { i64*, i32 }, { i64*, i32 }* %9, i32 0, i32 0
  %11 = extractvalue { i64*, i32 } %8, 0
  store i64* %11, i64** %10, align 8
  %12 = getelementptr inbounds { i64*, i32 }, { i64*, i32 }* %9, i32 0, i32 1
  %13 = extractvalue { i64*, i32 } %8, 1
  store i32 %13, i32* %12, align 8
  %14 = load i64, i64* %5, align 8
  %15 = call { i64*, i64 } @_ZNKSt13_Bit_iteratorixEl(%"struct.std::_Bit_iterator"* noundef nonnull align 8 dereferenceable(12) %6, i64 noundef %14)
  %16 = bitcast %"struct.std::_Bit_reference"* %3 to { i64*, i64 }*
  %17 = getelementptr inbounds { i64*, i64 }, { i64*, i64 }* %16, i32 0, i32 0
  %18 = extractvalue { i64*, i64 } %15, 0
  store i64* %18, i64** %17, align 8
  %19 = getelementptr inbounds { i64*, i64 }, { i64*, i64 }* %16, i32 0, i32 1
  %20 = extractvalue { i64*, i64 } %15, 1
  store i64 %20, i64* %19, align 8
  %21 = bitcast %"struct.std::_Bit_reference"* %3 to { i64*, i64 }*
  %22 = load { i64*, i64 }, { i64*, i64 }* %21, align 8
  ret { i64*, i64 } %22
}

; Function Attrs: mustprogress noinline nounwind optnone uwtable
define linkonce_odr dso_local noundef nonnull align 8 dereferenceable(16) %"struct.std::_Bit_reference"* @_ZNSt14_Bit_referenceaSEb(%"struct.std::_Bit_reference"* noundef nonnull align 8 dereferenceable(16) %0, i1 noundef zeroext %1) #7 comdat align 2 {
  %3 = alloca %"struct.std::_Bit_reference"*, align 8
  %4 = alloca i8, align 1
  store %"struct.std::_Bit_reference"* %0, %"struct.std::_Bit_reference"** %3, align 8
  %5 = zext i1 %1 to i8
  store i8 %5, i8* %4, align 1
  %6 = load %"struct.std::_Bit_reference"*, %"struct.std::_Bit_reference"** %3, align 8
  %7 = load i8, i8* %4, align 1
  %8 = trunc i8 %7 to i1
  br i1 %8, label %9, label %16

9:                                                ; preds = %2
  %10 = getelementptr inbounds %"struct.std::_Bit_reference", %"struct.std::_Bit_reference"* %6, i32 0, i32 1
  %11 = load i64, i64* %10, align 8
  %12 = getelementptr inbounds %"struct.std::_Bit_reference", %"struct.std::_Bit_reference"* %6, i32 0, i32 0
  %13 = load i64*, i64** %12, align 8
  %14 = load i64, i64* %13, align 8
  %15 = or i64 %14, %11
  store i64 %15, i64* %13, align 8
  br label %24

16:                                               ; preds = %2
  %17 = getelementptr inbounds %"struct.std::_Bit_reference", %"struct.std::_Bit_reference"* %6, i32 0, i32 1
  %18 = load i64, i64* %17, align 8
  %19 = xor i64 %18, -1
  %20 = getelementptr inbounds %"struct.std::_Bit_reference", %"struct.std::_Bit_reference"* %6, i32 0, i32 0
  %21 = load i64*, i64** %20, align 8
  %22 = load i64, i64* %21, align 8
  %23 = and i64 %22, %19
  store i64 %23, i64* %21, align 8
  br label %24

24:                                               ; preds = %16, %9
  ret %"struct.std::_Bit_reference"* %6
}

; Function Attrs: mustprogress noinline nounwind optnone uwtable
define linkonce_odr dso_local noundef nonnull align 4 dereferenceable(4) i32* @_ZSt3minIiERKT_S2_S2_(i32* noundef nonnull align 4 dereferenceable(4) %0, i32* noundef nonnull align 4 dereferenceable(4) %1) #7 comdat {
  %3 = alloca i32*, align 8
  %4 = alloca i32*, align 8
  %5 = alloca i32*, align 8
  store i32* %0, i32** %4, align 8
  store i32* %1, i32** %5, align 8
  %6 = load i32*, i32** %5, align 8
  %7 = load i32, i32* %6, align 4
  %8 = load i32*, i32** %4, align 8
  %9 = load i32, i32* %8, align 4
  %10 = icmp slt i32 %7, %9
  br i1 %10, label %11, label %13

11:                                               ; preds = %2
  %12 = load i32*, i32** %5, align 8
  store i32* %12, i32** %3, align 8
  br label %15

13:                                               ; preds = %2
  %14 = load i32*, i32** %4, align 8
  store i32* %14, i32** %3, align 8
  br label %15

15:                                               ; preds = %13, %11
  %16 = load i32*, i32** %3, align 8
  ret i32* %16
}

; Function Attrs: mustprogress noinline nounwind optnone uwtable
define linkonce_odr dso_local noundef zeroext i1 @_ZNKSt14_Bit_referencecvbEv(%"struct.std::_Bit_reference"* noundef nonnull align 8 dereferenceable(16) %0) #7 comdat align 2 {
  %2 = alloca %"struct.std::_Bit_reference"*, align 8
  store %"struct.std::_Bit_reference"* %0, %"struct.std::_Bit_reference"** %2, align 8
  %3 = load %"struct.std::_Bit_reference"*, %"struct.std::_Bit_reference"** %2, align 8
  %4 = getelementptr inbounds %"struct.std::_Bit_reference", %"struct.std::_Bit_reference"* %3, i32 0, i32 0
  %5 = load i64*, i64** %4, align 8
  %6 = load i64, i64* %5, align 8
  %7 = getelementptr inbounds %"struct.std::_Bit_reference", %"struct.std::_Bit_reference"* %3, i32 0, i32 1
  %8 = load i64, i64* %7, align 8
  %9 = and i64 %6, %8
  %10 = icmp ne i64 %9, 0
  %11 = xor i1 %10, true
  %12 = xor i1 %11, true
  ret i1 %12
}

; Function Attrs: noinline nounwind optnone uwtable
define linkonce_odr dso_local void @_ZNSt6vectorIbSaIbEED2Ev(%"class.std::vector"* noundef nonnull align 8 dereferenceable(40) %0) unnamed_addr #5 comdat align 2 {
  %2 = alloca %"class.std::vector"*, align 8
  store %"class.std::vector"* %0, %"class.std::vector"** %2, align 8
  %3 = load %"class.std::vector"*, %"class.std::vector"** %2, align 8
  %4 = bitcast %"class.std::vector"* %3 to %"struct.std::_Bvector_base"*
  call void @_ZNSt13_Bvector_baseISaIbEED2Ev(%"struct.std::_Bvector_base"* noundef nonnull align 8 dereferenceable(40) %4) #3
  ret void
}

; Function Attrs: noinline nounwind optnone uwtable
define linkonce_odr dso_local void @_ZN9__gnu_cxx13new_allocatorIbEC2Ev(%"class.__gnu_cxx::new_allocator.1"* noundef nonnull align 1 dereferenceable(1) %0) unnamed_addr #5 comdat align 2 {
  %2 = alloca %"class.__gnu_cxx::new_allocator.1"*, align 8
  store %"class.__gnu_cxx::new_allocator.1"* %0, %"class.__gnu_cxx::new_allocator.1"** %2, align 8
  %3 = load %"class.__gnu_cxx::new_allocator.1"*, %"class.__gnu_cxx::new_allocator.1"** %2, align 8
  ret void
}

; Function Attrs: noinline nounwind optnone uwtable
define linkonce_odr dso_local void @_ZN9__gnu_cxx13new_allocatorIbED2Ev(%"class.__gnu_cxx::new_allocator.1"* noundef nonnull align 1 dereferenceable(1) %0) unnamed_addr #5 comdat align 2 {
  %2 = alloca %"class.__gnu_cxx::new_allocator.1"*, align 8
  store %"class.__gnu_cxx::new_allocator.1"* %0, %"class.__gnu_cxx::new_allocator.1"** %2, align 8
  %3 = load %"class.__gnu_cxx::new_allocator.1"*, %"class.__gnu_cxx::new_allocator.1"** %2, align 8
  ret void
}

; Function Attrs: noinline nounwind optnone uwtable
define linkonce_odr dso_local void @_ZNSt13_Bvector_baseISaIbEEC2ERKS0_(%"struct.std::_Bvector_base"* noundef nonnull align 8 dereferenceable(40) %0, %"class.std::allocator.0"* noundef nonnull align 1 dereferenceable(1) %1) unnamed_addr #5 comdat align 2 {
  %3 = alloca %"struct.std::_Bvector_base"*, align 8
  %4 = alloca %"class.std::allocator.0"*, align 8
  %5 = alloca %"class.std::allocator", align 1
  store %"struct.std::_Bvector_base"* %0, %"struct.std::_Bvector_base"** %3, align 8
  store %"class.std::allocator.0"* %1, %"class.std::allocator.0"** %4, align 8
  %6 = load %"struct.std::_Bvector_base"*, %"struct.std::_Bvector_base"** %3, align 8
  %7 = getelementptr inbounds %"struct.std::_Bvector_base", %"struct.std::_Bvector_base"* %6, i32 0, i32 0
  %8 = load %"class.std::allocator.0"*, %"class.std::allocator.0"** %4, align 8
  call void @_ZNSaImEC2IbEERKSaIT_E(%"class.std::allocator"* noundef nonnull align 1 dereferenceable(1) %5, %"class.std::allocator.0"* noundef nonnull align 1 dereferenceable(1) %8) #3
  call void @_ZNSt13_Bvector_baseISaIbEE13_Bvector_implC2ERKSaImE(%"struct.std::_Bvector_base<std::allocator<bool>>::_Bvector_impl"* noundef nonnull align 8 dereferenceable(40) %7, %"class.std::allocator"* noundef nonnull align 1 dereferenceable(1) %5) #3
  call void @_ZNSaImED2Ev(%"class.std::allocator"* noundef nonnull align 1 dereferenceable(1) %5) #3
  ret void
}

; Function Attrs: mustprogress noinline optnone uwtable
define linkonce_odr dso_local void @_ZNSt6vectorIbSaIbEE13_M_initializeEm(%"class.std::vector"* noundef nonnull align 8 dereferenceable(40) %0, i64 noundef %1) #4 comdat align 2 {
  %3 = alloca %"class.std::vector"*, align 8
  %4 = alloca i64, align 8
  %5 = alloca i64*, align 8
  %6 = alloca %"struct.std::_Bit_iterator", align 8
  %7 = alloca %"struct.std::_Bit_iterator", align 8
  store %"class.std::vector"* %0, %"class.std::vector"** %3, align 8
  store i64 %1, i64* %4, align 8
  %8 = load %"class.std::vector"*, %"class.std::vector"** %3, align 8
  %9 = load i64, i64* %4, align 8
  %10 = icmp ne i64 %9, 0
  br i1 %10, label %11, label %44

11:                                               ; preds = %2
  %12 = bitcast %"class.std::vector"* %8 to %"struct.std::_Bvector_base"*
  %13 = load i64, i64* %4, align 8
  %14 = call noundef i64* @_ZNSt13_Bvector_baseISaIbEE11_M_allocateEm(%"struct.std::_Bvector_base"* noundef nonnull align 8 dereferenceable(40) %12, i64 noundef %13)
  store i64* %14, i64** %5, align 8
  %15 = load i64*, i64** %5, align 8
  %16 = load i64, i64* %4, align 8
  %17 = call noundef i64 @_ZNSt13_Bvector_baseISaIbEE8_S_nwordEm(i64 noundef %16)
  %18 = getelementptr inbounds i64, i64* %15, i64 %17
  %19 = bitcast %"class.std::vector"* %8 to %"struct.std::_Bvector_base"*
  %20 = getelementptr inbounds %"struct.std::_Bvector_base", %"struct.std::_Bvector_base"* %19, i32 0, i32 0
  %21 = bitcast %"struct.std::_Bvector_base<std::allocator<bool>>::_Bvector_impl"* %20 to %"struct.std::_Bvector_base<std::allocator<bool>>::_Bvector_impl_data"*
  %22 = getelementptr inbounds %"struct.std::_Bvector_base<std::allocator<bool>>::_Bvector_impl_data", %"struct.std::_Bvector_base<std::allocator<bool>>::_Bvector_impl_data"* %21, i32 0, i32 2
  store i64* %18, i64** %22, align 8
  %23 = load i64*, i64** %5, align 8
  %24 = call noundef i64* @_ZSt11__addressofImEPT_RS0_(i64* noundef nonnull align 8 dereferenceable(8) %23) #3
  call void @_ZNSt13_Bit_iteratorC2EPmj(%"struct.std::_Bit_iterator"* noundef nonnull align 8 dereferenceable(12) %6, i64* noundef %24, i32 noundef 0)
  %25 = bitcast %"class.std::vector"* %8 to %"struct.std::_Bvector_base"*
  %26 = getelementptr inbounds %"struct.std::_Bvector_base", %"struct.std::_Bvector_base"* %25, i32 0, i32 0
  %27 = bitcast %"struct.std::_Bvector_base<std::allocator<bool>>::_Bvector_impl"* %26 to %"struct.std::_Bvector_base<std::allocator<bool>>::_Bvector_impl_data"*
  %28 = getelementptr inbounds %"struct.std::_Bvector_base<std::allocator<bool>>::_Bvector_impl_data", %"struct.std::_Bvector_base<std::allocator<bool>>::_Bvector_impl_data"* %27, i32 0, i32 0
  %29 = bitcast %"struct.std::_Bit_iterator"* %28 to i8*
  %30 = bitcast %"struct.std::_Bit_iterator"* %6 to i8*
  call void @llvm.memcpy.p0i8.p0i8.i64(i8* align 8 %29, i8* align 8 %30, i64 12, i1 false)
  %31 = load i64, i64* %4, align 8
  %32 = call { i64*, i32 } @_ZStplRKSt13_Bit_iteratorl(%"struct.std::_Bit_iterator"* noundef nonnull align 8 dereferenceable(12) %6, i64 noundef %31)
  %33 = bitcast %"struct.std::_Bit_iterator"* %7 to { i64*, i32 }*
  %34 = getelementptr inbounds { i64*, i32 }, { i64*, i32 }* %33, i32 0, i32 0
  %35 = extractvalue { i64*, i32 } %32, 0
  store i64* %35, i64** %34, align 8
  %36 = getelementptr inbounds { i64*, i32 }, { i64*, i32 }* %33, i32 0, i32 1
  %37 = extractvalue { i64*, i32 } %32, 1
  store i32 %37, i32* %36, align 8
  %38 = bitcast %"class.std::vector"* %8 to %"struct.std::_Bvector_base"*
  %39 = getelementptr inbounds %"struct.std::_Bvector_base", %"struct.std::_Bvector_base"* %38, i32 0, i32 0
  %40 = bitcast %"struct.std::_Bvector_base<std::allocator<bool>>::_Bvector_impl"* %39 to %"struct.std::_Bvector_base<std::allocator<bool>>::_Bvector_impl_data"*
  %41 = getelementptr inbounds %"struct.std::_Bvector_base<std::allocator<bool>>::_Bvector_impl_data", %"struct.std::_Bvector_base<std::allocator<bool>>::_Bvector_impl_data"* %40, i32 0, i32 1
  %42 = bitcast %"struct.std::_Bit_iterator"* %41 to i8*
  %43 = bitcast %"struct.std::_Bit_iterator"* %7 to i8*
  call void @llvm.memcpy.p0i8.p0i8.i64(i8* align 8 %42, i8* align 8 %43, i64 12, i1 false)
  br label %44

44:                                               ; preds = %11, %2
  ret void
}

; Function Attrs: mustprogress noinline nounwind optnone uwtable
define linkonce_odr dso_local void @_ZNSt6vectorIbSaIbEE19_M_initialize_valueEb(%"class.std::vector"* noundef nonnull align 8 dereferenceable(40) %0, i1 noundef zeroext %1) #7 comdat align 2 {
  %3 = alloca %"class.std::vector"*, align 8
  %4 = alloca i8, align 1
  %5 = alloca i64*, align 8
  store %"class.std::vector"* %0, %"class.std::vector"** %3, align 8
  %6 = zext i1 %1 to i8
  store i8 %6, i8* %4, align 1
  %7 = load %"class.std::vector"*, %"class.std::vector"** %3, align 8
  %8 = bitcast %"class.std::vector"* %7 to %"struct.std::_Bvector_base"*
  %9 = getelementptr inbounds %"struct.std::_Bvector_base", %"struct.std::_Bvector_base"* %8, i32 0, i32 0
  %10 = bitcast %"struct.std::_Bvector_base<std::allocator<bool>>::_Bvector_impl"* %9 to %"struct.std::_Bvector_base<std::allocator<bool>>::_Bvector_impl_data"*
  %11 = getelementptr inbounds %"struct.std::_Bvector_base<std::allocator<bool>>::_Bvector_impl_data", %"struct.std::_Bvector_base<std::allocator<bool>>::_Bvector_impl_data"* %10, i32 0, i32 0
  %12 = bitcast %"struct.std::_Bit_iterator"* %11 to %"struct.std::_Bit_iterator_base"*
  %13 = getelementptr inbounds %"struct.std::_Bit_iterator_base", %"struct.std::_Bit_iterator_base"* %12, i32 0, i32 0
  %14 = load i64*, i64** %13, align 8
  store i64* %14, i64** %5, align 8
  %15 = load i64*, i64** %5, align 8
  %16 = icmp ne i64* %15, null
  br i1 %16, label %17, label %34

17:                                               ; preds = %2
  %18 = load i64*, i64** %5, align 8
  %19 = bitcast i64* %18 to i8*
  %20 = load i8, i8* %4, align 1
  %21 = trunc i8 %20 to i1
  %22 = zext i1 %21 to i64
  %23 = select i1 %21, i32 -1, i32 0
  %24 = trunc i32 %23 to i8
  %25 = bitcast %"class.std::vector"* %7 to %"struct.std::_Bvector_base"*
  %26 = getelementptr inbounds %"struct.std::_Bvector_base", %"struct.std::_Bvector_base"* %25, i32 0, i32 0
  %27 = call noundef i64* @_ZNKSt13_Bvector_baseISaIbEE13_Bvector_impl11_M_end_addrEv(%"struct.std::_Bvector_base<std::allocator<bool>>::_Bvector_impl"* noundef nonnull align 8 dereferenceable(40) %26) #3
  %28 = load i64*, i64** %5, align 8
  %29 = ptrtoint i64* %27 to i64
  %30 = ptrtoint i64* %28 to i64
  %31 = sub i64 %29, %30
  %32 = sdiv exact i64 %31, 8
  %33 = mul i64 %32, 8
  call void @llvm.memset.p0i8.i64(i8* align 8 %19, i8 %24, i64 %33, i1 false)
  br label %34

34:                                               ; preds = %17, %2
  ret void
}

; Function Attrs: noinline nounwind optnone uwtable
define linkonce_odr dso_local void @_ZNSt13_Bvector_baseISaIbEED2Ev(%"struct.std::_Bvector_base"* noundef nonnull align 8 dereferenceable(40) %0) unnamed_addr #5 comdat align 2 personality i8* bitcast (i32 (...)* @__gxx_personality_v0 to i8*) {
  %2 = alloca %"struct.std::_Bvector_base"*, align 8
  %3 = alloca i8*, align 8
  %4 = alloca i32, align 4
  store %"struct.std::_Bvector_base"* %0, %"struct.std::_Bvector_base"** %2, align 8
  %5 = load %"struct.std::_Bvector_base"*, %"struct.std::_Bvector_base"** %2, align 8
  invoke void @_ZNSt13_Bvector_baseISaIbEE13_M_deallocateEv(%"struct.std::_Bvector_base"* noundef nonnull align 8 dereferenceable(40) %5)
          to label %6 unwind label %8

6:                                                ; preds = %1
  %7 = getelementptr inbounds %"struct.std::_Bvector_base", %"struct.std::_Bvector_base"* %5, i32 0, i32 0
  call void @_ZNSt13_Bvector_baseISaIbEE13_Bvector_implD2Ev(%"struct.std::_Bvector_base<std::allocator<bool>>::_Bvector_impl"* noundef nonnull align 8 dereferenceable(40) %7) #3
  ret void

8:                                                ; preds = %1
  %9 = landingpad { i8*, i32 }
          catch i8* null
  %10 = extractvalue { i8*, i32 } %9, 0
  store i8* %10, i8** %3, align 8
  %11 = extractvalue { i8*, i32 } %9, 1
  store i32 %11, i32* %4, align 4
  %12 = getelementptr inbounds %"struct.std::_Bvector_base", %"struct.std::_Bvector_base"* %5, i32 0, i32 0
  call void @_ZNSt13_Bvector_baseISaIbEE13_Bvector_implD2Ev(%"struct.std::_Bvector_base<std::allocator<bool>>::_Bvector_impl"* noundef nonnull align 8 dereferenceable(40) %12) #3
  br label %13

13:                                               ; preds = %8
  %14 = load i8*, i8** %3, align 8
  call void @__clang_call_terminate(i8* %14) #14
  unreachable
}

; Function Attrs: noinline nounwind optnone uwtable
define linkonce_odr dso_local void @_ZNSaImEC2IbEERKSaIT_E(%"class.std::allocator"* noundef nonnull align 1 dereferenceable(1) %0, %"class.std::allocator.0"* noundef nonnull align 1 dereferenceable(1) %1) unnamed_addr #5 comdat align 2 {
  %3 = alloca %"class.std::allocator"*, align 8
  %4 = alloca %"class.std::allocator.0"*, align 8
  store %"class.std::allocator"* %0, %"class.std::allocator"** %3, align 8
  store %"class.std::allocator.0"* %1, %"class.std::allocator.0"** %4, align 8
  %5 = load %"class.std::allocator"*, %"class.std::allocator"** %3, align 8
  %6 = bitcast %"class.std::allocator"* %5 to %"class.__gnu_cxx::new_allocator"*
  call void @_ZN9__gnu_cxx13new_allocatorImEC2Ev(%"class.__gnu_cxx::new_allocator"* noundef nonnull align 1 dereferenceable(1) %6) #3
  ret void
}

; Function Attrs: noinline nounwind optnone uwtable
define linkonce_odr dso_local void @_ZNSt13_Bvector_baseISaIbEE13_Bvector_implC2ERKSaImE(%"struct.std::_Bvector_base<std::allocator<bool>>::_Bvector_impl"* noundef nonnull align 8 dereferenceable(40) %0, %"class.std::allocator"* noundef nonnull align 1 dereferenceable(1) %1) unnamed_addr #5 comdat align 2 {
  %3 = alloca %"struct.std::_Bvector_base<std::allocator<bool>>::_Bvector_impl"*, align 8
  %4 = alloca %"class.std::allocator"*, align 8
  store %"struct.std::_Bvector_base<std::allocator<bool>>::_Bvector_impl"* %0, %"struct.std::_Bvector_base<std::allocator<bool>>::_Bvector_impl"** %3, align 8
  store %"class.std::allocator"* %1, %"class.std::allocator"** %4, align 8
  %5 = load %"struct.std::_Bvector_base<std::allocator<bool>>::_Bvector_impl"*, %"struct.std::_Bvector_base<std::allocator<bool>>::_Bvector_impl"** %3, align 8
  %6 = bitcast %"struct.std::_Bvector_base<std::allocator<bool>>::_Bvector_impl"* %5 to %"class.std::allocator"*
  %7 = load %"class.std::allocator"*, %"class.std::allocator"** %4, align 8
  call void @_ZNSaImEC2ERKS_(%"class.std::allocator"* noundef nonnull align 1 dereferenceable(1) %6, %"class.std::allocator"* noundef nonnull align 1 dereferenceable(1) %7) #3
  %8 = bitcast %"struct.std::_Bvector_base<std::allocator<bool>>::_Bvector_impl"* %5 to %"struct.std::_Bvector_base<std::allocator<bool>>::_Bvector_impl_data"*
  call void @_ZNSt13_Bvector_baseISaIbEE18_Bvector_impl_dataC2Ev(%"struct.std::_Bvector_base<std::allocator<bool>>::_Bvector_impl_data"* noundef nonnull align 8 dereferenceable(40) %8) #3
  ret void
}

; Function Attrs: noinline nounwind optnone uwtable
define linkonce_odr dso_local void @_ZNSaImED2Ev(%"class.std::allocator"* noundef nonnull align 1 dereferenceable(1) %0) unnamed_addr #5 comdat align 2 {
  %2 = alloca %"class.std::allocator"*, align 8
  store %"class.std::allocator"* %0, %"class.std::allocator"** %2, align 8
  %3 = load %"class.std::allocator"*, %"class.std::allocator"** %2, align 8
  %4 = bitcast %"class.std::allocator"* %3 to %"class.__gnu_cxx::new_allocator"*
  call void @_ZN9__gnu_cxx13new_allocatorImED2Ev(%"class.__gnu_cxx::new_allocator"* noundef nonnull align 1 dereferenceable(1) %4) #3
  ret void
}

; Function Attrs: noinline nounwind optnone uwtable
define linkonce_odr dso_local void @_ZN9__gnu_cxx13new_allocatorImEC2Ev(%"class.__gnu_cxx::new_allocator"* noundef nonnull align 1 dereferenceable(1) %0) unnamed_addr #5 comdat align 2 {
  %2 = alloca %"class.__gnu_cxx::new_allocator"*, align 8
  store %"class.__gnu_cxx::new_allocator"* %0, %"class.__gnu_cxx::new_allocator"** %2, align 8
  %3 = load %"class.__gnu_cxx::new_allocator"*, %"class.__gnu_cxx::new_allocator"** %2, align 8
  ret void
}

; Function Attrs: noinline nounwind optnone uwtable
define linkonce_odr dso_local void @_ZNSaImEC2ERKS_(%"class.std::allocator"* noundef nonnull align 1 dereferenceable(1) %0, %"class.std::allocator"* noundef nonnull align 1 dereferenceable(1) %1) unnamed_addr #5 comdat align 2 {
  %3 = alloca %"class.std::allocator"*, align 8
  %4 = alloca %"class.std::allocator"*, align 8
  store %"class.std::allocator"* %0, %"class.std::allocator"** %3, align 8
  store %"class.std::allocator"* %1, %"class.std::allocator"** %4, align 8
  %5 = load %"class.std::allocator"*, %"class.std::allocator"** %3, align 8
  %6 = bitcast %"class.std::allocator"* %5 to %"class.__gnu_cxx::new_allocator"*
  %7 = load %"class.std::allocator"*, %"class.std::allocator"** %4, align 8
  %8 = bitcast %"class.std::allocator"* %7 to %"class.__gnu_cxx::new_allocator"*
  call void @_ZN9__gnu_cxx13new_allocatorImEC2ERKS1_(%"class.__gnu_cxx::new_allocator"* noundef nonnull align 1 dereferenceable(1) %6, %"class.__gnu_cxx::new_allocator"* noundef nonnull align 1 dereferenceable(1) %8) #3
  ret void
}

; Function Attrs: noinline nounwind optnone uwtable
define linkonce_odr dso_local void @_ZN9__gnu_cxx13new_allocatorImEC2ERKS1_(%"class.__gnu_cxx::new_allocator"* noundef nonnull align 1 dereferenceable(1) %0, %"class.__gnu_cxx::new_allocator"* noundef nonnull align 1 dereferenceable(1) %1) unnamed_addr #5 comdat align 2 {
  %3 = alloca %"class.__gnu_cxx::new_allocator"*, align 8
  %4 = alloca %"class.__gnu_cxx::new_allocator"*, align 8
  store %"class.__gnu_cxx::new_allocator"* %0, %"class.__gnu_cxx::new_allocator"** %3, align 8
  store %"class.__gnu_cxx::new_allocator"* %1, %"class.__gnu_cxx::new_allocator"** %4, align 8
  %5 = load %"class.__gnu_cxx::new_allocator"*, %"class.__gnu_cxx::new_allocator"** %3, align 8
  ret void
}

; Function Attrs: noinline optnone uwtable
define linkonce_odr dso_local void @_ZNSt13_Bit_iteratorC2Ev(%"struct.std::_Bit_iterator"* noundef nonnull align 8 dereferenceable(12) %0) unnamed_addr #6 comdat align 2 {
  %2 = alloca %"struct.std::_Bit_iterator"*, align 8
  store %"struct.std::_Bit_iterator"* %0, %"struct.std::_Bit_iterator"** %2, align 8
  %3 = load %"struct.std::_Bit_iterator"*, %"struct.std::_Bit_iterator"** %2, align 8
  %4 = bitcast %"struct.std::_Bit_iterator"* %3 to %"struct.std::_Bit_iterator_base"*
  call void @_ZNSt18_Bit_iterator_baseC2EPmj(%"struct.std::_Bit_iterator_base"* noundef nonnull align 8 dereferenceable(12) %4, i64* noundef null, i32 noundef 0)
  ret void
}

; Function Attrs: noinline noreturn nounwind
define linkonce_odr hidden void @__clang_call_terminate(i8* %0) #8 comdat {
  %2 = call i8* @__cxa_begin_catch(i8* %0) #3
  call void @_ZSt9terminatev() #14
  unreachable
}

declare i8* @__cxa_begin_catch(i8*)

declare void @_ZSt9terminatev()

; Function Attrs: noinline nounwind optnone uwtable
define linkonce_odr dso_local void @_ZNSt18_Bit_iterator_baseC2EPmj(%"struct.std::_Bit_iterator_base"* noundef nonnull align 8 dereferenceable(12) %0, i64* noundef %1, i32 noundef %2) unnamed_addr #5 comdat align 2 {
  %4 = alloca %"struct.std::_Bit_iterator_base"*, align 8
  %5 = alloca i64*, align 8
  %6 = alloca i32, align 4
  store %"struct.std::_Bit_iterator_base"* %0, %"struct.std::_Bit_iterator_base"** %4, align 8
  store i64* %1, i64** %5, align 8
  store i32 %2, i32* %6, align 4
  %7 = load %"struct.std::_Bit_iterator_base"*, %"struct.std::_Bit_iterator_base"** %4, align 8
  %8 = bitcast %"struct.std::_Bit_iterator_base"* %7 to %"struct.std::iterator"*
  %9 = getelementptr inbounds %"struct.std::_Bit_iterator_base", %"struct.std::_Bit_iterator_base"* %7, i32 0, i32 0
  %10 = load i64*, i64** %5, align 8
  store i64* %10, i64** %9, align 8
  %11 = getelementptr inbounds %"struct.std::_Bit_iterator_base", %"struct.std::_Bit_iterator_base"* %7, i32 0, i32 1
  %12 = load i32, i32* %6, align 4
  store i32 %12, i32* %11, align 8
  ret void
}

; Function Attrs: noinline nounwind optnone uwtable
define linkonce_odr dso_local void @_ZN9__gnu_cxx13new_allocatorImED2Ev(%"class.__gnu_cxx::new_allocator"* noundef nonnull align 1 dereferenceable(1) %0) unnamed_addr #5 comdat align 2 {
  %2 = alloca %"class.__gnu_cxx::new_allocator"*, align 8
  store %"class.__gnu_cxx::new_allocator"* %0, %"class.__gnu_cxx::new_allocator"** %2, align 8
  %3 = load %"class.__gnu_cxx::new_allocator"*, %"class.__gnu_cxx::new_allocator"** %2, align 8
  ret void
}

; Function Attrs: mustprogress noinline optnone uwtable
define linkonce_odr dso_local noundef i64* @_ZNSt13_Bvector_baseISaIbEE11_M_allocateEm(%"struct.std::_Bvector_base"* noundef nonnull align 8 dereferenceable(40) %0, i64 noundef %1) #4 comdat align 2 {
  %3 = alloca %"struct.std::_Bvector_base"*, align 8
  %4 = alloca i64, align 8
  store %"struct.std::_Bvector_base"* %0, %"struct.std::_Bvector_base"** %3, align 8
  store i64 %1, i64* %4, align 8
  %5 = load %"struct.std::_Bvector_base"*, %"struct.std::_Bvector_base"** %3, align 8
  %6 = getelementptr inbounds %"struct.std::_Bvector_base", %"struct.std::_Bvector_base"* %5, i32 0, i32 0
  %7 = bitcast %"struct.std::_Bvector_base<std::allocator<bool>>::_Bvector_impl"* %6 to %"class.std::allocator"*
  %8 = load i64, i64* %4, align 8
  %9 = call noundef i64 @_ZNSt13_Bvector_baseISaIbEE8_S_nwordEm(i64 noundef %8)
  %10 = call noundef i64* @_ZNSt16allocator_traitsISaImEE8allocateERS0_m(%"class.std::allocator"* noundef nonnull align 1 dereferenceable(1) %7, i64 noundef %9)
  ret i64* %10
}

; Function Attrs: mustprogress noinline nounwind optnone uwtable
define linkonce_odr dso_local noundef i64 @_ZNSt13_Bvector_baseISaIbEE8_S_nwordEm(i64 noundef %0) #7 comdat align 2 {
  %2 = alloca i64, align 8
  store i64 %0, i64* %2, align 8
  %3 = load i64, i64* %2, align 8
  %4 = add i64 %3, 64
  %5 = sub i64 %4, 1
  %6 = udiv i64 %5, 64
  ret i64 %6
}

; Function Attrs: mustprogress noinline nounwind optnone uwtable
define linkonce_odr dso_local noundef i64* @_ZSt11__addressofImEPT_RS0_(i64* noundef nonnull align 8 dereferenceable(8) %0) #7 comdat {
  %2 = alloca i64*, align 8
  store i64* %0, i64** %2, align 8
  %3 = load i64*, i64** %2, align 8
  ret i64* %3
}

; Function Attrs: noinline nounwind optnone uwtable
define linkonce_odr dso_local void @_ZNSt13_Bit_iteratorC2EPmj(%"struct.std::_Bit_iterator"* noundef nonnull align 8 dereferenceable(12) %0, i64* noundef %1, i32 noundef %2) unnamed_addr #5 comdat align 2 {
  %4 = alloca %"struct.std::_Bit_iterator"*, align 8
  %5 = alloca i64*, align 8
  %6 = alloca i32, align 4
  store %"struct.std::_Bit_iterator"* %0, %"struct.std::_Bit_iterator"** %4, align 8
  store i64* %1, i64** %5, align 8
  store i32 %2, i32* %6, align 4
  %7 = load %"struct.std::_Bit_iterator"*, %"struct.std::_Bit_iterator"** %4, align 8
  %8 = bitcast %"struct.std::_Bit_iterator"* %7 to %"struct.std::_Bit_iterator_base"*
  %9 = load i64*, i64** %5, align 8
  %10 = load i32, i32* %6, align 4
  call void @_ZNSt18_Bit_iterator_baseC2EPmj(%"struct.std::_Bit_iterator_base"* noundef nonnull align 8 dereferenceable(12) %8, i64* noundef %9, i32 noundef %10)
  ret void
}

; Function Attrs: argmemonly nofree nounwind willreturn
declare void @llvm.memcpy.p0i8.p0i8.i64(i8* noalias nocapture writeonly, i8* noalias nocapture readonly, i64, i1 immarg) #9

; Function Attrs: mustprogress noinline optnone uwtable
define linkonce_odr dso_local { i64*, i32 } @_ZStplRKSt13_Bit_iteratorl(%"struct.std::_Bit_iterator"* noundef nonnull align 8 dereferenceable(12) %0, i64 noundef %1) #4 comdat {
  %3 = alloca %"struct.std::_Bit_iterator", align 8
  %4 = alloca %"struct.std::_Bit_iterator"*, align 8
  %5 = alloca i64, align 8
  store %"struct.std::_Bit_iterator"* %0, %"struct.std::_Bit_iterator"** %4, align 8
  store i64 %1, i64* %5, align 8
  %6 = load %"struct.std::_Bit_iterator"*, %"struct.std::_Bit_iterator"** %4, align 8
  %7 = bitcast %"struct.std::_Bit_iterator"* %3 to i8*
  %8 = bitcast %"struct.std::_Bit_iterator"* %6 to i8*
  call void @llvm.memcpy.p0i8.p0i8.i64(i8* align 8 %7, i8* align 8 %8, i64 16, i1 false)
  %9 = load i64, i64* %5, align 8
  %10 = call noundef nonnull align 8 dereferenceable(12) %"struct.std::_Bit_iterator"* @_ZNSt13_Bit_iteratorpLEl(%"struct.std::_Bit_iterator"* noundef nonnull align 8 dereferenceable(12) %3, i64 noundef %9)
  %11 = bitcast %"struct.std::_Bit_iterator"* %3 to { i64*, i32 }*
  %12 = load { i64*, i32 }, { i64*, i32 }* %11, align 8
  ret { i64*, i32 } %12
}

; Function Attrs: mustprogress noinline optnone uwtable
define linkonce_odr dso_local noundef i64* @_ZNSt16allocator_traitsISaImEE8allocateERS0_m(%"class.std::allocator"* noundef nonnull align 1 dereferenceable(1) %0, i64 noundef %1) #4 comdat align 2 {
  %3 = alloca %"class.std::allocator"*, align 8
  %4 = alloca i64, align 8
  store %"class.std::allocator"* %0, %"class.std::allocator"** %3, align 8
  store i64 %1, i64* %4, align 8
  %5 = load %"class.std::allocator"*, %"class.std::allocator"** %3, align 8
  %6 = bitcast %"class.std::allocator"* %5 to %"class.__gnu_cxx::new_allocator"*
  %7 = load i64, i64* %4, align 8
  %8 = call noundef i64* @_ZN9__gnu_cxx13new_allocatorImE8allocateEmPKv(%"class.__gnu_cxx::new_allocator"* noundef nonnull align 1 dereferenceable(1) %6, i64 noundef %7, i8* noundef null)
  ret i64* %8
}

; Function Attrs: mustprogress noinline optnone uwtable
define linkonce_odr dso_local noundef i64* @_ZN9__gnu_cxx13new_allocatorImE8allocateEmPKv(%"class.__gnu_cxx::new_allocator"* noundef nonnull align 1 dereferenceable(1) %0, i64 noundef %1, i8* noundef %2) #4 comdat align 2 {
  %4 = alloca %"class.__gnu_cxx::new_allocator"*, align 8
  %5 = alloca i64, align 8
  %6 = alloca i8*, align 8
  store %"class.__gnu_cxx::new_allocator"* %0, %"class.__gnu_cxx::new_allocator"** %4, align 8
  store i64 %1, i64* %5, align 8
  store i8* %2, i8** %6, align 8
  %7 = load %"class.__gnu_cxx::new_allocator"*, %"class.__gnu_cxx::new_allocator"** %4, align 8
  %8 = load i64, i64* %5, align 8
  %9 = call noundef i64 @_ZNK9__gnu_cxx13new_allocatorImE11_M_max_sizeEv(%"class.__gnu_cxx::new_allocator"* noundef nonnull align 1 dereferenceable(1) %7) #3
  %10 = icmp ugt i64 %8, %9
  br i1 %10, label %11, label %16

11:                                               ; preds = %3
  %12 = load i64, i64* %5, align 8
  %13 = icmp ugt i64 %12, 2305843009213693951
  br i1 %13, label %14, label %15

14:                                               ; preds = %11
  call void @_ZSt28__throw_bad_array_new_lengthv() #15
  unreachable

15:                                               ; preds = %11
  call void @_ZSt17__throw_bad_allocv() #15
  unreachable

16:                                               ; preds = %3
  %17 = load i64, i64* %5, align 8
  %18 = mul i64 %17, 8
  %19 = call noalias noundef nonnull i8* @_Znwm(i64 noundef %18) #16
  %20 = bitcast i8* %19 to i64*
  ret i64* %20
}

; Function Attrs: mustprogress noinline nounwind optnone uwtable
define linkonce_odr dso_local noundef i64 @_ZNK9__gnu_cxx13new_allocatorImE11_M_max_sizeEv(%"class.__gnu_cxx::new_allocator"* noundef nonnull align 1 dereferenceable(1) %0) #7 comdat align 2 {
  %2 = alloca %"class.__gnu_cxx::new_allocator"*, align 8
  store %"class.__gnu_cxx::new_allocator"* %0, %"class.__gnu_cxx::new_allocator"** %2, align 8
  %3 = load %"class.__gnu_cxx::new_allocator"*, %"class.__gnu_cxx::new_allocator"** %2, align 8
  ret i64 1152921504606846975
}

; Function Attrs: noreturn
declare void @_ZSt28__throw_bad_array_new_lengthv() #10

; Function Attrs: noreturn
declare void @_ZSt17__throw_bad_allocv() #10

; Function Attrs: nobuiltin allocsize(0)
declare noundef nonnull i8* @_Znwm(i64 noundef) #11

; Function Attrs: mustprogress noinline optnone uwtable
define linkonce_odr dso_local noundef nonnull align 8 dereferenceable(12) %"struct.std::_Bit_iterator"* @_ZNSt13_Bit_iteratorpLEl(%"struct.std::_Bit_iterator"* noundef nonnull align 8 dereferenceable(12) %0, i64 noundef %1) #4 comdat align 2 {
  %3 = alloca %"struct.std::_Bit_iterator"*, align 8
  %4 = alloca i64, align 8
  store %"struct.std::_Bit_iterator"* %0, %"struct.std::_Bit_iterator"** %3, align 8
  store i64 %1, i64* %4, align 8
  %5 = load %"struct.std::_Bit_iterator"*, %"struct.std::_Bit_iterator"** %3, align 8
  %6 = bitcast %"struct.std::_Bit_iterator"* %5 to %"struct.std::_Bit_iterator_base"*
  %7 = load i64, i64* %4, align 8
  call void @_ZNSt18_Bit_iterator_base7_M_incrEl(%"struct.std::_Bit_iterator_base"* noundef nonnull align 8 dereferenceable(12) %6, i64 noundef %7)
  ret %"struct.std::_Bit_iterator"* %5
}

; Function Attrs: mustprogress noinline nounwind optnone uwtable
define linkonce_odr dso_local void @_ZNSt18_Bit_iterator_base7_M_incrEl(%"struct.std::_Bit_iterator_base"* noundef nonnull align 8 dereferenceable(12) %0, i64 noundef %1) #7 comdat align 2 {
  %3 = alloca %"struct.std::_Bit_iterator_base"*, align 8
  %4 = alloca i64, align 8
  %5 = alloca i64, align 8
  store %"struct.std::_Bit_iterator_base"* %0, %"struct.std::_Bit_iterator_base"** %3, align 8
  store i64 %1, i64* %4, align 8
  %6 = load %"struct.std::_Bit_iterator_base"*, %"struct.std::_Bit_iterator_base"** %3, align 8
  %7 = load i64, i64* %4, align 8
  %8 = getelementptr inbounds %"struct.std::_Bit_iterator_base", %"struct.std::_Bit_iterator_base"* %6, i32 0, i32 1
  %9 = load i32, i32* %8, align 8
  %10 = zext i32 %9 to i64
  %11 = add nsw i64 %7, %10
  store i64 %11, i64* %5, align 8
  %12 = load i64, i64* %5, align 8
  %13 = sdiv i64 %12, 64
  %14 = getelementptr inbounds %"struct.std::_Bit_iterator_base", %"struct.std::_Bit_iterator_base"* %6, i32 0, i32 0
  %15 = load i64*, i64** %14, align 8
  %16 = getelementptr inbounds i64, i64* %15, i64 %13
  store i64* %16, i64** %14, align 8
  %17 = load i64, i64* %5, align 8
  %18 = srem i64 %17, 64
  store i64 %18, i64* %5, align 8
  %19 = load i64, i64* %5, align 8
  %20 = icmp slt i64 %19, 0
  br i1 %20, label %21, label %27

21:                                               ; preds = %2
  %22 = load i64, i64* %5, align 8
  %23 = add nsw i64 %22, 64
  store i64 %23, i64* %5, align 8
  %24 = getelementptr inbounds %"struct.std::_Bit_iterator_base", %"struct.std::_Bit_iterator_base"* %6, i32 0, i32 0
  %25 = load i64*, i64** %24, align 8
  %26 = getelementptr inbounds i64, i64* %25, i32 -1
  store i64* %26, i64** %24, align 8
  br label %27

27:                                               ; preds = %21, %2
  %28 = load i64, i64* %5, align 8
  %29 = trunc i64 %28 to i32
  %30 = getelementptr inbounds %"struct.std::_Bit_iterator_base", %"struct.std::_Bit_iterator_base"* %6, i32 0, i32 1
  store i32 %29, i32* %30, align 8
  ret void
}

; Function Attrs: mustprogress noinline nounwind optnone uwtable
define linkonce_odr dso_local noundef i64* @_ZNKSt13_Bvector_baseISaIbEE13_Bvector_impl11_M_end_addrEv(%"struct.std::_Bvector_base<std::allocator<bool>>::_Bvector_impl"* noundef nonnull align 8 dereferenceable(40) %0) #7 comdat align 2 {
  %2 = alloca i64*, align 8
  %3 = alloca %"struct.std::_Bvector_base<std::allocator<bool>>::_Bvector_impl"*, align 8
  store %"struct.std::_Bvector_base<std::allocator<bool>>::_Bvector_impl"* %0, %"struct.std::_Bvector_base<std::allocator<bool>>::_Bvector_impl"** %3, align 8
  %4 = load %"struct.std::_Bvector_base<std::allocator<bool>>::_Bvector_impl"*, %"struct.std::_Bvector_base<std::allocator<bool>>::_Bvector_impl"** %3, align 8
  %5 = bitcast %"struct.std::_Bvector_base<std::allocator<bool>>::_Bvector_impl"* %4 to %"struct.std::_Bvector_base<std::allocator<bool>>::_Bvector_impl_data"*
  %6 = getelementptr inbounds %"struct.std::_Bvector_base<std::allocator<bool>>::_Bvector_impl_data", %"struct.std::_Bvector_base<std::allocator<bool>>::_Bvector_impl_data"* %5, i32 0, i32 2
  %7 = load i64*, i64** %6, align 8
  %8 = icmp ne i64* %7, null
  br i1 %8, label %9, label %16

9:                                                ; preds = %1
  %10 = bitcast %"struct.std::_Bvector_base<std::allocator<bool>>::_Bvector_impl"* %4 to %"struct.std::_Bvector_base<std::allocator<bool>>::_Bvector_impl_data"*
  %11 = getelementptr inbounds %"struct.std::_Bvector_base<std::allocator<bool>>::_Bvector_impl_data", %"struct.std::_Bvector_base<std::allocator<bool>>::_Bvector_impl_data"* %10, i32 0, i32 2
  %12 = load i64*, i64** %11, align 8
  %13 = getelementptr inbounds i64, i64* %12, i64 -1
  %14 = call noundef i64* @_ZSt11__addressofImEPT_RS0_(i64* noundef nonnull align 8 dereferenceable(8) %13) #3
  %15 = getelementptr inbounds i64, i64* %14, i64 1
  store i64* %15, i64** %2, align 8
  br label %17

16:                                               ; preds = %1
  store i64* null, i64** %2, align 8
  br label %17

17:                                               ; preds = %16, %9
  %18 = load i64*, i64** %2, align 8
  ret i64* %18
}

; Function Attrs: argmemonly nofree nounwind willreturn writeonly
declare void @llvm.memset.p0i8.i64(i8* nocapture writeonly, i8, i64, i1 immarg) #12

; Function Attrs: mustprogress noinline optnone uwtable
define linkonce_odr dso_local void @_ZNSt13_Bvector_baseISaIbEE13_M_deallocateEv(%"struct.std::_Bvector_base"* noundef nonnull align 8 dereferenceable(40) %0) #4 comdat align 2 {
  %2 = alloca %"struct.std::_Bvector_base"*, align 8
  %3 = alloca i64, align 8
  store %"struct.std::_Bvector_base"* %0, %"struct.std::_Bvector_base"** %2, align 8
  %4 = load %"struct.std::_Bvector_base"*, %"struct.std::_Bvector_base"** %2, align 8
  %5 = getelementptr inbounds %"struct.std::_Bvector_base", %"struct.std::_Bvector_base"* %4, i32 0, i32 0
  %6 = bitcast %"struct.std::_Bvector_base<std::allocator<bool>>::_Bvector_impl"* %5 to %"struct.std::_Bvector_base<std::allocator<bool>>::_Bvector_impl_data"*
  %7 = getelementptr inbounds %"struct.std::_Bvector_base<std::allocator<bool>>::_Bvector_impl_data", %"struct.std::_Bvector_base<std::allocator<bool>>::_Bvector_impl_data"* %6, i32 0, i32 0
  %8 = bitcast %"struct.std::_Bit_iterator"* %7 to %"struct.std::_Bit_iterator_base"*
  %9 = getelementptr inbounds %"struct.std::_Bit_iterator_base", %"struct.std::_Bit_iterator_base"* %8, i32 0, i32 0
  %10 = load i64*, i64** %9, align 8
  %11 = icmp ne i64* %10, null
  br i1 %11, label %12, label %37

12:                                               ; preds = %1
  %13 = getelementptr inbounds %"struct.std::_Bvector_base", %"struct.std::_Bvector_base"* %4, i32 0, i32 0
  %14 = call noundef i64* @_ZNKSt13_Bvector_baseISaIbEE13_Bvector_impl11_M_end_addrEv(%"struct.std::_Bvector_base<std::allocator<bool>>::_Bvector_impl"* noundef nonnull align 8 dereferenceable(40) %13) #3
  %15 = getelementptr inbounds %"struct.std::_Bvector_base", %"struct.std::_Bvector_base"* %4, i32 0, i32 0
  %16 = bitcast %"struct.std::_Bvector_base<std::allocator<bool>>::_Bvector_impl"* %15 to %"struct.std::_Bvector_base<std::allocator<bool>>::_Bvector_impl_data"*
  %17 = getelementptr inbounds %"struct.std::_Bvector_base<std::allocator<bool>>::_Bvector_impl_data", %"struct.std::_Bvector_base<std::allocator<bool>>::_Bvector_impl_data"* %16, i32 0, i32 0
  %18 = bitcast %"struct.std::_Bit_iterator"* %17 to %"struct.std::_Bit_iterator_base"*
  %19 = getelementptr inbounds %"struct.std::_Bit_iterator_base", %"struct.std::_Bit_iterator_base"* %18, i32 0, i32 0
  %20 = load i64*, i64** %19, align 8
  %21 = ptrtoint i64* %14 to i64
  %22 = ptrtoint i64* %20 to i64
  %23 = sub i64 %21, %22
  %24 = sdiv exact i64 %23, 8
  store i64 %24, i64* %3, align 8
  %25 = getelementptr inbounds %"struct.std::_Bvector_base", %"struct.std::_Bvector_base"* %4, i32 0, i32 0
  %26 = bitcast %"struct.std::_Bvector_base<std::allocator<bool>>::_Bvector_impl"* %25 to %"class.std::allocator"*
  %27 = getelementptr inbounds %"struct.std::_Bvector_base", %"struct.std::_Bvector_base"* %4, i32 0, i32 0
  %28 = bitcast %"struct.std::_Bvector_base<std::allocator<bool>>::_Bvector_impl"* %27 to %"struct.std::_Bvector_base<std::allocator<bool>>::_Bvector_impl_data"*
  %29 = getelementptr inbounds %"struct.std::_Bvector_base<std::allocator<bool>>::_Bvector_impl_data", %"struct.std::_Bvector_base<std::allocator<bool>>::_Bvector_impl_data"* %28, i32 0, i32 2
  %30 = load i64*, i64** %29, align 8
  %31 = load i64, i64* %3, align 8
  %32 = sub i64 0, %31
  %33 = getelementptr inbounds i64, i64* %30, i64 %32
  %34 = load i64, i64* %3, align 8
  call void @_ZNSt16allocator_traitsISaImEE10deallocateERS0_Pmm(%"class.std::allocator"* noundef nonnull align 1 dereferenceable(1) %26, i64* noundef %33, i64 noundef %34)
  %35 = getelementptr inbounds %"struct.std::_Bvector_base", %"struct.std::_Bvector_base"* %4, i32 0, i32 0
  %36 = bitcast %"struct.std::_Bvector_base<std::allocator<bool>>::_Bvector_impl"* %35 to %"struct.std::_Bvector_base<std::allocator<bool>>::_Bvector_impl_data"*
  call void @_ZNSt13_Bvector_baseISaIbEE18_Bvector_impl_data8_M_resetEv(%"struct.std::_Bvector_base<std::allocator<bool>>::_Bvector_impl_data"* noundef nonnull align 8 dereferenceable(40) %36) #3
  br label %37

37:                                               ; preds = %12, %1
  ret void
}

; Function Attrs: noinline nounwind optnone uwtable
define linkonce_odr dso_local void @_ZNSt13_Bvector_baseISaIbEE13_Bvector_implD2Ev(%"struct.std::_Bvector_base<std::allocator<bool>>::_Bvector_impl"* noundef nonnull align 8 dereferenceable(40) %0) unnamed_addr #5 comdat align 2 {
  %2 = alloca %"struct.std::_Bvector_base<std::allocator<bool>>::_Bvector_impl"*, align 8
  store %"struct.std::_Bvector_base<std::allocator<bool>>::_Bvector_impl"* %0, %"struct.std::_Bvector_base<std::allocator<bool>>::_Bvector_impl"** %2, align 8
  %3 = load %"struct.std::_Bvector_base<std::allocator<bool>>::_Bvector_impl"*, %"struct.std::_Bvector_base<std::allocator<bool>>::_Bvector_impl"** %2, align 8
  %4 = bitcast %"struct.std::_Bvector_base<std::allocator<bool>>::_Bvector_impl"* %3 to %"class.std::allocator"*
  call void @_ZNSaImED2Ev(%"class.std::allocator"* noundef nonnull align 1 dereferenceable(1) %4) #3
  ret void
}

; Function Attrs: mustprogress noinline optnone uwtable
define linkonce_odr dso_local void @_ZNSt16allocator_traitsISaImEE10deallocateERS0_Pmm(%"class.std::allocator"* noundef nonnull align 1 dereferenceable(1) %0, i64* noundef %1, i64 noundef %2) #4 comdat align 2 {
  %4 = alloca %"class.std::allocator"*, align 8
  %5 = alloca i64*, align 8
  %6 = alloca i64, align 8
  store %"class.std::allocator"* %0, %"class.std::allocator"** %4, align 8
  store i64* %1, i64** %5, align 8
  store i64 %2, i64* %6, align 8
  %7 = load %"class.std::allocator"*, %"class.std::allocator"** %4, align 8
  %8 = bitcast %"class.std::allocator"* %7 to %"class.__gnu_cxx::new_allocator"*
  %9 = load i64*, i64** %5, align 8
  %10 = load i64, i64* %6, align 8
  call void @_ZN9__gnu_cxx13new_allocatorImE10deallocateEPmm(%"class.__gnu_cxx::new_allocator"* noundef nonnull align 1 dereferenceable(1) %8, i64* noundef %9, i64 noundef %10)
  ret void
}

; Function Attrs: mustprogress noinline nounwind optnone uwtable
define linkonce_odr dso_local void @_ZNSt13_Bvector_baseISaIbEE18_Bvector_impl_data8_M_resetEv(%"struct.std::_Bvector_base<std::allocator<bool>>::_Bvector_impl_data"* noundef nonnull align 8 dereferenceable(40) %0) #7 comdat align 2 {
  %2 = alloca %"struct.std::_Bvector_base<std::allocator<bool>>::_Bvector_impl_data"*, align 8
  %3 = alloca %"struct.std::_Bvector_base<std::allocator<bool>>::_Bvector_impl_data", align 8
  store %"struct.std::_Bvector_base<std::allocator<bool>>::_Bvector_impl_data"* %0, %"struct.std::_Bvector_base<std::allocator<bool>>::_Bvector_impl_data"** %2, align 8
  %4 = load %"struct.std::_Bvector_base<std::allocator<bool>>::_Bvector_impl_data"*, %"struct.std::_Bvector_base<std::allocator<bool>>::_Bvector_impl_data"** %2, align 8
  call void @_ZNSt13_Bvector_baseISaIbEE18_Bvector_impl_dataC2Ev(%"struct.std::_Bvector_base<std::allocator<bool>>::_Bvector_impl_data"* noundef nonnull align 8 dereferenceable(40) %3) #3
  %5 = bitcast %"struct.std::_Bvector_base<std::allocator<bool>>::_Bvector_impl_data"* %4 to i8*
  %6 = bitcast %"struct.std::_Bvector_base<std::allocator<bool>>::_Bvector_impl_data"* %3 to i8*
  call void @llvm.memcpy.p0i8.p0i8.i64(i8* align 8 %5, i8* align 8 %6, i64 40, i1 false)
  ret void
}

; Function Attrs: mustprogress noinline nounwind optnone uwtable
define linkonce_odr dso_local void @_ZN9__gnu_cxx13new_allocatorImE10deallocateEPmm(%"class.__gnu_cxx::new_allocator"* noundef nonnull align 1 dereferenceable(1) %0, i64* noundef %1, i64 noundef %2) #7 comdat align 2 {
  %4 = alloca %"class.__gnu_cxx::new_allocator"*, align 8
  %5 = alloca i64*, align 8
  %6 = alloca i64, align 8
  store %"class.__gnu_cxx::new_allocator"* %0, %"class.__gnu_cxx::new_allocator"** %4, align 8
  store i64* %1, i64** %5, align 8
  store i64 %2, i64* %6, align 8
  %7 = load %"class.__gnu_cxx::new_allocator"*, %"class.__gnu_cxx::new_allocator"** %4, align 8
  %8 = load i64*, i64** %5, align 8
  %9 = bitcast i64* %8 to i8*
  call void @_ZdlPv(i8* noundef %9) #3
  ret void
}

; Function Attrs: nobuiltin nounwind
declare void @_ZdlPv(i8* noundef) #13

; Function Attrs: noinline nounwind optnone uwtable
define linkonce_odr dso_local void @_ZNSt13_Bvector_baseISaIbEE18_Bvector_impl_dataC2Ev(%"struct.std::_Bvector_base<std::allocator<bool>>::_Bvector_impl_data"* noundef nonnull align 8 dereferenceable(40) %0) unnamed_addr #5 comdat align 2 personality i8* bitcast (i32 (...)* @__gxx_personality_v0 to i8*) {
  %2 = alloca %"struct.std::_Bvector_base<std::allocator<bool>>::_Bvector_impl_data"*, align 8
  store %"struct.std::_Bvector_base<std::allocator<bool>>::_Bvector_impl_data"* %0, %"struct.std::_Bvector_base<std::allocator<bool>>::_Bvector_impl_data"** %2, align 8
  %3 = load %"struct.std::_Bvector_base<std::allocator<bool>>::_Bvector_impl_data"*, %"struct.std::_Bvector_base<std::allocator<bool>>::_Bvector_impl_data"** %2, align 8
  %4 = getelementptr inbounds %"struct.std::_Bvector_base<std::allocator<bool>>::_Bvector_impl_data", %"struct.std::_Bvector_base<std::allocator<bool>>::_Bvector_impl_data"* %3, i32 0, i32 0
  invoke void @_ZNSt13_Bit_iteratorC2Ev(%"struct.std::_Bit_iterator"* noundef nonnull align 8 dereferenceable(12) %4)
          to label %5 unwind label %9

5:                                                ; preds = %1
  %6 = getelementptr inbounds %"struct.std::_Bvector_base<std::allocator<bool>>::_Bvector_impl_data", %"struct.std::_Bvector_base<std::allocator<bool>>::_Bvector_impl_data"* %3, i32 0, i32 1
  invoke void @_ZNSt13_Bit_iteratorC2Ev(%"struct.std::_Bit_iterator"* noundef nonnull align 8 dereferenceable(12) %6)
          to label %7 unwind label %9

7:                                                ; preds = %5
  %8 = getelementptr inbounds %"struct.std::_Bvector_base<std::allocator<bool>>::_Bvector_impl_data", %"struct.std::_Bvector_base<std::allocator<bool>>::_Bvector_impl_data"* %3, i32 0, i32 2
  store i64* null, i64** %8, align 8
  ret void

9:                                                ; preds = %5, %1
  %10 = landingpad { i8*, i32 }
          catch i8* null
  %11 = extractvalue { i8*, i32 } %10, 0
  call void @__clang_call_terminate(i8* %11) #14
  unreachable
}

; Function Attrs: mustprogress noinline nounwind optnone uwtable
define linkonce_odr dso_local { i64*, i32 } @_ZNSt6vectorIbSaIbEE5beginEv(%"class.std::vector"* noundef nonnull align 8 dereferenceable(40) %0) #7 comdat align 2 personality i8* bitcast (i32 (...)* @__gxx_personality_v0 to i8*) {
  %2 = alloca %"struct.std::_Bit_iterator", align 8
  %3 = alloca %"class.std::vector"*, align 8
  store %"class.std::vector"* %0, %"class.std::vector"** %3, align 8
  %4 = load %"class.std::vector"*, %"class.std::vector"** %3, align 8
  %5 = bitcast %"class.std::vector"* %4 to %"struct.std::_Bvector_base"*
  %6 = getelementptr inbounds %"struct.std::_Bvector_base", %"struct.std::_Bvector_base"* %5, i32 0, i32 0
  %7 = bitcast %"struct.std::_Bvector_base<std::allocator<bool>>::_Bvector_impl"* %6 to %"struct.std::_Bvector_base<std::allocator<bool>>::_Bvector_impl_data"*
  %8 = getelementptr inbounds %"struct.std::_Bvector_base<std::allocator<bool>>::_Bvector_impl_data", %"struct.std::_Bvector_base<std::allocator<bool>>::_Bvector_impl_data"* %7, i32 0, i32 0
  %9 = bitcast %"struct.std::_Bit_iterator"* %8 to %"struct.std::_Bit_iterator_base"*
  %10 = getelementptr inbounds %"struct.std::_Bit_iterator_base", %"struct.std::_Bit_iterator_base"* %9, i32 0, i32 0
  %11 = load i64*, i64** %10, align 8
  invoke void @_ZNSt13_Bit_iteratorC2EPmj(%"struct.std::_Bit_iterator"* noundef nonnull align 8 dereferenceable(12) %2, i64* noundef %11, i32 noundef 0)
          to label %12 unwind label %15

12:                                               ; preds = %1
  %13 = bitcast %"struct.std::_Bit_iterator"* %2 to { i64*, i32 }*
  %14 = load { i64*, i32 }, { i64*, i32 }* %13, align 8
  ret { i64*, i32 } %14

15:                                               ; preds = %1
  %16 = landingpad { i8*, i32 }
          catch i8* null
  %17 = extractvalue { i8*, i32 } %16, 0
  call void @__clang_call_terminate(i8* %17) #14
  unreachable
}

; Function Attrs: mustprogress noinline optnone uwtable
define linkonce_odr dso_local { i64*, i64 } @_ZNKSt13_Bit_iteratorixEl(%"struct.std::_Bit_iterator"* noundef nonnull align 8 dereferenceable(12) %0, i64 noundef %1) #4 comdat align 2 {
  %3 = alloca %"struct.std::_Bit_reference", align 8
  %4 = alloca %"struct.std::_Bit_iterator"*, align 8
  %5 = alloca i64, align 8
  %6 = alloca %"struct.std::_Bit_iterator", align 8
  store %"struct.std::_Bit_iterator"* %0, %"struct.std::_Bit_iterator"** %4, align 8
  store i64 %1, i64* %5, align 8
  %7 = load %"struct.std::_Bit_iterator"*, %"struct.std::_Bit_iterator"** %4, align 8
  %8 = load i64, i64* %5, align 8
  %9 = call { i64*, i32 } @_ZStplRKSt13_Bit_iteratorl(%"struct.std::_Bit_iterator"* noundef nonnull align 8 dereferenceable(12) %7, i64 noundef %8)
  %10 = bitcast %"struct.std::_Bit_iterator"* %6 to { i64*, i32 }*
  %11 = getelementptr inbounds { i64*, i32 }, { i64*, i32 }* %10, i32 0, i32 0
  %12 = extractvalue { i64*, i32 } %9, 0
  store i64* %12, i64** %11, align 8
  %13 = getelementptr inbounds { i64*, i32 }, { i64*, i32 }* %10, i32 0, i32 1
  %14 = extractvalue { i64*, i32 } %9, 1
  store i32 %14, i32* %13, align 8
  %15 = call { i64*, i64 } @_ZNKSt13_Bit_iteratordeEv(%"struct.std::_Bit_iterator"* noundef nonnull align 8 dereferenceable(12) %6)
  %16 = bitcast %"struct.std::_Bit_reference"* %3 to { i64*, i64 }*
  %17 = getelementptr inbounds { i64*, i64 }, { i64*, i64 }* %16, i32 0, i32 0
  %18 = extractvalue { i64*, i64 } %15, 0
  store i64* %18, i64** %17, align 8
  %19 = getelementptr inbounds { i64*, i64 }, { i64*, i64 }* %16, i32 0, i32 1
  %20 = extractvalue { i64*, i64 } %15, 1
  store i64 %20, i64* %19, align 8
  %21 = bitcast %"struct.std::_Bit_reference"* %3 to { i64*, i64 }*
  %22 = load { i64*, i64 }, { i64*, i64 }* %21, align 8
  ret { i64*, i64 } %22
}

; Function Attrs: mustprogress noinline optnone uwtable
define linkonce_odr dso_local { i64*, i64 } @_ZNKSt13_Bit_iteratordeEv(%"struct.std::_Bit_iterator"* noundef nonnull align 8 dereferenceable(12) %0) #4 comdat align 2 {
  %2 = alloca %"struct.std::_Bit_reference", align 8
  %3 = alloca %"struct.std::_Bit_iterator"*, align 8
  store %"struct.std::_Bit_iterator"* %0, %"struct.std::_Bit_iterator"** %3, align 8
  %4 = load %"struct.std::_Bit_iterator"*, %"struct.std::_Bit_iterator"** %3, align 8
  %5 = bitcast %"struct.std::_Bit_iterator"* %4 to %"struct.std::_Bit_iterator_base"*
  %6 = getelementptr inbounds %"struct.std::_Bit_iterator_base", %"struct.std::_Bit_iterator_base"* %5, i32 0, i32 0
  %7 = load i64*, i64** %6, align 8
  %8 = bitcast %"struct.std::_Bit_iterator"* %4 to %"struct.std::_Bit_iterator_base"*
  %9 = getelementptr inbounds %"struct.std::_Bit_iterator_base", %"struct.std::_Bit_iterator_base"* %8, i32 0, i32 1
  %10 = load i32, i32* %9, align 8
  %11 = zext i32 %10 to i64
  %12 = shl i64 1, %11
  call void @_ZNSt14_Bit_referenceC2EPmm(%"struct.std::_Bit_reference"* noundef nonnull align 8 dereferenceable(16) %2, i64* noundef %7, i64 noundef %12)
  %13 = bitcast %"struct.std::_Bit_reference"* %2 to { i64*, i64 }*
  %14 = load { i64*, i64 }, { i64*, i64 }* %13, align 8
  ret { i64*, i64 } %14
}

; Function Attrs: noinline nounwind optnone uwtable
define linkonce_odr dso_local void @_ZNSt14_Bit_referenceC2EPmm(%"struct.std::_Bit_reference"* noundef nonnull align 8 dereferenceable(16) %0, i64* noundef %1, i64 noundef %2) unnamed_addr #5 comdat align 2 {
  %4 = alloca %"struct.std::_Bit_reference"*, align 8
  %5 = alloca i64*, align 8
  %6 = alloca i64, align 8
  store %"struct.std::_Bit_reference"* %0, %"struct.std::_Bit_reference"** %4, align 8
  store i64* %1, i64** %5, align 8
  store i64 %2, i64* %6, align 8
  %7 = load %"struct.std::_Bit_reference"*, %"struct.std::_Bit_reference"** %4, align 8
  %8 = getelementptr inbounds %"struct.std::_Bit_reference", %"struct.std::_Bit_reference"* %7, i32 0, i32 0
  %9 = load i64*, i64** %5, align 8
  store i64* %9, i64** %8, align 8
  %10 = getelementptr inbounds %"struct.std::_Bit_reference", %"struct.std::_Bit_reference"* %7, i32 0, i32 1
  %11 = load i64, i64* %6, align 8
  store i64 %11, i64* %10, align 8
  ret void
}

; Function Attrs: noinline uwtable
define internal void @_GLOBAL__sub_I_COUNT_NUMBERS_CAN_CONSTRUCTED_USING_TWO_NUMBERS_processed.cpp() #0 section ".text.startup" {
  call void @__cxx_global_var_init()
  ret void
}

attributes #0 = { noinline uwtable "frame-pointer"="all" "min-legal-vector-width"="0" "no-trapping-math"="true" "stack-protector-buffer-size"="8" "target-cpu"="x86-64" "target-features"="+cx8,+fxsr,+mmx,+sse,+sse2,+x87" "tune-cpu"="generic" }
attributes #1 = { "frame-pointer"="all" "no-trapping-math"="true" "stack-protector-buffer-size"="8" "target-cpu"="x86-64" "target-features"="+cx8,+fxsr,+mmx,+sse,+sse2,+x87" "tune-cpu"="generic" }
attributes #2 = { nounwind "frame-pointer"="all" "no-trapping-math"="true" "stack-protector-buffer-size"="8" "target-cpu"="x86-64" "target-features"="+cx8,+fxsr,+mmx,+sse,+sse2,+x87" "tune-cpu"="generic" }
attributes #3 = { nounwind }
attributes #4 = { mustprogress noinline optnone uwtable "frame-pointer"="all" "min-legal-vector-width"="0" "no-trapping-math"="true" "stack-protector-buffer-size"="8" "target-cpu"="x86-64" "target-features"="+cx8,+fxsr,+mmx,+sse,+sse2,+x87" "tune-cpu"="generic" }
attributes #5 = { noinline nounwind optnone uwtable "frame-pointer"="all" "min-legal-vector-width"="0" "no-trapping-math"="true" "stack-protector-buffer-size"="8" "target-cpu"="x86-64" "target-features"="+cx8,+fxsr,+mmx,+sse,+sse2,+x87" "tune-cpu"="generic" }
attributes #6 = { noinline optnone uwtable "frame-pointer"="all" "min-legal-vector-width"="0" "no-trapping-math"="true" "stack-protector-buffer-size"="8" "target-cpu"="x86-64" "target-features"="+cx8,+fxsr,+mmx,+sse,+sse2,+x87" "tune-cpu"="generic" }
attributes #7 = { mustprogress noinline nounwind optnone uwtable "frame-pointer"="all" "min-legal-vector-width"="0" "no-trapping-math"="true" "stack-protector-buffer-size"="8" "target-cpu"="x86-64" "target-features"="+cx8,+fxsr,+mmx,+sse,+sse2,+x87" "tune-cpu"="generic" }
attributes #8 = { noinline noreturn nounwind }
attributes #9 = { argmemonly nofree nounwind willreturn }
attributes #10 = { noreturn "frame-pointer"="all" "no-trapping-math"="true" "stack-protector-buffer-size"="8" "target-cpu"="x86-64" "target-features"="+cx8,+fxsr,+mmx,+sse,+sse2,+x87" "tune-cpu"="generic" }
attributes #11 = { nobuiltin allocsize(0) "frame-pointer"="all" "no-trapping-math"="true" "stack-protector-buffer-size"="8" "target-cpu"="x86-64" "target-features"="+cx8,+fxsr,+mmx,+sse,+sse2,+x87" "tune-cpu"="generic" }
attributes #12 = { argmemonly nofree nounwind willreturn writeonly }
attributes #13 = { nobuiltin nounwind "frame-pointer"="all" "no-trapping-math"="true" "stack-protector-buffer-size"="8" "target-cpu"="x86-64" "target-features"="+cx8,+fxsr,+mmx,+sse,+sse2,+x87" "tune-cpu"="generic" }
attributes #14 = { noreturn nounwind }
attributes #15 = { noreturn }
attributes #16 = { allocsize(0) }

!llvm.module.flags = !{!0, !1, !2, !3, !4}
!llvm.ident = !{!5}

!0 = !{i32 1, !"wchar_size", i32 4}
!1 = !{i32 7, !"PIC Level", i32 2}
!2 = !{i32 7, !"PIE Level", i32 2}
!3 = !{i32 7, !"uwtable", i32 1}
!4 = !{i32 7, !"frame-pointer", i32 2}
!5 = !{!"Ubuntu clang version 14.0.0-1ubuntu1.1"}
!6 = distinct !{!6, !7}
!7 = !{!"llvm.loop.mustprogress"}
