; ModuleID = 'REPLACE_CHARACTER_C1_C2_C2_C1_STRING_S_emit.edf0dd9443dc6cd5-cgu.0'
source_filename = "REPLACE_CHARACTER_C1_C2_C2_C1_STRING_S_emit.edf0dd9443dc6cd5-cgu.0"
target datalayout = "e-m:e-p270:32:32-p271:32:32-p272:64:64-i64:64-i128:128-f80:128-n8:16:32:64-S128"
target triple = "x86_64-unknown-linux-gnu"

%"core::mem::maybe_uninit::MaybeUninit<[u8; 8]>" = type { [8 x i8] }

@alloc_d1084648e479974e70c9329824bf76f9 = private unnamed_addr constant [9 x i8] c"mid > len", align 1
@alloc_e8e5fd9f509afcb950667480b3e3e42a = private unnamed_addr constant [126 x i8] c"/root/.rustup/toolchains/stable-x86_64-unknown-linux-gnu/lib/rustlib/src/rust/library/core/src/slice/sort/stable/quicksort.rs\00", align 1
@alloc_58d434a1e795f965ef82c8e9c5db822a = private unnamed_addr constant <{ ptr, [16 x i8] }> <{ ptr @alloc_e8e5fd9f509afcb950667480b3e3e42a, [16 x i8] c"}\00\00\00\00\00\00\00J\00\00\00\1F\00\00\00" }>, align 8
@alloc_0766b232215672ee1bd2195fdb153938 = private unnamed_addr constant <{ ptr, [16 x i8] }> <{ ptr @alloc_e8e5fd9f509afcb950667480b3e3e42a, [16 x i8] c"}\00\00\00\00\00\00\00D\00\00\00\17\00\00\00" }>, align 8
@alloc_4ebdd4fb52733a65108a00e385ff8fd6 = private unnamed_addr constant [107 x i8] c"/root/.rustup/toolchains/stable-x86_64-unknown-linux-gnu/lib/rustlib/src/rust/library/alloc/src/vec/mod.rs\00", align 1
@alloc_c66764e78d07cfd97cd1ec1962f8a17a = private unnamed_addr constant <{ ptr, [16 x i8] }> <{ ptr @alloc_4ebdd4fb52733a65108a00e385ff8fd6, [16 x i8] c"j\00\00\00\00\00\00\00\EC\0A\00\00$\00\00\00" }>, align 8
@alloc_92ed622ad60a8e3eb42de5b155ee835e = private unnamed_addr constant [42 x i8] c"assertion failed: self.is_char_boundary(n)", align 1
@alloc_db51a71a1b6b25b4224d4dc5277f93e7 = private unnamed_addr constant [256 x i8] c"\01\01\01\01\01\01\01\01\01\01\01\01\01\01\01\01\01\01\01\01\01\01\01\01\01\01\01\01\01\01\01\01\01\01\01\01\01\01\01\01\01\01\01\01\01\01\01\01\01\01\01\01\01\01\01\01\01\01\01\01\01\01\01\01\01\01\01\01\01\01\01\01\01\01\01\01\01\01\01\01\01\01\01\01\01\01\01\01\01\01\01\01\01\01\01\01\01\01\01\01\01\01\01\01\01\01\01\01\01\01\01\01\01\01\01\01\01\01\01\01\01\01\01\01\01\01\01\01\00\00\00\00\00\00\00\00\00\00\00\00\00\00\00\00\00\00\00\00\00\00\00\00\00\00\00\00\00\00\00\00\00\00\00\00\00\00\00\00\00\00\00\00\00\00\00\00\00\00\00\00\00\00\00\00\00\00\00\00\00\00\00\00\00\00\02\02\02\02\02\02\02\02\02\02\02\02\02\02\02\02\02\02\02\02\02\02\02\02\02\02\02\02\02\02\03\03\03\03\03\03\03\03\03\03\03\03\03\03\03\03\04\04\04\04\04\00\00\00\00\00\00\00\00\00\00\00", align 1
@alloc_93c4cf0cd96d0941b72bcdb46f13e31c = private unnamed_addr constant [131 x i8] c"/root/es/vert/vert/rust_funcs/cpp_transcoder/REPLACE_CHARACTER_C1_C2_C2_C1_STRING_S/REPLACE_CHARACTER_C1_C2_C2_C1_STRING_S_emit.rs\00", align 1
@alloc_95740aa5a3105863e5e0aea14ec0eaa4 = private unnamed_addr constant <{ ptr, [16 x i8] }> <{ ptr @alloc_93c4cf0cd96d0941b72bcdb46f13e31c, [16 x i8] c"\82\00\00\00\00\00\00\00\1A\00\00\00\1D\00\00\00" }>, align 8
@alloc_f2778d43092910bbc687852be59ae1a4 = private unnamed_addr constant <{ ptr, [16 x i8] }> <{ ptr @alloc_93c4cf0cd96d0941b72bcdb46f13e31c, [16 x i8] c"\82\00\00\00\00\00\00\00\1C\00\00\00$\00\00\00" }>, align 8
@alloc_4df0d0febdd5d3a64363530ad4e25ffb = private unnamed_addr constant <{ ptr, [16 x i8] }> <{ ptr @alloc_93c4cf0cd96d0941b72bcdb46f13e31c, [16 x i8] c"\82\00\00\00\00\00\00\00\1D\00\00\00\0F\00\00\00" }>, align 8
@alloc_2e9ecbc1f42a5da546130bf029d2e0a9 = private unnamed_addr constant <{ ptr, [16 x i8] }> <{ ptr @alloc_93c4cf0cd96d0941b72bcdb46f13e31c, [16 x i8] c"\82\00\00\00\00\00\00\00\1B\00\00\00\0F\00\00\00" }>, align 8

; <alloc::vec::Vec<T> as alloc::vec::spec_from_iter_nested::SpecFromIterNested<T,I>>::from_iter
; Function Attrs: nonlazybind uwtable
define void @"_ZN111_$LT$alloc..vec..Vec$LT$T$GT$$u20$as$u20$alloc..vec..spec_from_iter_nested..SpecFromIterNested$LT$T$C$I$GT$$GT$9from_iter17hbe1afec43c5640b5E"(ptr dead_on_unwind noalias noundef writable writeonly sret([24 x i8]) align 8 captures(none) dereferenceable(24) %_0, ptr noalias noundef align 8 captures(none) dereferenceable(16) %0) unnamed_addr #0 personality ptr @rust_eh_personality {
start:
  %_4.i = alloca [24 x i8], align 8
  %vector = alloca [24 x i8], align 8
  call void @llvm.lifetime.start.p0(i64 24, ptr nonnull %vector)
  %1 = getelementptr inbounds nuw i8, ptr %0, i64 8
  %_7.i.i = load ptr, ptr %1, align 8, !alias.scope !3, !noalias !6, !nonnull !11, !noundef !11
  %_8.i.i = load ptr, ptr %0, align 8, !alias.scope !3, !noalias !6, !nonnull !11, !noundef !11
  %2 = ptrtoint ptr %_7.i.i to i64
  %3 = ptrtoint ptr %_8.i.i to i64
  %4 = sub nuw i64 %2, %3
  call void @llvm.lifetime.start.p0(i64 24, ptr nonnull %_4.i)
; call alloc::raw_vec::RawVecInner<A>::try_allocate_in
  call void @"_ZN5alloc7raw_vec20RawVecInner$LT$A$GT$15try_allocate_in17had089b3ffc2704ecE"(ptr noalias noundef sret([24 x i8]) align 8 captures(none) dereferenceable(24) %_4.i, i64 noundef %4, i1 noundef zeroext false, i64 noundef 1, i64 noundef 1)
  %_5.i = load i64, ptr %_4.i, align 8, !range !12, !noundef !11
  %5 = trunc nuw i64 %_5.i to i1
  %6 = getelementptr inbounds nuw i8, ptr %_4.i, i64 8
  %err.0.i = load i64, ptr %6, align 8, !range !13, !noundef !11
  %7 = getelementptr inbounds nuw i8, ptr %_4.i, i64 16
  br i1 %5, label %bb3.i, label %"_ZN5alloc7raw_vec20RawVecInner$LT$A$GT$16with_capacity_in17h0c8f4b8bb02748e6E.exit", !prof !14

bb3.i:                                            ; preds = %start
  %err.1.i = load i64, ptr %7, align 8
; call alloc::raw_vec::handle_error
  tail call void @_ZN5alloc7raw_vec12handle_error17h3a8c375904e593b2E(i64 noundef %err.0.i, i64 %err.1.i) #29
  unreachable

"_ZN5alloc7raw_vec20RawVecInner$LT$A$GT$16with_capacity_in17h0c8f4b8bb02748e6E.exit": ; preds = %start
  %this.1.i = load ptr, ptr %7, align 8, !nonnull !11, !noundef !11
  %_7.i = icmp ule i64 %4, %err.0.i
  tail call void @llvm.assume(i1 %_7.i)
  call void @llvm.lifetime.end.p0(i64 24, ptr nonnull %_4.i)
  store i64 %err.0.i, ptr %vector, align 8
  %8 = getelementptr inbounds nuw i8, ptr %vector, i64 8
  store ptr %this.1.i, ptr %8, align 8
  %9 = getelementptr inbounds nuw i8, ptr %vector, i64 16
  store i64 0, ptr %9, align 8
  tail call void @llvm.experimental.noalias.scope.decl(metadata !15)
  tail call void @llvm.experimental.noalias.scope.decl(metadata !18)
  tail call void @llvm.experimental.noalias.scope.decl(metadata !20)
  tail call void @llvm.experimental.noalias.scope.decl(metadata !23)
; invoke alloc::vec::Vec<T,A>::reserve
  invoke void @"_ZN5alloc3vec16Vec$LT$T$C$A$GT$7reserve17hd7d983ab73297baaE"(ptr noalias noundef align 8 dereferenceable(24) %vector, i64 noundef %4)
          to label %.noexc unwind label %cleanup1

.noexc:                                           ; preds = %"_ZN5alloc7raw_vec20RawVecInner$LT$A$GT$16with_capacity_in17h0c8f4b8bb02748e6E.exit"
  %_26.i.i = load ptr, ptr %8, align 8, !alias.scope !25, !noalias !26, !nonnull !11, !noundef !11
  %_27.i.i = load i64, ptr %9, align 8, !alias.scope !25, !noalias !26, !noundef !11
  call void @llvm.experimental.noalias.scope.decl(metadata !27)
  call void @llvm.experimental.noalias.scope.decl(metadata !30)
  call void @llvm.experimental.noalias.scope.decl(metadata !33)
  call void @llvm.experimental.noalias.scope.decl(metadata !36)
  br label %bb1.i.i.i.i.i.i

bb1.i.i.i.i.i.i:                                  ; preds = %bb3.i.i.i.i.i.i, %.noexc
  %f.sroa.4.0.i.i.i.i.i = phi i64 [ %_27.i.i, %.noexc ], [ %10, %bb3.i.i.i.i.i.i ]
  %_18.i.i5.i.i.i.i.i.i = phi ptr [ %_8.i.i, %.noexc ], [ %_18.i.i4.i.i.i.i.i.i, %bb3.i.i.i.i.i.i ]
  call void @llvm.experimental.noalias.scope.decl(metadata !39)
  %_7.i.i.i.i.i.i.i.i = icmp eq ptr %_18.i.i5.i.i.i.i.i.i, %_7.i.i
  br i1 %_7.i.i.i.i.i.i.i.i, label %"_ZN91_$LT$core..slice..iter..Iter$LT$T$GT$$u20$as$u20$core..iter..traits..iterator..Iterator$GT$4next17hf7d1340a322c1c85E.exit.i.i.i.i.i.i.i", label %bb6.i.i.i.i.i.i.i.i

bb6.i.i.i.i.i.i.i.i:                              ; preds = %bb1.i.i.i.i.i.i
  %_18.i.i.i.i.i.i.i.i = getelementptr inbounds nuw i8, ptr %_18.i.i5.i.i.i.i.i.i, i64 1
  store ptr %_18.i.i.i.i.i.i.i.i, ptr %0, align 8, !alias.scope !42, !noalias !45
  br label %"_ZN91_$LT$core..slice..iter..Iter$LT$T$GT$$u20$as$u20$core..iter..traits..iterator..Iterator$GT$4next17hf7d1340a322c1c85E.exit.i.i.i.i.i.i.i"

"_ZN91_$LT$core..slice..iter..Iter$LT$T$GT$$u20$as$u20$core..iter..traits..iterator..Iterator$GT$4next17hf7d1340a322c1c85E.exit.i.i.i.i.i.i.i": ; preds = %bb6.i.i.i.i.i.i.i.i, %bb1.i.i.i.i.i.i
  %_18.i.i4.i.i.i.i.i.i = phi ptr [ %_18.i.i.i.i.i.i.i.i, %bb6.i.i.i.i.i.i.i.i ], [ %_18.i.i5.i.i.i.i.i.i, %bb1.i.i.i.i.i.i ]
  %_0.sroa.0.0.i.i.i.i.i.i.i.i = phi ptr [ %_18.i.i5.i.i.i.i.i.i, %bb6.i.i.i.i.i.i.i.i ], [ null, %bb1.i.i.i.i.i.i ]
  %.not.i.not.i.i.i.i.i.i = icmp eq ptr %_0.sroa.0.0.i.i.i.i.i.i.i.i, null
  br i1 %.not.i.not.i.i.i.i.i.i, label %"_ZN81_$LT$core..str..iter..Bytes$u20$as$u20$core..iter..traits..iterator..Iterator$GT$4next17h1d2470c5d9a8e5ffE.exit.i.i.i.i.i.i", label %bb5.i.i.i.i.i.i.i

bb5.i.i.i.i.i.i.i:                                ; preds = %"_ZN91_$LT$core..slice..iter..Iter$LT$T$GT$$u20$as$u20$core..iter..traits..iterator..Iterator$GT$4next17hf7d1340a322c1c85E.exit.i.i.i.i.i.i.i"
  %v.i.i.i.i.i.i.i = load i8, ptr %_0.sroa.0.0.i.i.i.i.i.i.i.i, align 1, !noalias !50, !noundef !11
  br label %"_ZN81_$LT$core..str..iter..Bytes$u20$as$u20$core..iter..traits..iterator..Iterator$GT$4next17h1d2470c5d9a8e5ffE.exit.i.i.i.i.i.i"

"_ZN81_$LT$core..str..iter..Bytes$u20$as$u20$core..iter..traits..iterator..Iterator$GT$4next17h1d2470c5d9a8e5ffE.exit.i.i.i.i.i.i": ; preds = %bb5.i.i.i.i.i.i.i, %"_ZN91_$LT$core..slice..iter..Iter$LT$T$GT$$u20$as$u20$core..iter..traits..iterator..Iterator$GT$4next17hf7d1340a322c1c85E.exit.i.i.i.i.i.i.i"
  %_0.sroa.3.0.i.i.i.i.i.i.i = phi i8 [ %v.i.i.i.i.i.i.i, %bb5.i.i.i.i.i.i.i ], [ undef, %"_ZN91_$LT$core..slice..iter..Iter$LT$T$GT$$u20$as$u20$core..iter..traits..iterator..Iterator$GT$4next17hf7d1340a322c1c85E.exit.i.i.i.i.i.i.i" ]
  br i1 %.not.i.not.i.i.i.i.i.i, label %"_ZN97_$LT$alloc..vec..Vec$LT$T$C$A$GT$$u20$as$u20$alloc..vec..spec_extend..SpecExtend$LT$T$C$I$GT$$GT$11spec_extend17hbe17c1eaad2150f2E.exit", label %bb3.i.i.i.i.i.i

bb3.i.i.i.i.i.i:                                  ; preds = %"_ZN81_$LT$core..str..iter..Bytes$u20$as$u20$core..iter..traits..iterator..Iterator$GT$4next17h1d2470c5d9a8e5ffE.exit.i.i.i.i.i.i"
  %_3.i.i.i.i.i.i.i.i.i = getelementptr inbounds nuw i8, ptr %_26.i.i, i64 %f.sroa.4.0.i.i.i.i.i
  store i8 %_0.sroa.3.0.i.i.i.i.i.i.i, ptr %_3.i.i.i.i.i.i.i.i.i, align 1, !noalias !51
  %10 = add i64 %f.sroa.4.0.i.i.i.i.i, 1
  br label %bb1.i.i.i.i.i.i

"_ZN97_$LT$alloc..vec..Vec$LT$T$C$A$GT$$u20$as$u20$alloc..vec..spec_extend..SpecExtend$LT$T$C$I$GT$$GT$11spec_extend17hbe17c1eaad2150f2E.exit": ; preds = %"_ZN81_$LT$core..str..iter..Bytes$u20$as$u20$core..iter..traits..iterator..Iterator$GT$4next17h1d2470c5d9a8e5ffE.exit.i.i.i.i.i.i"
  store i64 %f.sroa.4.0.i.i.i.i.i, ptr %9, align 8, !alias.scope !25, !noalias !58
  call void @llvm.memcpy.p0.p0.i64(ptr noundef nonnull align 8 dereferenceable(24) %_0, ptr noundef nonnull align 8 dereferenceable(24) %vector, i64 24, i1 false)
  call void @llvm.lifetime.end.p0(i64 24, ptr nonnull %vector)
  ret void

cleanup1:                                         ; preds = %"_ZN5alloc7raw_vec20RawVecInner$LT$A$GT$16with_capacity_in17h0c8f4b8bb02748e6E.exit"
  %11 = landingpad { ptr, i32 }
          cleanup
; invoke core::ptr::drop_in_place<alloc::vec::Vec<u8>>
  invoke fastcc void @"_ZN4core3ptr46drop_in_place$LT$alloc..vec..Vec$LT$u8$GT$$GT$17h99ea250b3a74dcb0E"(ptr noalias noundef align 8 dereferenceable(24) %vector) #30
          to label %bb6 unwind label %terminate

terminate:                                        ; preds = %cleanup1
  %12 = landingpad { ptr, i32 }
          filter [0 x ptr] zeroinitializer
; call core::panicking::panic_in_cleanup
  call void @_ZN4core9panicking16panic_in_cleanup17h5f6bde45d17ae243E() #31
  unreachable

bb6:                                              ; preds = %cleanup1
  resume { ptr, i32 } %11
}

; <<alloc::vec::drain::Drain<T,A> as core::ops::drop::Drop>::drop::DropGuard<T,A> as core::ops::drop::Drop>::drop
; Function Attrs: mustprogress nofree norecurse nosync nounwind nonlazybind willreturn memory(readwrite, inaccessiblemem: write) uwtable
define void @"_ZN150_$LT$$LT$alloc..vec..drain..Drain$LT$T$C$A$GT$$u20$as$u20$core..ops..drop..Drop$GT$..drop..DropGuard$LT$T$C$A$GT$$u20$as$u20$core..ops..drop..Drop$GT$4drop17h2ecf85fda31b43b2E"(ptr noalias noundef readonly align 8 captures(none) dereferenceable(8) %self) unnamed_addr #1 {
start:
  %_16 = load ptr, ptr %self, align 8, !nonnull !11, !align !69, !noundef !11
  %0 = getelementptr inbounds nuw i8, ptr %_16, i64 32
  %_3 = load i64, ptr %0, align 8, !noundef !11
  %_2.not = icmp eq i64 %_3, 0
  br i1 %_2.not, label %bb5, label %bb1

bb1:                                              ; preds = %start
  %1 = getelementptr inbounds nuw i8, ptr %_16, i64 16
  %_22 = load ptr, ptr %1, align 8, !nonnull !11, !noundef !11
  %2 = getelementptr inbounds nuw i8, ptr %_22, i64 16
  %start1 = load i64, ptr %2, align 8, !noundef !11
  %_23 = icmp sgt i64 %start1, -1
  tail call void @llvm.assume(i1 %_23)
  %3 = getelementptr inbounds nuw i8, ptr %_16, i64 24
  %tail = load i64, ptr %3, align 8, !noundef !11
  %_7.not = icmp eq i64 %tail, %start1
  br i1 %_7.not, label %bb3, label %bb2

bb5:                                              ; preds = %start, %bb3
  ret void

bb3:                                              ; preds = %bb2, %bb1
  %_15 = load i64, ptr %0, align 8, !noundef !11
  %new_len = add i64 %_15, %start1
  store i64 %new_len, ptr %2, align 8
  br label %bb5

bb2:                                              ; preds = %bb1
  %4 = getelementptr inbounds nuw i8, ptr %_22, i64 8
  %_24 = load ptr, ptr %4, align 8, !nonnull !11, !noundef !11
  %src = getelementptr inbounds nuw i8, ptr %_24, i64 %tail
  %dst = getelementptr inbounds nuw i8, ptr %_24, i64 %start1
  tail call void @llvm.memmove.p0.p0.i64(ptr nonnull align 1 %dst, ptr nonnull align 1 %src, i64 %_3, i1 false)
  br label %bb3
}

; <<alloc::vec::into_iter::IntoIter<T,A> as core::ops::drop::Drop>::drop::DropGuard<T,A> as core::ops::drop::Drop>::drop
; Function Attrs: nonlazybind uwtable
define void @"_ZN157_$LT$$LT$alloc..vec..into_iter..IntoIter$LT$T$C$A$GT$$u20$as$u20$core..ops..drop..Drop$GT$..drop..DropGuard$LT$T$C$A$GT$$u20$as$u20$core..ops..drop..Drop$GT$4drop17h37186e8a8f517616E"(ptr noalias noundef readonly align 8 captures(none) dereferenceable(8) %self) unnamed_addr #0 {
start:
  %_4 = alloca [16 x i8], align 8
  call void @llvm.lifetime.start.p0(i64 16, ptr nonnull %_4)
  %_8 = load ptr, ptr %self, align 8, !nonnull !11, !align !69, !noundef !11
  %ptr = load ptr, ptr %_8, align 8, !nonnull !11, !noundef !11
  %0 = getelementptr inbounds nuw i8, ptr %_8, i64 16
  %capacity1 = load i64, ptr %0, align 8, !noundef !11
  store i64 %capacity1, ptr %_4, align 8
  %1 = getelementptr inbounds nuw i8, ptr %_4, i64 8
  store ptr %ptr, ptr %1, align 8
; call <alloc::raw_vec::RawVec<T,A> as core::ops::drop::Drop>::drop
  call void @"_ZN77_$LT$alloc..raw_vec..RawVec$LT$T$C$A$GT$$u20$as$u20$core..ops..drop..Drop$GT$4drop17h86eef0594e496705E"(ptr noalias noundef nonnull align 8 dereferenceable(16) %_4)
  call void @llvm.lifetime.end.p0(i64 16, ptr nonnull %_4)
  ret void
}

; core::ptr::swap_nonoverlapping_bytes::swap_nonoverlapping_chunks
; Function Attrs: nofree norecurse nosync nounwind nonlazybind memory(argmem: readwrite, inaccessiblemem: readwrite) uwtable
define void @_ZN4core3ptr25swap_nonoverlapping_bytes26swap_nonoverlapping_chunks17h959a6aa404b19840E(ptr noundef captures(none) %x, ptr noundef captures(none) %y, i64 noundef range(i64 1, 0) %chunks) unnamed_addr #2 {
start:
  %xtraiter = and i64 %chunks, 1
  %0 = icmp eq i64 %chunks, 1
  br i1 %0, label %bb4.unr-lcssa, label %start.new

start.new:                                        ; preds = %start
  %unroll_iter = and i64 %chunks, -2
  br label %bb3

bb4.unr-lcssa:                                    ; preds = %bb3, %start
  %iter.sroa.0.02.unr = phi i64 [ 0, %start ], [ %_18.1, %bb3 ]
  %lcmp.mod.not = icmp eq i64 %xtraiter, 0
  br i1 %lcmp.mod.not, label %bb4, label %bb3.epil

bb3.epil:                                         ; preds = %bb4.unr-lcssa
  %_11.epil = getelementptr inbounds nuw %"core::mem::maybe_uninit::MaybeUninit<[u8; 8]>", ptr %x, i64 %iter.sroa.0.02.unr
  %_13.epil = getelementptr inbounds nuw %"core::mem::maybe_uninit::MaybeUninit<[u8; 8]>", ptr %y, i64 %iter.sroa.0.02.unr
  tail call void @llvm.experimental.noalias.scope.decl(metadata !70)
  tail call void @llvm.experimental.noalias.scope.decl(metadata !73)
  %_3.sroa.0.0.copyload.i.epil = load i64, ptr %_11.epil, align 1, !alias.scope !70, !noalias !73
  %_4.sroa.0.0.copyload.i.epil = load i64, ptr %_13.epil, align 1, !alias.scope !73, !noalias !70
  store i64 %_4.sroa.0.0.copyload.i.epil, ptr %_11.epil, align 1, !alias.scope !70, !noalias !73
  store i64 %_3.sroa.0.0.copyload.i.epil, ptr %_13.epil, align 1, !alias.scope !73, !noalias !70
  br label %bb4

bb4:                                              ; preds = %bb4.unr-lcssa, %bb3.epil
  ret void

bb3:                                              ; preds = %bb3, %start.new
  %iter.sroa.0.02 = phi i64 [ 0, %start.new ], [ %_18.1, %bb3 ]
  %niter = phi i64 [ 0, %start.new ], [ %niter.next.1, %bb3 ]
  %_18 = or disjoint i64 %iter.sroa.0.02, 1
  %_11 = getelementptr inbounds nuw %"core::mem::maybe_uninit::MaybeUninit<[u8; 8]>", ptr %x, i64 %iter.sroa.0.02
  %_13 = getelementptr inbounds nuw %"core::mem::maybe_uninit::MaybeUninit<[u8; 8]>", ptr %y, i64 %iter.sroa.0.02
  tail call void @llvm.experimental.noalias.scope.decl(metadata !70)
  tail call void @llvm.experimental.noalias.scope.decl(metadata !73)
  %_3.sroa.0.0.copyload.i = load i64, ptr %_11, align 1, !alias.scope !70, !noalias !73
  %_4.sroa.0.0.copyload.i = load i64, ptr %_13, align 1, !alias.scope !73, !noalias !70
  store i64 %_4.sroa.0.0.copyload.i, ptr %_11, align 1, !alias.scope !70, !noalias !73
  store i64 %_3.sroa.0.0.copyload.i, ptr %_13, align 1, !alias.scope !73, !noalias !70
  %_18.1 = add nuw i64 %iter.sroa.0.02, 2
  %_11.1 = getelementptr inbounds nuw %"core::mem::maybe_uninit::MaybeUninit<[u8; 8]>", ptr %x, i64 %_18
  %_13.1 = getelementptr inbounds nuw %"core::mem::maybe_uninit::MaybeUninit<[u8; 8]>", ptr %y, i64 %_18
  tail call void @llvm.experimental.noalias.scope.decl(metadata !75)
  tail call void @llvm.experimental.noalias.scope.decl(metadata !77)
  %_3.sroa.0.0.copyload.i.1 = load i64, ptr %_11.1, align 1, !alias.scope !75, !noalias !77
  %_4.sroa.0.0.copyload.i.1 = load i64, ptr %_13.1, align 1, !alias.scope !77, !noalias !75
  store i64 %_4.sroa.0.0.copyload.i.1, ptr %_11.1, align 1, !alias.scope !75, !noalias !77
  store i64 %_3.sroa.0.0.copyload.i.1, ptr %_13.1, align 1, !alias.scope !77, !noalias !75
  %niter.next.1 = add i64 %niter, 2
  %niter.ncmp.1 = icmp eq i64 %niter.next.1, %unroll_iter
  br i1 %niter.ncmp.1, label %bb4.unr-lcssa, label %bb3
}

; core::ptr::drop_in_place<alloc::string::String>
; Function Attrs: nonlazybind uwtable
define internal fastcc void @"_ZN4core3ptr42drop_in_place$LT$alloc..string..String$GT$17h2fc0af7d5458b074E"(ptr noalias noundef nonnull align 8 dereferenceable(24) %_1) unnamed_addr #0 personality ptr @rust_eh_personality {
start:
; invoke <alloc::vec::Vec<T,A> as core::ops::drop::Drop>::drop
  invoke void @"_ZN70_$LT$alloc..vec..Vec$LT$T$C$A$GT$$u20$as$u20$core..ops..drop..Drop$GT$4drop17h6ffafe41d4ff3563E"(ptr noalias noundef nonnull align 8 dereferenceable(24) %_1)
          to label %"_ZN4core3ptr46drop_in_place$LT$alloc..vec..Vec$LT$u8$GT$$GT$17h99ea250b3a74dcb0E.exit" unwind label %cleanup.i

cleanup.i:                                        ; preds = %start
  %0 = landingpad { ptr, i32 }
          cleanup
; invoke <alloc::raw_vec::RawVec<T,A> as core::ops::drop::Drop>::drop
  invoke void @"_ZN77_$LT$alloc..raw_vec..RawVec$LT$T$C$A$GT$$u20$as$u20$core..ops..drop..Drop$GT$4drop17h86eef0594e496705E"(ptr noalias noundef nonnull align 8 dereferenceable(24) %_1)
          to label %bb1.i unwind label %terminate.i

terminate.i:                                      ; preds = %cleanup.i
  %1 = landingpad { ptr, i32 }
          filter [0 x ptr] zeroinitializer
; call core::panicking::panic_in_cleanup
  tail call void @_ZN4core9panicking16panic_in_cleanup17h5f6bde45d17ae243E() #31
  unreachable

bb1.i:                                            ; preds = %cleanup.i
  resume { ptr, i32 } %0

"_ZN4core3ptr46drop_in_place$LT$alloc..vec..Vec$LT$u8$GT$$GT$17h99ea250b3a74dcb0E.exit": ; preds = %start
; call <alloc::raw_vec::RawVec<T,A> as core::ops::drop::Drop>::drop
  tail call void @"_ZN77_$LT$alloc..raw_vec..RawVec$LT$T$C$A$GT$$u20$as$u20$core..ops..drop..Drop$GT$4drop17h86eef0594e496705E"(ptr noalias noundef nonnull align 8 dereferenceable(24) %_1)
  ret void
}

; core::ptr::drop_in_place<alloc::vec::Vec<u8>>
; Function Attrs: nonlazybind uwtable
define internal fastcc void @"_ZN4core3ptr46drop_in_place$LT$alloc..vec..Vec$LT$u8$GT$$GT$17h99ea250b3a74dcb0E"(ptr noalias noundef nonnull align 8 dereferenceable(24) %_1) unnamed_addr #0 personality ptr @rust_eh_personality {
start:
; invoke <alloc::vec::Vec<T,A> as core::ops::drop::Drop>::drop
  invoke void @"_ZN70_$LT$alloc..vec..Vec$LT$T$C$A$GT$$u20$as$u20$core..ops..drop..Drop$GT$4drop17h6ffafe41d4ff3563E"(ptr noalias noundef align 8 dereferenceable(24) %_1)
          to label %bb4 unwind label %cleanup

cleanup:                                          ; preds = %start
  %0 = landingpad { ptr, i32 }
          cleanup
; invoke <alloc::raw_vec::RawVec<T,A> as core::ops::drop::Drop>::drop
  invoke void @"_ZN77_$LT$alloc..raw_vec..RawVec$LT$T$C$A$GT$$u20$as$u20$core..ops..drop..Drop$GT$4drop17h86eef0594e496705E"(ptr noalias noundef nonnull align 8 dereferenceable(16) %_1)
          to label %bb1 unwind label %terminate

bb4:                                              ; preds = %start
; call <alloc::raw_vec::RawVec<T,A> as core::ops::drop::Drop>::drop
  tail call void @"_ZN77_$LT$alloc..raw_vec..RawVec$LT$T$C$A$GT$$u20$as$u20$core..ops..drop..Drop$GT$4drop17h86eef0594e496705E"(ptr noalias noundef nonnull align 8 dereferenceable(16) %_1)
  ret void

terminate:                                        ; preds = %cleanup
  %1 = landingpad { ptr, i32 }
          filter [0 x ptr] zeroinitializer
; call core::panicking::panic_in_cleanup
  tail call void @_ZN4core9panicking16panic_in_cleanup17h5f6bde45d17ae243E() #31
  unreachable

bb1:                                              ; preds = %cleanup
  resume { ptr, i32 } %0
}

; core::ptr::drop_in_place<alloc::vec::drain::Drain<u8>>
; Function Attrs: mustprogress nofree norecurse nosync nounwind nonlazybind willreturn uwtable
define internal fastcc void @"_ZN4core3ptr55drop_in_place$LT$alloc..vec..drain..Drain$LT$u8$GT$$GT$17h762c86ba9763d124E"(ptr noalias noundef nonnull align 8 captures(none) dereferenceable(40) %_1) unnamed_addr #3 personality ptr @rust_eh_personality {
start:
  tail call void @llvm.experimental.noalias.scope.decl(metadata !79)
  %iter.0.i = load ptr, ptr %_1, align 8, !alias.scope !79, !nonnull !11, !noundef !11
  %0 = getelementptr inbounds nuw i8, ptr %_1, i64 8
  %iter.1.i = load ptr, ptr %0, align 8, !alias.scope !79, !nonnull !11, !noundef !11
  store ptr inttoptr (i64 1 to ptr), ptr %_1, align 8, !alias.scope !79
  store ptr inttoptr (i64 1 to ptr), ptr %0, align 8, !alias.scope !79
  %_15.i = icmp eq ptr %iter.1.i, %iter.0.i
  %1 = getelementptr inbounds nuw i8, ptr %_1, i64 32
  %_3.i.i.i = load i64, ptr %1, align 8, !alias.scope !79, !noalias !11, !noundef !11
  %_2.not.i.i.i = icmp eq i64 %_3.i.i.i, 0
  br i1 %_15.i, label %bb3.i, label %bb40.i

bb3.i:                                            ; preds = %start
  br i1 %_2.not.i.i.i, label %"_ZN79_$LT$alloc..vec..drain..Drain$LT$T$C$A$GT$$u20$as$u20$core..ops..drop..Drop$GT$4drop17h8732bad187be2872E.exit", label %bb1.i.i.i

bb1.i.i.i:                                        ; preds = %bb3.i
  %2 = getelementptr inbounds nuw i8, ptr %_1, i64 16
  %_22.i.i.i = load ptr, ptr %2, align 8, !alias.scope !79, !noalias !82, !nonnull !11, !noundef !11
  %3 = getelementptr inbounds nuw i8, ptr %_22.i.i.i, i64 16
  %start1.i.i.i = load i64, ptr %3, align 8, !noalias !87, !noundef !11
  %_23.i.i.i = icmp sgt i64 %start1.i.i.i, -1
  tail call void @llvm.assume(i1 %_23.i.i.i)
  %4 = getelementptr inbounds nuw i8, ptr %_1, i64 24
  %tail.i.i.i = load i64, ptr %4, align 8, !alias.scope !79, !noalias !82, !noundef !11
  %_7.not.i.i.i = icmp eq i64 %tail.i.i.i, %start1.i.i.i
  br i1 %_7.not.i.i.i, label %bb3.i.i.i, label %bb2.i.i.i

bb3.i.i.i:                                        ; preds = %bb2.i.i.i, %bb1.i.i.i
  %new_len.i.i.i = add i64 %start1.i.i.i, %_3.i.i.i
  store i64 %new_len.i.i.i, ptr %3, align 8, !noalias !87
  br label %"_ZN79_$LT$alloc..vec..drain..Drain$LT$T$C$A$GT$$u20$as$u20$core..ops..drop..Drop$GT$4drop17h8732bad187be2872E.exit"

bb2.i.i.i:                                        ; preds = %bb1.i.i.i
  %5 = getelementptr inbounds nuw i8, ptr %_22.i.i.i, i64 8
  %_24.i.i.i = load ptr, ptr %5, align 8, !noalias !87, !nonnull !11, !noundef !11
  %src.i.i.i = getelementptr inbounds nuw i8, ptr %_24.i.i.i, i64 %tail.i.i.i
  %dst.i.i.i = getelementptr inbounds nuw i8, ptr %_24.i.i.i, i64 %start1.i.i.i
  tail call void @llvm.memmove.p0.p0.i64(ptr nonnull align 1 %dst.i.i.i, ptr nonnull align 1 %src.i.i.i, i64 %_3.i.i.i, i1 false), !noalias !87
  br label %bb3.i.i.i

bb40.i:                                           ; preds = %start
  br i1 %_2.not.i.i.i, label %"_ZN79_$LT$alloc..vec..drain..Drain$LT$T$C$A$GT$$u20$as$u20$core..ops..drop..Drop$GT$4drop17h8732bad187be2872E.exit", label %bb1.i.i24.i

bb1.i.i24.i:                                      ; preds = %bb40.i
  %6 = getelementptr inbounds nuw i8, ptr %_1, i64 16
  %_22.i.i25.i = load ptr, ptr %6, align 8, !alias.scope !79, !noalias !88, !nonnull !11, !noundef !11
  %7 = getelementptr inbounds nuw i8, ptr %_22.i.i25.i, i64 16
  %start1.i.i26.i = load i64, ptr %7, align 8, !noalias !93, !noundef !11
  %_23.i.i27.i = icmp sgt i64 %start1.i.i26.i, -1
  tail call void @llvm.assume(i1 %_23.i.i27.i)
  %8 = getelementptr inbounds nuw i8, ptr %_1, i64 24
  %tail.i.i28.i = load i64, ptr %8, align 8, !alias.scope !79, !noalias !88, !noundef !11
  %_7.not.i.i29.i = icmp eq i64 %tail.i.i28.i, %start1.i.i26.i
  br i1 %_7.not.i.i29.i, label %bb3.i.i34.i, label %bb2.i.i30.i

bb3.i.i34.i:                                      ; preds = %bb2.i.i30.i, %bb1.i.i24.i
  %new_len.i.i36.i = add i64 %start1.i.i26.i, %_3.i.i.i
  store i64 %new_len.i.i36.i, ptr %7, align 8, !noalias !93
  br label %"_ZN79_$LT$alloc..vec..drain..Drain$LT$T$C$A$GT$$u20$as$u20$core..ops..drop..Drop$GT$4drop17h8732bad187be2872E.exit"

bb2.i.i30.i:                                      ; preds = %bb1.i.i24.i
  %9 = getelementptr inbounds nuw i8, ptr %_22.i.i25.i, i64 8
  %_24.i.i31.i = load ptr, ptr %9, align 8, !noalias !93, !nonnull !11, !noundef !11
  %src.i.i32.i = getelementptr inbounds nuw i8, ptr %_24.i.i31.i, i64 %tail.i.i28.i
  %dst.i.i33.i = getelementptr inbounds nuw i8, ptr %_24.i.i31.i, i64 %start1.i.i26.i
  tail call void @llvm.memmove.p0.p0.i64(ptr nonnull align 1 %dst.i.i33.i, ptr nonnull align 1 %src.i.i32.i, i64 %_3.i.i.i, i1 false), !noalias !93
  br label %bb3.i.i34.i

"_ZN79_$LT$alloc..vec..drain..Drain$LT$T$C$A$GT$$u20$as$u20$core..ops..drop..Drop$GT$4drop17h8732bad187be2872E.exit": ; preds = %bb3.i, %bb3.i.i.i, %bb40.i, %bb3.i.i34.i
  ret void
}

; core::iter::traits::iterator::Iterator::nth
; Function Attrs: inlinehint nofree norecurse nosync nounwind nonlazybind memory(read, argmem: readwrite, inaccessiblemem: readwrite) uwtable
define internal fastcc noundef range(i32 0, 1114113) i32 @_ZN4core4iter6traits8iterator8Iterator3nth17hb3fa37af0af5de09E(ptr noalias noundef nonnull align 8 captures(none) dereferenceable(16) %self, i64 noundef %n) unnamed_addr #4 personality ptr @rust_eh_personality {
start:
  %start_bytes.i = alloca [32 x i8], align 1
  tail call void @llvm.experimental.noalias.scope.decl(metadata !94)
  call void @llvm.lifetime.start.p0(i64 32, ptr nonnull %start_bytes.i)
  %_3.i = icmp ugt i64 %n, 31
  br i1 %_3.i, label %bb1.i, label %bb25.i

bb1.i:                                            ; preds = %start
  %self5.i = load ptr, ptr %self, align 8, !alias.scope !94, !nonnull !11, !noundef !11
  %0 = getelementptr inbounds nuw i8, ptr %self, i64 8
  %_57.i = load ptr, ptr %0, align 8, !alias.scope !94, !nonnull !11, !noundef !11
  %1 = ptrtoint ptr %_57.i to i64
  %2 = ptrtoint ptr %self5.i to i64
  %3 = sub nuw i64 %1, %2
  %4 = lshr i64 %3, 5
  %_65.i = getelementptr inbounds nuw [32 x i8], ptr %self5.i, i64 %4
  %_1042.not.i = icmp eq i64 %n, 32
  br i1 %_1042.not.i, label %bb14.i, label %bb4.i.preheader

bb4.i.preheader:                                  ; preds = %bb1.i
  %_92.sroa.34.0.start_bytes.sroa_idx.i = getelementptr inbounds nuw i8, ptr %start_bytes.i, i64 31
  %_92.sroa.33.0.start_bytes.sroa_idx.i = getelementptr inbounds nuw i8, ptr %start_bytes.i, i64 30
  %_92.sroa.32.0.start_bytes.sroa_idx.i = getelementptr inbounds nuw i8, ptr %start_bytes.i, i64 29
  %_92.sroa.31.0.start_bytes.sroa_idx.i = getelementptr inbounds nuw i8, ptr %start_bytes.i, i64 28
  %_92.sroa.30.0.start_bytes.sroa_idx.i = getelementptr inbounds nuw i8, ptr %start_bytes.i, i64 27
  %_92.sroa.29.0.start_bytes.sroa_idx.i = getelementptr inbounds nuw i8, ptr %start_bytes.i, i64 26
  %_92.sroa.28.0.start_bytes.sroa_idx.i = getelementptr inbounds nuw i8, ptr %start_bytes.i, i64 25
  %_92.sroa.27.0.start_bytes.sroa_idx.i = getelementptr inbounds nuw i8, ptr %start_bytes.i, i64 24
  %_92.sroa.26.0.start_bytes.sroa_idx.i = getelementptr inbounds nuw i8, ptr %start_bytes.i, i64 23
  %_92.sroa.25.0.start_bytes.sroa_idx.i = getelementptr inbounds nuw i8, ptr %start_bytes.i, i64 22
  %_92.sroa.24.0.start_bytes.sroa_idx.i = getelementptr inbounds nuw i8, ptr %start_bytes.i, i64 21
  %_92.sroa.23.0.start_bytes.sroa_idx.i = getelementptr inbounds nuw i8, ptr %start_bytes.i, i64 20
  %_92.sroa.22.0.start_bytes.sroa_idx.i = getelementptr inbounds nuw i8, ptr %start_bytes.i, i64 19
  %_92.sroa.21.0.start_bytes.sroa_idx.i = getelementptr inbounds nuw i8, ptr %start_bytes.i, i64 18
  %_92.sroa.20.0.start_bytes.sroa_idx.i = getelementptr inbounds nuw i8, ptr %start_bytes.i, i64 17
  %_92.sroa.19.0.start_bytes.sroa_idx.i = getelementptr inbounds nuw i8, ptr %start_bytes.i, i64 16
  %_92.sroa.18.0.start_bytes.sroa_idx.i = getelementptr inbounds nuw i8, ptr %start_bytes.i, i64 15
  %_92.sroa.17.0.start_bytes.sroa_idx.i = getelementptr inbounds nuw i8, ptr %start_bytes.i, i64 14
  %_92.sroa.16.0.start_bytes.sroa_idx.i = getelementptr inbounds nuw i8, ptr %start_bytes.i, i64 13
  %_92.sroa.15.0.start_bytes.sroa_idx.i = getelementptr inbounds nuw i8, ptr %start_bytes.i, i64 12
  %_92.sroa.14.0.start_bytes.sroa_idx.i = getelementptr inbounds nuw i8, ptr %start_bytes.i, i64 11
  %_92.sroa.13.0.start_bytes.sroa_idx.i = getelementptr inbounds nuw i8, ptr %start_bytes.i, i64 10
  %_92.sroa.12.0.start_bytes.sroa_idx.i = getelementptr inbounds nuw i8, ptr %start_bytes.i, i64 9
  %_92.sroa.11.0.start_bytes.sroa_idx.i = getelementptr inbounds nuw i8, ptr %start_bytes.i, i64 8
  %_92.sroa.10.0.start_bytes.sroa_idx.i = getelementptr inbounds nuw i8, ptr %start_bytes.i, i64 7
  %_92.sroa.9.0.start_bytes.sroa_idx.i = getelementptr inbounds nuw i8, ptr %start_bytes.i, i64 6
  %_92.sroa.8.0.start_bytes.sroa_idx.i = getelementptr inbounds nuw i8, ptr %start_bytes.i, i64 5
  %_92.sroa.7.0.start_bytes.sroa_idx.i = getelementptr inbounds nuw i8, ptr %start_bytes.i, i64 4
  %_92.sroa.6.0.start_bytes.sroa_idx.i = getelementptr inbounds nuw i8, ptr %start_bytes.i, i64 3
  %_92.sroa.5.0.start_bytes.sroa_idx.i = getelementptr inbounds nuw i8, ptr %start_bytes.i, i64 2
  %_92.sroa.4.0.start_bytes.sroa_idx.i = getelementptr inbounds nuw i8, ptr %start_bytes.i, i64 1
  br label %bb4.i

bb25.i:                                           ; preds = %bb19.i, %bb18.i, %bb14.i, %start
  %remainder.sroa.0.0.i = phi i64 [ %n, %start ], [ %remainder.sroa.0.1.lcssa.i, %bb14.i ], [ %remainder.sroa.0.1.lcssa.i, %bb18.i ], [ %remainder.sroa.0.1.lcssa.i, %bb19.i ]
  %_39.not57.i = icmp eq i64 %remainder.sroa.0.0.i, 0
  br i1 %_39.not57.i, label %bb5.critedge, label %bb27.lr.ph.i

bb27.lr.ph.i:                                     ; preds = %bb25.i
  %self.promoted55.i = load ptr, ptr %self, align 8, !alias.scope !94
  %5 = getelementptr inbounds nuw i8, ptr %self, i64 8
  %_116.i = load ptr, ptr %5, align 8, !alias.scope !94, !nonnull !11, !noundef !11
  %6 = ptrtoint ptr %_116.i to i64
  br label %bb27.i

bb4.i:                                            ; preds = %bb4.i.preheader, %bb2.i.i.i
  %remainder.sroa.0.145.i = phi i64 [ %8, %bb2.i.i.i ], [ %n, %bb4.i.preheader ]
  %chunks.sroa.0.044.i = phi ptr [ %chunks.sroa.0.1.i, %bb2.i.i.i ], [ %self5.i, %bb4.i.preheader ]
  %bytes_skipped.sroa.0.043.i = phi i64 [ %7, %bb2.i.i.i ], [ 0, %bb4.i.preheader ]
  %_73.i = icmp eq ptr %chunks.sroa.0.044.i, %_65.i
  %chunks.sroa.0.1.idx.i = select i1 %_73.i, i64 0, i64 32
  %chunks.sroa.0.1.i = getelementptr inbounds nuw i8, ptr %chunks.sroa.0.044.i, i64 %chunks.sroa.0.1.idx.i
  br i1 %_73.i, label %bb14.i, label %bb5.i

bb14.i:                                           ; preds = %bb2.i.i.i, %bb4.i, %bb1.i
  %bytes_skipped.sroa.0.0.lcssa.i = phi i64 [ 0, %bb1.i ], [ %bytes_skipped.sroa.0.043.i, %bb4.i ], [ %7, %bb2.i.i.i ]
  %remainder.sroa.0.1.lcssa.i = phi i64 [ %n, %bb1.i ], [ %remainder.sroa.0.145.i, %bb4.i ], [ %8, %bb2.i.i.i ]
  %_19.i.i = getelementptr inbounds nuw i8, ptr %self5.i, i64 %bytes_skipped.sroa.0.0.lcssa.i
  store ptr %_19.i.i, ptr %self, align 8, !alias.scope !97
  %.not27.i = icmp ule i64 %bytes_skipped.sroa.0.0.lcssa.i, %3
  tail call void @llvm.assume(i1 %.not27.i)
  %_30.not53.i = icmp eq ptr %_57.i, %_19.i.i
  br i1 %_30.not53.i, label %bb25.i, label %bb18.i

bb5.i:                                            ; preds = %bb4.i
  call void @llvm.memset.p0.i64(ptr noundef nonnull align 1 dereferenceable(32) %start_bytes.i, i8 0, i64 32, i1 false), !noalias !94
  br label %bb10.i

bb2.i.i.i:                                        ; preds = %bb10.i
  %_92.sroa.34.0.copyload.i = load i8, ptr %_92.sroa.34.0.start_bytes.sroa_idx.i, align 1, !noalias !94
  %_92.sroa.33.0.copyload.i = load i8, ptr %_92.sroa.33.0.start_bytes.sroa_idx.i, align 1, !noalias !94
  %_92.sroa.32.0.copyload.i = load i8, ptr %_92.sroa.32.0.start_bytes.sroa_idx.i, align 1, !noalias !94
  %_92.sroa.31.0.copyload.i = load i8, ptr %_92.sroa.31.0.start_bytes.sroa_idx.i, align 1, !noalias !94
  %_92.sroa.30.0.copyload.i = load i8, ptr %_92.sroa.30.0.start_bytes.sroa_idx.i, align 1, !noalias !94
  %_92.sroa.29.0.copyload.i = load i8, ptr %_92.sroa.29.0.start_bytes.sroa_idx.i, align 1, !noalias !94
  %_92.sroa.28.0.copyload.i = load i8, ptr %_92.sroa.28.0.start_bytes.sroa_idx.i, align 1, !noalias !94
  %_92.sroa.27.0.copyload.i = load i8, ptr %_92.sroa.27.0.start_bytes.sroa_idx.i, align 1, !noalias !94
  %_92.sroa.26.0.copyload.i = load i8, ptr %_92.sroa.26.0.start_bytes.sroa_idx.i, align 1, !noalias !94
  %_92.sroa.25.0.copyload.i = load i8, ptr %_92.sroa.25.0.start_bytes.sroa_idx.i, align 1, !noalias !94
  %_92.sroa.24.0.copyload.i = load i8, ptr %_92.sroa.24.0.start_bytes.sroa_idx.i, align 1, !noalias !94
  %_92.sroa.23.0.copyload.i = load i8, ptr %_92.sroa.23.0.start_bytes.sroa_idx.i, align 1, !noalias !94
  %_92.sroa.22.0.copyload.i = load i8, ptr %_92.sroa.22.0.start_bytes.sroa_idx.i, align 1, !noalias !94
  %_92.sroa.21.0.copyload.i = load i8, ptr %_92.sroa.21.0.start_bytes.sroa_idx.i, align 1, !noalias !94
  %_92.sroa.20.0.copyload.i = load i8, ptr %_92.sroa.20.0.start_bytes.sroa_idx.i, align 1, !noalias !94
  %_92.sroa.19.0.copyload.i = load i8, ptr %_92.sroa.19.0.start_bytes.sroa_idx.i, align 1, !noalias !94
  %_92.sroa.18.0.copyload.i = load i8, ptr %_92.sroa.18.0.start_bytes.sroa_idx.i, align 1, !noalias !94
  %_92.sroa.17.0.copyload.i = load i8, ptr %_92.sroa.17.0.start_bytes.sroa_idx.i, align 1, !noalias !94
  %_92.sroa.16.0.copyload.i = load i8, ptr %_92.sroa.16.0.start_bytes.sroa_idx.i, align 1, !noalias !94
  %_92.sroa.15.0.copyload.i = load i8, ptr %_92.sroa.15.0.start_bytes.sroa_idx.i, align 1, !noalias !94
  %_92.sroa.14.0.copyload.i = load i8, ptr %_92.sroa.14.0.start_bytes.sroa_idx.i, align 1, !noalias !94
  %_92.sroa.13.0.copyload.i = load i8, ptr %_92.sroa.13.0.start_bytes.sroa_idx.i, align 1, !noalias !94
  %_92.sroa.12.0.copyload.i = load i8, ptr %_92.sroa.12.0.start_bytes.sroa_idx.i, align 1, !noalias !94
  %_92.sroa.11.0.copyload.i = load i8, ptr %_92.sroa.11.0.start_bytes.sroa_idx.i, align 1, !noalias !94
  %_92.sroa.10.0.copyload.i = load i8, ptr %_92.sroa.10.0.start_bytes.sroa_idx.i, align 1, !noalias !94
  %_92.sroa.9.0.copyload.i = load i8, ptr %_92.sroa.9.0.start_bytes.sroa_idx.i, align 1, !noalias !94
  %_92.sroa.8.0.copyload.i = load i8, ptr %_92.sroa.8.0.start_bytes.sroa_idx.i, align 1, !noalias !94
  %_92.sroa.7.0.copyload.i = load i8, ptr %_92.sroa.7.0.start_bytes.sroa_idx.i, align 1, !noalias !94
  %_92.sroa.6.0.copyload.i = load i8, ptr %_92.sroa.6.0.start_bytes.sroa_idx.i, align 1, !noalias !94
  %_92.sroa.5.0.copyload.i = load i8, ptr %_92.sroa.5.0.start_bytes.sroa_idx.i, align 1, !noalias !94
  %_92.sroa.4.0.copyload.i = load i8, ptr %_92.sroa.4.0.start_bytes.sroa_idx.i, align 1, !noalias !94
  %_92.sroa.0.0.copyload.i = load i8, ptr %start_bytes.i, align 1, !noalias !94
  %_4.0.i.i.i.i.i.i.1.i = add i8 %_92.sroa.33.0.copyload.i, %_92.sroa.34.0.copyload.i
  %_4.0.i.i.i.i.i.i.2.i = add i8 %_4.0.i.i.i.i.i.i.1.i, %_92.sroa.32.0.copyload.i
  %_4.0.i.i.i.i.i.i.3.i = add i8 %_4.0.i.i.i.i.i.i.2.i, %_92.sroa.31.0.copyload.i
  %_4.0.i.i.i.i.i.i.4.i = add i8 %_4.0.i.i.i.i.i.i.3.i, %_92.sroa.30.0.copyload.i
  %_4.0.i.i.i.i.i.i.5.i = add i8 %_4.0.i.i.i.i.i.i.4.i, %_92.sroa.29.0.copyload.i
  %_4.0.i.i.i.i.i.i.6.i = add i8 %_4.0.i.i.i.i.i.i.5.i, %_92.sroa.28.0.copyload.i
  %_4.0.i.i.i.i.i.i.7.i = add i8 %_4.0.i.i.i.i.i.i.6.i, %_92.sroa.27.0.copyload.i
  %_4.0.i.i.i.i.i.i.8.i = add i8 %_4.0.i.i.i.i.i.i.7.i, %_92.sroa.26.0.copyload.i
  %_4.0.i.i.i.i.i.i.9.i = add i8 %_4.0.i.i.i.i.i.i.8.i, %_92.sroa.25.0.copyload.i
  %_4.0.i.i.i.i.i.i.10.i = add i8 %_4.0.i.i.i.i.i.i.9.i, %_92.sroa.24.0.copyload.i
  %_4.0.i.i.i.i.i.i.11.i = add i8 %_4.0.i.i.i.i.i.i.10.i, %_92.sroa.23.0.copyload.i
  %_4.0.i.i.i.i.i.i.12.i = add i8 %_4.0.i.i.i.i.i.i.11.i, %_92.sroa.22.0.copyload.i
  %_4.0.i.i.i.i.i.i.13.i = add i8 %_4.0.i.i.i.i.i.i.12.i, %_92.sroa.21.0.copyload.i
  %_4.0.i.i.i.i.i.i.14.i = add i8 %_4.0.i.i.i.i.i.i.13.i, %_92.sroa.20.0.copyload.i
  %_4.0.i.i.i.i.i.i.15.i = add i8 %_4.0.i.i.i.i.i.i.14.i, %_92.sroa.19.0.copyload.i
  %_4.0.i.i.i.i.i.i.16.i = add i8 %_4.0.i.i.i.i.i.i.15.i, %_92.sroa.18.0.copyload.i
  %_4.0.i.i.i.i.i.i.17.i = add i8 %_4.0.i.i.i.i.i.i.16.i, %_92.sroa.17.0.copyload.i
  %_4.0.i.i.i.i.i.i.18.i = add i8 %_4.0.i.i.i.i.i.i.17.i, %_92.sroa.16.0.copyload.i
  %_4.0.i.i.i.i.i.i.19.i = add i8 %_4.0.i.i.i.i.i.i.18.i, %_92.sroa.15.0.copyload.i
  %_4.0.i.i.i.i.i.i.20.i = add i8 %_4.0.i.i.i.i.i.i.19.i, %_92.sroa.14.0.copyload.i
  %_4.0.i.i.i.i.i.i.21.i = add i8 %_4.0.i.i.i.i.i.i.20.i, %_92.sroa.13.0.copyload.i
  %_4.0.i.i.i.i.i.i.22.i = add i8 %_4.0.i.i.i.i.i.i.21.i, %_92.sroa.12.0.copyload.i
  %_4.0.i.i.i.i.i.i.23.i = add i8 %_4.0.i.i.i.i.i.i.22.i, %_92.sroa.11.0.copyload.i
  %_4.0.i.i.i.i.i.i.24.i = add i8 %_4.0.i.i.i.i.i.i.23.i, %_92.sroa.10.0.copyload.i
  %_4.0.i.i.i.i.i.i.25.i = add i8 %_4.0.i.i.i.i.i.i.24.i, %_92.sroa.9.0.copyload.i
  %_4.0.i.i.i.i.i.i.26.i = add i8 %_4.0.i.i.i.i.i.i.25.i, %_92.sroa.8.0.copyload.i
  %_4.0.i.i.i.i.i.i.27.i = add i8 %_4.0.i.i.i.i.i.i.26.i, %_92.sroa.7.0.copyload.i
  %_4.0.i.i.i.i.i.i.28.i = add i8 %_4.0.i.i.i.i.i.i.27.i, %_92.sroa.6.0.copyload.i
  %_4.0.i.i.i.i.i.i.29.i = add i8 %_4.0.i.i.i.i.i.i.28.i, %_92.sroa.5.0.copyload.i
  %_4.0.i.i.i.i.i.i.30.i = add i8 %_4.0.i.i.i.i.i.i.29.i, %_92.sroa.4.0.copyload.i
  %_4.0.i.i.i.i.i.i.31.i = add i8 %_4.0.i.i.i.i.i.i.30.i, %_92.sroa.0.0.copyload.i
  %7 = add i64 %bytes_skipped.sroa.0.043.i, 32
  %_25.i = zext i8 %_4.0.i.i.i.i.i.i.31.i to i64
  %8 = sub i64 %remainder.sroa.0.145.i, %_25.i
  %_10.i = icmp ugt i64 %8, 32
  br i1 %_10.i, label %bb4.i, label %bb14.i

bb10.i:                                           ; preds = %bb10.i, %bb5.i
  %iter.sroa.0.041.i = phi i64 [ 0, %bb5.i ], [ %_88.i.3, %bb10.i ]
  %_88.i = or disjoint i64 %iter.sroa.0.041.i, 1
  %9 = getelementptr inbounds nuw i8, ptr %chunks.sroa.0.044.i, i64 %iter.sroa.0.041.i
  %byte.i = load i8, ptr %9, align 1, !noalias !94, !noundef !11
  %_22.i = icmp sgt i8 %byte.i, -65
  %10 = getelementptr inbounds nuw i8, ptr %start_bytes.i, i64 %iter.sroa.0.041.i
  %11 = zext i1 %_22.i to i8
  store i8 %11, ptr %10, align 1, !noalias !94
  %_88.i.1 = or disjoint i64 %iter.sroa.0.041.i, 2
  %12 = getelementptr inbounds nuw i8, ptr %chunks.sroa.0.044.i, i64 %_88.i
  %byte.i.1 = load i8, ptr %12, align 1, !noalias !94, !noundef !11
  %_22.i.1 = icmp sgt i8 %byte.i.1, -65
  %13 = getelementptr inbounds nuw i8, ptr %start_bytes.i, i64 %_88.i
  %14 = zext i1 %_22.i.1 to i8
  store i8 %14, ptr %13, align 1, !noalias !94
  %_88.i.2 = or disjoint i64 %iter.sroa.0.041.i, 3
  %15 = getelementptr inbounds nuw i8, ptr %chunks.sroa.0.044.i, i64 %_88.i.1
  %byte.i.2 = load i8, ptr %15, align 1, !noalias !94, !noundef !11
  %_22.i.2 = icmp sgt i8 %byte.i.2, -65
  %16 = getelementptr inbounds nuw i8, ptr %start_bytes.i, i64 %_88.i.1
  %17 = zext i1 %_22.i.2 to i8
  store i8 %17, ptr %16, align 1, !noalias !94
  %_88.i.3 = add nuw nsw i64 %iter.sroa.0.041.i, 4
  %18 = getelementptr inbounds nuw i8, ptr %chunks.sroa.0.044.i, i64 %_88.i.2
  %byte.i.3 = load i8, ptr %18, align 1, !noalias !94, !noundef !11
  %_22.i.3 = icmp sgt i8 %byte.i.3, -65
  %19 = getelementptr inbounds nuw i8, ptr %start_bytes.i, i64 %_88.i.2
  %20 = zext i1 %_22.i.3 to i8
  store i8 %20, ptr %19, align 1, !noalias !94
  %exitcond.not.i.3 = icmp eq i64 %_88.i.3, 32
  br i1 %exitcond.not.i.3, label %bb2.i.i.i, label %bb10.i

bb18.i:                                           ; preds = %bb14.i, %bb19.i
  %_19.i335254.i = phi ptr [ %_19.i33.i, %bb19.i ], [ %_19.i.i, %bb14.i ]
  %b.i = load i8, ptr %_19.i335254.i, align 1, !noalias !94, !noundef !11
  %_36.i = icmp slt i8 %b.i, -64
  br i1 %_36.i, label %bb19.i, label %bb25.i

bb19.i:                                           ; preds = %bb18.i
  %_19.i33.i = getelementptr inbounds nuw i8, ptr %_19.i335254.i, i64 1
  store ptr %_19.i33.i, ptr %self, align 8, !alias.scope !100
  %_30.not.i = icmp eq ptr %_57.i, %_19.i33.i
  br i1 %_30.not.i, label %bb25.i, label %bb18.i

bb27.i:                                           ; preds = %bb28.i, %bb27.lr.ph.i
  %remainder.sroa.0.259.i = phi i64 [ %remainder.sroa.0.0.i, %bb27.lr.ph.i ], [ %23, %bb28.i ]
  %_19.i385658.i = phi ptr [ %self.promoted55.i, %bb27.lr.ph.i ], [ %_19.i38.i, %bb28.i ]
  %_41.not.i = icmp eq ptr %_116.i, %_19.i385658.i
  br i1 %_41.not.i, label %"_ZN81_$LT$core..str..iter..Chars$u20$as$u20$core..iter..traits..iterator..Iterator$GT$10advance_by17h0ee195666107b070E.exit", label %bb28.i

bb28.i:                                           ; preds = %bb27.i
  %21 = ptrtoint ptr %_19.i385658.i to i64
  %22 = sub nuw i64 %6, %21
  %23 = add i64 %remainder.sroa.0.259.i, -1
  %b15.i = load i8, ptr %_19.i385658.i, align 1, !noalias !94, !noundef !11
  %_130.i = zext i8 %b15.i to i64
  %24 = getelementptr inbounds nuw i8, ptr @alloc_db51a71a1b6b25b4224d4dc5277f93e7, i64 %_130.i
  %_128.i = load i8, ptr %24, align 1, !noalias !94, !noundef !11
  %slurp.i = zext i8 %_128.i to i64
  %_19.i38.i = getelementptr inbounds nuw i8, ptr %_19.i385658.i, i64 %slurp.i
  store ptr %_19.i38.i, ptr %self, align 8, !alias.scope !103
  %.not28.i = icmp uge i64 %22, %slurp.i
  tail call void @llvm.assume(i1 %.not28.i)
  %_39.not.i = icmp eq i64 %23, 0
  br i1 %_39.not.i, label %bb5.critedge, label %bb27.i

"_ZN81_$LT$core..str..iter..Chars$u20$as$u20$core..iter..traits..iterator..Iterator$GT$10advance_by17h0ee195666107b070E.exit": ; preds = %bb27.i
  call void @llvm.lifetime.end.p0(i64 32, ptr nonnull %start_bytes.i)
  br label %bb3

bb5.critedge:                                     ; preds = %bb28.i, %bb25.i
  call void @llvm.lifetime.end.p0(i64 32, ptr nonnull %start_bytes.i)
  tail call void @llvm.experimental.noalias.scope.decl(metadata !106)
  tail call void @llvm.experimental.noalias.scope.decl(metadata !109)
  %ptr.i.i.i = load ptr, ptr %self, align 8, !alias.scope !112, !nonnull !11, !noundef !11
  %25 = getelementptr inbounds nuw i8, ptr %self, i64 8
  %end_or_len.i.i.i = load ptr, ptr %25, align 8, !alias.scope !112, !nonnull !11, !noundef !11
  %_7.i.i.i = icmp eq ptr %ptr.i.i.i, %end_or_len.i.i.i
  br i1 %_7.i.i.i, label %"_ZN91_$LT$core..slice..iter..Iter$LT$T$GT$$u20$as$u20$core..iter..traits..iterator..Iterator$GT$4next17hf7d1340a322c1c85E.exit.i.i", label %bb6.i.i.i

bb6.i.i.i:                                        ; preds = %bb5.critedge
  %_18.i.i.i = getelementptr inbounds nuw i8, ptr %ptr.i.i.i, i64 1
  store ptr %_18.i.i.i, ptr %self, align 8, !alias.scope !112
  br label %"_ZN91_$LT$core..slice..iter..Iter$LT$T$GT$$u20$as$u20$core..iter..traits..iterator..Iterator$GT$4next17hf7d1340a322c1c85E.exit.i.i"

"_ZN91_$LT$core..slice..iter..Iter$LT$T$GT$$u20$as$u20$core..iter..traits..iterator..Iterator$GT$4next17hf7d1340a322c1c85E.exit.i.i": ; preds = %bb6.i.i.i, %bb5.critedge
  %_0.sroa.0.0.i.i.i = phi ptr [ %ptr.i.i.i, %bb6.i.i.i ], [ null, %bb5.critedge ]
  %.not.i.not.i = icmp eq ptr %_0.sroa.0.0.i.i.i, null
  br i1 %.not.i.not.i, label %bb3, label %bb14.i.i

bb14.i.i:                                         ; preds = %"_ZN91_$LT$core..slice..iter..Iter$LT$T$GT$$u20$as$u20$core..iter..traits..iterator..Iterator$GT$4next17hf7d1340a322c1c85E.exit.i.i"
  %x.i.i = load i8, ptr %_0.sroa.0.0.i.i.i, align 1, !noalias !115, !noundef !11
  %_6.i.i = icmp sgt i8 %x.i.i, -1
  br i1 %_6.i.i, label %bb3.i.i, label %bb4.i.i

bb4.i.i:                                          ; preds = %bb14.i.i
  %_30.i.i = and i8 %x.i.i, 31
  %init.i.i = zext nneg i8 %_30.i.i to i32
  %ptr.i8.i.i = load ptr, ptr %self, align 8, !alias.scope !116, !nonnull !11, !noundef !11
  %_7.i10.i.i = icmp ne ptr %ptr.i8.i.i, %end_or_len.i.i.i
  tail call void @llvm.assume(i1 %_7.i10.i.i)
  %_18.i12.i.i = getelementptr inbounds nuw i8, ptr %ptr.i8.i.i, i64 1
  store ptr %_18.i12.i.i, ptr %self, align 8, !alias.scope !116
  %y.i.i = load i8, ptr %ptr.i8.i.i, align 1, !noalias !115, !noundef !11
  %_34.i.i = shl nuw nsw i32 %init.i.i, 6
  %_36.i.i = and i8 %y.i.i, 63
  %_35.i.i = zext nneg i8 %_36.i.i to i32
  %26 = or disjoint i32 %_34.i.i, %_35.i.i
  %_13.i.i = icmp ugt i8 %x.i.i, -33
  br i1 %_13.i.i, label %bb6.i.i, label %bb3

bb3.i.i:                                          ; preds = %bb14.i.i
  %_7.i.i = zext nneg i8 %x.i.i to i32
  br label %bb3

bb6.i.i:                                          ; preds = %bb4.i.i
  %_7.i17.i.i = icmp ne ptr %_18.i12.i.i, %end_or_len.i.i.i
  tail call void @llvm.assume(i1 %_7.i17.i.i)
  %_18.i19.i.i = getelementptr inbounds nuw i8, ptr %ptr.i8.i.i, i64 2
  store ptr %_18.i19.i.i, ptr %self, align 8, !alias.scope !119
  %z.i.i = load i8, ptr %_18.i12.i.i, align 1, !noalias !115, !noundef !11
  %_40.i.i = shl nuw nsw i32 %_35.i.i, 6
  %_42.i.i = and i8 %z.i.i, 63
  %_41.i.i = zext nneg i8 %_42.i.i to i32
  %y_z.i.i = or disjoint i32 %_40.i.i, %_41.i.i
  %_20.i.i = shl nuw nsw i32 %init.i.i, 12
  %27 = or disjoint i32 %y_z.i.i, %_20.i.i
  %_21.i.i = icmp ugt i8 %x.i.i, -17
  br i1 %_21.i.i, label %bb8.i.i, label %bb3

bb8.i.i:                                          ; preds = %bb6.i.i
  %_7.i24.i.i = icmp ne ptr %_18.i19.i.i, %end_or_len.i.i.i
  tail call void @llvm.assume(i1 %_7.i24.i.i)
  %_18.i26.i.i = getelementptr inbounds nuw i8, ptr %ptr.i8.i.i, i64 3
  store ptr %_18.i26.i.i, ptr %self, align 8, !alias.scope !122
  %w.i.i = load i8, ptr %_18.i19.i.i, align 1, !noalias !115, !noundef !11
  %_26.i.i = shl nuw nsw i32 %init.i.i, 18
  %_25.i.i = and i32 %_26.i.i, 1835008
  %_46.i.i = shl nuw nsw i32 %y_z.i.i, 6
  %_48.i.i = and i8 %w.i.i, 63
  %_47.i.i = zext nneg i8 %_48.i.i to i32
  %_27.i.i = or disjoint i32 %_46.i.i, %_47.i.i
  %28 = or disjoint i32 %_27.i.i, %_25.i.i
  br label %bb3

bb3:                                              ; preds = %"_ZN81_$LT$core..str..iter..Chars$u20$as$u20$core..iter..traits..iterator..Iterator$GT$10advance_by17h0ee195666107b070E.exit", %bb8.i.i, %bb6.i.i, %bb3.i.i, %bb4.i.i, %"_ZN91_$LT$core..slice..iter..Iter$LT$T$GT$$u20$as$u20$core..iter..traits..iterator..Iterator$GT$4next17hf7d1340a322c1c85E.exit.i.i"
  %_0.sroa.0.0 = phi i32 [ 1114112, %"_ZN81_$LT$core..str..iter..Chars$u20$as$u20$core..iter..traits..iterator..Iterator$GT$10advance_by17h0ee195666107b070E.exit" ], [ %_7.i.i, %bb3.i.i ], [ 1114112, %"_ZN91_$LT$core..slice..iter..Iter$LT$T$GT$$u20$as$u20$core..iter..traits..iterator..Iterator$GT$4next17hf7d1340a322c1c85E.exit.i.i" ], [ %28, %bb8.i.i ], [ %27, %bb6.i.i ], [ %26, %bb4.i.i ]
  ret i32 %_0.sroa.0.0
}

; core::slice::sort::shared::pivot::median3_rec
; Function Attrs: nofree nosync nounwind nonlazybind memory(read, inaccessiblemem: readwrite) uwtable
define noundef nonnull ptr @_ZN4core5slice4sort6shared5pivot11median3_rec17h3615cb3e2a78557bE(ptr noundef %0, ptr noundef %1, ptr noundef %2, i64 noundef %n, ptr noalias noundef align 8 dereferenceable(8) %is_less) unnamed_addr #5 {
start:
  %3 = and i64 %n, 2305843009213693944
  %_6.not = icmp eq i64 %3, 0
  br i1 %_6.not, label %bb6, label %bb1

bb1:                                              ; preds = %start
  %n84 = lshr i64 %n, 3
  %count = shl nuw nsw i64 %n84, 2
  %_10 = getelementptr inbounds nuw i32, ptr %0, i64 %count
  %count1 = mul nuw i64 %n84, 7
  %_13 = getelementptr inbounds nuw i32, ptr %0, i64 %count1
; call core::slice::sort::shared::pivot::median3_rec
  %4 = tail call noundef ptr @_ZN4core5slice4sort6shared5pivot11median3_rec17h3615cb3e2a78557bE(ptr noundef %0, ptr noundef %_10, ptr noundef %_13, i64 noundef %n84, ptr noalias noundef align 8 dereferenceable(8) %is_less)
  %_16 = getelementptr inbounds nuw i32, ptr %1, i64 %count
  %_18 = getelementptr inbounds nuw i32, ptr %1, i64 %count1
; call core::slice::sort::shared::pivot::median3_rec
  %5 = tail call noundef ptr @_ZN4core5slice4sort6shared5pivot11median3_rec17h3615cb3e2a78557bE(ptr noundef %1, ptr noundef %_16, ptr noundef %_18, i64 noundef %n84, ptr noalias noundef align 8 dereferenceable(8) %is_less)
  %_20 = getelementptr inbounds nuw i32, ptr %2, i64 %count
  %_22 = getelementptr inbounds nuw i32, ptr %2, i64 %count1
; call core::slice::sort::shared::pivot::median3_rec
  %6 = tail call noundef ptr @_ZN4core5slice4sort6shared5pivot11median3_rec17h3615cb3e2a78557bE(ptr noundef %2, ptr noundef %_20, ptr noundef %_22, i64 noundef %n84, ptr noalias noundef align 8 dereferenceable(8) %is_less)
  br label %bb6

bb6:                                              ; preds = %start, %bb1
  %c.sroa.0.0 = phi ptr [ %6, %bb1 ], [ %2, %start ]
  %b.sroa.0.0 = phi ptr [ %5, %bb1 ], [ %1, %start ]
  %a.sroa.0.0 = phi ptr [ %4, %bb1 ], [ %0, %start ]
  tail call void @llvm.experimental.noalias.scope.decl(metadata !125)
  tail call void @llvm.experimental.noalias.scope.decl(metadata !128)
  tail call void @llvm.experimental.noalias.scope.decl(metadata !130), !noalias !133
  tail call void @llvm.experimental.noalias.scope.decl(metadata !136), !noalias !133
  tail call void @llvm.experimental.noalias.scope.decl(metadata !138), !noalias !133
  tail call void @llvm.experimental.noalias.scope.decl(metadata !141), !noalias !133
  tail call void @llvm.experimental.noalias.scope.decl(metadata !143), !noalias !133
  tail call void @llvm.experimental.noalias.scope.decl(metadata !146), !noalias !133
  %_3.i.i.i.i = load i32, ptr %a.sroa.0.0, align 4, !alias.scope !148, !noalias !149, !noundef !11
  %_4.i.i.i.i = load i32, ptr %b.sroa.0.0, align 4, !alias.scope !150, !noalias !151, !noundef !11
  %_0.i = icmp slt i32 %_3.i.i.i.i, %_4.i.i.i.i
  %_4.i.i.i.i6 = load i32, ptr %c.sroa.0.0, align 4, !alias.scope !152, !noalias !161, !noundef !11
  %_0.i7 = icmp slt i32 %_3.i.i.i.i, %_4.i.i.i.i6
  %7 = xor i1 %_0.i, %_0.i7
  %_0.i10 = icmp slt i32 %_4.i.i.i.i, %_4.i.i.i.i6
  %_12.i = xor i1 %_0.i, %_0.i10
  %c.b.i = select i1 %_12.i, ptr %c.sroa.0.0, ptr %b.sroa.0.0
  %_0.sroa.0.0.i = select i1 %7, ptr %a.sroa.0.0, ptr %c.b.i
  ret ptr %_0.sroa.0.0.i
}

; core::slice::sort::shared::smallsort::insert_tail
; Function Attrs: nofree norecurse nosync nounwind nonlazybind memory(argmem: readwrite, inaccessiblemem: readwrite) uwtable
define void @_ZN4core5slice4sort6shared9smallsort11insert_tail17h799a674e80d07974E(ptr noundef readnone captures(address) %begin, ptr noundef captures(address) %tail, ptr noalias noundef readnone align 8 captures(none) dereferenceable(8) %is_less) unnamed_addr #2 personality ptr @rust_eh_personality {
start:
  %0 = getelementptr inbounds i8, ptr %tail, i64 -4
  tail call void @llvm.experimental.noalias.scope.decl(metadata !166)
  tail call void @llvm.experimental.noalias.scope.decl(metadata !169)
  tail call void @llvm.experimental.noalias.scope.decl(metadata !171)
  tail call void @llvm.experimental.noalias.scope.decl(metadata !174)
  tail call void @llvm.experimental.noalias.scope.decl(metadata !176)
  tail call void @llvm.experimental.noalias.scope.decl(metadata !179)
  tail call void @llvm.experimental.noalias.scope.decl(metadata !181)
  tail call void @llvm.experimental.noalias.scope.decl(metadata !184)
  %_3.i.i.i.i = load i32, ptr %tail, align 4, !alias.scope !186, !noalias !187, !noundef !11
  %_4.i.i.i.i = load i32, ptr %0, align 4, !alias.scope !187, !noalias !186, !noundef !11
  %_0.i = icmp slt i32 %_3.i.i.i.i, %_4.i.i.i.i
  br i1 %_0.i, label %bb4, label %bb12

bb12:                                             ; preds = %start, %bb10
  ret void

bb4:                                              ; preds = %start, %bb6
  %gap_guard.sroa.5.0 = phi ptr [ %sift.sroa.0.0, %bb6 ], [ %tail, %start ]
  %sift.sroa.0.0 = phi ptr [ %2, %bb6 ], [ %0, %start ]
  %1 = load i32, ptr %sift.sroa.0.0, align 4
  store i32 %1, ptr %gap_guard.sroa.5.0, align 4
  %_18 = icmp eq ptr %sift.sroa.0.0, %begin
  br i1 %_18, label %bb10, label %bb6

bb6:                                              ; preds = %bb4
  %2 = getelementptr inbounds i8, ptr %sift.sroa.0.0, i64 -4
  %_4.i.i.i.i2 = load i32, ptr %2, align 4, !alias.scope !188, !noalias !197, !noundef !11
  %_0.i3 = icmp slt i32 %_3.i.i.i.i, %_4.i.i.i.i2
  br i1 %_0.i3, label %bb4, label %bb10

bb10:                                             ; preds = %bb6, %bb4
  store i32 %_3.i.i.i.i, ptr %sift.sroa.0.0, align 4, !noalias !202
  br label %bb12
}

; core::slice::sort::shared::smallsort::sort4_stable
; Function Attrs: mustprogress nofree norecurse nosync nounwind nonlazybind willreturn memory(argmem: readwrite, inaccessiblemem: readwrite) uwtable
define void @_ZN4core5slice4sort6shared9smallsort12sort4_stable17h41f47289593f2f06E(ptr noundef readonly captures(none) %v_base, ptr noundef writeonly captures(none) initializes((0, 16)) %dst, ptr noalias noundef readnone align 8 captures(none) dereferenceable(8) %is_less) unnamed_addr #6 personality ptr @rust_eh_personality {
start:
  %_7 = getelementptr inbounds nuw i8, ptr %v_base, i64 4
  tail call void @llvm.experimental.noalias.scope.decl(metadata !207)
  tail call void @llvm.experimental.noalias.scope.decl(metadata !210)
  tail call void @llvm.experimental.noalias.scope.decl(metadata !212)
  tail call void @llvm.experimental.noalias.scope.decl(metadata !215)
  tail call void @llvm.experimental.noalias.scope.decl(metadata !217)
  tail call void @llvm.experimental.noalias.scope.decl(metadata !220)
  tail call void @llvm.experimental.noalias.scope.decl(metadata !222)
  tail call void @llvm.experimental.noalias.scope.decl(metadata !225)
  %_3.i.i.i.i = load i32, ptr %_7, align 4, !alias.scope !227, !noalias !228, !noundef !11
  %_4.i.i.i.i = load i32, ptr %v_base, align 4, !alias.scope !228, !noalias !227, !noundef !11
  %_0.i = icmp slt i32 %_3.i.i.i.i, %_4.i.i.i.i
  %_12 = getelementptr inbounds nuw i8, ptr %v_base, i64 12
  %_14 = getelementptr inbounds nuw i8, ptr %v_base, i64 8
  tail call void @llvm.experimental.noalias.scope.decl(metadata !229)
  tail call void @llvm.experimental.noalias.scope.decl(metadata !232)
  tail call void @llvm.experimental.noalias.scope.decl(metadata !234)
  tail call void @llvm.experimental.noalias.scope.decl(metadata !237)
  tail call void @llvm.experimental.noalias.scope.decl(metadata !239)
  tail call void @llvm.experimental.noalias.scope.decl(metadata !242)
  tail call void @llvm.experimental.noalias.scope.decl(metadata !244)
  tail call void @llvm.experimental.noalias.scope.decl(metadata !247)
  %_3.i.i.i.i7 = load i32, ptr %_12, align 4, !alias.scope !249, !noalias !250, !noundef !11
  %_4.i.i.i.i8 = load i32, ptr %_14, align 4, !alias.scope !250, !noalias !249, !noundef !11
  %_0.i9 = icmp slt i32 %_3.i.i.i.i7, %_4.i.i.i.i8
  %count = zext i1 %_0.i to i64
  %a = getelementptr inbounds nuw i32, ptr %v_base, i64 %count
  %_19 = xor i1 %_0.i, true
  %count2 = zext i1 %_19 to i64
  %b = getelementptr inbounds nuw i32, ptr %v_base, i64 %count2
  %count3 = select i1 %_0.i9, i64 3, i64 2
  %c = getelementptr inbounds nuw i32, ptr %v_base, i64 %count3
  %count4 = select i1 %_0.i9, i64 2, i64 3
  %d = getelementptr inbounds nuw i32, ptr %v_base, i64 %count4
  tail call void @llvm.experimental.noalias.scope.decl(metadata !251)
  tail call void @llvm.experimental.noalias.scope.decl(metadata !254)
  tail call void @llvm.experimental.noalias.scope.decl(metadata !256)
  tail call void @llvm.experimental.noalias.scope.decl(metadata !259)
  tail call void @llvm.experimental.noalias.scope.decl(metadata !261)
  tail call void @llvm.experimental.noalias.scope.decl(metadata !264)
  tail call void @llvm.experimental.noalias.scope.decl(metadata !266)
  tail call void @llvm.experimental.noalias.scope.decl(metadata !269)
  %_3.i.i.i.i10 = load i32, ptr %c, align 4, !alias.scope !271, !noalias !272, !noundef !11
  %_4.i.i.i.i11 = load i32, ptr %a, align 4, !alias.scope !272, !noalias !271, !noundef !11
  %_0.i12 = icmp slt i32 %_3.i.i.i.i10, %_4.i.i.i.i11
  tail call void @llvm.experimental.noalias.scope.decl(metadata !273)
  tail call void @llvm.experimental.noalias.scope.decl(metadata !276)
  tail call void @llvm.experimental.noalias.scope.decl(metadata !278)
  tail call void @llvm.experimental.noalias.scope.decl(metadata !281)
  tail call void @llvm.experimental.noalias.scope.decl(metadata !283)
  tail call void @llvm.experimental.noalias.scope.decl(metadata !286)
  tail call void @llvm.experimental.noalias.scope.decl(metadata !288)
  tail call void @llvm.experimental.noalias.scope.decl(metadata !291)
  %_3.i.i.i.i13 = load i32, ptr %d, align 4, !alias.scope !293, !noalias !294, !noundef !11
  %_4.i.i.i.i14 = load i32, ptr %b, align 4, !alias.scope !294, !noalias !293, !noundef !11
  %_0.i15 = icmp slt i32 %_3.i.i.i.i13, %_4.i.i.i.i14
  %0 = select i1 %_0.i12, ptr %c, ptr %a, !unpredictable !11
  %1 = select i1 %_0.i15, ptr %c, ptr %b, !unpredictable !11
  %2 = select i1 %_0.i12, ptr %a, ptr %1, !unpredictable !11
  %3 = select i1 %_0.i12, ptr %b, ptr %c, !unpredictable !11
  %4 = select i1 %_0.i15, ptr %d, ptr %3, !unpredictable !11
  tail call void @llvm.experimental.noalias.scope.decl(metadata !295)
  tail call void @llvm.experimental.noalias.scope.decl(metadata !298)
  tail call void @llvm.experimental.noalias.scope.decl(metadata !300)
  tail call void @llvm.experimental.noalias.scope.decl(metadata !303)
  tail call void @llvm.experimental.noalias.scope.decl(metadata !305)
  tail call void @llvm.experimental.noalias.scope.decl(metadata !308)
  tail call void @llvm.experimental.noalias.scope.decl(metadata !310)
  tail call void @llvm.experimental.noalias.scope.decl(metadata !313)
  %_3.i.i.i.i16 = load i32, ptr %4, align 4, !alias.scope !315, !noalias !316, !noundef !11
  %_4.i.i.i.i17 = load i32, ptr %2, align 4, !alias.scope !316, !noalias !315, !noundef !11
  %_0.i18 = icmp slt i32 %_3.i.i.i.i16, %_4.i.i.i.i17
  %5 = load i32, ptr %0, align 4
  store i32 %5, ptr %dst, align 4
  %dst5 = getelementptr inbounds nuw i8, ptr %dst, i64 4
  %.val = load i32, ptr %4, align 4
  %.val19 = load i32, ptr %2, align 4
  %6 = select i1 %_0.i18, i32 %.val, i32 %.val19
  store i32 %6, ptr %dst5, align 4
  %dst6 = getelementptr inbounds nuw i8, ptr %dst, i64 8
  %.val20 = load i32, ptr %2, align 4
  %.val21 = load i32, ptr %4, align 4
  %7 = select i1 %_0.i18, i32 %.val20, i32 %.val21
  store i32 %7, ptr %dst6, align 4
  %8 = getelementptr inbounds nuw i8, ptr %dst, i64 12
  %b.val = load i32, ptr %b, align 4
  %d.val = load i32, ptr %d, align 4
  %9 = select i1 %_0.i15, i32 %b.val, i32 %d.val
  store i32 %9, ptr %8, align 4
  ret void
}

; core::slice::sort::shared::smallsort::sort8_stable
; Function Attrs: nonlazybind uwtable
define void @_ZN4core5slice4sort6shared9smallsort12sort8_stable17h53ffbf5e0faa3efeE(ptr noundef readonly captures(none) %v_base, ptr noundef writeonly captures(none) initializes((0, 32)) %dst, ptr noundef captures(address) initializes((0, 32)) %scratch_base, ptr noalias readnone align 8 captures(none) %is_less) unnamed_addr #0 personality ptr @rust_eh_personality {
start:
  %_7.i = getelementptr inbounds nuw i8, ptr %v_base, i64 4
  tail call void @llvm.experimental.noalias.scope.decl(metadata !317)
  tail call void @llvm.experimental.noalias.scope.decl(metadata !320)
  tail call void @llvm.experimental.noalias.scope.decl(metadata !322)
  tail call void @llvm.experimental.noalias.scope.decl(metadata !325)
  tail call void @llvm.experimental.noalias.scope.decl(metadata !327)
  tail call void @llvm.experimental.noalias.scope.decl(metadata !330)
  tail call void @llvm.experimental.noalias.scope.decl(metadata !332)
  tail call void @llvm.experimental.noalias.scope.decl(metadata !335)
  %_3.i.i.i.i.i = load i32, ptr %_7.i, align 4, !alias.scope !337, !noalias !338, !noundef !11
  %_4.i.i.i.i.i = load i32, ptr %v_base, align 4, !alias.scope !338, !noalias !337, !noundef !11
  %_0.i.i = icmp slt i32 %_3.i.i.i.i.i, %_4.i.i.i.i.i
  %_12.i = getelementptr inbounds nuw i8, ptr %v_base, i64 12
  %_14.i = getelementptr inbounds nuw i8, ptr %v_base, i64 8
  tail call void @llvm.experimental.noalias.scope.decl(metadata !339)
  tail call void @llvm.experimental.noalias.scope.decl(metadata !342)
  tail call void @llvm.experimental.noalias.scope.decl(metadata !344)
  tail call void @llvm.experimental.noalias.scope.decl(metadata !347)
  tail call void @llvm.experimental.noalias.scope.decl(metadata !349)
  tail call void @llvm.experimental.noalias.scope.decl(metadata !352)
  tail call void @llvm.experimental.noalias.scope.decl(metadata !354)
  tail call void @llvm.experimental.noalias.scope.decl(metadata !357)
  %_3.i.i.i.i7.i = load i32, ptr %_12.i, align 4, !alias.scope !359, !noalias !360, !noundef !11
  %_4.i.i.i.i8.i = load i32, ptr %_14.i, align 4, !alias.scope !360, !noalias !359, !noundef !11
  %_0.i9.i = icmp slt i32 %_3.i.i.i.i7.i, %_4.i.i.i.i8.i
  %count.i = zext i1 %_0.i.i to i64
  %a.i = getelementptr inbounds nuw i32, ptr %v_base, i64 %count.i
  %_19.i = xor i1 %_0.i.i, true
  %count2.i = zext i1 %_19.i to i64
  %b.i = getelementptr inbounds nuw i32, ptr %v_base, i64 %count2.i
  %count3.i = select i1 %_0.i9.i, i64 3, i64 2
  %c.i = getelementptr inbounds nuw i32, ptr %v_base, i64 %count3.i
  %count4.i = select i1 %_0.i9.i, i64 2, i64 3
  %d.i = getelementptr inbounds nuw i32, ptr %v_base, i64 %count4.i
  tail call void @llvm.experimental.noalias.scope.decl(metadata !361)
  tail call void @llvm.experimental.noalias.scope.decl(metadata !364)
  tail call void @llvm.experimental.noalias.scope.decl(metadata !366)
  tail call void @llvm.experimental.noalias.scope.decl(metadata !369)
  tail call void @llvm.experimental.noalias.scope.decl(metadata !371)
  tail call void @llvm.experimental.noalias.scope.decl(metadata !374)
  tail call void @llvm.experimental.noalias.scope.decl(metadata !376)
  tail call void @llvm.experimental.noalias.scope.decl(metadata !379)
  %_3.i.i.i.i10.i = load i32, ptr %c.i, align 4, !alias.scope !381, !noalias !382, !noundef !11
  %_4.i.i.i.i11.i = load i32, ptr %a.i, align 4, !alias.scope !382, !noalias !381, !noundef !11
  %_0.i12.i = icmp slt i32 %_3.i.i.i.i10.i, %_4.i.i.i.i11.i
  tail call void @llvm.experimental.noalias.scope.decl(metadata !383)
  tail call void @llvm.experimental.noalias.scope.decl(metadata !386)
  tail call void @llvm.experimental.noalias.scope.decl(metadata !388)
  tail call void @llvm.experimental.noalias.scope.decl(metadata !391)
  tail call void @llvm.experimental.noalias.scope.decl(metadata !393)
  tail call void @llvm.experimental.noalias.scope.decl(metadata !396)
  tail call void @llvm.experimental.noalias.scope.decl(metadata !398)
  tail call void @llvm.experimental.noalias.scope.decl(metadata !401)
  %_3.i.i.i.i13.i = load i32, ptr %d.i, align 4, !alias.scope !403, !noalias !404, !noundef !11
  %_4.i.i.i.i14.i = load i32, ptr %b.i, align 4, !alias.scope !404, !noalias !403, !noundef !11
  %_0.i15.i = icmp slt i32 %_3.i.i.i.i13.i, %_4.i.i.i.i14.i
  %0 = select i1 %_0.i12.i, ptr %c.i, ptr %a.i, !unpredictable !11
  %1 = select i1 %_0.i15.i, ptr %c.i, ptr %b.i, !unpredictable !11
  %2 = select i1 %_0.i12.i, ptr %a.i, ptr %1, !unpredictable !11
  %3 = select i1 %_0.i12.i, ptr %b.i, ptr %c.i, !unpredictable !11
  %4 = select i1 %_0.i15.i, ptr %d.i, ptr %3, !unpredictable !11
  tail call void @llvm.experimental.noalias.scope.decl(metadata !405)
  tail call void @llvm.experimental.noalias.scope.decl(metadata !408)
  tail call void @llvm.experimental.noalias.scope.decl(metadata !410)
  tail call void @llvm.experimental.noalias.scope.decl(metadata !413)
  tail call void @llvm.experimental.noalias.scope.decl(metadata !415)
  tail call void @llvm.experimental.noalias.scope.decl(metadata !418)
  tail call void @llvm.experimental.noalias.scope.decl(metadata !420)
  tail call void @llvm.experimental.noalias.scope.decl(metadata !423)
  %_3.i.i.i.i16.i = load i32, ptr %4, align 4, !alias.scope !425, !noalias !426, !noundef !11
  %_4.i.i.i.i17.i = load i32, ptr %2, align 4, !alias.scope !426, !noalias !425, !noundef !11
  %_0.i18.i = icmp slt i32 %_3.i.i.i.i16.i, %_4.i.i.i.i17.i
  %5 = load i32, ptr %0, align 4
  store i32 %5, ptr %scratch_base, align 4
  %dst5.i = getelementptr inbounds nuw i8, ptr %scratch_base, i64 4
  %.val.i = load i32, ptr %4, align 4
  %.val19.i = load i32, ptr %2, align 4
  %6 = select i1 %_0.i18.i, i32 %.val.i, i32 %.val19.i
  store i32 %6, ptr %dst5.i, align 4
  %dst6.i = getelementptr inbounds nuw i8, ptr %scratch_base, i64 8
  %.val20.i = load i32, ptr %2, align 4
  %.val21.i = load i32, ptr %4, align 4
  %7 = select i1 %_0.i18.i, i32 %.val20.i, i32 %.val21.i
  store i32 %7, ptr %dst6.i, align 4
  %8 = getelementptr inbounds nuw i8, ptr %scratch_base, i64 12
  %b.val.i = load i32, ptr %b.i, align 4
  %d.val.i = load i32, ptr %d.i, align 4
  %9 = select i1 %_0.i15.i, i32 %b.val.i, i32 %d.val.i
  store i32 %9, ptr %8, align 4
  %_9 = getelementptr inbounds nuw i8, ptr %v_base, i64 16
  %_10 = getelementptr i8, ptr %scratch_base, i64 16
  %_7.i1 = getelementptr inbounds nuw i8, ptr %v_base, i64 20
  tail call void @llvm.experimental.noalias.scope.decl(metadata !427)
  tail call void @llvm.experimental.noalias.scope.decl(metadata !430)
  tail call void @llvm.experimental.noalias.scope.decl(metadata !432)
  tail call void @llvm.experimental.noalias.scope.decl(metadata !435)
  tail call void @llvm.experimental.noalias.scope.decl(metadata !437)
  tail call void @llvm.experimental.noalias.scope.decl(metadata !440)
  tail call void @llvm.experimental.noalias.scope.decl(metadata !442)
  tail call void @llvm.experimental.noalias.scope.decl(metadata !445)
  %_3.i.i.i.i.i2 = load i32, ptr %_7.i1, align 4, !alias.scope !447, !noalias !448, !noundef !11
  %_4.i.i.i.i.i3 = load i32, ptr %_9, align 4, !alias.scope !448, !noalias !447, !noundef !11
  %_0.i.i4 = icmp slt i32 %_3.i.i.i.i.i2, %_4.i.i.i.i.i3
  %_12.i5 = getelementptr inbounds nuw i8, ptr %v_base, i64 28
  %_14.i6 = getelementptr inbounds nuw i8, ptr %v_base, i64 24
  tail call void @llvm.experimental.noalias.scope.decl(metadata !449)
  tail call void @llvm.experimental.noalias.scope.decl(metadata !452)
  tail call void @llvm.experimental.noalias.scope.decl(metadata !454)
  tail call void @llvm.experimental.noalias.scope.decl(metadata !457)
  tail call void @llvm.experimental.noalias.scope.decl(metadata !459)
  tail call void @llvm.experimental.noalias.scope.decl(metadata !462)
  tail call void @llvm.experimental.noalias.scope.decl(metadata !464)
  tail call void @llvm.experimental.noalias.scope.decl(metadata !467)
  %_3.i.i.i.i7.i7 = load i32, ptr %_12.i5, align 4, !alias.scope !469, !noalias !470, !noundef !11
  %_4.i.i.i.i8.i8 = load i32, ptr %_14.i6, align 4, !alias.scope !470, !noalias !469, !noundef !11
  %_0.i9.i9 = icmp slt i32 %_3.i.i.i.i7.i7, %_4.i.i.i.i8.i8
  %count.i10 = zext i1 %_0.i.i4 to i64
  %a.i11 = getelementptr inbounds nuw i32, ptr %_9, i64 %count.i10
  %_19.i12 = xor i1 %_0.i.i4, true
  %count2.i13 = zext i1 %_19.i12 to i64
  %b.i14 = getelementptr inbounds nuw i32, ptr %_9, i64 %count2.i13
  %count3.i15 = select i1 %_0.i9.i9, i64 3, i64 2
  %c.i16 = getelementptr inbounds nuw i32, ptr %_9, i64 %count3.i15
  %count4.i17 = select i1 %_0.i9.i9, i64 2, i64 3
  %d.i18 = getelementptr inbounds nuw i32, ptr %_9, i64 %count4.i17
  tail call void @llvm.experimental.noalias.scope.decl(metadata !471)
  tail call void @llvm.experimental.noalias.scope.decl(metadata !474)
  tail call void @llvm.experimental.noalias.scope.decl(metadata !476)
  tail call void @llvm.experimental.noalias.scope.decl(metadata !479)
  tail call void @llvm.experimental.noalias.scope.decl(metadata !481)
  tail call void @llvm.experimental.noalias.scope.decl(metadata !484)
  tail call void @llvm.experimental.noalias.scope.decl(metadata !486)
  tail call void @llvm.experimental.noalias.scope.decl(metadata !489)
  %_3.i.i.i.i10.i19 = load i32, ptr %c.i16, align 4, !alias.scope !491, !noalias !492, !noundef !11
  %_4.i.i.i.i11.i20 = load i32, ptr %a.i11, align 4, !alias.scope !492, !noalias !491, !noundef !11
  %_0.i12.i21 = icmp slt i32 %_3.i.i.i.i10.i19, %_4.i.i.i.i11.i20
  tail call void @llvm.experimental.noalias.scope.decl(metadata !493)
  tail call void @llvm.experimental.noalias.scope.decl(metadata !496)
  tail call void @llvm.experimental.noalias.scope.decl(metadata !498)
  tail call void @llvm.experimental.noalias.scope.decl(metadata !501)
  tail call void @llvm.experimental.noalias.scope.decl(metadata !503)
  tail call void @llvm.experimental.noalias.scope.decl(metadata !506)
  tail call void @llvm.experimental.noalias.scope.decl(metadata !508)
  tail call void @llvm.experimental.noalias.scope.decl(metadata !511)
  %_3.i.i.i.i13.i22 = load i32, ptr %d.i18, align 4, !alias.scope !513, !noalias !514, !noundef !11
  %_4.i.i.i.i14.i23 = load i32, ptr %b.i14, align 4, !alias.scope !514, !noalias !513, !noundef !11
  %_0.i15.i24 = icmp slt i32 %_3.i.i.i.i13.i22, %_4.i.i.i.i14.i23
  %10 = select i1 %_0.i12.i21, ptr %c.i16, ptr %a.i11, !unpredictable !11
  %11 = select i1 %_0.i15.i24, ptr %c.i16, ptr %b.i14, !unpredictable !11
  %12 = select i1 %_0.i12.i21, ptr %a.i11, ptr %11, !unpredictable !11
  %13 = select i1 %_0.i12.i21, ptr %b.i14, ptr %c.i16, !unpredictable !11
  %14 = select i1 %_0.i15.i24, ptr %d.i18, ptr %13, !unpredictable !11
  tail call void @llvm.experimental.noalias.scope.decl(metadata !515)
  tail call void @llvm.experimental.noalias.scope.decl(metadata !518)
  tail call void @llvm.experimental.noalias.scope.decl(metadata !520)
  tail call void @llvm.experimental.noalias.scope.decl(metadata !523)
  tail call void @llvm.experimental.noalias.scope.decl(metadata !525)
  tail call void @llvm.experimental.noalias.scope.decl(metadata !528)
  tail call void @llvm.experimental.noalias.scope.decl(metadata !530)
  tail call void @llvm.experimental.noalias.scope.decl(metadata !533)
  %_3.i.i.i.i16.i25 = load i32, ptr %14, align 4, !alias.scope !535, !noalias !536, !noundef !11
  %_4.i.i.i.i17.i26 = load i32, ptr %12, align 4, !alias.scope !536, !noalias !535, !noundef !11
  %_0.i18.i27 = icmp slt i32 %_3.i.i.i.i16.i25, %_4.i.i.i.i17.i26
  %15 = load i32, ptr %10, align 4
  store i32 %15, ptr %_10, align 4
  %dst5.i28 = getelementptr i8, ptr %scratch_base, i64 20
  %.val.i29 = load i32, ptr %14, align 4
  %.val19.i30 = load i32, ptr %12, align 4
  %16 = select i1 %_0.i18.i27, i32 %.val.i29, i32 %.val19.i30
  store i32 %16, ptr %dst5.i28, align 4
  %dst6.i31 = getelementptr i8, ptr %scratch_base, i64 24
  %.val20.i32 = load i32, ptr %12, align 4
  %.val21.i33 = load i32, ptr %14, align 4
  %17 = select i1 %_0.i18.i27, i32 %.val20.i32, i32 %.val21.i33
  store i32 %17, ptr %dst6.i31, align 4
  %18 = getelementptr i8, ptr %scratch_base, i64 28
  %b.val.i34 = load i32, ptr %b.i14, align 4
  %d.val.i35 = load i32, ptr %d.i18, align 4
  %19 = select i1 %_0.i15.i24, i32 %b.val.i34, i32 %d.val.i35
  store i32 %19, ptr %18, align 4
  tail call void @llvm.experimental.noalias.scope.decl(metadata !537)
  %20 = getelementptr i8, ptr %scratch_base, i64 12
  %21 = getelementptr inbounds nuw i8, ptr %scratch_base, i64 28
  %22 = getelementptr inbounds nuw i8, ptr %dst, i64 28
  tail call void @llvm.experimental.noalias.scope.decl(metadata !540)
  tail call void @llvm.experimental.noalias.scope.decl(metadata !543)
  tail call void @llvm.experimental.noalias.scope.decl(metadata !545), !noalias !548
  tail call void @llvm.experimental.noalias.scope.decl(metadata !551), !noalias !548
  tail call void @llvm.experimental.noalias.scope.decl(metadata !553), !noalias !548
  tail call void @llvm.experimental.noalias.scope.decl(metadata !556), !noalias !548
  tail call void @llvm.experimental.noalias.scope.decl(metadata !558), !noalias !548
  tail call void @llvm.experimental.noalias.scope.decl(metadata !561), !noalias !548
  %_3.i.i.i.i.i36 = load i32, ptr %_10, align 4, !alias.scope !563, !noalias !564, !noundef !11
  %_4.i.i.i.i.i37 = load i32, ptr %scratch_base, align 4, !alias.scope !565, !noalias !566, !noundef !11
  %_0.i.i38 = icmp slt i32 %_3.i.i.i.i.i36, %_4.i.i.i.i.i37
  %is_l.i18.i = xor i1 %_0.i.i38, true
  %23 = tail call i32 @llvm.smin.i32(i32 %_3.i.i.i.i.i36, i32 %_4.i.i.i.i.i37)
  store i32 %23, ptr %dst, align 4, !noalias !567
  %count.i.i = zext i1 %_0.i.i38 to i64
  %_12.i.i = getelementptr inbounds nuw i32, ptr %_10, i64 %count.i.i
  %count2.i.i = zext i1 %is_l.i18.i to i64
  %_14.i.i = getelementptr inbounds nuw i32, ptr %scratch_base, i64 %count2.i.i
  %_16.i.i = getelementptr inbounds nuw i8, ptr %dst, i64 4
  tail call void @llvm.experimental.noalias.scope.decl(metadata !569)
  tail call void @llvm.experimental.noalias.scope.decl(metadata !572)
  tail call void @llvm.experimental.noalias.scope.decl(metadata !574), !noalias !577
  tail call void @llvm.experimental.noalias.scope.decl(metadata !580), !noalias !577
  tail call void @llvm.experimental.noalias.scope.decl(metadata !582), !noalias !577
  tail call void @llvm.experimental.noalias.scope.decl(metadata !585), !noalias !577
  tail call void @llvm.experimental.noalias.scope.decl(metadata !587), !noalias !577
  tail call void @llvm.experimental.noalias.scope.decl(metadata !590), !noalias !577
  %_3.i.i.i.i19.i = load i32, ptr %21, align 4, !alias.scope !592, !noalias !593, !noundef !11
  %_4.i.i.i.i20.i = load i32, ptr %20, align 4, !alias.scope !594, !noalias !595, !noundef !11
  %_0.i21.i = icmp slt i32 %_3.i.i.i.i19.i, %_4.i.i.i.i20.i
  %is_l.i.i = xor i1 %_0.i21.i, true
  %24 = tail call i32 @llvm.smax.i32(i32 %_3.i.i.i.i19.i, i32 %_4.i.i.i.i20.i)
  store i32 %24, ptr %22, align 4, !noalias !596
  %count.neg.i.i = sext i1 %is_l.i.i to i64
  %25 = getelementptr i32, ptr %21, i64 %count.neg.i.i
  %count3.neg.i.i = sext i1 %_0.i21.i to i64
  %26 = getelementptr i32, ptr %20, i64 %count3.neg.i.i
  %27 = getelementptr inbounds nuw i8, ptr %dst, i64 24
  tail call void @llvm.experimental.noalias.scope.decl(metadata !598)
  tail call void @llvm.experimental.noalias.scope.decl(metadata !600)
  tail call void @llvm.experimental.noalias.scope.decl(metadata !602), !noalias !548
  tail call void @llvm.experimental.noalias.scope.decl(metadata !604), !noalias !548
  tail call void @llvm.experimental.noalias.scope.decl(metadata !606), !noalias !548
  tail call void @llvm.experimental.noalias.scope.decl(metadata !608), !noalias !548
  tail call void @llvm.experimental.noalias.scope.decl(metadata !610), !noalias !548
  tail call void @llvm.experimental.noalias.scope.decl(metadata !612), !noalias !548
  %_3.i.i.i.i.i36.1 = load i32, ptr %_12.i.i, align 4, !alias.scope !614, !noalias !615, !noundef !11
  %_4.i.i.i.i.i37.1 = load i32, ptr %_14.i.i, align 4, !alias.scope !616, !noalias !617, !noundef !11
  %_0.i.i38.1 = icmp slt i32 %_3.i.i.i.i.i36.1, %_4.i.i.i.i.i37.1
  %is_l.i18.i.1 = xor i1 %_0.i.i38.1, true
  %28 = tail call i32 @llvm.smin.i32(i32 %_3.i.i.i.i.i36.1, i32 %_4.i.i.i.i.i37.1)
  store i32 %28, ptr %_16.i.i, align 4, !noalias !567
  %count.i.i.1 = zext i1 %_0.i.i38.1 to i64
  %_12.i.i.1 = getelementptr inbounds nuw i32, ptr %_12.i.i, i64 %count.i.i.1
  %count2.i.i.1 = zext i1 %is_l.i18.i.1 to i64
  %_14.i.i.1 = getelementptr inbounds nuw i32, ptr %_14.i.i, i64 %count2.i.i.1
  %_16.i.i.1 = getelementptr inbounds nuw i8, ptr %dst, i64 8
  tail call void @llvm.experimental.noalias.scope.decl(metadata !618)
  tail call void @llvm.experimental.noalias.scope.decl(metadata !620)
  tail call void @llvm.experimental.noalias.scope.decl(metadata !622), !noalias !577
  tail call void @llvm.experimental.noalias.scope.decl(metadata !624), !noalias !577
  tail call void @llvm.experimental.noalias.scope.decl(metadata !626), !noalias !577
  tail call void @llvm.experimental.noalias.scope.decl(metadata !628), !noalias !577
  tail call void @llvm.experimental.noalias.scope.decl(metadata !630), !noalias !577
  tail call void @llvm.experimental.noalias.scope.decl(metadata !632), !noalias !577
  %_3.i.i.i.i19.i.1 = load i32, ptr %25, align 4, !alias.scope !634, !noalias !635, !noundef !11
  %_4.i.i.i.i20.i.1 = load i32, ptr %26, align 4, !alias.scope !636, !noalias !637, !noundef !11
  %_0.i21.i.1 = icmp slt i32 %_3.i.i.i.i19.i.1, %_4.i.i.i.i20.i.1
  %is_l.i.i.1 = xor i1 %_0.i21.i.1, true
  %29 = tail call i32 @llvm.smax.i32(i32 %_3.i.i.i.i19.i.1, i32 %_4.i.i.i.i20.i.1)
  store i32 %29, ptr %27, align 4, !noalias !596
  %count.neg.i.i.1 = sext i1 %is_l.i.i.1 to i64
  %30 = getelementptr i32, ptr %25, i64 %count.neg.i.i.1
  %count3.neg.i.i.1 = sext i1 %_0.i21.i.1 to i64
  %31 = getelementptr i32, ptr %26, i64 %count3.neg.i.i.1
  %32 = getelementptr inbounds nuw i8, ptr %dst, i64 20
  tail call void @llvm.experimental.noalias.scope.decl(metadata !638)
  tail call void @llvm.experimental.noalias.scope.decl(metadata !640)
  tail call void @llvm.experimental.noalias.scope.decl(metadata !642), !noalias !548
  tail call void @llvm.experimental.noalias.scope.decl(metadata !644), !noalias !548
  tail call void @llvm.experimental.noalias.scope.decl(metadata !646), !noalias !548
  tail call void @llvm.experimental.noalias.scope.decl(metadata !648), !noalias !548
  tail call void @llvm.experimental.noalias.scope.decl(metadata !650), !noalias !548
  tail call void @llvm.experimental.noalias.scope.decl(metadata !652), !noalias !548
  %_3.i.i.i.i.i36.2 = load i32, ptr %_12.i.i.1, align 4, !alias.scope !654, !noalias !655, !noundef !11
  %_4.i.i.i.i.i37.2 = load i32, ptr %_14.i.i.1, align 4, !alias.scope !656, !noalias !657, !noundef !11
  %_0.i.i38.2 = icmp slt i32 %_3.i.i.i.i.i36.2, %_4.i.i.i.i.i37.2
  %is_l.i18.i.2 = xor i1 %_0.i.i38.2, true
  %33 = tail call i32 @llvm.smin.i32(i32 %_3.i.i.i.i.i36.2, i32 %_4.i.i.i.i.i37.2)
  store i32 %33, ptr %_16.i.i.1, align 4, !noalias !567
  %count.i.i.2 = zext i1 %_0.i.i38.2 to i64
  %_12.i.i.2 = getelementptr inbounds nuw i32, ptr %_12.i.i.1, i64 %count.i.i.2
  %count2.i.i.2 = zext i1 %is_l.i18.i.2 to i64
  %_14.i.i.2 = getelementptr inbounds nuw i32, ptr %_14.i.i.1, i64 %count2.i.i.2
  %_16.i.i.2 = getelementptr inbounds nuw i8, ptr %dst, i64 12
  tail call void @llvm.experimental.noalias.scope.decl(metadata !658)
  tail call void @llvm.experimental.noalias.scope.decl(metadata !660)
  tail call void @llvm.experimental.noalias.scope.decl(metadata !662), !noalias !577
  tail call void @llvm.experimental.noalias.scope.decl(metadata !664), !noalias !577
  tail call void @llvm.experimental.noalias.scope.decl(metadata !666), !noalias !577
  tail call void @llvm.experimental.noalias.scope.decl(metadata !668), !noalias !577
  tail call void @llvm.experimental.noalias.scope.decl(metadata !670), !noalias !577
  tail call void @llvm.experimental.noalias.scope.decl(metadata !672), !noalias !577
  %_3.i.i.i.i19.i.2 = load i32, ptr %30, align 4, !alias.scope !674, !noalias !675, !noundef !11
  %_4.i.i.i.i20.i.2 = load i32, ptr %31, align 4, !alias.scope !676, !noalias !677, !noundef !11
  %_0.i21.i.2 = icmp slt i32 %_3.i.i.i.i19.i.2, %_4.i.i.i.i20.i.2
  %is_l.i.i.2 = xor i1 %_0.i21.i.2, true
  %34 = tail call i32 @llvm.smax.i32(i32 %_3.i.i.i.i19.i.2, i32 %_4.i.i.i.i20.i.2)
  store i32 %34, ptr %32, align 4, !noalias !596
  %count.neg.i.i.2 = sext i1 %is_l.i.i.2 to i64
  %35 = getelementptr i32, ptr %30, i64 %count.neg.i.i.2
  %count3.neg.i.i.2 = sext i1 %_0.i21.i.2 to i64
  %36 = getelementptr i32, ptr %31, i64 %count3.neg.i.i.2
  %37 = getelementptr inbounds nuw i8, ptr %dst, i64 16
  tail call void @llvm.experimental.noalias.scope.decl(metadata !678)
  tail call void @llvm.experimental.noalias.scope.decl(metadata !680)
  tail call void @llvm.experimental.noalias.scope.decl(metadata !682), !noalias !548
  tail call void @llvm.experimental.noalias.scope.decl(metadata !684), !noalias !548
  tail call void @llvm.experimental.noalias.scope.decl(metadata !686), !noalias !548
  tail call void @llvm.experimental.noalias.scope.decl(metadata !688), !noalias !548
  tail call void @llvm.experimental.noalias.scope.decl(metadata !690), !noalias !548
  tail call void @llvm.experimental.noalias.scope.decl(metadata !692), !noalias !548
  %_3.i.i.i.i.i36.3 = load i32, ptr %_12.i.i.2, align 4, !alias.scope !694, !noalias !695, !noundef !11
  %_4.i.i.i.i.i37.3 = load i32, ptr %_14.i.i.2, align 4, !alias.scope !696, !noalias !697, !noundef !11
  %_0.i.i38.3 = icmp slt i32 %_3.i.i.i.i.i36.3, %_4.i.i.i.i.i37.3
  %is_l.i18.i.3 = xor i1 %_0.i.i38.3, true
  %38 = tail call i32 @llvm.smin.i32(i32 %_3.i.i.i.i.i36.3, i32 %_4.i.i.i.i.i37.3)
  store i32 %38, ptr %_16.i.i.2, align 4, !noalias !567
  %count.i.i.3 = zext i1 %_0.i.i38.3 to i64
  %_12.i.i.3 = getelementptr inbounds nuw i32, ptr %_12.i.i.2, i64 %count.i.i.3
  %count2.i.i.3 = zext i1 %is_l.i18.i.3 to i64
  %_14.i.i.3 = getelementptr inbounds nuw i32, ptr %_14.i.i.2, i64 %count2.i.i.3
  tail call void @llvm.experimental.noalias.scope.decl(metadata !698)
  tail call void @llvm.experimental.noalias.scope.decl(metadata !700)
  tail call void @llvm.experimental.noalias.scope.decl(metadata !702), !noalias !577
  tail call void @llvm.experimental.noalias.scope.decl(metadata !704), !noalias !577
  tail call void @llvm.experimental.noalias.scope.decl(metadata !706), !noalias !577
  tail call void @llvm.experimental.noalias.scope.decl(metadata !708), !noalias !577
  tail call void @llvm.experimental.noalias.scope.decl(metadata !710), !noalias !577
  tail call void @llvm.experimental.noalias.scope.decl(metadata !712), !noalias !577
  %_3.i.i.i.i19.i.3 = load i32, ptr %35, align 4, !alias.scope !714, !noalias !715, !noundef !11
  %_4.i.i.i.i20.i.3 = load i32, ptr %36, align 4, !alias.scope !716, !noalias !717, !noundef !11
  %_0.i21.i.3 = icmp slt i32 %_3.i.i.i.i19.i.3, %_4.i.i.i.i20.i.3
  %is_l.i.i.3 = xor i1 %_0.i21.i.3, true
  %39 = tail call i32 @llvm.smax.i32(i32 %_3.i.i.i.i19.i.3, i32 %_4.i.i.i.i20.i.3)
  store i32 %39, ptr %37, align 4, !noalias !596
  %count.neg.i.i.3 = sext i1 %is_l.i.i.3 to i64
  %40 = getelementptr i32, ptr %35, i64 %count.neg.i.i.3
  %count3.neg.i.i.3 = sext i1 %_0.i21.i.3 to i64
  %41 = getelementptr i32, ptr %36, i64 %count3.neg.i.i.3
  %42 = getelementptr i8, ptr %41, i64 4
  %43 = getelementptr i8, ptr %40, i64 4
  %_31.i = icmp ne ptr %_14.i.i.3, %42
  %_32.i = icmp ne ptr %_12.i.i.3, %43
  %or.cond.i = select i1 %_31.i, i1 true, i1 %_32.i
  br i1 %or.cond.i, label %bb13.i, label %_ZN4core5slice4sort6shared9smallsort19bidirectional_merge17h53d647054ed97a16E.exit, !prof !718

bb13.i:                                           ; preds = %start
; call core::slice::sort::shared::smallsort::panic_on_ord_violation
  tail call void @_ZN4core5slice4sort6shared9smallsort22panic_on_ord_violation17hc77a22a2d50782cdE() #32, !noalias !537
  unreachable

_ZN4core5slice4sort6shared9smallsort19bidirectional_merge17h53d647054ed97a16E.exit: ; preds = %start
  ret void
}

; core::slice::sort::shared::smallsort::bidirectional_merge
; Function Attrs: nonlazybind uwtable
define void @_ZN4core5slice4sort6shared9smallsort19bidirectional_merge17h53d647054ed97a16E(ptr noalias noundef nonnull readonly align 4 captures(address) %v.0, i64 noundef range(i64 0, 2305843009213693952) %v.1, ptr noundef writeonly captures(none) %0, ptr noalias noundef readnone align 8 captures(none) dereferenceable(8) %is_less) unnamed_addr #0 {
start:
  %len_div_215 = lshr i64 %v.1, 1
  %_7 = icmp samesign ugt i64 %v.1, 1
  tail call void @llvm.assume(i1 %_7)
  %count1 = add nsw i64 %v.1, -1
  %1 = getelementptr inbounds nuw i32, ptr %0, i64 %count1
  %2 = getelementptr inbounds nuw i32, ptr %v.0, i64 %count1
  %3 = getelementptr i32, ptr %v.0, i64 %len_div_215
  %4 = getelementptr i8, ptr %3, i64 -4
  br label %bb15

bb16:                                             ; preds = %bb15
  %5 = getelementptr i8, ptr %10, i64 4
  %6 = getelementptr i8, ptr %9, i64 4
  %_44 = and i64 %v.1, 1
  %_22 = icmp eq i64 %_44, 0
  br i1 %_22, label %bb9, label %bb5

bb15:                                             ; preds = %start, %bb15
  %dst.sroa.0.029 = phi ptr [ %_16.i, %bb15 ], [ %0, %start ]
  %iter.sroa.0.028 = phi i64 [ %_39, %bb15 ], [ 0, %start ]
  %left.sroa.0.027 = phi ptr [ %_14.i, %bb15 ], [ %v.0, %start ]
  %right.sroa.0.026 = phi ptr [ %_12.i, %bb15 ], [ %3, %start ]
  %left_rev.sroa.0.025 = phi ptr [ %10, %bb15 ], [ %4, %start ]
  %right_rev.sroa.0.024 = phi ptr [ %9, %bb15 ], [ %2, %start ]
  %dst_rev.sroa.0.023 = phi ptr [ %11, %bb15 ], [ %1, %start ]
  %_39 = add nuw nsw i64 %iter.sroa.0.028, 1
  tail call void @llvm.experimental.noalias.scope.decl(metadata !719)
  tail call void @llvm.experimental.noalias.scope.decl(metadata !722)
  tail call void @llvm.experimental.noalias.scope.decl(metadata !724), !noalias !727
  tail call void @llvm.experimental.noalias.scope.decl(metadata !730), !noalias !727
  tail call void @llvm.experimental.noalias.scope.decl(metadata !732), !noalias !727
  tail call void @llvm.experimental.noalias.scope.decl(metadata !735), !noalias !727
  tail call void @llvm.experimental.noalias.scope.decl(metadata !737), !noalias !727
  tail call void @llvm.experimental.noalias.scope.decl(metadata !740), !noalias !727
  %_3.i.i.i.i = load i32, ptr %right.sroa.0.026, align 4, !alias.scope !742, !noalias !743, !noundef !11
  %_4.i.i.i.i = load i32, ptr %left.sroa.0.027, align 4, !alias.scope !744, !noalias !745, !noundef !11
  %_0.i = icmp slt i32 %_3.i.i.i.i, %_4.i.i.i.i
  %is_l.i18 = xor i1 %_0.i, true
  %7 = tail call i32 @llvm.smin.i32(i32 %_3.i.i.i.i, i32 %_4.i.i.i.i)
  store i32 %7, ptr %dst.sroa.0.029, align 4, !noalias !746
  %count.i = zext i1 %_0.i to i64
  %_12.i = getelementptr inbounds nuw i32, ptr %right.sroa.0.026, i64 %count.i
  %count2.i = zext i1 %is_l.i18 to i64
  %_14.i = getelementptr inbounds nuw i32, ptr %left.sroa.0.027, i64 %count2.i
  %_16.i = getelementptr inbounds nuw i8, ptr %dst.sroa.0.029, i64 4
  tail call void @llvm.experimental.noalias.scope.decl(metadata !748)
  tail call void @llvm.experimental.noalias.scope.decl(metadata !751)
  tail call void @llvm.experimental.noalias.scope.decl(metadata !753), !noalias !756
  tail call void @llvm.experimental.noalias.scope.decl(metadata !759), !noalias !756
  tail call void @llvm.experimental.noalias.scope.decl(metadata !761), !noalias !756
  tail call void @llvm.experimental.noalias.scope.decl(metadata !764), !noalias !756
  tail call void @llvm.experimental.noalias.scope.decl(metadata !766), !noalias !756
  tail call void @llvm.experimental.noalias.scope.decl(metadata !769), !noalias !756
  %_3.i.i.i.i19 = load i32, ptr %right_rev.sroa.0.024, align 4, !alias.scope !771, !noalias !772, !noundef !11
  %_4.i.i.i.i20 = load i32, ptr %left_rev.sroa.0.025, align 4, !alias.scope !773, !noalias !774, !noundef !11
  %_0.i21 = icmp slt i32 %_3.i.i.i.i19, %_4.i.i.i.i20
  %is_l.i = xor i1 %_0.i21, true
  %8 = tail call i32 @llvm.smax.i32(i32 %_3.i.i.i.i19, i32 %_4.i.i.i.i20)
  store i32 %8, ptr %dst_rev.sroa.0.023, align 4, !noalias !775
  %count.neg.i = sext i1 %is_l.i to i64
  %9 = getelementptr i32, ptr %right_rev.sroa.0.024, i64 %count.neg.i
  %count3.neg.i = sext i1 %_0.i21 to i64
  %10 = getelementptr i32, ptr %left_rev.sroa.0.025, i64 %count3.neg.i
  %11 = getelementptr inbounds i8, ptr %dst_rev.sroa.0.023, i64 -4
  %exitcond.not = icmp eq i64 %_39, %len_div_215
  br i1 %exitcond.not, label %bb16, label %bb15

bb5:                                              ; preds = %bb16
  %left_nonempty = icmp ult ptr %_14.i, %5
  %left.sroa.0.0.right.sroa.0.0 = select i1 %left_nonempty, ptr %_14.i, ptr %_12.i
  %12 = load i32, ptr %left.sroa.0.0.right.sroa.0.0, align 4
  store i32 %12, ptr %_16.i, align 4
  %count2 = zext i1 %left_nonempty to i64
  %_26 = getelementptr inbounds nuw i32, ptr %_14.i, i64 %count2
  %_30 = xor i1 %left_nonempty, true
  %count3 = zext i1 %_30 to i64
  %_28 = getelementptr inbounds nuw i32, ptr %_12.i, i64 %count3
  br label %bb9

bb9:                                              ; preds = %bb16, %bb5
  %right.sroa.0.1 = phi ptr [ %_12.i, %bb16 ], [ %_28, %bb5 ]
  %left.sroa.0.1 = phi ptr [ %_14.i, %bb16 ], [ %_26, %bb5 ]
  %_31 = icmp ne ptr %left.sroa.0.1, %5
  %_32 = icmp ne ptr %right.sroa.0.1, %6
  %or.cond = select i1 %_31, i1 true, i1 %_32
  br i1 %or.cond, label %bb13, label %bb14, !prof !718

bb14:                                             ; preds = %bb9
  ret void

bb13:                                             ; preds = %bb9
; call core::slice::sort::shared::smallsort::panic_on_ord_violation
  tail call void @_ZN4core5slice4sort6shared9smallsort22panic_on_ord_violation17hc77a22a2d50782cdE() #32
  unreachable
}

; core::slice::sort::shared::smallsort::insertion_sort_shift_left
; Function Attrs: nounwind nonlazybind memory(argmem: readwrite, inaccessiblemem: readwrite) uwtable
define void @_ZN4core5slice4sort6shared9smallsort25insertion_sort_shift_left17h66e929b23f8108b6E(ptr noalias noundef nonnull align 4 captures(address) %v.0, i64 noundef range(i64 0, 2305843009213693952) %v.1, i64 noundef %offset, ptr noalias readnone align 8 captures(none) %is_less) unnamed_addr #7 personality ptr @rust_eh_personality {
start:
  %0 = add i64 %offset, -1
  %or.cond.not = icmp ult i64 %0, %v.1
  br i1 %or.cond.not, label %bb3, label %bb2

bb2:                                              ; preds = %start
  tail call void @llvm.trap()
  unreachable

bb3:                                              ; preds = %start
  %v_end = getelementptr inbounds nuw i32, ptr %v.0, i64 %v.1
  %_11.not1 = icmp samesign eq i64 %offset, %v.1
  br i1 %_11.not1, label %bb7, label %bb5.preheader

bb5.preheader:                                    ; preds = %bb3
  %1 = getelementptr inbounds nuw i32, ptr %v.0, i64 %offset
  br label %bb5

bb7:                                              ; preds = %_ZN4core5slice4sort6shared9smallsort11insert_tail17h799a674e80d07974E.exit, %bb3
  ret void

bb5:                                              ; preds = %bb5.preheader, %_ZN4core5slice4sort6shared9smallsort11insert_tail17h799a674e80d07974E.exit
  %tail.sroa.0.02 = phi ptr [ %_15, %_ZN4core5slice4sort6shared9smallsort11insert_tail17h799a674e80d07974E.exit ], [ %1, %bb5.preheader ]
  %2 = getelementptr inbounds i8, ptr %tail.sroa.0.02, i64 -4
  tail call void @llvm.experimental.noalias.scope.decl(metadata !777)
  tail call void @llvm.experimental.noalias.scope.decl(metadata !780)
  tail call void @llvm.experimental.noalias.scope.decl(metadata !782)
  tail call void @llvm.experimental.noalias.scope.decl(metadata !785)
  tail call void @llvm.experimental.noalias.scope.decl(metadata !787)
  tail call void @llvm.experimental.noalias.scope.decl(metadata !790)
  tail call void @llvm.experimental.noalias.scope.decl(metadata !792)
  tail call void @llvm.experimental.noalias.scope.decl(metadata !795)
  %_3.i.i.i.i.i = load i32, ptr %tail.sroa.0.02, align 4, !alias.scope !797, !noalias !798, !noundef !11
  %_4.i.i.i.i.i = load i32, ptr %2, align 4, !alias.scope !798, !noalias !797, !noundef !11
  %_0.i.i = icmp slt i32 %_3.i.i.i.i.i, %_4.i.i.i.i.i
  br i1 %_0.i.i, label %bb4.i, label %_ZN4core5slice4sort6shared9smallsort11insert_tail17h799a674e80d07974E.exit

bb4.i:                                            ; preds = %bb5, %bb6.i
  %gap_guard.sroa.5.0.i = phi ptr [ %sift.sroa.0.0.i, %bb6.i ], [ %tail.sroa.0.02, %bb5 ]
  %sift.sroa.0.0.i = phi ptr [ %4, %bb6.i ], [ %2, %bb5 ]
  %3 = load i32, ptr %sift.sroa.0.0.i, align 4
  store i32 %3, ptr %gap_guard.sroa.5.0.i, align 4
  %_18.i = icmp eq ptr %sift.sroa.0.0.i, %v.0
  br i1 %_18.i, label %bb10.i, label %bb6.i

bb6.i:                                            ; preds = %bb4.i
  %4 = getelementptr inbounds i8, ptr %sift.sroa.0.0.i, i64 -4
  %_4.i.i.i.i2.i = load i32, ptr %4, align 4, !alias.scope !799, !noalias !808, !noundef !11
  %_0.i3.i = icmp slt i32 %_3.i.i.i.i.i, %_4.i.i.i.i2.i
  br i1 %_0.i3.i, label %bb4.i, label %bb10.i

bb10.i:                                           ; preds = %bb6.i, %bb4.i
  store i32 %_3.i.i.i.i.i, ptr %sift.sroa.0.0.i, align 4, !noalias !813
  br label %_ZN4core5slice4sort6shared9smallsort11insert_tail17h799a674e80d07974E.exit

_ZN4core5slice4sort6shared9smallsort11insert_tail17h799a674e80d07974E.exit: ; preds = %bb5, %bb10.i
  %_15 = getelementptr inbounds nuw i8, ptr %tail.sroa.0.02, i64 4
  %_11.not = icmp eq ptr %_15, %v_end
  br i1 %_11.not, label %bb7, label %bb5
}

; core::slice::sort::shared::smallsort::small_sort_general_with_scratch
; Function Attrs: nonlazybind uwtable
define void @_ZN4core5slice4sort6shared9smallsort31small_sort_general_with_scratch17h073f17f73449f968E(ptr noalias noundef nonnull align 4 captures(none) %v.0, i64 noundef range(i64 0, 2305843009213693952) %v.1, ptr noalias noundef nonnull align 4 captures(address) %scratch.0, i64 noundef range(i64 0, 2305843009213693952) %scratch.1, ptr noalias readnone align 8 captures(none) %is_less) unnamed_addr #0 personality ptr @rust_eh_personality {
start:
  %iter = alloca [32 x i8], align 8
  %_5 = icmp samesign ult i64 %v.1, 2
  br i1 %_5, label %bb29, label %bb2

bb2:                                              ; preds = %start
  %_8 = add nuw nsw i64 %v.1, 16
  %_6 = icmp samesign ult i64 %scratch.1, %_8
  br i1 %_6, label %bb3, label %bb4

bb4:                                              ; preds = %bb2
  %len_div_211 = lshr i64 %v.1, 1
  %_14 = icmp samesign ugt i64 %v.1, 15
  br i1 %_14, label %bb6, label %bb9

bb3:                                              ; preds = %bb2
  tail call void @llvm.trap()
  unreachable

bb9:                                              ; preds = %bb4
  %_22 = icmp samesign ugt i64 %v.1, 7
  br i1 %_22, label %bb10, label %bb46

bb6:                                              ; preds = %bb4
  %_16 = getelementptr inbounds nuw i32, ptr %scratch.0, i64 %v.1
; call core::slice::sort::shared::smallsort::sort8_stable
  tail call void @_ZN4core5slice4sort6shared9smallsort12sort8_stable17h53ffbf5e0faa3efeE(ptr noundef nonnull %v.0, ptr noundef nonnull %scratch.0, ptr noundef nonnull %_16, ptr noalias align 8 poison)
  %_18 = getelementptr inbounds nuw i32, ptr %v.0, i64 %len_div_211
  %_19 = getelementptr inbounds nuw i32, ptr %scratch.0, i64 %len_div_211
  %_20 = getelementptr inbounds nuw i8, ptr %_16, i64 32
; call core::slice::sort::shared::smallsort::sort8_stable
  tail call void @_ZN4core5slice4sort6shared9smallsort12sort8_stable17h53ffbf5e0faa3efeE(ptr noundef nonnull %_18, ptr noundef nonnull %_19, ptr noundef nonnull %_20, ptr noalias align 8 poison)
  br label %bb15

bb10:                                             ; preds = %bb9
  %_7.i = getelementptr inbounds nuw i8, ptr %v.0, i64 4
  tail call void @llvm.experimental.noalias.scope.decl(metadata !818)
  tail call void @llvm.experimental.noalias.scope.decl(metadata !821)
  tail call void @llvm.experimental.noalias.scope.decl(metadata !823)
  tail call void @llvm.experimental.noalias.scope.decl(metadata !826)
  tail call void @llvm.experimental.noalias.scope.decl(metadata !828)
  tail call void @llvm.experimental.noalias.scope.decl(metadata !831)
  tail call void @llvm.experimental.noalias.scope.decl(metadata !833)
  tail call void @llvm.experimental.noalias.scope.decl(metadata !836)
  %_3.i.i.i.i.i = load i32, ptr %_7.i, align 4, !alias.scope !838, !noalias !839, !noundef !11
  %_4.i.i.i.i.i = load i32, ptr %v.0, align 4, !alias.scope !839, !noalias !838, !noundef !11
  %_0.i.i = icmp slt i32 %_3.i.i.i.i.i, %_4.i.i.i.i.i
  %_12.i = getelementptr inbounds nuw i8, ptr %v.0, i64 12
  %_14.i = getelementptr inbounds nuw i8, ptr %v.0, i64 8
  tail call void @llvm.experimental.noalias.scope.decl(metadata !840)
  tail call void @llvm.experimental.noalias.scope.decl(metadata !843)
  tail call void @llvm.experimental.noalias.scope.decl(metadata !845)
  tail call void @llvm.experimental.noalias.scope.decl(metadata !848)
  tail call void @llvm.experimental.noalias.scope.decl(metadata !850)
  tail call void @llvm.experimental.noalias.scope.decl(metadata !853)
  tail call void @llvm.experimental.noalias.scope.decl(metadata !855)
  tail call void @llvm.experimental.noalias.scope.decl(metadata !858)
  %_3.i.i.i.i7.i = load i32, ptr %_12.i, align 4, !alias.scope !860, !noalias !861, !noundef !11
  %_4.i.i.i.i8.i = load i32, ptr %_14.i, align 4, !alias.scope !861, !noalias !860, !noundef !11
  %_0.i9.i = icmp slt i32 %_3.i.i.i.i7.i, %_4.i.i.i.i8.i
  %count.i = zext i1 %_0.i.i to i64
  %a.i = getelementptr inbounds nuw i32, ptr %v.0, i64 %count.i
  %_19.i = xor i1 %_0.i.i, true
  %count2.i = zext i1 %_19.i to i64
  %b.i = getelementptr inbounds nuw i32, ptr %v.0, i64 %count2.i
  %count3.i = select i1 %_0.i9.i, i64 3, i64 2
  %c.i = getelementptr inbounds nuw i32, ptr %v.0, i64 %count3.i
  %count4.i = select i1 %_0.i9.i, i64 2, i64 3
  %d.i = getelementptr inbounds nuw i32, ptr %v.0, i64 %count4.i
  tail call void @llvm.experimental.noalias.scope.decl(metadata !862)
  tail call void @llvm.experimental.noalias.scope.decl(metadata !865)
  tail call void @llvm.experimental.noalias.scope.decl(metadata !867)
  tail call void @llvm.experimental.noalias.scope.decl(metadata !870)
  tail call void @llvm.experimental.noalias.scope.decl(metadata !872)
  tail call void @llvm.experimental.noalias.scope.decl(metadata !875)
  tail call void @llvm.experimental.noalias.scope.decl(metadata !877)
  tail call void @llvm.experimental.noalias.scope.decl(metadata !880)
  %_3.i.i.i.i10.i = load i32, ptr %c.i, align 4, !alias.scope !882, !noalias !883, !noundef !11
  %_4.i.i.i.i11.i = load i32, ptr %a.i, align 4, !alias.scope !883, !noalias !882, !noundef !11
  %_0.i12.i = icmp slt i32 %_3.i.i.i.i10.i, %_4.i.i.i.i11.i
  tail call void @llvm.experimental.noalias.scope.decl(metadata !884)
  tail call void @llvm.experimental.noalias.scope.decl(metadata !887)
  tail call void @llvm.experimental.noalias.scope.decl(metadata !889)
  tail call void @llvm.experimental.noalias.scope.decl(metadata !892)
  tail call void @llvm.experimental.noalias.scope.decl(metadata !894)
  tail call void @llvm.experimental.noalias.scope.decl(metadata !897)
  tail call void @llvm.experimental.noalias.scope.decl(metadata !899)
  tail call void @llvm.experimental.noalias.scope.decl(metadata !902)
  %_3.i.i.i.i13.i = load i32, ptr %d.i, align 4, !alias.scope !904, !noalias !905, !noundef !11
  %_4.i.i.i.i14.i = load i32, ptr %b.i, align 4, !alias.scope !905, !noalias !904, !noundef !11
  %_0.i15.i = icmp slt i32 %_3.i.i.i.i13.i, %_4.i.i.i.i14.i
  %0 = select i1 %_0.i12.i, ptr %c.i, ptr %a.i, !unpredictable !11
  %1 = select i1 %_0.i15.i, ptr %c.i, ptr %b.i, !unpredictable !11
  %2 = select i1 %_0.i12.i, ptr %a.i, ptr %1, !unpredictable !11
  %3 = select i1 %_0.i12.i, ptr %b.i, ptr %c.i, !unpredictable !11
  %4 = select i1 %_0.i15.i, ptr %d.i, ptr %3, !unpredictable !11
  tail call void @llvm.experimental.noalias.scope.decl(metadata !906)
  tail call void @llvm.experimental.noalias.scope.decl(metadata !909)
  tail call void @llvm.experimental.noalias.scope.decl(metadata !911)
  tail call void @llvm.experimental.noalias.scope.decl(metadata !914)
  tail call void @llvm.experimental.noalias.scope.decl(metadata !916)
  tail call void @llvm.experimental.noalias.scope.decl(metadata !919)
  tail call void @llvm.experimental.noalias.scope.decl(metadata !921)
  tail call void @llvm.experimental.noalias.scope.decl(metadata !924)
  %_3.i.i.i.i16.i = load i32, ptr %4, align 4, !alias.scope !926, !noalias !927, !noundef !11
  %_4.i.i.i.i17.i = load i32, ptr %2, align 4, !alias.scope !927, !noalias !926, !noundef !11
  %5 = load i32, ptr %0, align 4
  store i32 %5, ptr %scratch.0, align 4
  %dst5.i = getelementptr inbounds nuw i8, ptr %scratch.0, i64 4
  %6 = tail call i32 @llvm.smin.i32(i32 %_3.i.i.i.i16.i, i32 %_4.i.i.i.i17.i)
  store i32 %6, ptr %dst5.i, align 4
  %dst6.i = getelementptr inbounds nuw i8, ptr %scratch.0, i64 8
  %7 = tail call i32 @llvm.smax.i32(i32 %_3.i.i.i.i16.i, i32 %_4.i.i.i.i17.i)
  store i32 %7, ptr %dst6.i, align 4
  %8 = getelementptr inbounds nuw i8, ptr %scratch.0, i64 12
  %9 = tail call i32 @llvm.smax.i32(i32 %_3.i.i.i.i13.i, i32 %_4.i.i.i.i14.i)
  store i32 %9, ptr %8, align 4
  %_27 = getelementptr inbounds nuw i32, ptr %v.0, i64 %len_div_211
  %_28 = getelementptr inbounds nuw i32, ptr %scratch.0, i64 %len_div_211
  %_7.i13 = getelementptr inbounds nuw i8, ptr %_27, i64 4
  tail call void @llvm.experimental.noalias.scope.decl(metadata !928)
  tail call void @llvm.experimental.noalias.scope.decl(metadata !931)
  tail call void @llvm.experimental.noalias.scope.decl(metadata !933)
  tail call void @llvm.experimental.noalias.scope.decl(metadata !936)
  tail call void @llvm.experimental.noalias.scope.decl(metadata !938)
  tail call void @llvm.experimental.noalias.scope.decl(metadata !941)
  tail call void @llvm.experimental.noalias.scope.decl(metadata !943)
  tail call void @llvm.experimental.noalias.scope.decl(metadata !946)
  %_3.i.i.i.i.i14 = load i32, ptr %_7.i13, align 4, !alias.scope !948, !noalias !949, !noundef !11
  %_4.i.i.i.i.i15 = load i32, ptr %_27, align 4, !alias.scope !949, !noalias !948, !noundef !11
  %_0.i.i16 = icmp slt i32 %_3.i.i.i.i.i14, %_4.i.i.i.i.i15
  %_12.i17 = getelementptr inbounds nuw i8, ptr %_27, i64 12
  %_14.i18 = getelementptr inbounds nuw i8, ptr %_27, i64 8
  tail call void @llvm.experimental.noalias.scope.decl(metadata !950)
  tail call void @llvm.experimental.noalias.scope.decl(metadata !953)
  tail call void @llvm.experimental.noalias.scope.decl(metadata !955)
  tail call void @llvm.experimental.noalias.scope.decl(metadata !958)
  tail call void @llvm.experimental.noalias.scope.decl(metadata !960)
  tail call void @llvm.experimental.noalias.scope.decl(metadata !963)
  tail call void @llvm.experimental.noalias.scope.decl(metadata !965)
  tail call void @llvm.experimental.noalias.scope.decl(metadata !968)
  %_3.i.i.i.i7.i19 = load i32, ptr %_12.i17, align 4, !alias.scope !970, !noalias !971, !noundef !11
  %_4.i.i.i.i8.i20 = load i32, ptr %_14.i18, align 4, !alias.scope !971, !noalias !970, !noundef !11
  %_0.i9.i21 = icmp slt i32 %_3.i.i.i.i7.i19, %_4.i.i.i.i8.i20
  %count.i22 = zext i1 %_0.i.i16 to i64
  %a.i23 = getelementptr inbounds nuw i32, ptr %_27, i64 %count.i22
  %_19.i24 = xor i1 %_0.i.i16, true
  %count2.i25 = zext i1 %_19.i24 to i64
  %b.i26 = getelementptr inbounds nuw i32, ptr %_27, i64 %count2.i25
  %count3.i27 = select i1 %_0.i9.i21, i64 3, i64 2
  %c.i28 = getelementptr inbounds nuw i32, ptr %_27, i64 %count3.i27
  %count4.i29 = select i1 %_0.i9.i21, i64 2, i64 3
  %d.i30 = getelementptr inbounds nuw i32, ptr %_27, i64 %count4.i29
  tail call void @llvm.experimental.noalias.scope.decl(metadata !972)
  tail call void @llvm.experimental.noalias.scope.decl(metadata !975)
  tail call void @llvm.experimental.noalias.scope.decl(metadata !977)
  tail call void @llvm.experimental.noalias.scope.decl(metadata !980)
  tail call void @llvm.experimental.noalias.scope.decl(metadata !982)
  tail call void @llvm.experimental.noalias.scope.decl(metadata !985)
  tail call void @llvm.experimental.noalias.scope.decl(metadata !987)
  tail call void @llvm.experimental.noalias.scope.decl(metadata !990)
  %_3.i.i.i.i10.i31 = load i32, ptr %c.i28, align 4, !alias.scope !992, !noalias !993, !noundef !11
  %_4.i.i.i.i11.i32 = load i32, ptr %a.i23, align 4, !alias.scope !993, !noalias !992, !noundef !11
  %_0.i12.i33 = icmp slt i32 %_3.i.i.i.i10.i31, %_4.i.i.i.i11.i32
  tail call void @llvm.experimental.noalias.scope.decl(metadata !994)
  tail call void @llvm.experimental.noalias.scope.decl(metadata !997)
  tail call void @llvm.experimental.noalias.scope.decl(metadata !999)
  tail call void @llvm.experimental.noalias.scope.decl(metadata !1002)
  tail call void @llvm.experimental.noalias.scope.decl(metadata !1004)
  tail call void @llvm.experimental.noalias.scope.decl(metadata !1007)
  tail call void @llvm.experimental.noalias.scope.decl(metadata !1009)
  tail call void @llvm.experimental.noalias.scope.decl(metadata !1012)
  %_3.i.i.i.i13.i34 = load i32, ptr %d.i30, align 4, !alias.scope !1014, !noalias !1015, !noundef !11
  %_4.i.i.i.i14.i35 = load i32, ptr %b.i26, align 4, !alias.scope !1015, !noalias !1014, !noundef !11
  %_0.i15.i36 = icmp slt i32 %_3.i.i.i.i13.i34, %_4.i.i.i.i14.i35
  %10 = select i1 %_0.i12.i33, ptr %c.i28, ptr %a.i23, !unpredictable !11
  %11 = select i1 %_0.i15.i36, ptr %c.i28, ptr %b.i26, !unpredictable !11
  %12 = select i1 %_0.i12.i33, ptr %a.i23, ptr %11, !unpredictable !11
  %13 = select i1 %_0.i12.i33, ptr %b.i26, ptr %c.i28, !unpredictable !11
  %14 = select i1 %_0.i15.i36, ptr %d.i30, ptr %13, !unpredictable !11
  tail call void @llvm.experimental.noalias.scope.decl(metadata !1016)
  tail call void @llvm.experimental.noalias.scope.decl(metadata !1019)
  tail call void @llvm.experimental.noalias.scope.decl(metadata !1021)
  tail call void @llvm.experimental.noalias.scope.decl(metadata !1024)
  tail call void @llvm.experimental.noalias.scope.decl(metadata !1026)
  tail call void @llvm.experimental.noalias.scope.decl(metadata !1029)
  tail call void @llvm.experimental.noalias.scope.decl(metadata !1031)
  tail call void @llvm.experimental.noalias.scope.decl(metadata !1034)
  %_3.i.i.i.i16.i37 = load i32, ptr %14, align 4, !alias.scope !1036, !noalias !1037, !noundef !11
  %_4.i.i.i.i17.i38 = load i32, ptr %12, align 4, !alias.scope !1037, !noalias !1036, !noundef !11
  %15 = load i32, ptr %10, align 4
  store i32 %15, ptr %_28, align 4
  %dst5.i40 = getelementptr inbounds nuw i8, ptr %_28, i64 4
  %16 = tail call i32 @llvm.smin.i32(i32 %_3.i.i.i.i16.i37, i32 %_4.i.i.i.i17.i38)
  store i32 %16, ptr %dst5.i40, align 4
  %dst6.i43 = getelementptr inbounds nuw i8, ptr %_28, i64 8
  %17 = tail call i32 @llvm.smax.i32(i32 %_3.i.i.i.i16.i37, i32 %_4.i.i.i.i17.i38)
  store i32 %17, ptr %dst6.i43, align 4
  %18 = getelementptr inbounds nuw i8, ptr %_28, i64 12
  %19 = tail call i32 @llvm.smax.i32(i32 %_3.i.i.i.i13.i34, i32 %_4.i.i.i.i14.i35)
  store i32 %19, ptr %18, align 4
  br label %bb15

bb46:                                             ; preds = %bb9
  %20 = load i32, ptr %v.0, align 4
  store i32 %20, ptr %scratch.0, align 4
  %_31 = getelementptr inbounds nuw i32, ptr %v.0, i64 %len_div_211
  %21 = getelementptr inbounds nuw i32, ptr %scratch.0, i64 %len_div_211
  %22 = load i32, ptr %_31, align 4
  store i32 %22, ptr %21, align 4
  br label %bb15

bb15:                                             ; preds = %bb46, %bb10, %bb6
  %presorted_len.sroa.0.0 = phi i64 [ 8, %bb6 ], [ 4, %bb10 ], [ 1, %bb46 ]
  call void @llvm.lifetime.start.p0(i64 32, ptr nonnull %iter)
  store i64 0, ptr %iter, align 8
  %_37.sroa.4.0.iter.sroa_idx = getelementptr inbounds nuw i8, ptr %iter, i64 8
  store i64 2, ptr %_37.sroa.4.0.iter.sroa_idx, align 8
  %_37.sroa.5.0.iter.sroa_idx = getelementptr inbounds nuw i8, ptr %iter, i64 16
  store i64 0, ptr %_37.sroa.5.0.iter.sroa_idx, align 8
  %_37.sroa.6.0.iter.sroa_idx = getelementptr inbounds nuw i8, ptr %iter, i64 24
  store i64 %len_div_211, ptr %_37.sroa.6.0.iter.sroa_idx, align 8
  %23 = sub nsw i64 %v.1, %len_div_211
  %iter1.sroa.0.161 = add nuw nsw i64 %presorted_len.sroa.0.0, 1
  br label %bb16

bb16:                                             ; preds = %bb16.backedge, %bb15
  %24 = phi i64 [ 0, %bb15 ], [ %25, %bb16.backedge ]
  %_5.not.i.not = icmp eq i64 %24, 2
  br i1 %_5.not.i.not, label %"_ZN4core5array4iter10iter_inner78PolymorphicIter$LT$$u5b$core..mem..maybe_uninit..MaybeUninit$LT$T$GT$$u5d$$GT$4next17h3bbb43efa7a139c7E.exit", label %bb1.i

bb1.i:                                            ; preds = %bb16
  %_11.i = add nuw nsw i64 %24, 1
  store i64 %_11.i, ptr %iter, align 8, !alias.scope !1038
  %_20.i = icmp ult i64 %24, 2
  tail call void @llvm.assume(i1 %_20.i)
  %self3.i = getelementptr inbounds nuw i64, ptr %_37.sroa.5.0.iter.sroa_idx, i64 %24
  %_15.i = load i64, ptr %self3.i, align 8, !alias.scope !1038, !noundef !11
  br label %"_ZN4core5array4iter10iter_inner78PolymorphicIter$LT$$u5b$core..mem..maybe_uninit..MaybeUninit$LT$T$GT$$u5d$$GT$4next17h3bbb43efa7a139c7E.exit"

"_ZN4core5array4iter10iter_inner78PolymorphicIter$LT$$u5b$core..mem..maybe_uninit..MaybeUninit$LT$T$GT$$u5d$$GT$4next17h3bbb43efa7a139c7E.exit": ; preds = %bb16, %bb1.i
  %25 = phi i64 [ %_11.i, %bb1.i ], [ %24, %bb16 ]
  %_0.sroa.3.0.i = phi i64 [ %_15.i, %bb1.i ], [ undef, %bb16 ]
  br i1 %_5.not.i.not, label %bb19, label %bb18

bb18:                                             ; preds = %"_ZN4core5array4iter10iter_inner78PolymorphicIter$LT$$u5b$core..mem..maybe_uninit..MaybeUninit$LT$T$GT$$u5d$$GT$4next17h3bbb43efa7a139c7E.exit"
  %src5 = getelementptr inbounds nuw i32, ptr %v.0, i64 %_0.sroa.3.0.i
  %dst6 = getelementptr inbounds nuw i32, ptr %scratch.0, i64 %_0.sroa.3.0.i
  %_47 = icmp eq i64 %_0.sroa.3.0.i, 0
  %desired_len.sroa.0.0 = select i1 %_47, i64 %len_div_211, i64 %23
  %_8059 = icmp ult i64 %presorted_len.sroa.0.0, %desired_len.sroa.0.0
  br i1 %_8059, label %bb24, label %bb16.backedge

bb16.backedge:                                    ; preds = %_ZN4core5slice4sort6shared9smallsort11insert_tail17h799a674e80d07974E.exit, %bb18
  br label %bb16

bb19:                                             ; preds = %"_ZN4core5array4iter10iter_inner78PolymorphicIter$LT$$u5b$core..mem..maybe_uninit..MaybeUninit$LT$T$GT$$u5d$$GT$4next17h3bbb43efa7a139c7E.exit"
  call void @llvm.lifetime.end.p0(i64 32, ptr nonnull %iter)
  tail call void @llvm.experimental.noalias.scope.decl(metadata !1041)
  %count1.i = add nsw i64 %v.1, -1
  %26 = getelementptr inbounds nuw i32, ptr %v.0, i64 %count1.i
  %27 = getelementptr inbounds nuw i32, ptr %scratch.0, i64 %count1.i
  %28 = getelementptr i32, ptr %scratch.0, i64 %len_div_211
  %29 = getelementptr i8, ptr %28, i64 -4
  br label %bb15.i

bb16.i:                                           ; preds = %bb15.i
  %30 = getelementptr i8, ptr %35, i64 4
  %31 = getelementptr i8, ptr %34, i64 4
  %_44.i = and i64 %v.1, 1
  %_22.i = icmp eq i64 %_44.i, 0
  br i1 %_22.i, label %bb9.i, label %bb5.i

bb15.i:                                           ; preds = %bb15.i, %bb19
  %dst.sroa.0.029.i = phi ptr [ %_16.i.i, %bb15.i ], [ %v.0, %bb19 ]
  %iter.sroa.0.028.i = phi i64 [ %_39.i, %bb15.i ], [ 0, %bb19 ]
  %left.sroa.0.027.i = phi ptr [ %_14.i.i, %bb15.i ], [ %scratch.0, %bb19 ]
  %right.sroa.0.026.i = phi ptr [ %_12.i.i, %bb15.i ], [ %28, %bb19 ]
  %left_rev.sroa.0.025.i = phi ptr [ %35, %bb15.i ], [ %29, %bb19 ]
  %right_rev.sroa.0.024.i = phi ptr [ %34, %bb15.i ], [ %27, %bb19 ]
  %dst_rev.sroa.0.023.i = phi ptr [ %36, %bb15.i ], [ %26, %bb19 ]
  %_39.i = add nuw nsw i64 %iter.sroa.0.028.i, 1
  tail call void @llvm.experimental.noalias.scope.decl(metadata !1044)
  tail call void @llvm.experimental.noalias.scope.decl(metadata !1047)
  tail call void @llvm.experimental.noalias.scope.decl(metadata !1049), !noalias !1052
  tail call void @llvm.experimental.noalias.scope.decl(metadata !1055), !noalias !1052
  tail call void @llvm.experimental.noalias.scope.decl(metadata !1057), !noalias !1052
  tail call void @llvm.experimental.noalias.scope.decl(metadata !1060), !noalias !1052
  tail call void @llvm.experimental.noalias.scope.decl(metadata !1062), !noalias !1052
  tail call void @llvm.experimental.noalias.scope.decl(metadata !1065), !noalias !1052
  %_3.i.i.i.i.i49 = load i32, ptr %right.sroa.0.026.i, align 4, !alias.scope !1067, !noalias !1068, !noundef !11
  %_4.i.i.i.i.i50 = load i32, ptr %left.sroa.0.027.i, align 4, !alias.scope !1069, !noalias !1070, !noundef !11
  %_0.i.i51 = icmp slt i32 %_3.i.i.i.i.i49, %_4.i.i.i.i.i50
  %is_l.i18.i = xor i1 %_0.i.i51, true
  %32 = tail call i32 @llvm.smin.i32(i32 %_3.i.i.i.i.i49, i32 %_4.i.i.i.i.i50)
  store i32 %32, ptr %dst.sroa.0.029.i, align 4, !noalias !1071
  %count.i.i = zext i1 %_0.i.i51 to i64
  %_12.i.i = getelementptr inbounds nuw i32, ptr %right.sroa.0.026.i, i64 %count.i.i
  %count2.i.i = zext i1 %is_l.i18.i to i64
  %_14.i.i = getelementptr inbounds nuw i32, ptr %left.sroa.0.027.i, i64 %count2.i.i
  %_16.i.i = getelementptr inbounds nuw i8, ptr %dst.sroa.0.029.i, i64 4
  tail call void @llvm.experimental.noalias.scope.decl(metadata !1073)
  tail call void @llvm.experimental.noalias.scope.decl(metadata !1076)
  tail call void @llvm.experimental.noalias.scope.decl(metadata !1078), !noalias !1081
  tail call void @llvm.experimental.noalias.scope.decl(metadata !1084), !noalias !1081
  tail call void @llvm.experimental.noalias.scope.decl(metadata !1086), !noalias !1081
  tail call void @llvm.experimental.noalias.scope.decl(metadata !1089), !noalias !1081
  tail call void @llvm.experimental.noalias.scope.decl(metadata !1091), !noalias !1081
  tail call void @llvm.experimental.noalias.scope.decl(metadata !1094), !noalias !1081
  %_3.i.i.i.i19.i = load i32, ptr %right_rev.sroa.0.024.i, align 4, !alias.scope !1096, !noalias !1097, !noundef !11
  %_4.i.i.i.i20.i = load i32, ptr %left_rev.sroa.0.025.i, align 4, !alias.scope !1098, !noalias !1099, !noundef !11
  %_0.i21.i = icmp slt i32 %_3.i.i.i.i19.i, %_4.i.i.i.i20.i
  %is_l.i.i = xor i1 %_0.i21.i, true
  %33 = tail call i32 @llvm.smax.i32(i32 %_3.i.i.i.i19.i, i32 %_4.i.i.i.i20.i)
  store i32 %33, ptr %dst_rev.sroa.0.023.i, align 4, !noalias !1100
  %count.neg.i.i = sext i1 %is_l.i.i to i64
  %34 = getelementptr i32, ptr %right_rev.sroa.0.024.i, i64 %count.neg.i.i
  %count3.neg.i.i = sext i1 %_0.i21.i to i64
  %35 = getelementptr i32, ptr %left_rev.sroa.0.025.i, i64 %count3.neg.i.i
  %36 = getelementptr inbounds i8, ptr %dst_rev.sroa.0.023.i, i64 -4
  %exitcond.not.i = icmp eq i64 %_39.i, %len_div_211
  br i1 %exitcond.not.i, label %bb16.i, label %bb15.i

bb5.i:                                            ; preds = %bb16.i
  %left_nonempty.i = icmp ult ptr %_14.i.i, %30
  %left.sroa.0.0.right.sroa.0.0.i = select i1 %left_nonempty.i, ptr %_14.i.i, ptr %_12.i.i
  %37 = load i32, ptr %left.sroa.0.0.right.sroa.0.0.i, align 4, !alias.scope !1041
  store i32 %37, ptr %_16.i.i, align 4, !noalias !1041
  %count2.i52 = zext i1 %left_nonempty.i to i64
  %_26.i = getelementptr inbounds nuw i32, ptr %_14.i.i, i64 %count2.i52
  %_30.i = xor i1 %left_nonempty.i, true
  %count3.i53 = zext i1 %_30.i to i64
  %_28.i = getelementptr inbounds nuw i32, ptr %_12.i.i, i64 %count3.i53
  br label %bb9.i

bb9.i:                                            ; preds = %bb5.i, %bb16.i
  %right.sroa.0.1.i = phi ptr [ %_12.i.i, %bb16.i ], [ %_28.i, %bb5.i ]
  %left.sroa.0.1.i = phi ptr [ %_14.i.i, %bb16.i ], [ %_26.i, %bb5.i ]
  %_31.i = icmp ne ptr %left.sroa.0.1.i, %30
  %_32.i = icmp ne ptr %right.sroa.0.1.i, %31
  %or.cond.i = select i1 %_31.i, i1 true, i1 %_32.i
  br i1 %or.cond.i, label %bb13.i, label %bb29, !prof !718

bb13.i:                                           ; preds = %bb9.i
; invoke core::slice::sort::shared::smallsort::panic_on_ord_violation
  invoke void @_ZN4core5slice4sort6shared9smallsort22panic_on_ord_violation17hc77a22a2d50782cdE() #32
          to label %.noexc unwind label %cleanup2

.noexc:                                           ; preds = %bb13.i
  unreachable

cleanup2:                                         ; preds = %bb13.i
  %38 = landingpad { ptr, i32 }
          cleanup
  %39 = shl nuw nsw i64 %v.1, 2
  tail call void @llvm.memcpy.p0.p0.i64(ptr nonnull align 4 %v.0, ptr nonnull align 4 %scratch.0, i64 %39, i1 false), !noalias !1102
  resume { ptr, i32 } %38

bb29:                                             ; preds = %bb9.i, %start
  ret void

bb24:                                             ; preds = %bb18, %_ZN4core5slice4sort6shared9smallsort11insert_tail17h799a674e80d07974E.exit
  %iter1.sroa.0.163 = phi i64 [ %iter1.sroa.0.1, %_ZN4core5slice4sort6shared9smallsort11insert_tail17h799a674e80d07974E.exit ], [ %iter1.sroa.0.161, %bb18 ]
  %iter1.sroa.0.062 = phi i64 [ %iter1.sroa.0.163, %_ZN4core5slice4sort6shared9smallsort11insert_tail17h799a674e80d07974E.exit ], [ %presorted_len.sroa.0.0, %bb18 ]
  %_55 = getelementptr inbounds nuw i32, ptr %src5, i64 %iter1.sroa.0.062
  %dst7 = getelementptr inbounds nuw i32, ptr %dst6, i64 %iter1.sroa.0.062
  %40 = load i32, ptr %_55, align 4
  store i32 %40, ptr %dst7, align 4
  %41 = getelementptr inbounds i8, ptr %dst7, i64 -4
  %_4.i.i.i.i.i56 = load i32, ptr %41, align 4, !alias.scope !1107, !noalias !1116, !noundef !11
  %_0.i.i57 = icmp slt i32 %40, %_4.i.i.i.i.i56
  br i1 %_0.i.i57, label %bb4.i, label %_ZN4core5slice4sort6shared9smallsort11insert_tail17h799a674e80d07974E.exit

bb4.i:                                            ; preds = %bb24, %bb6.i
  %gap_guard.sroa.5.0.i = phi ptr [ %sift.sroa.0.0.i, %bb6.i ], [ %dst7, %bb24 ]
  %sift.sroa.0.0.i = phi ptr [ %43, %bb6.i ], [ %41, %bb24 ]
  %42 = load i32, ptr %sift.sroa.0.0.i, align 4
  store i32 %42, ptr %gap_guard.sroa.5.0.i, align 4
  %_18.i = icmp eq ptr %sift.sroa.0.0.i, %dst6
  br i1 %_18.i, label %bb10.i, label %bb6.i

bb6.i:                                            ; preds = %bb4.i
  %43 = getelementptr inbounds i8, ptr %sift.sroa.0.0.i, i64 -4
  %_4.i.i.i.i2.i = load i32, ptr %43, align 4, !alias.scope !1121, !noalias !1130, !noundef !11
  %_0.i3.i = icmp slt i32 %40, %_4.i.i.i.i2.i
  br i1 %_0.i3.i, label %bb4.i, label %bb10.i

bb10.i:                                           ; preds = %bb6.i, %bb4.i
  store i32 %40, ptr %sift.sroa.0.0.i, align 4, !noalias !1135
  br label %_ZN4core5slice4sort6shared9smallsort11insert_tail17h799a674e80d07974E.exit

_ZN4core5slice4sort6shared9smallsort11insert_tail17h799a674e80d07974E.exit: ; preds = %bb24, %bb10.i
  %_80 = icmp ult i64 %iter1.sroa.0.163, %desired_len.sroa.0.0
  %_84 = zext i1 %_80 to i64
  %iter1.sroa.0.1 = add nuw i64 %iter1.sroa.0.163, %_84
  br i1 %_80, label %bb24, label %bb16.backedge
}

; core::slice::sort::stable::driftsort_main
; Function Attrs: noinline nonlazybind uwtable
define void @_ZN4core5slice4sort6stable14driftsort_main17hd35de4adb83fad78E(ptr noalias noundef nonnull align 4 %v.0, i64 noundef range(i64 0, 2305843009213693952) %v.1, ptr noalias noundef align 8 dereferenceable(8) %is_less) unnamed_addr #8 personality ptr @rust_eh_personality {
start:
  %_4.i.i = alloca [24 x i8], align 8
  %heap_buf = alloca [24 x i8], align 8
  %stack_buf = alloca [4096 x i8], align 4
  %_105 = lshr i64 %v.1, 1
  %v1 = sub nsw i64 %v.1, %_105
  %_0.sroa.0.0.i = tail call noundef i64 @llvm.umin.i64(i64 %v.1, i64 2000000)
  %_0.sroa.0.0.i6 = tail call noundef i64 @llvm.umax.i64(i64 %_0.sroa.0.0.i, i64 %v1)
  %_0.sroa.0.0.i7 = tail call noundef i64 @llvm.umax.i64(i64 %_0.sroa.0.0.i6, i64 48)
  call void @llvm.lifetime.start.p0(i64 4096, ptr nonnull %stack_buf)
  call void @llvm.lifetime.start.p0(i64 24, ptr nonnull %heap_buf)
  %_15 = icmp ult i64 %_0.sroa.0.0.i6, 1025
  br i1 %_15, label %bb8, label %bb4

bb4:                                              ; preds = %start
  call void @llvm.lifetime.start.p0(i64 24, ptr nonnull %_4.i.i), !noalias !1140
; invoke alloc::raw_vec::RawVecInner<A>::try_allocate_in
  invoke void @"_ZN5alloc7raw_vec20RawVecInner$LT$A$GT$15try_allocate_in17had089b3ffc2704ecE"(ptr noalias noundef sret([24 x i8]) align 8 captures(none) dereferenceable(24) %_4.i.i, i64 noundef %_0.sroa.0.0.i7, i1 noundef zeroext false, i64 noundef 4, i64 noundef 4)
          to label %.noexc unwind label %cleanup

.noexc:                                           ; preds = %bb4
  %_5.i.i = load i64, ptr %_4.i.i, align 8, !range !12, !noalias !1140, !noundef !11
  %0 = trunc nuw i64 %_5.i.i to i1
  %1 = getelementptr inbounds nuw i8, ptr %_4.i.i, i64 8
  %err.0.i.i = load i64, ptr %1, align 8, !range !13, !noalias !1140, !noundef !11
  %2 = getelementptr inbounds nuw i8, ptr %_4.i.i, i64 16
  br i1 %0, label %bb3.i.i, label %"_ZN5alloc5slice99_$LT$impl$u20$core..slice..sort..stable..BufGuard$LT$T$GT$$u20$for$u20$alloc..vec..Vec$LT$T$GT$$GT$13with_capacity17h47ff7f189d415ff6E.exit", !prof !14

bb3.i.i:                                          ; preds = %.noexc
  %err.1.i.i = load i64, ptr %2, align 8, !noalias !1140
; invoke alloc::raw_vec::handle_error
  invoke void @_ZN5alloc7raw_vec12handle_error17h3a8c375904e593b2E(i64 noundef %err.0.i.i, i64 %err.1.i.i) #29
          to label %.noexc8 unwind label %cleanup

.noexc8:                                          ; preds = %bb3.i.i
  unreachable

"_ZN5alloc5slice99_$LT$impl$u20$core..slice..sort..stable..BufGuard$LT$T$GT$$u20$for$u20$alloc..vec..Vec$LT$T$GT$$GT$13with_capacity17h47ff7f189d415ff6E.exit": ; preds = %.noexc
  %this.1.i.i = load ptr, ptr %2, align 8, !noalias !1140, !nonnull !11, !noundef !11
  %_7.i.i = icmp ule i64 %_0.sroa.0.0.i7, %err.0.i.i
  tail call void @llvm.assume(i1 %_7.i.i)
  call void @llvm.lifetime.end.p0(i64 24, ptr nonnull %_4.i.i), !noalias !1140
  store i64 %err.0.i.i, ptr %heap_buf, align 8
  %_18.sroa.4.0.heap_buf.sroa_idx = getelementptr inbounds nuw i8, ptr %heap_buf, i64 8
  store ptr %this.1.i.i, ptr %_18.sroa.4.0.heap_buf.sroa_idx, align 8
  %_18.sroa.5.0.heap_buf.sroa_idx = getelementptr inbounds nuw i8, ptr %heap_buf, i64 16
  store i64 0, ptr %_18.sroa.5.0.heap_buf.sroa_idx, align 8
  br label %bb8

cleanup:                                          ; preds = %bb3.i.i, %bb4, %bb8
  %_24.sroa.0.0 = phi i8 [ %_24.sroa.0.1, %bb8 ], [ 0, %bb4 ], [ 0, %bb3.i.i ]
  %3 = landingpad { ptr, i32 }
          cleanup
  %4 = trunc nuw i8 %_24.sroa.0.0 to i1
  br i1 %4, label %bb13, label %bb11

bb8:                                              ; preds = %"_ZN5alloc5slice99_$LT$impl$u20$core..slice..sort..stable..BufGuard$LT$T$GT$$u20$for$u20$alloc..vec..Vec$LT$T$GT$$GT$13with_capacity17h47ff7f189d415ff6E.exit", %start
  %_24.sroa.0.1 = phi i8 [ 0, %start ], [ 1, %"_ZN5alloc5slice99_$LT$impl$u20$core..slice..sort..stable..BufGuard$LT$T$GT$$u20$for$u20$alloc..vec..Vec$LT$T$GT$$GT$13with_capacity17h47ff7f189d415ff6E.exit" ]
  %stack_scratch.sroa.4.0 = phi i64 [ 1024, %start ], [ %err.0.i.i, %"_ZN5alloc5slice99_$LT$impl$u20$core..slice..sort..stable..BufGuard$LT$T$GT$$u20$for$u20$alloc..vec..Vec$LT$T$GT$$GT$13with_capacity17h47ff7f189d415ff6E.exit" ]
  %stack_buf.pn = phi ptr [ %stack_buf, %start ], [ %this.1.i.i, %"_ZN5alloc5slice99_$LT$impl$u20$core..slice..sort..stable..BufGuard$LT$T$GT$$u20$for$u20$alloc..vec..Vec$LT$T$GT$$GT$13with_capacity17h47ff7f189d415ff6E.exit" ]
  %eager_sort = icmp samesign ult i64 %v.1, 65
; invoke core::slice::sort::stable::drift::sort
  invoke void @_ZN4core5slice4sort6stable5drift4sort17h8e47ce351825f72dE(ptr noalias noundef nonnull align 4 %v.0, i64 noundef %v.1, ptr noalias noundef nonnull align 4 %stack_buf.pn, i64 noundef %stack_scratch.sroa.4.0, i1 noundef zeroext %eager_sort, ptr noalias noundef align 8 dereferenceable(8) %is_less)
          to label %bb9 unwind label %cleanup

bb9:                                              ; preds = %bb8
  %5 = trunc nuw i8 %_24.sroa.0.1 to i1
  br i1 %5, label %bb12, label %bb10

bb10:                                             ; preds = %bb12, %bb9
  call void @llvm.lifetime.end.p0(i64 24, ptr nonnull %heap_buf)
  call void @llvm.lifetime.end.p0(i64 4096, ptr nonnull %stack_buf)
  ret void

bb12:                                             ; preds = %bb9
; call alloc::raw_vec::RawVecInner<A>::deallocate
  call void @"_ZN5alloc7raw_vec20RawVecInner$LT$A$GT$10deallocate17h6ddf8733b0451bb9E"(ptr noalias noundef nonnull align 8 dereferenceable(24) %heap_buf, i64 noundef 4, i64 noundef 4)
  br label %bb10

bb11:                                             ; preds = %bb13, %cleanup
  resume { ptr, i32 } %3

bb13:                                             ; preds = %cleanup
; invoke alloc::raw_vec::RawVecInner<A>::deallocate
  invoke void @"_ZN5alloc7raw_vec20RawVecInner$LT$A$GT$10deallocate17h6ddf8733b0451bb9E"(ptr noalias noundef nonnull align 8 dereferenceable(24) %heap_buf, i64 noundef 4, i64 noundef 4)
          to label %bb11 unwind label %terminate

terminate:                                        ; preds = %bb13
  %6 = landingpad { ptr, i32 }
          filter [0 x ptr] zeroinitializer
; call core::panicking::panic_in_cleanup
  call void @_ZN4core9panicking16panic_in_cleanup17h5f6bde45d17ae243E() #31
  unreachable
}

; core::slice::sort::stable::AlignedStorage<T,_>::as_uninit_slice_mut
; Function Attrs: mustprogress nofree norecurse nosync nounwind nonlazybind willreturn memory(none) uwtable
define { ptr, i64 } @"_ZN4core5slice4sort6stable27AlignedStorage$LT$T$C$_$GT$19as_uninit_slice_mut17hfebb0a76a13ff00aE"(ptr noalias noundef align 4 dereferenceable(4096) %self) unnamed_addr #9 {
start:
  %0 = insertvalue { ptr, i64 } poison, ptr %self, 0
  %1 = insertvalue { ptr, i64 } %0, i64 1024, 1
  ret { ptr, i64 } %1
}

; core::slice::sort::stable::drift::create_run
; Function Attrs: nonlazybind uwtable
define noundef range(i64 0, -1) i64 @_ZN4core5slice4sort6stable5drift10create_run17h1339b950575f070aE(ptr noalias noundef nonnull align 4 %v.0, i64 noundef range(i64 0, 2305843009213693952) %v.1, ptr noalias noundef nonnull align 4 %scratch.0, i64 noundef range(i64 0, 2305843009213693952) %scratch.1, i64 noundef %min_good_run_len, i1 noundef zeroext %eager_sort, ptr noalias noundef align 8 dereferenceable(8) %is_less) unnamed_addr #0 personality ptr @rust_eh_personality {
start:
  %_7.not = icmp ult i64 %v.1, %min_good_run_len
  br i1 %_7.not, label %bb7, label %bb1

bb7:                                              ; preds = %_ZN4core5slice4sort6shared17find_existing_run17h10451d5e3b46a689E.exit, %start
  br i1 %eager_sort, label %bb8, label %bb11

bb1:                                              ; preds = %start
  %_4.i = icmp samesign ult i64 %v.1, 2
  br i1 %_4.i, label %_ZN4core5slice4sort6shared17find_existing_run17h10451d5e3b46a689E.exit, label %bb2.i

bb2.i:                                            ; preds = %bb1
  %_28.i = getelementptr inbounds nuw i8, ptr %v.0, i64 4
  tail call void @llvm.experimental.noalias.scope.decl(metadata !1143)
  tail call void @llvm.experimental.noalias.scope.decl(metadata !1146)
  tail call void @llvm.experimental.noalias.scope.decl(metadata !1148)
  tail call void @llvm.experimental.noalias.scope.decl(metadata !1151)
  tail call void @llvm.experimental.noalias.scope.decl(metadata !1153)
  tail call void @llvm.experimental.noalias.scope.decl(metadata !1156)
  tail call void @llvm.experimental.noalias.scope.decl(metadata !1158)
  tail call void @llvm.experimental.noalias.scope.decl(metadata !1161)
  %_3.i.i.i.i = load i32, ptr %_28.i, align 4, !alias.scope !1163, !noalias !1164, !noundef !11
  %_4.i.i.i.i = load i32, ptr %v.0, align 4, !alias.scope !1164, !noalias !1163, !noundef !11
  %_0.i = icmp slt i32 %_3.i.i.i.i, %_4.i.i.i.i
  %_10.i13.not = icmp eq i64 %v.1, 2
  br i1 %_0.i, label %bb4.i.preheader, label %bb11.i.preheader

bb11.i.preheader:                                 ; preds = %bb2.i
  br i1 %_10.i13.not, label %_ZN4core5slice4sort6shared17find_existing_run17h10451d5e3b46a689E.exit, label %bb12.i.preheader

bb12.i.preheader:                                 ; preds = %bb11.i.preheader
  %invariant.gep = getelementptr i8, ptr %v.0, i64 -4
  br label %bb12.i

bb4.i.preheader:                                  ; preds = %bb2.i
  br i1 %_10.i13.not, label %_ZN4core5slice4sort6shared17find_existing_run17h10451d5e3b46a689E.exit, label %bb5.i.preheader

bb5.i.preheader:                                  ; preds = %bb4.i.preheader
  %invariant.gep24 = getelementptr i8, ptr %v.0, i64 -4
  br label %bb5.i

bb12.i:                                           ; preds = %bb12.i.preheader, %bb15.i
  %run_len.sroa.0.0.i11 = phi i64 [ %1, %bb15.i ], [ 2, %bb12.i.preheader ]
  %0 = getelementptr inbounds nuw i32, ptr %v.0, i64 %run_len.sroa.0.0.i11
  %gep = getelementptr i32, ptr %invariant.gep, i64 %run_len.sroa.0.0.i11
  tail call void @llvm.experimental.noalias.scope.decl(metadata !1165)
  tail call void @llvm.experimental.noalias.scope.decl(metadata !1168)
  tail call void @llvm.experimental.noalias.scope.decl(metadata !1170)
  tail call void @llvm.experimental.noalias.scope.decl(metadata !1173)
  tail call void @llvm.experimental.noalias.scope.decl(metadata !1175)
  tail call void @llvm.experimental.noalias.scope.decl(metadata !1178)
  tail call void @llvm.experimental.noalias.scope.decl(metadata !1180)
  tail call void @llvm.experimental.noalias.scope.decl(metadata !1183)
  %_3.i.i.i.i1 = load i32, ptr %0, align 4, !alias.scope !1185, !noalias !1186, !noundef !11
  %_4.i.i.i.i2 = load i32, ptr %gep, align 4, !alias.scope !1186, !noalias !1185, !noundef !11
  %_0.i3 = icmp slt i32 %_3.i.i.i.i1, %_4.i.i.i.i2
  br i1 %_0.i3, label %_ZN4core5slice4sort6shared17find_existing_run17h10451d5e3b46a689E.exit, label %bb15.i

bb15.i:                                           ; preds = %bb12.i
  %1 = add nuw nsw i64 %run_len.sroa.0.0.i11, 1
  %exitcond.not = icmp eq i64 %1, %v.1
  br i1 %exitcond.not, label %_ZN4core5slice4sort6shared17find_existing_run17h10451d5e3b46a689E.exit, label %bb12.i

bb5.i:                                            ; preds = %bb5.i.preheader, %bb7.i
  %run_len.sroa.0.1.i14 = phi i64 [ %3, %bb7.i ], [ 2, %bb5.i.preheader ]
  %2 = getelementptr inbounds nuw i32, ptr %v.0, i64 %run_len.sroa.0.1.i14
  %gep25 = getelementptr i32, ptr %invariant.gep24, i64 %run_len.sroa.0.1.i14
  tail call void @llvm.experimental.noalias.scope.decl(metadata !1187)
  tail call void @llvm.experimental.noalias.scope.decl(metadata !1190)
  tail call void @llvm.experimental.noalias.scope.decl(metadata !1192)
  tail call void @llvm.experimental.noalias.scope.decl(metadata !1195)
  tail call void @llvm.experimental.noalias.scope.decl(metadata !1197)
  tail call void @llvm.experimental.noalias.scope.decl(metadata !1200)
  tail call void @llvm.experimental.noalias.scope.decl(metadata !1202)
  tail call void @llvm.experimental.noalias.scope.decl(metadata !1205)
  %_3.i.i.i.i4 = load i32, ptr %2, align 4, !alias.scope !1207, !noalias !1208, !noundef !11
  %_4.i.i.i.i5 = load i32, ptr %gep25, align 4, !alias.scope !1208, !noalias !1207, !noundef !11
  %_0.i6 = icmp slt i32 %_3.i.i.i.i4, %_4.i.i.i.i5
  br i1 %_0.i6, label %bb7.i, label %_ZN4core5slice4sort6shared17find_existing_run17h10451d5e3b46a689E.exit

bb7.i:                                            ; preds = %bb5.i
  %3 = add nuw nsw i64 %run_len.sroa.0.1.i14, 1
  %exitcond19.not = icmp eq i64 %3, %v.1
  br i1 %exitcond19.not, label %_ZN4core5slice4sort6shared17find_existing_run17h10451d5e3b46a689E.exit, label %bb5.i

_ZN4core5slice4sort6shared17find_existing_run17h10451d5e3b46a689E.exit: ; preds = %bb12.i, %bb15.i, %bb5.i, %bb7.i, %bb11.i.preheader, %bb4.i.preheader, %bb1
  %_0.sroa.3.0.i = phi i1 [ false, %bb1 ], [ true, %bb4.i.preheader ], [ false, %bb11.i.preheader ], [ true, %bb7.i ], [ true, %bb5.i ], [ false, %bb15.i ], [ false, %bb12.i ]
  %_0.sroa.0.0.i = phi i64 [ %v.1, %bb1 ], [ 2, %bb4.i.preheader ], [ 2, %bb11.i.preheader ], [ %run_len.sroa.0.1.i14, %bb5.i ], [ %v.1, %bb7.i ], [ %run_len.sroa.0.0.i11, %bb12.i ], [ %v.1, %bb15.i ]
  %_12 = icmp samesign ule i64 %_0.sroa.0.0.i, %v.1
  tail call void @llvm.assume(i1 %_12)
  %_13.not = icmp ult i64 %_0.sroa.0.0.i, %min_good_run_len
  br i1 %_13.not, label %bb7, label %bb3

bb3:                                              ; preds = %_ZN4core5slice4sort6shared17find_existing_run17h10451d5e3b46a689E.exit
  br i1 %_0.sroa.3.0.i, label %bb14, label %bb5

bb11:                                             ; preds = %bb7
  %_0.sroa.0.0.i7 = tail call noundef i64 @llvm.umin.i64(i64 %v.1, i64 %min_good_run_len)
  %_36 = shl nuw nsw i64 %_0.sroa.0.0.i7, 1
  br label %bb12

bb8:                                              ; preds = %bb7
  %_0.sroa.0.0.i8 = tail call noundef i64 @llvm.umin.i64(i64 %v.1, i64 32)
; call core::slice::sort::stable::quicksort::quicksort
  tail call void @_ZN4core5slice4sort6stable9quicksort9quicksort17hbf9e74c21b061636E(ptr noalias noundef nonnull align 4 %v.0, i64 noundef %_0.sroa.0.0.i8, ptr noalias noundef nonnull align 4 %scratch.0, i64 noundef %scratch.1, i32 noundef 0, ptr noalias noundef readonly align 4 captures(address, read_provenance) dereferenceable_or_null(4) null, ptr noalias noundef align 8 dereferenceable(8) %is_less) #33
  %_35 = shl nuw nsw i64 %_0.sroa.0.0.i8, 1
  %_34 = or disjoint i64 %_35, 1
  br label %bb12

bb12:                                             ; preds = %bb5, %bb8, %bb11
  %_0.sroa.0.0 = phi i64 [ %_26, %bb5 ], [ %_34, %bb8 ], [ %_36, %bb11 ]
  ret i64 %_0.sroa.0.0

bb5.loopexit.unr-lcssa:                           ; preds = %bb5.i.i, %bb5.i.i.preheader
  %i.sroa.0.016.i.i.unr = phi i64 [ 0, %bb5.i.i.preheader ], [ %15, %bb5.i.i ]
  %4 = and i64 %_0.sroa.0.0.i, 2
  %lcmp.mod.not = icmp eq i64 %4, 0
  br i1 %lcmp.mod.not, label %bb5, label %bb5.i.i.epil

bb5.i.i.epil:                                     ; preds = %bb5.loopexit.unr-lcssa
  %5 = xor i64 %i.sroa.0.016.i.i.unr, -1
  %x.i.i.epil = getelementptr inbounds nuw i32, ptr %v.0, i64 %i.sroa.0.016.i.i.unr
  %y.i.i.epil = getelementptr i32, ptr %end.i, i64 %5
  %6 = load i32, ptr %x.i.i.epil, align 4, !alias.scope !1209, !noalias !1214, !noundef !11
  %7 = load i32, ptr %y.i.i.epil, align 4, !alias.scope !1216, !noalias !1217
  store i32 %7, ptr %x.i.i.epil, align 4, !alias.scope !1209, !noalias !1214
  store i32 %6, ptr %y.i.i.epil, align 4, !alias.scope !1216, !noalias !1217
  br label %bb5

bb5:                                              ; preds = %bb5.i.i.epil, %bb5.loopexit.unr-lcssa, %bb14, %bb3
  %_27 = shl nuw nsw i64 %_0.sroa.0.0.i, 1
  %_26 = or disjoint i64 %_27, 1
  br label %bb12

bb14:                                             ; preds = %bb3
  %half_len2.i = lshr i64 %_0.sroa.0.0.i, 1
  %end.i = getelementptr inbounds nuw i32, ptr %v.0, i64 %_0.sroa.0.0.i
  tail call void @llvm.experimental.noalias.scope.decl(metadata !1217)
  tail call void @llvm.experimental.noalias.scope.decl(metadata !1214)
  %_915.not.i.i = icmp samesign ult i64 %_0.sroa.0.0.i, 2
  br i1 %_915.not.i.i, label %bb5, label %bb5.i.i.preheader

bb5.i.i.preheader:                                ; preds = %bb14
  %8 = icmp eq i64 %half_len2.i, 1
  br i1 %8, label %bb5.loopexit.unr-lcssa, label %bb5.i.i.preheader.new

bb5.i.i.preheader.new:                            ; preds = %bb5.i.i.preheader
  %unroll_iter = and i64 %half_len2.i, 9223372036854775806
  %invariant.gep26 = getelementptr inbounds i8, ptr %v.0, i64 4
  br label %bb5.i.i

bb5.i.i:                                          ; preds = %bb5.i.i, %bb5.i.i.preheader.new
  %i.sroa.0.016.i.i = phi i64 [ 0, %bb5.i.i.preheader.new ], [ %15, %bb5.i.i ]
  %niter = phi i64 [ 0, %bb5.i.i.preheader.new ], [ %niter.next.1, %bb5.i.i ]
  %9 = xor i64 %i.sroa.0.016.i.i, -1
  %x.i.i = getelementptr inbounds nuw i32, ptr %v.0, i64 %i.sroa.0.016.i.i
  %y.i.i = getelementptr i32, ptr %end.i, i64 %9
  %10 = load i32, ptr %x.i.i, align 4, !alias.scope !1209, !noalias !1214, !noundef !11
  %11 = load i32, ptr %y.i.i, align 4, !alias.scope !1216, !noalias !1217
  store i32 %11, ptr %x.i.i, align 4, !alias.scope !1209, !noalias !1214
  store i32 %10, ptr %y.i.i, align 4, !alias.scope !1216, !noalias !1217
  %12 = xor i64 %i.sroa.0.016.i.i, -2
  %gep27 = getelementptr inbounds i32, ptr %invariant.gep26, i64 %i.sroa.0.016.i.i
  %y.i.i.1 = getelementptr i32, ptr %end.i, i64 %12
  %13 = load i32, ptr %gep27, align 4, !alias.scope !1209, !noalias !1214, !noundef !11
  %14 = load i32, ptr %y.i.i.1, align 4, !alias.scope !1216, !noalias !1217
  store i32 %14, ptr %gep27, align 4, !alias.scope !1209, !noalias !1214
  store i32 %13, ptr %y.i.i.1, align 4, !alias.scope !1216, !noalias !1217
  %15 = add nuw nsw i64 %i.sroa.0.016.i.i, 2
  %niter.next.1 = add i64 %niter, 2
  %niter.ncmp.1 = icmp eq i64 %niter.next.1, %unroll_iter
  br i1 %niter.ncmp.1, label %bb5.loopexit.unr-lcssa, label %bb5.i.i
}

; core::slice::sort::stable::drift::stable_quicksort
; Function Attrs: nonlazybind uwtable
define void @_ZN4core5slice4sort6stable5drift16stable_quicksort17h2bbdd3558b45da32E(ptr noalias noundef nonnull align 4 %v.0, i64 noundef range(i64 0, 2305843009213693952) %v.1, ptr noalias noundef nonnull align 4 %scratch.0, i64 noundef range(i64 0, 2305843009213693952) %scratch.1, ptr noalias noundef align 8 dereferenceable(8) %is_less) unnamed_addr #0 {
start:
  %self = or i64 %v.1, 1
  %0 = tail call range(i64 3, 64) i64 @llvm.ctlz.i64(i64 %self, i1 true)
  %1 = trunc nuw nsw i64 %0 to i32
  %log = shl nuw nsw i32 %1, 1
  %limit = xor i32 %log, 126
; call core::slice::sort::stable::quicksort::quicksort
  tail call void @_ZN4core5slice4sort6stable9quicksort9quicksort17hbf9e74c21b061636E(ptr noalias noundef nonnull align 4 %v.0, i64 noundef %v.1, ptr noalias noundef nonnull align 4 %scratch.0, i64 noundef %scratch.1, i32 noundef %limit, ptr noalias noundef readonly align 4 captures(address, read_provenance) dereferenceable_or_null(4) null, ptr noalias noundef align 8 dereferenceable(8) %is_less) #33
  ret void
}

; core::slice::sort::stable::drift::sort
; Function Attrs: nonlazybind uwtable
define void @_ZN4core5slice4sort6stable5drift4sort17h8e47ce351825f72dE(ptr noalias noundef nonnull align 4 %v.0, i64 noundef range(i64 0, 2305843009213693952) %v.1, ptr noalias noundef nonnull align 4 %scratch.0, i64 noundef range(i64 0, 2305843009213693952) %scratch.1, i1 noundef zeroext %eager_sort, ptr noalias noundef align 8 dereferenceable(8) %is_less) unnamed_addr #0 personality ptr @rust_eh_personality {
start:
  %desired_depth_storage = alloca [66 x i8], align 1
  %run_storage = alloca [528 x i8], align 8
  %_6 = icmp samesign ult i64 %v.1, 2
  br i1 %_6, label %bb22, label %bb2

bb2:                                              ; preds = %start
  %d = udiv i64 4611686018427387904, %v.1
  %r = urem i64 4611686018427387904, %v.1
  %_73.not = icmp ne i64 %r, 0
  %0 = zext i1 %_73.not to i64
  %scale_factor.sroa.0.0 = add nuw nsw i64 %d, %0
  %_9 = icmp samesign ult i64 %v.1, 4097
  br i1 %_9, label %bb3, label %bb4

bb4:                                              ; preds = %bb2
; call core::slice::sort::stable::drift::sqrt_approx
  %1 = tail call noundef i64 @_ZN4core5slice4sort6stable5drift11sqrt_approx17h72a4dc1ae46294f4E(i64 noundef %v.1)
  br label %bb5

bb3:                                              ; preds = %bb2
  %_1135 = lshr i64 %v.1, 1
  %v1 = sub nsw i64 %v.1, %_1135
  %_0.sroa.0.0.i36 = tail call noundef i64 @llvm.umin.i64(i64 %v1, i64 64)
  br label %bb5

bb5:                                              ; preds = %bb3, %bb4
  %min_good_run_len.sroa.0.0 = phi i64 [ %_0.sroa.0.0.i36, %bb3 ], [ %1, %bb4 ]
  call void @llvm.lifetime.start.p0(i64 528, ptr nonnull %run_storage)
  call void @llvm.lifetime.start.p0(i64 66, ptr nonnull %desired_depth_storage)
  br label %bb6

bb6:                                              ; preds = %bb19, %bb5
  %prev_run.sroa.0.0 = phi i64 [ 1, %bb5 ], [ %next_run.sroa.0.0, %bb19 ]
  %scan_idx.sroa.0.0 = phi i64 [ 0, %bb5 ], [ %22, %bb19 ]
  %stack_len.sroa.0.0 = phi i64 [ 0, %bb5 ], [ %21, %bb19 ]
  %_22 = icmp ult i64 %scan_idx.sroa.0.0, %v.1
  br i1 %_22, label %bb30, label %bb10

bb10:                                             ; preds = %bb6, %bb30
  %desired_depth.sroa.0.0 = phi i8 [ %4, %bb30 ], [ 0, %bb6 ]
  %next_run.sroa.0.0 = phi i64 [ %2, %bb30 ], [ 1, %bb6 ]
  %_3748 = icmp ugt i64 %stack_len.sroa.0.0, 1
  br i1 %_3748, label %bb12.lr.ph, label %bb17

bb12.lr.ph:                                       ; preds = %bb10
  %v_end.i = getelementptr inbounds nuw i32, ptr %v.0, i64 %scan_idx.sroa.0.0
  br label %bb12

bb30:                                             ; preds = %bb6
  %new_len = sub nuw nsw i64 %v.1, %scan_idx.sroa.0.0
  %_82 = getelementptr inbounds nuw i32, ptr %v.0, i64 %scan_idx.sroa.0.0
; call core::slice::sort::stable::drift::create_run
  %2 = tail call noundef i64 @_ZN4core5slice4sort6stable5drift10create_run17h1339b950575f070aE(ptr noalias noundef nonnull align 4 %_82, i64 noundef %new_len, ptr noalias noundef nonnull align 4 %scratch.0, i64 noundef %scratch.1, i64 noundef %min_good_run_len.sroa.0.0, i1 noundef zeroext %eager_sort, ptr noalias noundef align 8 dereferenceable(8) %is_less)
  %_31 = lshr i64 %prev_run.sroa.0.0, 1
  %_35 = lshr i64 %2, 1
  %factor = shl i64 %scan_idx.sroa.0.0, 1
  %x = sub i64 %factor, %_31
  %reass.add = shl i64 %scan_idx.sroa.0.0, 1
  %y = add i64 %_35, %reass.add
  %_90 = mul i64 %x, %scale_factor.sroa.0.0
  %_91 = mul i64 %y, %scale_factor.sroa.0.0
  %self4 = xor i64 %_91, %_90
  %3 = tail call range(i64 0, 65) i64 @llvm.ctlz.i64(i64 %self4, i1 false)
  %4 = trunc nuw nsw i64 %3 to i8
  br label %bb10

bb12:                                             ; preds = %bb12.lr.ph, %_ZN4core5slice4sort6stable5drift13logical_merge17hf11bde49db4d6e30E.exit
  %stack_len.sroa.0.150 = phi i64 [ %stack_len.sroa.0.0, %bb12.lr.ph ], [ %count, %_ZN4core5slice4sort6stable5drift13logical_merge17hf11bde49db4d6e30E.exit ]
  %prev_run.sroa.0.149 = phi i64 [ %prev_run.sroa.0.0, %bb12.lr.ph ], [ %_0.sroa.0.0.i, %_ZN4core5slice4sort6stable5drift13logical_merge17hf11bde49db4d6e30E.exit ]
  %count = add i64 %stack_len.sroa.0.150, -1
  %_41 = getelementptr inbounds nuw i8, ptr %desired_depth_storage, i64 %count
  %_40 = load i8, ptr %_41, align 1, !noundef !11
  %_39.not = icmp ult i8 %_40, %desired_depth.sroa.0.0
  br i1 %_39.not, label %bb17, label %bb13

bb17:                                             ; preds = %_ZN4core5slice4sort6stable5drift13logical_merge17hf11bde49db4d6e30E.exit, %bb12, %bb10
  %prev_run.sroa.0.1.lcssa = phi i64 [ %prev_run.sroa.0.0, %bb10 ], [ %_0.sroa.0.0.i, %_ZN4core5slice4sort6stable5drift13logical_merge17hf11bde49db4d6e30E.exit ], [ %prev_run.sroa.0.149, %bb12 ]
  %stack_len.sroa.0.1.lcssa = phi i64 [ %stack_len.sroa.0.0, %bb10 ], [ 1, %_ZN4core5slice4sort6stable5drift13logical_merge17hf11bde49db4d6e30E.exit ], [ %stack_len.sroa.0.150, %bb12 ]
  %_59 = getelementptr inbounds nuw i64, ptr %run_storage, i64 %stack_len.sroa.0.1.lcssa
  store i64 %prev_run.sroa.0.1.lcssa, ptr %_59, align 8
  %_61 = getelementptr inbounds nuw i8, ptr %desired_depth_storage, i64 %stack_len.sroa.0.1.lcssa
  store i8 %desired_depth.sroa.0.0, ptr %_61, align 1
  br i1 %_22, label %bb19, label %bb18

bb13:                                             ; preds = %bb12
  %_46 = getelementptr inbounds nuw i64, ptr %run_storage, i64 %count
  %left10 = load i64, ptr %_46, align 8, !noundef !11
  %_50 = lshr i64 %left10, 1
  %_51 = lshr i64 %prev_run.sroa.0.149, 1
  %merged_len = add nuw i64 %_50, %_51
  %merge_start_idx = sub i64 %scan_idx.sroa.0.0, %merged_len
  %_98 = getelementptr inbounds nuw i32, ptr %v.0, i64 %merge_start_idx
  %can_fit_in_scratch.i = icmp samesign ugt i64 %merged_len, %scratch.1
  %_22.i = and i64 %prev_run.sroa.0.149, 1
  %_10.not.i = icmp eq i64 %_22.i, 0
  %5 = or i64 %left10, %prev_run.sroa.0.149
  %6 = and i64 %5, 1
  %7 = icmp ne i64 %6, 0
  %or.cond2.i = or i1 %can_fit_in_scratch.i, %7
  br i1 %or.cond2.i, label %bb3.i, label %bb9.i

bb3.i:                                            ; preds = %bb13
  %_21.i = and i64 %left10, 1
  %_9.not.i = icmp eq i64 %_21.i, 0
  br i1 %_9.not.i, label %bb11.i, label %bb5.i

bb9.i:                                            ; preds = %bb13
  %_40.i = shl nuw nsw i64 %merged_len, 1
  br label %_ZN4core5slice4sort6stable5drift13logical_merge17hf11bde49db4d6e30E.exit

bb5.i:                                            ; preds = %bb11.i, %bb3.i
  br i1 %_10.not.i, label %bb16.i, label %bb7.i

bb11.i:                                           ; preds = %bb3.i
  %self.i = or i64 %_50, 1
  %8 = tail call range(i64 3, 64) i64 @llvm.ctlz.i64(i64 %self.i, i1 true)
  %9 = trunc nuw nsw i64 %8 to i32
  %log.i = shl nuw nsw i32 %9, 1
  %limit.i = xor i32 %log.i, 126
; call core::slice::sort::stable::quicksort::quicksort
  tail call void @_ZN4core5slice4sort6stable9quicksort9quicksort17hbf9e74c21b061636E(ptr noalias noundef nonnull align 4 %_98, i64 noundef range(i64 0, 2305843009213693952) %_50, ptr noalias noundef nonnull align 4 %scratch.0, i64 noundef range(i64 0, 2305843009213693952) %scratch.1, i32 noundef %limit.i, ptr noalias noundef readonly align 4 captures(address, read_provenance) dereferenceable_or_null(4) null, ptr noalias noundef nonnull align 8 dereferenceable(8) %is_less) #33
  br label %bb5.i

bb7.i:                                            ; preds = %bb16.i, %bb5.i
  tail call void @llvm.experimental.noalias.scope.decl(metadata !1218)
  tail call void @llvm.experimental.noalias.scope.decl(metadata !1221)
  %_6.i = icmp ult i64 %left10, 2
  %_7.i = icmp ult i64 %prev_run.sroa.0.149, 2
  %or.cond.i = or i1 %_7.i, %_6.i
  br i1 %or.cond.i, label %_ZN4core5slice4sort6stable5merge5merge17h7c0738b142990bf2E.exit, label %bb2.i

bb2.i:                                            ; preds = %bb7.i
  %_0.sroa.0.0.i.i = tail call i64 @llvm.umin.i64(i64 %_51, i64 %_50)
  %_8.i = icmp samesign ult i64 %scratch.1, %_0.sroa.0.0.i.i
  br i1 %_8.i, label %_ZN4core5slice4sort6stable5merge5merge17h7c0738b142990bf2E.exit, label %bb5.i37

bb5.i37:                                          ; preds = %bb2.i
  %v_mid.i = getelementptr inbounds nuw i32, ptr %_98, i64 %_50
  %left_is_shorter.not.i = icmp samesign ugt i64 %_50, %_51
  %spec.select.i = select i1 %left_is_shorter.not.i, ptr %v_mid.i, ptr %_98
  %10 = shl nuw nsw i64 %_0.sroa.0.0.i.i, 2
  tail call void @llvm.memcpy.p0.p0.i64(ptr nonnull align 4 %scratch.0, ptr nonnull align 4 %spec.select.i, i64 %10, i1 false), !alias.scope !1223
  %_22.i38 = getelementptr inbounds nuw i8, ptr %scratch.0, i64 %10
  br i1 %left_is_shorter.not.i, label %bb1.i.i, label %bb3.i.i

bb1.i.i:                                          ; preds = %bb5.i37, %bb1.i.i
  %_2110.i.i = phi ptr [ %_21.i.i, %bb1.i.i ], [ %_22.i38, %bb5.i37 ]
  %_188.i.i = phi ptr [ %_18.i.i, %bb1.i.i ], [ %spec.select.i, %bb5.i37 ]
  %out.sroa.0.0.i.i = phi ptr [ %13, %bb1.i.i ], [ %v_end.i, %bb5.i37 ]
  %11 = getelementptr inbounds i8, ptr %_188.i.i, i64 -4
  %12 = getelementptr inbounds i8, ptr %_2110.i.i, i64 -4
  %13 = getelementptr inbounds i8, ptr %out.sroa.0.0.i.i, i64 -4
  tail call void @llvm.experimental.noalias.scope.decl(metadata !1224)
  tail call void @llvm.experimental.noalias.scope.decl(metadata !1227)
  tail call void @llvm.experimental.noalias.scope.decl(metadata !1229)
  tail call void @llvm.experimental.noalias.scope.decl(metadata !1232)
  tail call void @llvm.experimental.noalias.scope.decl(metadata !1234)
  tail call void @llvm.experimental.noalias.scope.decl(metadata !1237)
  tail call void @llvm.experimental.noalias.scope.decl(metadata !1239)
  tail call void @llvm.experimental.noalias.scope.decl(metadata !1242)
  %_3.i.i.i.i.i.i = load i32, ptr %12, align 4, !alias.scope !1244, !noalias !1245, !noundef !11
  %_4.i.i.i.i.i.i = load i32, ptr %11, align 4, !alias.scope !1248, !noalias !1249, !noundef !11
  %_0.i.i.i = icmp slt i32 %_3.i.i.i.i.i.i, %_4.i.i.i.i.i.i
  %14 = tail call i32 @llvm.smax.i32(i32 %_3.i.i.i.i.i.i, i32 %_4.i.i.i.i.i.i)
  store i32 %14, ptr %13, align 4, !alias.scope !1218, !noalias !1250
  %_20.i.i = xor i1 %_0.i.i.i, true
  %count.i.i = zext i1 %_20.i.i to i64
  %_18.i.i = getelementptr inbounds nuw i32, ptr %11, i64 %count.i.i
  %count4.i.i = zext i1 %_0.i.i.i to i64
  %_21.i.i = getelementptr inbounds nuw i32, ptr %12, i64 %count4.i.i
  %_23.i.i = icmp eq ptr %_18.i.i, %_98
  %_26.i.i = icmp eq ptr %_21.i.i, %scratch.0
  %or.cond.i.i = select i1 %_23.i.i, i1 true, i1 %_26.i.i
  br i1 %or.cond.i.i, label %bb16.i40, label %bb1.i.i

bb3.i.i:                                          ; preds = %bb5.i37, %bb3.i.i
  %_2511.i.i = phi ptr [ %_25.i.i, %bb3.i.i ], [ %spec.select.i, %bb5.i37 ]
  %right.sroa.0.010.i.i = phi ptr [ %_23.i17.i, %bb3.i.i ], [ %v_mid.i, %bb5.i37 ]
  %_2059.i.i = phi ptr [ %_20.i16.i, %bb3.i.i ], [ %scratch.0, %bb5.i37 ]
  tail call void @llvm.experimental.noalias.scope.decl(metadata !1251)
  tail call void @llvm.experimental.noalias.scope.decl(metadata !1254)
  tail call void @llvm.experimental.noalias.scope.decl(metadata !1256)
  tail call void @llvm.experimental.noalias.scope.decl(metadata !1259)
  tail call void @llvm.experimental.noalias.scope.decl(metadata !1261)
  tail call void @llvm.experimental.noalias.scope.decl(metadata !1264)
  tail call void @llvm.experimental.noalias.scope.decl(metadata !1266)
  tail call void @llvm.experimental.noalias.scope.decl(metadata !1269)
  %_3.i.i.i.i.i12.i = load i32, ptr %right.sroa.0.010.i.i, align 4, !alias.scope !1271, !noalias !1272, !noundef !11
  %_4.i.i.i.i.i13.i = load i32, ptr %_2059.i.i, align 4, !alias.scope !1275, !noalias !1276, !noundef !11
  %_0.i.i14.i = icmp slt i32 %_3.i.i.i.i.i12.i, %_4.i.i.i.i.i13.i
  %consume_left.i.i = xor i1 %_0.i.i14.i, true
  %15 = tail call i32 @llvm.smin.i32(i32 %_3.i.i.i.i.i12.i, i32 %_4.i.i.i.i.i13.i)
  store i32 %15, ptr %_2511.i.i, align 4, !alias.scope !1218, !noalias !1277
  %count.i15.i = zext i1 %consume_left.i.i to i64
  %_20.i16.i = getelementptr inbounds nuw i32, ptr %_2059.i.i, i64 %count.i15.i
  %count2.i.i = zext i1 %_0.i.i14.i to i64
  %_23.i17.i = getelementptr inbounds nuw i32, ptr %right.sroa.0.010.i.i, i64 %count2.i.i
  %_25.i.i = getelementptr inbounds nuw i8, ptr %_2511.i.i, i64 4
  %_7.i.i = icmp ne ptr %_20.i16.i, %_22.i38
  %_10.i.i = icmp ne ptr %_23.i17.i, %v_end.i
  %or.cond.i18.i = select i1 %_7.i.i, i1 %_10.i.i, i1 false
  br i1 %or.cond.i18.i, label %bb3.i.i, label %bb16.i40

bb16.i40:                                         ; preds = %bb3.i.i, %bb1.i.i
  %merge_state.sroa.13.0.i = phi ptr [ %_18.i.i, %bb1.i.i ], [ %_25.i.i, %bb3.i.i ]
  %merge_state.sroa.7.0.i = phi ptr [ %_21.i.i, %bb1.i.i ], [ %_22.i38, %bb3.i.i ]
  %merge_state.sroa.0.0.i = phi ptr [ %scratch.0, %bb1.i.i ], [ %_20.i16.i, %bb3.i.i ]
  %16 = ptrtoint ptr %merge_state.sroa.7.0.i to i64
  %17 = ptrtoint ptr %merge_state.sroa.0.0.i to i64
  %18 = sub nuw i64 %16, %17
  tail call void @llvm.memcpy.p0.p0.i64(ptr align 4 %merge_state.sroa.13.0.i, ptr align 4 %merge_state.sroa.0.0.i, i64 %18, i1 false), !alias.scope !1223, !noalias !1278
  br label %_ZN4core5slice4sort6stable5merge5merge17h7c0738b142990bf2E.exit

_ZN4core5slice4sort6stable5merge5merge17h7c0738b142990bf2E.exit: ; preds = %bb7.i, %bb2.i, %bb16.i40
  %_39.i = shl nuw nsw i64 %merged_len, 1
  %_38.i = or disjoint i64 %_39.i, 1
  br label %_ZN4core5slice4sort6stable5drift13logical_merge17hf11bde49db4d6e30E.exit

bb16.i:                                           ; preds = %bb5.i
  %_37.i = getelementptr inbounds nuw i32, ptr %_98, i64 %_50
  %self.i41 = or i64 %_51, 1
  %19 = tail call range(i64 3, 64) i64 @llvm.ctlz.i64(i64 %self.i41, i1 true)
  %20 = trunc nuw nsw i64 %19 to i32
  %log.i42 = shl nuw nsw i32 %20, 1
  %limit.i43 = xor i32 %log.i42, 126
; call core::slice::sort::stable::quicksort::quicksort
  tail call void @_ZN4core5slice4sort6stable9quicksort9quicksort17hbf9e74c21b061636E(ptr noalias noundef nonnull align 4 %_37.i, i64 noundef range(i64 0, 2305843009213693952) %_51, ptr noalias noundef nonnull align 4 %scratch.0, i64 noundef range(i64 0, 2305843009213693952) %scratch.1, i32 noundef %limit.i43, ptr noalias noundef readonly align 4 captures(address, read_provenance) dereferenceable_or_null(4) null, ptr noalias noundef nonnull align 8 dereferenceable(8) %is_less) #33
  br label %bb7.i

_ZN4core5slice4sort6stable5drift13logical_merge17hf11bde49db4d6e30E.exit: ; preds = %bb9.i, %_ZN4core5slice4sort6stable5merge5merge17h7c0738b142990bf2E.exit
  %_0.sroa.0.0.i = phi i64 [ %_38.i, %_ZN4core5slice4sort6stable5merge5merge17h7c0738b142990bf2E.exit ], [ %_40.i, %bb9.i ]
  %_37 = icmp ugt i64 %count, 1
  br i1 %_37, label %bb12, label %bb17

bb19:                                             ; preds = %bb17
  %21 = add i64 %stack_len.sroa.0.1.lcssa, 1
  %_65 = lshr i64 %next_run.sroa.0.0, 1
  %22 = add nuw i64 %_65, %scan_idx.sroa.0.0
  br label %bb6

bb18:                                             ; preds = %bb17
  %_99 = and i64 %prev_run.sroa.0.1.lcssa, 1
  %_66.not = icmp eq i64 %_99, 0
  br i1 %_66.not, label %bb20, label %bb21

bb20:                                             ; preds = %bb18
  %self.i44 = or i64 %v.1, 1
  %23 = tail call range(i64 3, 64) i64 @llvm.ctlz.i64(i64 %self.i44, i1 true)
  %24 = trunc nuw nsw i64 %23 to i32
  %log.i45 = shl nuw nsw i32 %24, 1
  %limit.i46 = xor i32 %log.i45, 126
; call core::slice::sort::stable::quicksort::quicksort
  tail call void @_ZN4core5slice4sort6stable9quicksort9quicksort17hbf9e74c21b061636E(ptr noalias noundef nonnull align 4 %v.0, i64 noundef range(i64 0, 2305843009213693952) %v.1, ptr noalias noundef nonnull align 4 %scratch.0, i64 noundef range(i64 0, 2305843009213693952) %scratch.1, i32 noundef %limit.i46, ptr noalias noundef readonly align 4 captures(address, read_provenance) dereferenceable_or_null(4) null, ptr noalias noundef align 8 dereferenceable(8) %is_less) #33
  br label %bb21

bb21:                                             ; preds = %bb20, %bb18
  call void @llvm.lifetime.end.p0(i64 66, ptr nonnull %desired_depth_storage)
  call void @llvm.lifetime.end.p0(i64 528, ptr nonnull %run_storage)
  br label %bb22

bb22:                                             ; preds = %start, %bb21
  ret void
}

; core::slice::sort::stable::merge::MergeState<T>::merge_down
; Function Attrs: nofree norecurse nosync nounwind nonlazybind memory(read, argmem: readwrite, inaccessiblemem: readwrite) uwtable
define void @"_ZN4core5slice4sort6stable5merge19MergeState$LT$T$GT$10merge_down17hbeafcd5000d6f60dE"(ptr noalias noundef align 8 captures(none) dereferenceable(24) %self, ptr noundef readnone captures(address) %left_end, ptr noundef readnone captures(address) %right_end, ptr noundef writeonly captures(none) %0, ptr noalias noundef readnone align 8 captures(none) dereferenceable(8) %is_less) unnamed_addr #10 {
start:
  %1 = getelementptr inbounds nuw i8, ptr %self, i64 16
  %2 = getelementptr inbounds nuw i8, ptr %self, i64 8
  %.promoted = load ptr, ptr %1, align 8
  %.promoted9 = load ptr, ptr %2, align 8
  br label %bb1

bb1:                                              ; preds = %bb1, %start
  %_2110 = phi ptr [ %.promoted9, %start ], [ %_21, %bb1 ]
  %_188 = phi ptr [ %.promoted, %start ], [ %_18, %bb1 ]
  %out.sroa.0.0 = phi ptr [ %0, %start ], [ %5, %bb1 ]
  %3 = getelementptr inbounds i8, ptr %_188, i64 -4
  %4 = getelementptr inbounds i8, ptr %_2110, i64 -4
  %5 = getelementptr inbounds i8, ptr %out.sroa.0.0, i64 -4
  tail call void @llvm.experimental.noalias.scope.decl(metadata !1283)
  tail call void @llvm.experimental.noalias.scope.decl(metadata !1286)
  tail call void @llvm.experimental.noalias.scope.decl(metadata !1288)
  tail call void @llvm.experimental.noalias.scope.decl(metadata !1291)
  tail call void @llvm.experimental.noalias.scope.decl(metadata !1293)
  tail call void @llvm.experimental.noalias.scope.decl(metadata !1296)
  tail call void @llvm.experimental.noalias.scope.decl(metadata !1298)
  tail call void @llvm.experimental.noalias.scope.decl(metadata !1301)
  %_3.i.i.i.i = load i32, ptr %4, align 4, !alias.scope !1303, !noalias !1304, !noundef !11
  %_4.i.i.i.i = load i32, ptr %3, align 4, !alias.scope !1304, !noalias !1303, !noundef !11
  %_0.i = icmp slt i32 %_3.i.i.i.i, %_4.i.i.i.i
  %6 = tail call i32 @llvm.smax.i32(i32 %_3.i.i.i.i, i32 %_4.i.i.i.i)
  store i32 %6, ptr %5, align 4
  %_20 = xor i1 %_0.i, true
  %count = zext i1 %_20 to i64
  %_18 = getelementptr inbounds nuw i32, ptr %3, i64 %count
  %count4 = zext i1 %_0.i to i64
  %_21 = getelementptr inbounds nuw i32, ptr %4, i64 %count4
  %_23 = icmp eq ptr %_18, %left_end
  %_26 = icmp eq ptr %_21, %right_end
  %or.cond = select i1 %_23, i1 true, i1 %_26
  br i1 %or.cond, label %bb7, label %bb1

bb7:                                              ; preds = %bb1
  store ptr %_18, ptr %1, align 8
  store ptr %_21, ptr %2, align 8
  ret void
}

; core::slice::sort::stable::merge::MergeState<T>::merge_up
; Function Attrs: nofree norecurse nosync nounwind nonlazybind uwtable
define void @"_ZN4core5slice4sort6stable5merge19MergeState$LT$T$GT$8merge_up17ha931045cc8cec290E"(ptr noalias noundef align 8 captures(none) dereferenceable(24) %self, ptr noundef readonly captures(address) %0, ptr noundef readnone captures(address) %right_end, ptr noalias noundef readnone align 8 captures(none) dereferenceable(8) %is_less) unnamed_addr #11 {
start:
  %1 = getelementptr inbounds nuw i8, ptr %self, i64 8
  %_9 = load ptr, ptr %1, align 8, !noundef !11
  %self.promoted = load ptr, ptr %self, align 8
  %_76 = icmp ne ptr %self.promoted, %_9
  %_107 = icmp ne ptr %0, %right_end
  %or.cond8 = and i1 %_76, %_107
  br i1 %or.cond8, label %bb3.lr.ph, label %bb9

bb3.lr.ph:                                        ; preds = %start
  %2 = getelementptr inbounds nuw i8, ptr %self, i64 16
  %.promoted = load ptr, ptr %2, align 8
  br label %bb3

bb1.bb9_crit_edge:                                ; preds = %bb3
  store ptr %_25, ptr %2, align 8
  store ptr %_20, ptr %self, align 8
  br label %bb9

bb9:                                              ; preds = %bb1.bb9_crit_edge, %start
  ret void

bb3:                                              ; preds = %bb3.lr.ph, %bb3
  %_2511 = phi ptr [ %.promoted, %bb3.lr.ph ], [ %_25, %bb3 ]
  %right.sroa.0.010 = phi ptr [ %0, %bb3.lr.ph ], [ %_23, %bb3 ]
  %_2059 = phi ptr [ %self.promoted, %bb3.lr.ph ], [ %_20, %bb3 ]
  tail call void @llvm.experimental.noalias.scope.decl(metadata !1305)
  tail call void @llvm.experimental.noalias.scope.decl(metadata !1308)
  tail call void @llvm.experimental.noalias.scope.decl(metadata !1310)
  tail call void @llvm.experimental.noalias.scope.decl(metadata !1313)
  tail call void @llvm.experimental.noalias.scope.decl(metadata !1315)
  tail call void @llvm.experimental.noalias.scope.decl(metadata !1318)
  tail call void @llvm.experimental.noalias.scope.decl(metadata !1320)
  tail call void @llvm.experimental.noalias.scope.decl(metadata !1323)
  %_3.i.i.i.i = load i32, ptr %right.sroa.0.010, align 4, !alias.scope !1325, !noalias !1326, !noundef !11
  %_4.i.i.i.i = load i32, ptr %_2059, align 4, !alias.scope !1326, !noalias !1325, !noundef !11
  %_0.i = icmp slt i32 %_3.i.i.i.i, %_4.i.i.i.i
  %consume_left = xor i1 %_0.i, true
  %3 = tail call i32 @llvm.smin.i32(i32 %_3.i.i.i.i, i32 %_4.i.i.i.i)
  store i32 %3, ptr %_2511, align 4
  %count = zext i1 %consume_left to i64
  %_20 = getelementptr inbounds nuw i32, ptr %_2059, i64 %count
  %count2 = zext i1 %_0.i to i64
  %_23 = getelementptr inbounds nuw i32, ptr %right.sroa.0.010, i64 %count2
  %_25 = getelementptr inbounds nuw i8, ptr %_2511, i64 4
  %_7 = icmp ne ptr %_20, %_9
  %_10 = icmp ne ptr %_23, %right_end
  %or.cond = select i1 %_7, i1 %_10, i1 false
  br i1 %or.cond, label %bb3, label %bb1.bb9_crit_edge
}

; core::slice::sort::stable::merge::merge
; Function Attrs: nofree norecurse nosync nounwind nonlazybind memory(argmem: readwrite, inaccessiblemem: readwrite) uwtable
define void @_ZN4core5slice4sort6stable5merge5merge17h7c0738b142990bf2E(ptr noalias noundef nonnull align 4 captures(address) %v.0, i64 noundef range(i64 0, 2305843009213693952) %v.1, ptr noalias noundef nonnull align 4 %scratch.0, i64 noundef range(i64 0, 2305843009213693952) %scratch.1, i64 noundef %0, ptr noalias noundef readnone align 8 captures(none) dereferenceable(8) %is_less) unnamed_addr #2 personality ptr @rust_eh_personality {
start:
  %_6 = icmp eq i64 %0, 0
  %_7 = icmp uge i64 %0, %v.1
  %or.cond = or i1 %_6, %_7
  br i1 %or.cond, label %bb18, label %bb2

bb2:                                              ; preds = %start
  %right_len = sub nuw nsw i64 %v.1, %0
  %_0.sroa.0.0.i = tail call noundef i64 @llvm.umin.i64(i64 %right_len, i64 %0)
  %_8 = icmp samesign ult i64 %scratch.1, %_0.sroa.0.0.i
  br i1 %_8, label %bb18, label %bb5

bb5:                                              ; preds = %bb2
  %v_mid = getelementptr inbounds nuw i32, ptr %v.0, i64 %0
  %v_end = getelementptr inbounds nuw i32, ptr %v.0, i64 %v.1
  %left_is_shorter.not = icmp ugt i64 %0, %right_len
  %spec.select = select i1 %left_is_shorter.not, ptr %v_mid, ptr %v.0
  %spec.select10 = tail call i64 @llvm.umin.i64(i64 %0, i64 %right_len)
  %1 = shl nuw nsw i64 %spec.select10, 2
  tail call void @llvm.memcpy.p0.p0.i64(ptr nonnull align 4 %scratch.0, ptr nonnull align 4 %spec.select, i64 %1, i1 false)
  %_22.idx = shl nuw nsw i64 %spec.select10, 2
  %_22 = getelementptr inbounds nuw i8, ptr %scratch.0, i64 %_22.idx
  br i1 %left_is_shorter.not, label %bb1.i, label %bb12

bb1.i:                                            ; preds = %bb5, %bb1.i
  %_2110.i = phi ptr [ %_21.i, %bb1.i ], [ %_22, %bb5 ]
  %_188.i = phi ptr [ %_18.i, %bb1.i ], [ %spec.select, %bb5 ]
  %out.sroa.0.0.i = phi ptr [ %4, %bb1.i ], [ %v_end, %bb5 ]
  %2 = getelementptr inbounds i8, ptr %_188.i, i64 -4
  %3 = getelementptr inbounds i8, ptr %_2110.i, i64 -4
  %4 = getelementptr inbounds i8, ptr %out.sroa.0.0.i, i64 -4
  tail call void @llvm.experimental.noalias.scope.decl(metadata !1327)
  tail call void @llvm.experimental.noalias.scope.decl(metadata !1330)
  tail call void @llvm.experimental.noalias.scope.decl(metadata !1332)
  tail call void @llvm.experimental.noalias.scope.decl(metadata !1335)
  tail call void @llvm.experimental.noalias.scope.decl(metadata !1337)
  tail call void @llvm.experimental.noalias.scope.decl(metadata !1340)
  tail call void @llvm.experimental.noalias.scope.decl(metadata !1342)
  tail call void @llvm.experimental.noalias.scope.decl(metadata !1345)
  %_3.i.i.i.i.i = load i32, ptr %3, align 4, !alias.scope !1347, !noalias !1348, !noundef !11
  %_4.i.i.i.i.i = load i32, ptr %2, align 4, !alias.scope !1351, !noalias !1352, !noundef !11
  %_0.i.i = icmp slt i32 %_3.i.i.i.i.i, %_4.i.i.i.i.i
  %5 = tail call i32 @llvm.smax.i32(i32 %_3.i.i.i.i.i, i32 %_4.i.i.i.i.i)
  store i32 %5, ptr %4, align 4, !noalias !1353
  %_20.i = xor i1 %_0.i.i, true
  %count.i = zext i1 %_20.i to i64
  %_18.i = getelementptr inbounds nuw i32, ptr %2, i64 %count.i
  %count4.i = zext i1 %_0.i.i to i64
  %_21.i = getelementptr inbounds nuw i32, ptr %3, i64 %count4.i
  %_23.i = icmp eq ptr %_18.i, %v.0
  %_26.i = icmp eq ptr %_21.i, %scratch.0
  %or.cond.i = select i1 %_23.i, i1 true, i1 %_26.i
  br i1 %or.cond.i, label %bb16, label %bb1.i

bb12:                                             ; preds = %bb5
  %_76.i.not = icmp eq i64 %0, 0
  br i1 %_76.i.not, label %bb16, label %bb3.i

bb3.i:                                            ; preds = %bb12, %bb3.i
  %_2511.i = phi ptr [ %_25.i, %bb3.i ], [ %spec.select, %bb12 ]
  %right.sroa.0.010.i = phi ptr [ %_23.i17, %bb3.i ], [ %v_mid, %bb12 ]
  %_2059.i = phi ptr [ %_20.i16, %bb3.i ], [ %scratch.0, %bb12 ]
  tail call void @llvm.experimental.noalias.scope.decl(metadata !1354)
  tail call void @llvm.experimental.noalias.scope.decl(metadata !1357)
  tail call void @llvm.experimental.noalias.scope.decl(metadata !1359)
  tail call void @llvm.experimental.noalias.scope.decl(metadata !1362)
  tail call void @llvm.experimental.noalias.scope.decl(metadata !1364)
  tail call void @llvm.experimental.noalias.scope.decl(metadata !1367)
  tail call void @llvm.experimental.noalias.scope.decl(metadata !1369)
  tail call void @llvm.experimental.noalias.scope.decl(metadata !1372)
  %_3.i.i.i.i.i12 = load i32, ptr %right.sroa.0.010.i, align 4, !alias.scope !1374, !noalias !1375, !noundef !11
  %_4.i.i.i.i.i13 = load i32, ptr %_2059.i, align 4, !alias.scope !1378, !noalias !1379, !noundef !11
  %_0.i.i14 = icmp slt i32 %_3.i.i.i.i.i12, %_4.i.i.i.i.i13
  %consume_left.i = xor i1 %_0.i.i14, true
  %6 = tail call i32 @llvm.smin.i32(i32 %_3.i.i.i.i.i12, i32 %_4.i.i.i.i.i13)
  store i32 %6, ptr %_2511.i, align 4, !noalias !1380
  %count.i15 = zext i1 %consume_left.i to i64
  %_20.i16 = getelementptr inbounds nuw i32, ptr %_2059.i, i64 %count.i15
  %count2.i = zext i1 %_0.i.i14 to i64
  %_23.i17 = getelementptr inbounds nuw i32, ptr %right.sroa.0.010.i, i64 %count2.i
  %_25.i = getelementptr inbounds nuw i8, ptr %_2511.i, i64 4
  %_7.i = icmp ne ptr %_20.i16, %_22
  %_10.i = icmp ne ptr %_23.i17, %v_end
  %or.cond.i18 = select i1 %_7.i, i1 %_10.i, i1 false
  br i1 %or.cond.i18, label %bb3.i, label %bb16

bb16:                                             ; preds = %bb3.i, %bb1.i, %bb12
  %merge_state.sroa.13.0 = phi ptr [ %spec.select, %bb12 ], [ %_18.i, %bb1.i ], [ %_25.i, %bb3.i ]
  %merge_state.sroa.7.0 = phi ptr [ %_22, %bb12 ], [ %_21.i, %bb1.i ], [ %_22, %bb3.i ]
  %merge_state.sroa.0.0 = phi ptr [ %scratch.0, %bb12 ], [ %scratch.0, %bb1.i ], [ %_20.i16, %bb3.i ]
  %7 = ptrtoint ptr %merge_state.sroa.7.0 to i64
  %8 = ptrtoint ptr %merge_state.sroa.0.0 to i64
  %9 = sub nuw i64 %7, %8
  tail call void @llvm.memcpy.p0.p0.i64(ptr align 4 %merge_state.sroa.13.0, ptr align 4 %merge_state.sroa.0.0, i64 %9, i1 false), !noalias !1381
  br label %bb18

bb18:                                             ; preds = %bb2, %start, %bb16
  ret void
}

; core::slice::sort::stable::quicksort::stable_partition
; Function Attrs: nounwind nonlazybind memory(argmem: readwrite, inaccessiblemem: readwrite) uwtable
define noundef i64 @_ZN4core5slice4sort6stable9quicksort16stable_partition17hae9a490fc7b9c533E(ptr noalias noundef nonnull align 4 captures(address) %v.0, i64 noundef range(i64 0, 2305843009213693952) %v.1, ptr noalias noundef nonnull align 4 captures(none) %scratch.0, i64 noundef range(i64 0, 2305843009213693952) %scratch.1, i64 noundef %0, i1 noundef zeroext %pivot_goes_left, ptr noalias readnone align 8 captures(none) %is_less) unnamed_addr #7 {
start:
  %_8 = icmp samesign uge i64 %scratch.1, %v.1
  %.not = icmp ult i64 %0, %v.1
  %or.cond = and i1 %_8, %.not
  br i1 %or.cond, label %bb33, label %bb31, !prof !1386

bb33:                                             ; preds = %start
  %pivot = getelementptr inbounds nuw i32, ptr %v.0, i64 %0
  %_86 = getelementptr i32, ptr %scratch.0, i64 %v.1
  %_8.i70 = zext i1 %pivot_goes_left to i64
  br label %bb3

bb31:                                             ; preds = %start
  tail call void @llvm.trap()
  unreachable

bb3:                                              ; preds = %bb23, %bb33
  %state.sroa.27.0 = phi i64 [ 0, %bb33 ], [ %14, %bb23 ]
  %state.sroa.9.0 = phi ptr [ %v.0, %bb33 ], [ %_9.i71, %bb23 ]
  %state.sroa.43.0 = phi ptr [ %_86, %bb33 ], [ %12, %bb23 ]
  %pivot_pos.sroa.0.0 = phi i64 [ %0, %bb33 ], [ %v.1, %bb23 ]
  %1 = tail call i64 @llvm.usub.sat.i64(i64 %pivot_pos.sroa.0.0, i64 3)
  %unroll_end = getelementptr inbounds nuw i32, ptr %v.0, i64 %1
  %_1985 = icmp ult ptr %state.sroa.9.0, %unroll_end
  br i1 %_1985, label %bb6, label %bb16

bb6:                                              ; preds = %bb3, %bb6
  %state.sroa.43.188 = phi ptr [ %8, %bb6 ], [ %state.sroa.43.0, %bb3 ]
  %state.sroa.9.187 = phi ptr [ %_9.i54, %bb6 ], [ %state.sroa.9.0, %bb3 ]
  %state.sroa.27.186 = phi i64 [ %9, %bb6 ], [ %state.sroa.27.0, %bb3 ]
  tail call void @llvm.experimental.noalias.scope.decl(metadata !1387)
  tail call void @llvm.experimental.noalias.scope.decl(metadata !1390)
  tail call void @llvm.experimental.noalias.scope.decl(metadata !1392)
  tail call void @llvm.experimental.noalias.scope.decl(metadata !1395)
  tail call void @llvm.experimental.noalias.scope.decl(metadata !1397)
  tail call void @llvm.experimental.noalias.scope.decl(metadata !1400)
  tail call void @llvm.experimental.noalias.scope.decl(metadata !1402)
  tail call void @llvm.experimental.noalias.scope.decl(metadata !1405)
  tail call void @llvm.experimental.noalias.scope.decl(metadata !1407)
  tail call void @llvm.experimental.noalias.scope.decl(metadata !1410)
  %_3.i.i.i.i.i = load i32, ptr %pivot, align 4, !alias.scope !1412, !noalias !1413, !noundef !11
  %_4.i.i.i.i.i = load i32, ptr %state.sroa.9.187, align 4, !alias.scope !1413, !noalias !1412, !noundef !11
  %_0.i.i = icmp sge i32 %_3.i.i.i.i.i, %_4.i.i.i.i.i
  %2 = getelementptr inbounds i8, ptr %state.sroa.43.188, i64 -4
  %dst_base.sroa.0.0.i = select i1 %_0.i.i, ptr %scratch.0, ptr %2
  %dst.i = getelementptr inbounds nuw i32, ptr %dst_base.sroa.0.0.i, i64 %state.sroa.27.186
  store i32 %_4.i.i.i.i.i, ptr %dst.i, align 4, !noalias !1414
  %_8.i = zext i1 %_0.i.i to i64
  %3 = add i64 %state.sroa.27.186, %_8.i
  %_9.i = getelementptr inbounds nuw i8, ptr %state.sroa.9.187, i64 4
  tail call void @llvm.experimental.noalias.scope.decl(metadata !1417)
  tail call void @llvm.experimental.noalias.scope.decl(metadata !1420)
  tail call void @llvm.experimental.noalias.scope.decl(metadata !1422)
  tail call void @llvm.experimental.noalias.scope.decl(metadata !1425)
  tail call void @llvm.experimental.noalias.scope.decl(metadata !1427)
  tail call void @llvm.experimental.noalias.scope.decl(metadata !1430)
  tail call void @llvm.experimental.noalias.scope.decl(metadata !1432)
  tail call void @llvm.experimental.noalias.scope.decl(metadata !1435)
  tail call void @llvm.experimental.noalias.scope.decl(metadata !1437)
  tail call void @llvm.experimental.noalias.scope.decl(metadata !1440)
  %_3.i.i.i.i.i25 = load i32, ptr %pivot, align 4, !alias.scope !1442, !noalias !1443, !noundef !11
  %_4.i.i.i.i.i26 = load i32, ptr %_9.i, align 4, !alias.scope !1443, !noalias !1442, !noundef !11
  %_0.i.i27 = icmp sge i32 %_3.i.i.i.i.i25, %_4.i.i.i.i.i26
  %4 = getelementptr inbounds i8, ptr %state.sroa.43.188, i64 -8
  %dst_base.sroa.0.0.i29 = select i1 %_0.i.i27, ptr %scratch.0, ptr %4
  %dst.i31 = getelementptr inbounds nuw i32, ptr %dst_base.sroa.0.0.i29, i64 %3
  store i32 %_4.i.i.i.i.i26, ptr %dst.i31, align 4, !noalias !1444
  %_8.i33 = zext i1 %_0.i.i27 to i64
  %5 = add i64 %3, %_8.i33
  %_9.i34 = getelementptr inbounds nuw i8, ptr %state.sroa.9.187, i64 8
  tail call void @llvm.experimental.noalias.scope.decl(metadata !1447)
  tail call void @llvm.experimental.noalias.scope.decl(metadata !1450)
  tail call void @llvm.experimental.noalias.scope.decl(metadata !1452)
  tail call void @llvm.experimental.noalias.scope.decl(metadata !1455)
  tail call void @llvm.experimental.noalias.scope.decl(metadata !1457)
  tail call void @llvm.experimental.noalias.scope.decl(metadata !1460)
  tail call void @llvm.experimental.noalias.scope.decl(metadata !1462)
  tail call void @llvm.experimental.noalias.scope.decl(metadata !1465)
  tail call void @llvm.experimental.noalias.scope.decl(metadata !1467)
  tail call void @llvm.experimental.noalias.scope.decl(metadata !1470)
  %_3.i.i.i.i.i35 = load i32, ptr %pivot, align 4, !alias.scope !1472, !noalias !1473, !noundef !11
  %_4.i.i.i.i.i36 = load i32, ptr %_9.i34, align 4, !alias.scope !1473, !noalias !1472, !noundef !11
  %_0.i.i37 = icmp sge i32 %_3.i.i.i.i.i35, %_4.i.i.i.i.i36
  %6 = getelementptr inbounds i8, ptr %state.sroa.43.188, i64 -12
  %dst_base.sroa.0.0.i39 = select i1 %_0.i.i37, ptr %scratch.0, ptr %6
  %dst.i41 = getelementptr inbounds nuw i32, ptr %dst_base.sroa.0.0.i39, i64 %5
  store i32 %_4.i.i.i.i.i36, ptr %dst.i41, align 4, !noalias !1474
  %_8.i43 = zext i1 %_0.i.i37 to i64
  %7 = add i64 %5, %_8.i43
  %_9.i44 = getelementptr inbounds nuw i8, ptr %state.sroa.9.187, i64 12
  tail call void @llvm.experimental.noalias.scope.decl(metadata !1477)
  tail call void @llvm.experimental.noalias.scope.decl(metadata !1480)
  tail call void @llvm.experimental.noalias.scope.decl(metadata !1482)
  tail call void @llvm.experimental.noalias.scope.decl(metadata !1485)
  tail call void @llvm.experimental.noalias.scope.decl(metadata !1487)
  tail call void @llvm.experimental.noalias.scope.decl(metadata !1490)
  tail call void @llvm.experimental.noalias.scope.decl(metadata !1492)
  tail call void @llvm.experimental.noalias.scope.decl(metadata !1495)
  tail call void @llvm.experimental.noalias.scope.decl(metadata !1497)
  tail call void @llvm.experimental.noalias.scope.decl(metadata !1500)
  %_3.i.i.i.i.i45 = load i32, ptr %pivot, align 4, !alias.scope !1502, !noalias !1503, !noundef !11
  %_4.i.i.i.i.i46 = load i32, ptr %_9.i44, align 4, !alias.scope !1503, !noalias !1502, !noundef !11
  %_0.i.i47 = icmp sge i32 %_3.i.i.i.i.i45, %_4.i.i.i.i.i46
  %8 = getelementptr inbounds i8, ptr %state.sroa.43.188, i64 -16
  %dst_base.sroa.0.0.i49 = select i1 %_0.i.i47, ptr %scratch.0, ptr %8
  %dst.i51 = getelementptr inbounds nuw i32, ptr %dst_base.sroa.0.0.i49, i64 %7
  store i32 %_4.i.i.i.i.i46, ptr %dst.i51, align 4, !noalias !1504
  %_8.i53 = zext i1 %_0.i.i47 to i64
  %9 = add i64 %7, %_8.i53
  %_9.i54 = getelementptr inbounds nuw i8, ptr %state.sroa.9.187, i64 16
  %_19 = icmp ult ptr %_9.i54, %unroll_end
  br i1 %_19, label %bb6, label %bb16

bb16:                                             ; preds = %bb6, %bb3
  %state.sroa.27.1.lcssa = phi i64 [ %state.sroa.27.0, %bb3 ], [ %9, %bb6 ]
  %state.sroa.9.1.lcssa = phi ptr [ %state.sroa.9.0, %bb3 ], [ %_9.i54, %bb6 ]
  %state.sroa.43.1.lcssa = phi ptr [ %state.sroa.43.0, %bb3 ], [ %8, %bb6 ]
  %loop_end = getelementptr inbounds nuw i32, ptr %v.0, i64 %pivot_pos.sroa.0.0
  %_4791 = icmp ult ptr %state.sroa.9.1.lcssa, %loop_end
  br i1 %_4791, label %bb18, label %bb21

bb21:                                             ; preds = %bb18, %bb16
  %state.sroa.27.2.lcssa = phi i64 [ %state.sroa.27.1.lcssa, %bb16 ], [ %11, %bb18 ]
  %state.sroa.9.2.lcssa = phi ptr [ %state.sroa.9.1.lcssa, %bb16 ], [ %_9.i64, %bb18 ]
  %state.sroa.43.2.lcssa = phi ptr [ %state.sroa.43.1.lcssa, %bb16 ], [ %10, %bb18 ]
  %_55 = icmp eq i64 %pivot_pos.sroa.0.0, %v.1
  br i1 %_55, label %bb22, label %bb23

bb18:                                             ; preds = %bb16, %bb18
  %state.sroa.43.294 = phi ptr [ %10, %bb18 ], [ %state.sroa.43.1.lcssa, %bb16 ]
  %state.sroa.9.293 = phi ptr [ %_9.i64, %bb18 ], [ %state.sroa.9.1.lcssa, %bb16 ]
  %state.sroa.27.292 = phi i64 [ %11, %bb18 ], [ %state.sroa.27.1.lcssa, %bb16 ]
  tail call void @llvm.experimental.noalias.scope.decl(metadata !1507)
  tail call void @llvm.experimental.noalias.scope.decl(metadata !1510)
  tail call void @llvm.experimental.noalias.scope.decl(metadata !1512)
  tail call void @llvm.experimental.noalias.scope.decl(metadata !1515)
  tail call void @llvm.experimental.noalias.scope.decl(metadata !1517)
  tail call void @llvm.experimental.noalias.scope.decl(metadata !1520)
  tail call void @llvm.experimental.noalias.scope.decl(metadata !1522)
  tail call void @llvm.experimental.noalias.scope.decl(metadata !1525)
  tail call void @llvm.experimental.noalias.scope.decl(metadata !1527)
  tail call void @llvm.experimental.noalias.scope.decl(metadata !1530)
  %_3.i.i.i.i.i55 = load i32, ptr %pivot, align 4, !alias.scope !1532, !noalias !1533, !noundef !11
  %_4.i.i.i.i.i56 = load i32, ptr %state.sroa.9.293, align 4, !alias.scope !1533, !noalias !1532, !noundef !11
  %_0.i.i57 = icmp sge i32 %_3.i.i.i.i.i55, %_4.i.i.i.i.i56
  %10 = getelementptr inbounds i8, ptr %state.sroa.43.294, i64 -4
  %dst_base.sroa.0.0.i59 = select i1 %_0.i.i57, ptr %scratch.0, ptr %10
  %dst.i61 = getelementptr inbounds nuw i32, ptr %dst_base.sroa.0.0.i59, i64 %state.sroa.27.292
  store i32 %_4.i.i.i.i.i56, ptr %dst.i61, align 4, !noalias !1534
  %_8.i63 = zext i1 %_0.i.i57 to i64
  %11 = add i64 %state.sroa.27.292, %_8.i63
  %_9.i64 = getelementptr inbounds nuw i8, ptr %state.sroa.9.293, i64 4
  %_47 = icmp ult ptr %_9.i64, %loop_end
  br i1 %_47, label %bb18, label %bb21

bb23:                                             ; preds = %bb21
  %12 = getelementptr inbounds i8, ptr %state.sroa.43.2.lcssa, i64 -4
  %dst_base.sroa.0.0.i66 = select i1 %pivot_goes_left, ptr %scratch.0, ptr %12
  %dst.i68 = getelementptr inbounds nuw i32, ptr %dst_base.sroa.0.0.i66, i64 %state.sroa.27.2.lcssa
  %13 = load i32, ptr %state.sroa.9.2.lcssa, align 4, !noalias !1537
  store i32 %13, ptr %dst.i68, align 4, !noalias !1537
  %14 = add i64 %state.sroa.27.2.lcssa, %_8.i70
  %_9.i71 = getelementptr inbounds nuw i8, ptr %state.sroa.9.2.lcssa, i64 4
  br label %bb3

bb22:                                             ; preds = %bb21
  %15 = shl i64 %state.sroa.27.2.lcssa, 2
  tail call void @llvm.memcpy.p0.p0.i64(ptr nonnull align 4 %v.0, ptr nonnull align 4 %scratch.0, i64 %15, i1 false)
  %_63 = sub i64 %v.1, %state.sroa.27.2.lcssa
  %_9798.not = icmp eq i64 %v.1, %state.sroa.27.2.lcssa
  br i1 %_9798.not, label %bb30, label %bb42.lr.ph

bb42.lr.ph:                                       ; preds = %bb22
  %16 = getelementptr i32, ptr %v.0, i64 %state.sroa.27.2.lcssa
  %xtraiter = and i64 %_63, 3
  %17 = sub i64 %state.sroa.27.2.lcssa, %v.1
  %18 = icmp ugt i64 %17, -4
  br i1 %18, label %bb30.loopexit.unr-lcssa, label %bb42.lr.ph.new

bb42.lr.ph.new:                                   ; preds = %bb42.lr.ph
  %unroll_iter = and i64 %_63, -4
  %invariant.gep = getelementptr i8, ptr %16, i64 4
  %invariant.gep114 = getelementptr i8, ptr %16, i64 8
  %invariant.gep116 = getelementptr i8, ptr %16, i64 12
  br label %bb42

bb42:                                             ; preds = %bb42, %bb42.lr.ph.new
  %iter.sroa.0.099 = phi i64 [ 0, %bb42.lr.ph.new ], [ %29, %bb42 ]
  %niter = phi i64 [ 0, %bb42.lr.ph.new ], [ %niter.next.3, %bb42 ]
  %19 = getelementptr i32, ptr %16, i64 %iter.sroa.0.099
  %20 = xor i64 %iter.sroa.0.099, -1
  %21 = getelementptr i32, ptr %_86, i64 %20
  %22 = load i32, ptr %21, align 4
  store i32 %22, ptr %19, align 4
  %gep = getelementptr i32, ptr %invariant.gep, i64 %iter.sroa.0.099
  %23 = xor i64 %iter.sroa.0.099, -2
  %24 = getelementptr i32, ptr %_86, i64 %23
  %25 = load i32, ptr %24, align 4
  store i32 %25, ptr %gep, align 4
  %gep115 = getelementptr i32, ptr %invariant.gep114, i64 %iter.sroa.0.099
  %26 = xor i64 %iter.sroa.0.099, -3
  %27 = getelementptr i32, ptr %_86, i64 %26
  %28 = load i32, ptr %27, align 4
  store i32 %28, ptr %gep115, align 4
  %29 = add nuw i64 %iter.sroa.0.099, 4
  %gep117 = getelementptr i32, ptr %invariant.gep116, i64 %iter.sroa.0.099
  %30 = xor i64 %iter.sroa.0.099, -4
  %31 = getelementptr i32, ptr %_86, i64 %30
  %32 = load i32, ptr %31, align 4
  store i32 %32, ptr %gep117, align 4
  %niter.next.3 = add i64 %niter, 4
  %niter.ncmp.3 = icmp eq i64 %niter.next.3, %unroll_iter
  br i1 %niter.ncmp.3, label %bb30.loopexit.unr-lcssa, label %bb42

bb30.loopexit.unr-lcssa:                          ; preds = %bb42, %bb42.lr.ph
  %iter.sroa.0.099.unr = phi i64 [ 0, %bb42.lr.ph ], [ %29, %bb42 ]
  %lcmp.mod.not = icmp eq i64 %xtraiter, 0
  br i1 %lcmp.mod.not, label %bb30, label %bb42.epil

bb42.epil:                                        ; preds = %bb30.loopexit.unr-lcssa, %bb42.epil
  %iter.sroa.0.099.epil = phi i64 [ %33, %bb42.epil ], [ %iter.sroa.0.099.unr, %bb30.loopexit.unr-lcssa ]
  %epil.iter = phi i64 [ %epil.iter.next, %bb42.epil ], [ 0, %bb30.loopexit.unr-lcssa ]
  %33 = add nuw i64 %iter.sroa.0.099.epil, 1
  %34 = getelementptr i32, ptr %16, i64 %iter.sroa.0.099.epil
  %35 = xor i64 %iter.sroa.0.099.epil, -1
  %36 = getelementptr i32, ptr %_86, i64 %35
  %37 = load i32, ptr %36, align 4
  store i32 %37, ptr %34, align 4
  %epil.iter.next = add i64 %epil.iter, 1
  %epil.iter.cmp.not = icmp eq i64 %epil.iter.next, %xtraiter
  br i1 %epil.iter.cmp.not, label %bb30, label %bb42.epil, !llvm.loop !1540

bb30:                                             ; preds = %bb30.loopexit.unr-lcssa, %bb42.epil, %bb22
  ret i64 %state.sroa.27.2.lcssa
}

; core::slice::sort::stable::quicksort::stable_partition
; Function Attrs: nounwind nonlazybind memory(argmem: readwrite, inaccessiblemem: readwrite) uwtable
define noundef i64 @_ZN4core5slice4sort6stable9quicksort16stable_partition17hf9e43994fb201158E(ptr noalias noundef nonnull align 4 captures(address) %v.0, i64 noundef range(i64 0, 2305843009213693952) %v.1, ptr noalias noundef nonnull align 4 captures(none) %scratch.0, i64 noundef range(i64 0, 2305843009213693952) %scratch.1, i64 noundef %0, i1 noundef zeroext %pivot_goes_left, ptr noalias readnone align 8 captures(none) %is_less) unnamed_addr #7 {
start:
  %_8 = icmp samesign uge i64 %scratch.1, %v.1
  %.not = icmp ult i64 %0, %v.1
  %or.cond = and i1 %_8, %.not
  br i1 %or.cond, label %bb33, label %bb31, !prof !1386

bb33:                                             ; preds = %start
  %pivot = getelementptr inbounds nuw i32, ptr %v.0, i64 %0
  %_86 = getelementptr i32, ptr %scratch.0, i64 %v.1
  %_8.i70 = zext i1 %pivot_goes_left to i64
  br label %bb3

bb31:                                             ; preds = %start
  tail call void @llvm.trap()
  unreachable

bb3:                                              ; preds = %bb23, %bb33
  %state.sroa.27.0 = phi i64 [ 0, %bb33 ], [ %14, %bb23 ]
  %state.sroa.9.0 = phi ptr [ %v.0, %bb33 ], [ %_9.i71, %bb23 ]
  %state.sroa.43.0 = phi ptr [ %_86, %bb33 ], [ %12, %bb23 ]
  %pivot_pos.sroa.0.0 = phi i64 [ %0, %bb33 ], [ %v.1, %bb23 ]
  %1 = tail call i64 @llvm.usub.sat.i64(i64 %pivot_pos.sroa.0.0, i64 3)
  %unroll_end = getelementptr inbounds nuw i32, ptr %v.0, i64 %1
  %_1985 = icmp ult ptr %state.sroa.9.0, %unroll_end
  br i1 %_1985, label %bb6, label %bb16

bb6:                                              ; preds = %bb3, %bb6
  %state.sroa.43.188 = phi ptr [ %8, %bb6 ], [ %state.sroa.43.0, %bb3 ]
  %state.sroa.9.187 = phi ptr [ %_9.i54, %bb6 ], [ %state.sroa.9.0, %bb3 ]
  %state.sroa.27.186 = phi i64 [ %9, %bb6 ], [ %state.sroa.27.0, %bb3 ]
  tail call void @llvm.experimental.noalias.scope.decl(metadata !1542)
  tail call void @llvm.experimental.noalias.scope.decl(metadata !1545)
  tail call void @llvm.experimental.noalias.scope.decl(metadata !1547)
  tail call void @llvm.experimental.noalias.scope.decl(metadata !1550)
  tail call void @llvm.experimental.noalias.scope.decl(metadata !1552)
  tail call void @llvm.experimental.noalias.scope.decl(metadata !1555)
  tail call void @llvm.experimental.noalias.scope.decl(metadata !1557)
  tail call void @llvm.experimental.noalias.scope.decl(metadata !1560)
  %_3.i.i.i.i = load i32, ptr %state.sroa.9.187, align 4, !alias.scope !1562, !noalias !1563, !noundef !11
  %_4.i.i.i.i = load i32, ptr %pivot, align 4, !alias.scope !1563, !noalias !1562, !noundef !11
  %_0.i = icmp slt i32 %_3.i.i.i.i, %_4.i.i.i.i
  %2 = getelementptr inbounds i8, ptr %state.sroa.43.188, i64 -4
  %dst_base.sroa.0.0.i = select i1 %_0.i, ptr %scratch.0, ptr %2
  %dst.i = getelementptr inbounds nuw i32, ptr %dst_base.sroa.0.0.i, i64 %state.sroa.27.186
  store i32 %_3.i.i.i.i, ptr %dst.i, align 4, !noalias !1564
  %_8.i = zext i1 %_0.i to i64
  %3 = add i64 %state.sroa.27.186, %_8.i
  %_9.i = getelementptr inbounds nuw i8, ptr %state.sroa.9.187, i64 4
  tail call void @llvm.experimental.noalias.scope.decl(metadata !1567)
  tail call void @llvm.experimental.noalias.scope.decl(metadata !1570)
  tail call void @llvm.experimental.noalias.scope.decl(metadata !1572)
  tail call void @llvm.experimental.noalias.scope.decl(metadata !1575)
  tail call void @llvm.experimental.noalias.scope.decl(metadata !1577)
  tail call void @llvm.experimental.noalias.scope.decl(metadata !1580)
  tail call void @llvm.experimental.noalias.scope.decl(metadata !1582)
  tail call void @llvm.experimental.noalias.scope.decl(metadata !1585)
  %_3.i.i.i.i25 = load i32, ptr %_9.i, align 4, !alias.scope !1587, !noalias !1588, !noundef !11
  %_4.i.i.i.i26 = load i32, ptr %pivot, align 4, !alias.scope !1588, !noalias !1587, !noundef !11
  %_0.i27 = icmp slt i32 %_3.i.i.i.i25, %_4.i.i.i.i26
  %4 = getelementptr inbounds i8, ptr %state.sroa.43.188, i64 -8
  %dst_base.sroa.0.0.i29 = select i1 %_0.i27, ptr %scratch.0, ptr %4
  %dst.i31 = getelementptr inbounds nuw i32, ptr %dst_base.sroa.0.0.i29, i64 %3
  store i32 %_3.i.i.i.i25, ptr %dst.i31, align 4, !noalias !1589
  %_8.i33 = zext i1 %_0.i27 to i64
  %5 = add i64 %3, %_8.i33
  %_9.i34 = getelementptr inbounds nuw i8, ptr %state.sroa.9.187, i64 8
  tail call void @llvm.experimental.noalias.scope.decl(metadata !1592)
  tail call void @llvm.experimental.noalias.scope.decl(metadata !1595)
  tail call void @llvm.experimental.noalias.scope.decl(metadata !1597)
  tail call void @llvm.experimental.noalias.scope.decl(metadata !1600)
  tail call void @llvm.experimental.noalias.scope.decl(metadata !1602)
  tail call void @llvm.experimental.noalias.scope.decl(metadata !1605)
  tail call void @llvm.experimental.noalias.scope.decl(metadata !1607)
  tail call void @llvm.experimental.noalias.scope.decl(metadata !1610)
  %_3.i.i.i.i35 = load i32, ptr %_9.i34, align 4, !alias.scope !1612, !noalias !1613, !noundef !11
  %_4.i.i.i.i36 = load i32, ptr %pivot, align 4, !alias.scope !1613, !noalias !1612, !noundef !11
  %_0.i37 = icmp slt i32 %_3.i.i.i.i35, %_4.i.i.i.i36
  %6 = getelementptr inbounds i8, ptr %state.sroa.43.188, i64 -12
  %dst_base.sroa.0.0.i39 = select i1 %_0.i37, ptr %scratch.0, ptr %6
  %dst.i41 = getelementptr inbounds nuw i32, ptr %dst_base.sroa.0.0.i39, i64 %5
  store i32 %_3.i.i.i.i35, ptr %dst.i41, align 4, !noalias !1614
  %_8.i43 = zext i1 %_0.i37 to i64
  %7 = add i64 %5, %_8.i43
  %_9.i44 = getelementptr inbounds nuw i8, ptr %state.sroa.9.187, i64 12
  tail call void @llvm.experimental.noalias.scope.decl(metadata !1617)
  tail call void @llvm.experimental.noalias.scope.decl(metadata !1620)
  tail call void @llvm.experimental.noalias.scope.decl(metadata !1622)
  tail call void @llvm.experimental.noalias.scope.decl(metadata !1625)
  tail call void @llvm.experimental.noalias.scope.decl(metadata !1627)
  tail call void @llvm.experimental.noalias.scope.decl(metadata !1630)
  tail call void @llvm.experimental.noalias.scope.decl(metadata !1632)
  tail call void @llvm.experimental.noalias.scope.decl(metadata !1635)
  %_3.i.i.i.i45 = load i32, ptr %_9.i44, align 4, !alias.scope !1637, !noalias !1638, !noundef !11
  %_4.i.i.i.i46 = load i32, ptr %pivot, align 4, !alias.scope !1638, !noalias !1637, !noundef !11
  %_0.i47 = icmp slt i32 %_3.i.i.i.i45, %_4.i.i.i.i46
  %8 = getelementptr inbounds i8, ptr %state.sroa.43.188, i64 -16
  %dst_base.sroa.0.0.i49 = select i1 %_0.i47, ptr %scratch.0, ptr %8
  %dst.i51 = getelementptr inbounds nuw i32, ptr %dst_base.sroa.0.0.i49, i64 %7
  store i32 %_3.i.i.i.i45, ptr %dst.i51, align 4, !noalias !1639
  %_8.i53 = zext i1 %_0.i47 to i64
  %9 = add i64 %7, %_8.i53
  %_9.i54 = getelementptr inbounds nuw i8, ptr %state.sroa.9.187, i64 16
  %_19 = icmp ult ptr %_9.i54, %unroll_end
  br i1 %_19, label %bb6, label %bb16

bb16:                                             ; preds = %bb6, %bb3
  %state.sroa.27.1.lcssa = phi i64 [ %state.sroa.27.0, %bb3 ], [ %9, %bb6 ]
  %state.sroa.9.1.lcssa = phi ptr [ %state.sroa.9.0, %bb3 ], [ %_9.i54, %bb6 ]
  %state.sroa.43.1.lcssa = phi ptr [ %state.sroa.43.0, %bb3 ], [ %8, %bb6 ]
  %loop_end = getelementptr inbounds nuw i32, ptr %v.0, i64 %pivot_pos.sroa.0.0
  %_4791 = icmp ult ptr %state.sroa.9.1.lcssa, %loop_end
  br i1 %_4791, label %bb18, label %bb21

bb21:                                             ; preds = %bb18, %bb16
  %state.sroa.27.2.lcssa = phi i64 [ %state.sroa.27.1.lcssa, %bb16 ], [ %11, %bb18 ]
  %state.sroa.9.2.lcssa = phi ptr [ %state.sroa.9.1.lcssa, %bb16 ], [ %_9.i64, %bb18 ]
  %state.sroa.43.2.lcssa = phi ptr [ %state.sroa.43.1.lcssa, %bb16 ], [ %10, %bb18 ]
  %_55 = icmp eq i64 %pivot_pos.sroa.0.0, %v.1
  br i1 %_55, label %bb22, label %bb23

bb18:                                             ; preds = %bb16, %bb18
  %state.sroa.43.294 = phi ptr [ %10, %bb18 ], [ %state.sroa.43.1.lcssa, %bb16 ]
  %state.sroa.9.293 = phi ptr [ %_9.i64, %bb18 ], [ %state.sroa.9.1.lcssa, %bb16 ]
  %state.sroa.27.292 = phi i64 [ %11, %bb18 ], [ %state.sroa.27.1.lcssa, %bb16 ]
  tail call void @llvm.experimental.noalias.scope.decl(metadata !1642)
  tail call void @llvm.experimental.noalias.scope.decl(metadata !1645)
  tail call void @llvm.experimental.noalias.scope.decl(metadata !1647)
  tail call void @llvm.experimental.noalias.scope.decl(metadata !1650)
  tail call void @llvm.experimental.noalias.scope.decl(metadata !1652)
  tail call void @llvm.experimental.noalias.scope.decl(metadata !1655)
  tail call void @llvm.experimental.noalias.scope.decl(metadata !1657)
  tail call void @llvm.experimental.noalias.scope.decl(metadata !1660)
  %_3.i.i.i.i55 = load i32, ptr %state.sroa.9.293, align 4, !alias.scope !1662, !noalias !1663, !noundef !11
  %_4.i.i.i.i56 = load i32, ptr %pivot, align 4, !alias.scope !1663, !noalias !1662, !noundef !11
  %_0.i57 = icmp slt i32 %_3.i.i.i.i55, %_4.i.i.i.i56
  %10 = getelementptr inbounds i8, ptr %state.sroa.43.294, i64 -4
  %dst_base.sroa.0.0.i59 = select i1 %_0.i57, ptr %scratch.0, ptr %10
  %dst.i61 = getelementptr inbounds nuw i32, ptr %dst_base.sroa.0.0.i59, i64 %state.sroa.27.292
  store i32 %_3.i.i.i.i55, ptr %dst.i61, align 4, !noalias !1664
  %_8.i63 = zext i1 %_0.i57 to i64
  %11 = add i64 %state.sroa.27.292, %_8.i63
  %_9.i64 = getelementptr inbounds nuw i8, ptr %state.sroa.9.293, i64 4
  %_47 = icmp ult ptr %_9.i64, %loop_end
  br i1 %_47, label %bb18, label %bb21

bb23:                                             ; preds = %bb21
  %12 = getelementptr inbounds i8, ptr %state.sroa.43.2.lcssa, i64 -4
  %dst_base.sroa.0.0.i66 = select i1 %pivot_goes_left, ptr %scratch.0, ptr %12
  %dst.i68 = getelementptr inbounds nuw i32, ptr %dst_base.sroa.0.0.i66, i64 %state.sroa.27.2.lcssa
  %13 = load i32, ptr %state.sroa.9.2.lcssa, align 4, !noalias !1667
  store i32 %13, ptr %dst.i68, align 4, !noalias !1667
  %14 = add i64 %state.sroa.27.2.lcssa, %_8.i70
  %_9.i71 = getelementptr inbounds nuw i8, ptr %state.sroa.9.2.lcssa, i64 4
  br label %bb3

bb22:                                             ; preds = %bb21
  %15 = shl i64 %state.sroa.27.2.lcssa, 2
  tail call void @llvm.memcpy.p0.p0.i64(ptr nonnull align 4 %v.0, ptr nonnull align 4 %scratch.0, i64 %15, i1 false)
  %_63 = sub i64 %v.1, %state.sroa.27.2.lcssa
  %_9798.not = icmp eq i64 %v.1, %state.sroa.27.2.lcssa
  br i1 %_9798.not, label %bb30, label %bb42.lr.ph

bb42.lr.ph:                                       ; preds = %bb22
  %16 = getelementptr i32, ptr %v.0, i64 %state.sroa.27.2.lcssa
  %xtraiter = and i64 %_63, 3
  %17 = sub i64 %state.sroa.27.2.lcssa, %v.1
  %18 = icmp ugt i64 %17, -4
  br i1 %18, label %bb30.loopexit.unr-lcssa, label %bb42.lr.ph.new

bb42.lr.ph.new:                                   ; preds = %bb42.lr.ph
  %unroll_iter = and i64 %_63, -4
  %invariant.gep = getelementptr i8, ptr %16, i64 4
  %invariant.gep114 = getelementptr i8, ptr %16, i64 8
  %invariant.gep116 = getelementptr i8, ptr %16, i64 12
  br label %bb42

bb42:                                             ; preds = %bb42, %bb42.lr.ph.new
  %iter.sroa.0.099 = phi i64 [ 0, %bb42.lr.ph.new ], [ %29, %bb42 ]
  %niter = phi i64 [ 0, %bb42.lr.ph.new ], [ %niter.next.3, %bb42 ]
  %19 = getelementptr i32, ptr %16, i64 %iter.sroa.0.099
  %20 = xor i64 %iter.sroa.0.099, -1
  %21 = getelementptr i32, ptr %_86, i64 %20
  %22 = load i32, ptr %21, align 4
  store i32 %22, ptr %19, align 4
  %gep = getelementptr i32, ptr %invariant.gep, i64 %iter.sroa.0.099
  %23 = xor i64 %iter.sroa.0.099, -2
  %24 = getelementptr i32, ptr %_86, i64 %23
  %25 = load i32, ptr %24, align 4
  store i32 %25, ptr %gep, align 4
  %gep115 = getelementptr i32, ptr %invariant.gep114, i64 %iter.sroa.0.099
  %26 = xor i64 %iter.sroa.0.099, -3
  %27 = getelementptr i32, ptr %_86, i64 %26
  %28 = load i32, ptr %27, align 4
  store i32 %28, ptr %gep115, align 4
  %29 = add nuw i64 %iter.sroa.0.099, 4
  %gep117 = getelementptr i32, ptr %invariant.gep116, i64 %iter.sroa.0.099
  %30 = xor i64 %iter.sroa.0.099, -4
  %31 = getelementptr i32, ptr %_86, i64 %30
  %32 = load i32, ptr %31, align 4
  store i32 %32, ptr %gep117, align 4
  %niter.next.3 = add i64 %niter, 4
  %niter.ncmp.3 = icmp eq i64 %niter.next.3, %unroll_iter
  br i1 %niter.ncmp.3, label %bb30.loopexit.unr-lcssa, label %bb42

bb30.loopexit.unr-lcssa:                          ; preds = %bb42, %bb42.lr.ph
  %iter.sroa.0.099.unr = phi i64 [ 0, %bb42.lr.ph ], [ %29, %bb42 ]
  %lcmp.mod.not = icmp eq i64 %xtraiter, 0
  br i1 %lcmp.mod.not, label %bb30, label %bb42.epil

bb42.epil:                                        ; preds = %bb30.loopexit.unr-lcssa, %bb42.epil
  %iter.sroa.0.099.epil = phi i64 [ %33, %bb42.epil ], [ %iter.sroa.0.099.unr, %bb30.loopexit.unr-lcssa ]
  %epil.iter = phi i64 [ %epil.iter.next, %bb42.epil ], [ 0, %bb30.loopexit.unr-lcssa ]
  %33 = add nuw i64 %iter.sroa.0.099.epil, 1
  %34 = getelementptr i32, ptr %16, i64 %iter.sroa.0.099.epil
  %35 = xor i64 %iter.sroa.0.099.epil, -1
  %36 = getelementptr i32, ptr %_86, i64 %35
  %37 = load i32, ptr %36, align 4
  store i32 %37, ptr %34, align 4
  %epil.iter.next = add i64 %epil.iter, 1
  %epil.iter.cmp.not = icmp eq i64 %epil.iter.next, %xtraiter
  br i1 %epil.iter.cmp.not, label %bb30, label %bb42.epil, !llvm.loop !1670

bb30:                                             ; preds = %bb30.loopexit.unr-lcssa, %bb42.epil, %bb22
  ret i64 %state.sroa.27.2.lcssa
}

; core::slice::sort::stable::quicksort::PartitionState<T>::partition_one
; Function Attrs: mustprogress nofree norecurse nosync nounwind nonlazybind willreturn memory(readwrite, inaccessiblemem: none) uwtable
define noundef ptr @"_ZN4core5slice4sort6stable9quicksort23PartitionState$LT$T$GT$13partition_one17h72ead2ed09a21376E"(ptr noalias noundef align 8 captures(none) dereferenceable(32) %self, i1 noundef zeroext %towards_left) unnamed_addr #12 {
start:
  %0 = getelementptr inbounds nuw i8, ptr %self, i64 24
  %self1 = load ptr, ptr %0, align 8, !noundef !11
  %1 = getelementptr inbounds i8, ptr %self1, i64 -4
  store ptr %1, ptr %0, align 8
  %2 = load ptr, ptr %self, align 8
  %dst_base.sroa.0.0 = select i1 %towards_left, ptr %2, ptr %1
  %3 = getelementptr inbounds nuw i8, ptr %self, i64 16
  %count = load i64, ptr %3, align 8, !noundef !11
  %dst = getelementptr inbounds nuw i32, ptr %dst_base.sroa.0.0, i64 %count
  %4 = getelementptr inbounds nuw i8, ptr %self, i64 8
  %src = load ptr, ptr %4, align 8, !noundef !11
  %5 = load i32, ptr %src, align 4
  store i32 %5, ptr %dst, align 4
  %_8 = zext i1 %towards_left to i64
  %6 = add i64 %count, %_8
  store i64 %6, ptr %3, align 8
  %_9 = getelementptr inbounds nuw i8, ptr %src, i64 4
  store ptr %_9, ptr %4, align 8
  ret ptr %dst
}

; core::slice::sort::stable::quicksort::quicksort
; Function Attrs: noinline nonlazybind uwtable
define void @_ZN4core5slice4sort6stable9quicksort9quicksort17hbf9e74c21b061636E(ptr noalias noundef nonnull align 4 %0, i64 noundef range(i64 0, 2305843009213693952) %1, ptr noalias noundef nonnull align 4 %scratch.0, i64 noundef range(i64 0, 2305843009213693952) %scratch.1, i32 noundef %2, ptr noalias noundef readonly align 4 captures(address) dereferenceable_or_null(4) %3, ptr noalias noundef align 8 dereferenceable(8) %is_less) unnamed_addr #8 {
start:
  %pivot_copy = alloca [4 x i8], align 4
  %_83238 = icmp samesign ult i64 %1, 33
  br i1 %_83238, label %bb3, label %bb5.lr.ph

bb5.lr.ph:                                        ; preds = %start, %bb28
  %v.sroa.0.0.ph42 = phi ptr [ %_54, %bb28 ], [ %0, %start ]
  %v.sroa.16.0.ph41 = phi i64 [ %new_len, %bb28 ], [ %1, %start ]
  %limit.sroa.0.0.ph40 = phi i32 [ %4, %bb28 ], [ %2, %start ]
  %left_ancestor_pivot.sroa.0.0.ph39 = phi ptr [ null, %bb28 ], [ %3, %start ]
  %.not = icmp eq ptr %left_ancestor_pivot.sroa.0.0.ph39, null
  %.sink77 = ptrtoint ptr %v.sroa.0.0.ph42 to i64
  br label %bb5

bb5:                                              ; preds = %bb5.lr.ph, %"_ZN4core5slice29_$LT$impl$u20$$u5b$T$u5d$$GT$12split_at_mut17ha1c23a35b9943d9bE.exit"
  %v.sroa.16.034 = phi i64 [ %v.sroa.16.0.ph41, %bb5.lr.ph ], [ %left_partition_len.sroa.0.0, %"_ZN4core5slice29_$LT$impl$u20$$u5b$T$u5d$$GT$12split_at_mut17ha1c23a35b9943d9bE.exit" ]
  %limit.sroa.0.033 = phi i32 [ %limit.sroa.0.0.ph40, %bb5.lr.ph ], [ %4, %"_ZN4core5slice29_$LT$impl$u20$$u5b$T$u5d$$GT$12split_at_mut17ha1c23a35b9943d9bE.exit" ]
  %_11 = icmp eq i32 %limit.sroa.0.033, 0
  br i1 %_11, label %bb6, label %bb7

bb3:                                              ; preds = %bb28, %"_ZN4core5slice29_$LT$impl$u20$$u5b$T$u5d$$GT$12split_at_mut17ha1c23a35b9943d9bE.exit", %start
  %v.sroa.0.0.ph.lcssa31 = phi ptr [ %0, %start ], [ %v.sroa.0.0.ph42, %"_ZN4core5slice29_$LT$impl$u20$$u5b$T$u5d$$GT$12split_at_mut17ha1c23a35b9943d9bE.exit" ], [ %_54, %bb28 ]
  %v.sroa.16.0.lcssa = phi i64 [ %1, %start ], [ %left_partition_len.sroa.0.0, %"_ZN4core5slice29_$LT$impl$u20$$u5b$T$u5d$$GT$12split_at_mut17ha1c23a35b9943d9bE.exit" ], [ %new_len, %bb28 ]
; call core::slice::sort::shared::smallsort::small_sort_general_with_scratch
  call void @_ZN4core5slice4sort6shared9smallsort31small_sort_general_with_scratch17h073f17f73449f968E(ptr noalias noundef nonnull align 4 %v.sroa.0.0.ph.lcssa31, i64 noundef range(i64 0, 33) %v.sroa.16.0.lcssa, ptr noalias noundef nonnull align 4 %scratch.0, i64 noundef range(i64 0, 2305843009213693952) %scratch.1, ptr noalias nonnull align 8 poison)
  br label %bb22

bb7:                                              ; preds = %bb5
  %4 = add i32 %limit.sroa.0.033, -1
  %len_div_84.i = lshr i64 %v.sroa.16.034, 3
  %b.idx.i = shl nuw nsw i64 %len_div_84.i, 4
  %b.i = getelementptr inbounds nuw i8, ptr %v.sroa.0.0.ph42, i64 %b.idx.i
  %c.idx.i = mul nuw nsw i64 %len_div_84.i, 28
  %c.i = getelementptr inbounds nuw i8, ptr %v.sroa.0.0.ph42, i64 %c.idx.i
  %_12.i = icmp samesign ult i64 %v.sroa.16.034, 64
  br i1 %_12.i, label %bb3.i, label %bb5.i

bb5.i:                                            ; preds = %bb7
; call core::slice::sort::shared::pivot::median3_rec
  %self.i = call noundef ptr @_ZN4core5slice4sort6shared5pivot11median3_rec17h3615cb3e2a78557bE(ptr noundef nonnull readonly align 4 %v.sroa.0.0.ph42, ptr noundef nonnull readonly %b.i, ptr noundef nonnull readonly %c.i, i64 noundef %len_div_84.i, ptr noalias noundef nonnull align 8 dereferenceable(8) %is_less)
  br label %_ZN4core5slice4sort6shared5pivot12choose_pivot17ha891ac9f7fed5c82E.exit

bb3.i:                                            ; preds = %bb7
  call void @llvm.experimental.noalias.scope.decl(metadata !1671)
  call void @llvm.experimental.noalias.scope.decl(metadata !1674)
  call void @llvm.experimental.noalias.scope.decl(metadata !1676), !noalias !1679
  call void @llvm.experimental.noalias.scope.decl(metadata !1682), !noalias !1679
  call void @llvm.experimental.noalias.scope.decl(metadata !1684), !noalias !1679
  call void @llvm.experimental.noalias.scope.decl(metadata !1687), !noalias !1679
  call void @llvm.experimental.noalias.scope.decl(metadata !1689), !noalias !1679
  call void @llvm.experimental.noalias.scope.decl(metadata !1692), !noalias !1679
  %_3.i.i.i.i.i = load i32, ptr %v.sroa.0.0.ph42, align 4, !alias.scope !1694, !noalias !1697, !noundef !11
  %_4.i.i.i.i.i = load i32, ptr %b.i, align 4, !alias.scope !1699, !noalias !1700, !noundef !11
  %_0.i.i = icmp slt i32 %_3.i.i.i.i.i, %_4.i.i.i.i.i
  %_4.i.i.i.i6.i = load i32, ptr %c.i, align 4, !alias.scope !1701, !noalias !1710, !noundef !11
  %_0.i7.i = icmp slt i32 %_3.i.i.i.i.i, %_4.i.i.i.i6.i
  %5 = xor i1 %_0.i.i, %_0.i7.i
  %_0.i10.i = icmp slt i32 %_4.i.i.i.i.i, %_4.i.i.i.i6.i
  %_12.i.i = xor i1 %_0.i.i, %_0.i10.i
  %c.b.i.i = select i1 %_12.i.i, ptr %c.i, ptr %b.i
  %_0.sroa.0.0.i.i = select i1 %5, ptr %v.sroa.0.0.ph42, ptr %c.b.i.i
  br label %_ZN4core5slice4sort6shared5pivot12choose_pivot17ha891ac9f7fed5c82E.exit

_ZN4core5slice4sort6shared5pivot12choose_pivot17ha891ac9f7fed5c82E.exit: ; preds = %bb5.i, %bb3.i
  %self.i.sink = phi ptr [ %self.i, %bb5.i ], [ %_0.sroa.0.0.i.i, %bb3.i ]
  %6 = ptrtoint ptr %self.i.sink to i64
  %7 = sub nuw i64 %6, %.sink77
  %index.sroa.0.0.i = lshr exact i64 %7, 2
  %cond.i = icmp samesign ult i64 %index.sroa.0.0.i, %v.sroa.16.034
  call void @llvm.assume(i1 %cond.i)
  call void @llvm.lifetime.start.p0(i64 4, ptr nonnull %pivot_copy)
  %src = getelementptr inbounds nuw i8, ptr %v.sroa.0.0.ph42, i64 %7
  %value = load i32, ptr %src, align 4, !noundef !11
  store i32 %value, ptr %pivot_copy, align 4
  br i1 %.not, label %bb14, label %bb12

bb6:                                              ; preds = %bb5
; call core::slice::sort::stable::drift::sort
  call void @_ZN4core5slice4sort6stable5drift4sort17h8e47ce351825f72dE(ptr noalias noundef nonnull align 4 %v.sroa.0.0.ph42, i64 noundef %v.sroa.16.034, ptr noalias noundef nonnull align 4 %scratch.0, i64 noundef %scratch.1, i1 noundef zeroext true, ptr noalias noundef align 8 dereferenceable(8) %is_less)
  br label %bb22

bb12:                                             ; preds = %_ZN4core5slice4sort6shared5pivot12choose_pivot17ha891ac9f7fed5c82E.exit
  %_3.i.i.i.i = load i32, ptr %left_ancestor_pivot.sroa.0.0.ph39, align 4, !alias.scope !1715, !noalias !1724, !noundef !11
  %_0.i.not = icmp slt i32 %_3.i.i.i.i, %value
  br i1 %_0.i.not, label %bb14, label %bb16

bb14:                                             ; preds = %_ZN4core5slice4sort6shared5pivot12choose_pivot17ha891ac9f7fed5c82E.exit, %bb12
; call core::slice::sort::stable::quicksort::stable_partition
  %8 = call noundef i64 @_ZN4core5slice4sort6stable9quicksort16stable_partition17hf9e43994fb201158E(ptr noalias noundef nonnull align 4 %v.sroa.0.0.ph42, i64 noundef %v.sroa.16.034, ptr noalias noundef nonnull align 4 %scratch.0, i64 noundef %scratch.1, i64 noundef %index.sroa.0.0.i, i1 noundef zeroext false, ptr noalias align 8 poison)
  %9 = icmp eq i64 %8, 0
  br label %bb16

bb16:                                             ; preds = %bb14, %bb12
  %left_partition_len.sroa.0.0 = phi i64 [ 0, %bb12 ], [ %8, %bb14 ]
  %perform_equal_partition.sroa.0.0.in = phi i1 [ true, %bb12 ], [ %9, %bb14 ]
  br i1 %perform_equal_partition.sroa.0.0.in, label %bb17, label %bb19

bb19:                                             ; preds = %bb16
  %_6.not.i = icmp ugt i64 %left_partition_len.sroa.0.0, %v.sroa.16.034
  br i1 %_6.not.i, label %bb3.i23, label %"_ZN4core5slice29_$LT$impl$u20$$u5b$T$u5d$$GT$12split_at_mut17ha1c23a35b9943d9bE.exit", !prof !14

bb3.i23:                                          ; preds = %bb19
; call core::panicking::panic_fmt
  call void @_ZN4core9panicking9panic_fmt17ha4414e4328fe24a0E(ptr noundef nonnull @alloc_d1084648e479974e70c9329824bf76f9, ptr noundef nonnull inttoptr (i64 19 to ptr), ptr noalias noundef readonly align 8 captures(address, read_provenance) dereferenceable(24) @alloc_58d434a1e795f965ef82c8e9c5db822a) #32, !noalias !1729
  unreachable

"_ZN4core5slice29_$LT$impl$u20$$u5b$T$u5d$$GT$12split_at_mut17ha1c23a35b9943d9bE.exit": ; preds = %bb19
  %10 = getelementptr inbounds nuw i32, ptr %v.sroa.0.0.ph42, i64 %left_partition_len.sroa.0.0
  %11 = sub nuw nsw i64 %v.sroa.16.034, %left_partition_len.sroa.0.0
; call core::slice::sort::stable::quicksort::quicksort
  call void @_ZN4core5slice4sort6stable9quicksort9quicksort17hbf9e74c21b061636E(ptr noalias noundef nonnull align 4 %10, i64 noundef %11, ptr noalias noundef nonnull align 4 %scratch.0, i64 noundef %scratch.1, i32 noundef %4, ptr noalias noundef nonnull readonly align 4 captures(address, read_provenance) dereferenceable_or_null(4) %pivot_copy, ptr noalias noundef align 8 dereferenceable(8) %is_less) #33
  call void @llvm.lifetime.end.p0(i64 4, ptr nonnull %pivot_copy)
  %_8 = icmp ult i64 %left_partition_len.sroa.0.0, 33
  br i1 %_8, label %bb3, label %bb5

bb17:                                             ; preds = %bb16
; call core::slice::sort::stable::quicksort::stable_partition
  %mid_eq = call noundef i64 @_ZN4core5slice4sort6stable9quicksort16stable_partition17hae9a490fc7b9c533E(ptr noalias noundef nonnull align 4 %v.sroa.0.0.ph42, i64 noundef %v.sroa.16.034, ptr noalias noundef nonnull align 4 %scratch.0, i64 noundef %scratch.1, i64 noundef %index.sroa.0.0.i, i1 noundef zeroext true, ptr noalias align 8 poison)
  %_47 = icmp ugt i64 %mid_eq, %v.sroa.16.034
  br i1 %_47, label %bb27, label %bb28, !prof !14

bb28:                                             ; preds = %bb17
  %new_len = sub nuw i64 %v.sroa.16.034, %mid_eq
  %_54 = getelementptr inbounds nuw i32, ptr %v.sroa.0.0.ph42, i64 %mid_eq
  call void @llvm.lifetime.end.p0(i64 4, ptr nonnull %pivot_copy)
  %_832 = icmp ult i64 %new_len, 33
  br i1 %_832, label %bb3, label %bb5.lr.ph

bb27:                                             ; preds = %bb17
; call core::slice::index::slice_index_fail
  call void @_ZN4core5slice5index16slice_index_fail17h62807bcaa490c9c1E(i64 noundef %mid_eq, i64 noundef %v.sroa.16.034, i64 noundef %v.sroa.16.034, ptr noalias noundef readonly align 8 captures(address, read_provenance) dereferenceable(24) @alloc_0766b232215672ee1bd2195fdb153938) #32
  unreachable

bb22:                                             ; preds = %bb3, %bb6
  ret void
}

; core::slice::index::range
; Function Attrs: nonlazybind uwtable
define { i64, i64 } @_ZN4core5slice5index5range17h2ea26939d47998d4E(ptr dead_on_return noalias noundef readonly align 8 captures(none) dereferenceable(32) %range, i64 noundef %bounds, ptr noalias noundef readonly align 8 captures(address, read_provenance) dereferenceable(24) %0) unnamed_addr #0 personality ptr @rust_eh_personality {
start:
  %1 = getelementptr inbounds nuw i8, ptr %range, i64 16
  %_0.0.i = load i64, ptr %1, align 8, !range !1733, !alias.scope !1734, !noundef !11
  %2 = getelementptr inbounds nuw i8, ptr %range, i64 24
  %_0.1.i = load ptr, ptr %2, align 8, !alias.scope !1734
  switch i64 %_0.0.i, label %default.unreachable20 [
    i64 0, label %bb5
    i64 1, label %bb4
    i64 2, label %bb10
  ]

default.unreachable20:                            ; preds = %bb10, %start
  unreachable

bb5:                                              ; preds = %start
  %3 = icmp ne ptr %_0.1.i, null
  tail call void @llvm.assume(i1 %3)
  %end3 = load i64, ptr %_0.1.i, align 8, !noundef !11
  %_7.not = icmp ult i64 %end3, %bounds
  br i1 %_7.not, label %bb7, label %bb6, !prof !1737

bb4:                                              ; preds = %start
  %4 = icmp ne ptr %_0.1.i, null
  tail call void @llvm.assume(i1 %4)
  %5 = load i64, ptr %_0.1.i, align 8, !noundef !11
  %_10 = icmp ugt i64 %5, %bounds
  br i1 %_10, label %bb8, label %bb10, !prof !14

bb7:                                              ; preds = %bb5
  %6 = add i64 %end3, 1
  br label %bb10

bb6:                                              ; preds = %bb5
; call core::slice::index::slice_index_fail
  tail call void @_ZN4core5slice5index16slice_index_fail17h62807bcaa490c9c1E(i64 noundef 0, i64 noundef %end3, i64 noundef %bounds, ptr noalias noundef readonly align 8 captures(address, read_provenance) dereferenceable(24) %0) #29
  unreachable

bb10:                                             ; preds = %start, %bb4, %bb7
  %end.sroa.0.0 = phi i64 [ %6, %bb7 ], [ %5, %bb4 ], [ %bounds, %start ]
  %_0.0.i18 = load i64, ptr %range, align 8, !range !1733, !alias.scope !1738, !noundef !11
  %7 = getelementptr inbounds nuw i8, ptr %range, i64 8
  %_0.1.i19 = load ptr, ptr %7, align 8, !alias.scope !1738
  switch i64 %_0.0.i18, label %default.unreachable20 [
    i64 0, label %bb13
    i64 1, label %bb14
    i64 2, label %bb19
  ]

bb8:                                              ; preds = %bb4
; call core::slice::index::slice_index_fail
  tail call void @_ZN4core5slice5index16slice_index_fail17h62807bcaa490c9c1E(i64 noundef 0, i64 noundef %5, i64 noundef %bounds, ptr noalias noundef readonly align 8 captures(address, read_provenance) dereferenceable(24) %0) #29
  unreachable

bb13:                                             ; preds = %bb10
  %8 = icmp ne ptr %_0.1.i19, null
  tail call void @llvm.assume(i1 %8)
  %9 = load i64, ptr %_0.1.i19, align 8, !noundef !11
  %_20 = icmp ugt i64 %9, %end.sroa.0.0
  br i1 %_20, label %bb17, label %bb19, !prof !14

bb14:                                             ; preds = %bb10
  %10 = icmp ne ptr %_0.1.i19, null
  tail call void @llvm.assume(i1 %10)
  %start7 = load i64, ptr %_0.1.i19, align 8, !noundef !11
  %_16.not = icmp ult i64 %start7, %end.sroa.0.0
  br i1 %_16.not, label %bb16, label %bb15, !prof !1737

bb17:                                             ; preds = %bb13
; call core::slice::index::slice_index_fail
  tail call void @_ZN4core5slice5index16slice_index_fail17h62807bcaa490c9c1E(i64 noundef %9, i64 noundef %end.sroa.0.0, i64 noundef %bounds, ptr noalias noundef readonly align 8 captures(address, read_provenance) dereferenceable(24) %0) #29
  unreachable

bb19:                                             ; preds = %bb10, %bb13, %bb16
  %start1.sroa.0.0 = phi i64 [ %9, %bb13 ], [ %13, %bb16 ], [ 0, %bb10 ]
  %11 = insertvalue { i64, i64 } poison, i64 %start1.sroa.0.0, 0
  %12 = insertvalue { i64, i64 } %11, i64 %end.sroa.0.0, 1
  ret { i64, i64 } %12

bb16:                                             ; preds = %bb14
  %13 = add i64 %start7, 1
  br label %bb19

bb15:                                             ; preds = %bb14
; call core::slice::index::slice_index_fail
  tail call void @_ZN4core5slice5index16slice_index_fail17h62807bcaa490c9c1E(i64 noundef %start7, i64 noundef %end.sroa.0.0, i64 noundef %bounds, ptr noalias noundef readonly align 8 captures(address, read_provenance) dereferenceable(24) %0) #29
  unreachable
}

; alloc::vec::Vec<T,A>::extend_trusted
; Function Attrs: nonlazybind uwtable
define void @"_ZN5alloc3vec16Vec$LT$T$C$A$GT$14extend_trusted17h4dfb4dd7ccd3d3bbE"(ptr noalias noundef align 8 dereferenceable(24) %self, ptr noalias noundef align 8 captures(none) dereferenceable(16) %0) unnamed_addr #0 personality ptr @rust_eh_personality {
start:
  %1 = getelementptr inbounds nuw i8, ptr %0, i64 8
  %_7.i.i = load ptr, ptr %1, align 8, !alias.scope !1741, !noalias !1744, !nonnull !11, !noundef !11
  %_8.i.i = load ptr, ptr %0, align 8, !alias.scope !1741, !noalias !1744, !nonnull !11, !noundef !11
  %2 = ptrtoint ptr %_7.i.i to i64
  %3 = ptrtoint ptr %_8.i.i to i64
  %4 = sub nuw i64 %2, %3
; call alloc::vec::Vec<T,A>::reserve
  tail call void @"_ZN5alloc3vec16Vec$LT$T$C$A$GT$7reserve17hd7d983ab73297baaE"(ptr noalias noundef align 8 dereferenceable(24) %self, i64 noundef %4)
  %5 = getelementptr inbounds nuw i8, ptr %self, i64 8
  %_26 = load ptr, ptr %5, align 8, !nonnull !11, !noundef !11
  %len = getelementptr inbounds nuw i8, ptr %self, i64 16
  %_27 = load i64, ptr %len, align 8, !noundef !11
  tail call void @llvm.experimental.noalias.scope.decl(metadata !1749)
  tail call void @llvm.experimental.noalias.scope.decl(metadata !1752)
  tail call void @llvm.experimental.noalias.scope.decl(metadata !1755)
  tail call void @llvm.experimental.noalias.scope.decl(metadata !1758)
  br label %bb1.i.i.i.i

bb1.i.i.i.i:                                      ; preds = %bb3.i.i.i.i, %start
  %f.sroa.4.0.i.i.i = phi i64 [ %_27, %start ], [ %6, %bb3.i.i.i.i ]
  %_18.i.i5.i.i.i.i = phi ptr [ %_8.i.i, %start ], [ %_18.i.i4.i.i.i.i, %bb3.i.i.i.i ]
  tail call void @llvm.experimental.noalias.scope.decl(metadata !1761)
  %_7.i.i.i.i.i.i = icmp eq ptr %_18.i.i5.i.i.i.i, %_7.i.i
  br i1 %_7.i.i.i.i.i.i, label %"_ZN91_$LT$core..slice..iter..Iter$LT$T$GT$$u20$as$u20$core..iter..traits..iterator..Iterator$GT$4next17hf7d1340a322c1c85E.exit.i.i.i.i.i", label %bb6.i.i.i.i.i.i

bb6.i.i.i.i.i.i:                                  ; preds = %bb1.i.i.i.i
  %_18.i.i.i.i.i.i = getelementptr inbounds nuw i8, ptr %_18.i.i5.i.i.i.i, i64 1
  store ptr %_18.i.i.i.i.i.i, ptr %0, align 8, !alias.scope !1764, !noalias !1767
  br label %"_ZN91_$LT$core..slice..iter..Iter$LT$T$GT$$u20$as$u20$core..iter..traits..iterator..Iterator$GT$4next17hf7d1340a322c1c85E.exit.i.i.i.i.i"

"_ZN91_$LT$core..slice..iter..Iter$LT$T$GT$$u20$as$u20$core..iter..traits..iterator..Iterator$GT$4next17hf7d1340a322c1c85E.exit.i.i.i.i.i": ; preds = %bb6.i.i.i.i.i.i, %bb1.i.i.i.i
  %_18.i.i4.i.i.i.i = phi ptr [ %_18.i.i.i.i.i.i, %bb6.i.i.i.i.i.i ], [ %_18.i.i5.i.i.i.i, %bb1.i.i.i.i ]
  %_0.sroa.0.0.i.i.i.i.i.i = phi ptr [ %_18.i.i5.i.i.i.i, %bb6.i.i.i.i.i.i ], [ null, %bb1.i.i.i.i ]
  %.not.i.not.i.i.i.i = icmp eq ptr %_0.sroa.0.0.i.i.i.i.i.i, null
  br i1 %.not.i.not.i.i.i.i, label %"_ZN81_$LT$core..str..iter..Bytes$u20$as$u20$core..iter..traits..iterator..Iterator$GT$4next17h1d2470c5d9a8e5ffE.exit.i.i.i.i", label %bb5.i.i.i.i.i

bb5.i.i.i.i.i:                                    ; preds = %"_ZN91_$LT$core..slice..iter..Iter$LT$T$GT$$u20$as$u20$core..iter..traits..iterator..Iterator$GT$4next17hf7d1340a322c1c85E.exit.i.i.i.i.i"
  %v.i.i.i.i.i = load i8, ptr %_0.sroa.0.0.i.i.i.i.i.i, align 1, !noalias !1772, !noundef !11
  br label %"_ZN81_$LT$core..str..iter..Bytes$u20$as$u20$core..iter..traits..iterator..Iterator$GT$4next17h1d2470c5d9a8e5ffE.exit.i.i.i.i"

"_ZN81_$LT$core..str..iter..Bytes$u20$as$u20$core..iter..traits..iterator..Iterator$GT$4next17h1d2470c5d9a8e5ffE.exit.i.i.i.i": ; preds = %bb5.i.i.i.i.i, %"_ZN91_$LT$core..slice..iter..Iter$LT$T$GT$$u20$as$u20$core..iter..traits..iterator..Iterator$GT$4next17hf7d1340a322c1c85E.exit.i.i.i.i.i"
  %_0.sroa.3.0.i.i.i.i.i = phi i8 [ %v.i.i.i.i.i, %bb5.i.i.i.i.i ], [ undef, %"_ZN91_$LT$core..slice..iter..Iter$LT$T$GT$$u20$as$u20$core..iter..traits..iterator..Iterator$GT$4next17hf7d1340a322c1c85E.exit.i.i.i.i.i" ]
  br i1 %.not.i.not.i.i.i.i, label %_ZN4core4iter6traits8iterator8Iterator8for_each17h3fc7c7948201a0e0E.exit, label %bb3.i.i.i.i

bb3.i.i.i.i:                                      ; preds = %"_ZN81_$LT$core..str..iter..Bytes$u20$as$u20$core..iter..traits..iterator..Iterator$GT$4next17h1d2470c5d9a8e5ffE.exit.i.i.i.i"
  %_3.i.i.i.i.i.i.i = getelementptr inbounds nuw i8, ptr %_26, i64 %f.sroa.4.0.i.i.i
  store i8 %_0.sroa.3.0.i.i.i.i.i, ptr %_3.i.i.i.i.i.i.i, align 1, !noalias !1773
  %6 = add i64 %f.sroa.4.0.i.i.i, 1
  br label %bb1.i.i.i.i

_ZN4core4iter6traits8iterator8Iterator8for_each17h3fc7c7948201a0e0E.exit: ; preds = %"_ZN81_$LT$core..str..iter..Bytes$u20$as$u20$core..iter..traits..iterator..Iterator$GT$4next17h1d2470c5d9a8e5ffE.exit.i.i.i.i"
  store i64 %f.sroa.4.0.i.i.i, ptr %len, align 8, !noalias !1780
  ret void
}

; alloc::vec::Vec<T,A>::drain
; Function Attrs: nonlazybind uwtable
define void @"_ZN5alloc3vec16Vec$LT$T$C$A$GT$5drain17hb3139aeca7b0e77fE"(ptr dead_on_unwind noalias noundef writable writeonly sret([40 x i8]) align 8 captures(none) dereferenceable(40) initializes((0, 40)) %_0, ptr noalias noundef align 8 dereferenceable(24) %self, ptr dead_on_return noalias noundef readonly align 8 captures(none) dereferenceable(32) %range) unnamed_addr #0 {
start:
  %0 = getelementptr inbounds nuw i8, ptr %self, i64 16
  %len1 = load i64, ptr %0, align 8, !noundef !11
  %_15 = icmp sgt i64 %len1, -1
  tail call void @llvm.assume(i1 %_15)
; call core::slice::index::range
  %1 = tail call { i64, i64 } @_ZN4core5slice5index5range17h2ea26939d47998d4E(ptr noalias noundef readonly align 8 captures(address) dereferenceable(32) %range, i64 noundef %len1, ptr noalias noundef readonly align 8 captures(address, read_provenance) dereferenceable(24) @alloc_c66764e78d07cfd97cd1ec1962f8a17a)
  %_6.0 = extractvalue { i64, i64 } %1, 0
  %_6.1 = extractvalue { i64, i64 } %1, 1
  store i64 %_6.0, ptr %0, align 8
  %2 = getelementptr inbounds nuw i8, ptr %self, i64 8
  %_23 = load ptr, ptr %2, align 8, !nonnull !11, !noundef !11
  %3 = getelementptr inbounds nuw i8, ptr %_23, i64 %_6.0
  %_12 = sub i64 %len1, %_6.1
  %_30 = getelementptr inbounds nuw i8, ptr %_23, i64 %_6.1
  %4 = getelementptr inbounds nuw i8, ptr %_0, i64 24
  store i64 %_6.1, ptr %4, align 8
  %5 = getelementptr inbounds nuw i8, ptr %_0, i64 32
  store i64 %_12, ptr %5, align 8
  store ptr %3, ptr %_0, align 8
  %6 = getelementptr inbounds nuw i8, ptr %_0, i64 8
  store ptr %_30, ptr %6, align 8
  %7 = getelementptr inbounds nuw i8, ptr %_0, i64 16
  store ptr %self, ptr %7, align 8
  ret void
}

; alloc::vec::splice::<impl alloc::vec::drain::Drain<T,A>>::fill
; Function Attrs: nofree norecurse nosync nounwind nonlazybind uwtable
define noundef zeroext i1 @"_ZN5alloc3vec6splice55_$LT$impl$u20$alloc..vec..drain..Drain$LT$T$C$A$GT$$GT$4fill17h7d2ad50295d8fe52E"(ptr noalias noundef readonly align 8 captures(none) dereferenceable(40) %self, ptr noalias noundef align 8 captures(none) dereferenceable(32) %replace_with) unnamed_addr #11 {
start:
  %0 = getelementptr inbounds nuw i8, ptr %self, i64 16
  %_20 = load ptr, ptr %0, align 8, !nonnull !11, !noundef !11
  %1 = getelementptr inbounds nuw i8, ptr %_20, i64 16
  %range_start = load i64, ptr %1, align 8, !noundef !11
  %2 = getelementptr inbounds nuw i8, ptr %self, i64 24
  %range_end = load i64, ptr %2, align 8, !noundef !11
  %3 = getelementptr inbounds nuw i8, ptr %_20, i64 8
  %_21 = load ptr, ptr %3, align 8, !nonnull !11, !noundef !11
  %4 = getelementptr inbounds nuw i8, ptr %_21, i64 %range_end
  %_8.i5.not = icmp samesign eq i64 %range_start, %range_end
  br i1 %_8.i5.not, label %bb9, label %bb4.lr.ph

bb4.lr.ph:                                        ; preds = %start
  %data = getelementptr inbounds nuw i8, ptr %_21, i64 %range_start
  %spec.select7 = getelementptr inbounds nuw i8, ptr %data, i64 1
  %_14.i = getelementptr inbounds nuw i8, ptr %replace_with, i64 24
  %5 = getelementptr inbounds nuw i8, ptr %replace_with, i64 8
  br label %bb4

bb4:                                              ; preds = %bb4.lr.ph, %bb7
  %spec.select10 = phi ptr [ %spec.select7, %bb4.lr.ph ], [ %spec.select, %bb7 ]
  %iter.sroa.0.08 = phi ptr [ %data, %bb4.lr.ph ], [ %spec.select10, %bb7 ]
  tail call void @llvm.experimental.noalias.scope.decl(metadata !1791)
  %_12.i = load ptr, ptr %_14.i, align 8, !alias.scope !1791, !nonnull !11, !noundef !11
  %_21.i = load ptr, ptr %5, align 8, !alias.scope !1791, !nonnull !11, !noundef !11
  %_9.i.not.not.not = icmp ne ptr %_21.i, %_12.i
  br i1 %_9.i.not.not.not, label %bb6.i2, label %"_ZN103_$LT$alloc..vec..into_iter..IntoIter$LT$T$C$A$GT$$u20$as$u20$core..iter..traits..iterator..Iterator$GT$4next17h4a39a3184624d2fbE.exit"

bb6.i2:                                           ; preds = %bb4
  %_23.i = getelementptr inbounds nuw i8, ptr %_21.i, i64 1
  store ptr %_23.i, ptr %5, align 8, !alias.scope !1791
  %_17.i = load i8, ptr %_21.i, align 1, !noalias !1791, !noundef !11
  br label %"_ZN103_$LT$alloc..vec..into_iter..IntoIter$LT$T$C$A$GT$$u20$as$u20$core..iter..traits..iterator..Iterator$GT$4next17h4a39a3184624d2fbE.exit"

"_ZN103_$LT$alloc..vec..into_iter..IntoIter$LT$T$C$A$GT$$u20$as$u20$core..iter..traits..iterator..Iterator$GT$4next17h4a39a3184624d2fbE.exit": ; preds = %bb4, %bb6.i2
  %_0.sroa.3.0.i = phi i8 [ %_17.i, %bb6.i2 ], [ undef, %bb4 ]
  br i1 %_9.i.not.not.not, label %bb7, label %bb9

bb9:                                              ; preds = %bb7, %"_ZN103_$LT$alloc..vec..into_iter..IntoIter$LT$T$C$A$GT$$u20$as$u20$core..iter..traits..iterator..Iterator$GT$4next17h4a39a3184624d2fbE.exit", %start
  %not._8.i = phi i1 [ true, %start ], [ %_9.i.not.not.not, %"_ZN103_$LT$alloc..vec..into_iter..IntoIter$LT$T$C$A$GT$$u20$as$u20$core..iter..traits..iterator..Iterator$GT$4next17h4a39a3184624d2fbE.exit" ], [ %_9.i.not.not.not, %bb7 ]
  ret i1 %not._8.i

bb7:                                              ; preds = %"_ZN103_$LT$alloc..vec..into_iter..IntoIter$LT$T$C$A$GT$$u20$as$u20$core..iter..traits..iterator..Iterator$GT$4next17h4a39a3184624d2fbE.exit"
  store i8 %_0.sroa.3.0.i, ptr %iter.sroa.0.08, align 1
  %6 = load i64, ptr %1, align 8, !noundef !11
  %7 = add i64 %6, 1
  store i64 %7, ptr %1, align 8
  %_8.i = icmp ne ptr %spec.select10, %4
  %spec.select.idx = zext i1 %_8.i to i64
  %spec.select = getelementptr inbounds nuw i8, ptr %spec.select10, i64 %spec.select.idx
  br i1 %_8.i, label %bb4, label %bb9
}

; alloc::vec::splice::<impl alloc::vec::drain::Drain<T,A>>::fill
; Function Attrs: nofree norecurse nosync nounwind nonlazybind uwtable
define noundef zeroext i1 @"_ZN5alloc3vec6splice55_$LT$impl$u20$alloc..vec..drain..Drain$LT$T$C$A$GT$$GT$4fill17he13ad3707454ee2fE"(ptr noalias noundef readonly align 8 captures(none) dereferenceable(40) %self, ptr noalias noundef align 8 captures(none) dereferenceable(16) %replace_with) unnamed_addr #11 {
start:
  %0 = getelementptr inbounds nuw i8, ptr %self, i64 16
  %_20 = load ptr, ptr %0, align 8, !nonnull !11, !noundef !11
  %1 = getelementptr inbounds nuw i8, ptr %_20, i64 16
  %range_start = load i64, ptr %1, align 8, !noundef !11
  %2 = getelementptr inbounds nuw i8, ptr %self, i64 24
  %range_end = load i64, ptr %2, align 8, !noundef !11
  %3 = getelementptr inbounds nuw i8, ptr %_20, i64 8
  %_21 = load ptr, ptr %3, align 8, !nonnull !11, !noundef !11
  %4 = getelementptr inbounds nuw i8, ptr %_21, i64 %range_end
  %_8.i6.not = icmp samesign eq i64 %range_start, %range_end
  br i1 %_8.i6.not, label %bb9, label %bb4.lr.ph

bb4.lr.ph:                                        ; preds = %start
  %data = getelementptr inbounds nuw i8, ptr %_21, i64 %range_start
  %spec.select8 = getelementptr inbounds nuw i8, ptr %data, i64 1
  %replace_with.promoted = load ptr, ptr %replace_with, align 8
  %5 = getelementptr inbounds nuw i8, ptr %replace_with, i64 8
  br label %bb4

bb4:                                              ; preds = %bb4.lr.ph, %bb7
  %spec.select12 = phi ptr [ %spec.select8, %bb4.lr.ph ], [ %spec.select, %bb7 ]
  %iter.sroa.0.010 = phi ptr [ %data, %bb4.lr.ph ], [ %spec.select12, %bb7 ]
  %_18.i.i59 = phi ptr [ %replace_with.promoted, %bb4.lr.ph ], [ %_18.i.i4, %bb7 ]
  tail call void @llvm.experimental.noalias.scope.decl(metadata !1794)
  %end_or_len.i.i = load ptr, ptr %5, align 8, !alias.scope !1797, !nonnull !11, !noundef !11
  %_7.i.i = icmp eq ptr %_18.i.i59, %end_or_len.i.i
  br i1 %_7.i.i, label %"_ZN91_$LT$core..slice..iter..Iter$LT$T$GT$$u20$as$u20$core..iter..traits..iterator..Iterator$GT$4next17hf7d1340a322c1c85E.exit.i", label %bb6.i.i

bb6.i.i:                                          ; preds = %bb4
  %_18.i.i = getelementptr inbounds nuw i8, ptr %_18.i.i59, i64 1
  store ptr %_18.i.i, ptr %replace_with, align 8, !alias.scope !1797
  br label %"_ZN91_$LT$core..slice..iter..Iter$LT$T$GT$$u20$as$u20$core..iter..traits..iterator..Iterator$GT$4next17hf7d1340a322c1c85E.exit.i"

"_ZN91_$LT$core..slice..iter..Iter$LT$T$GT$$u20$as$u20$core..iter..traits..iterator..Iterator$GT$4next17hf7d1340a322c1c85E.exit.i": ; preds = %bb6.i.i, %bb4
  %_18.i.i4 = phi ptr [ %_18.i.i, %bb6.i.i ], [ %_18.i.i59, %bb4 ]
  %_0.sroa.0.0.i.i = phi ptr [ %_18.i.i59, %bb6.i.i ], [ null, %bb4 ]
  %.not.i.not.not.not = icmp ne ptr %_0.sroa.0.0.i.i, null
  br i1 %.not.i.not.not.not, label %bb5.i, label %"_ZN81_$LT$core..str..iter..Bytes$u20$as$u20$core..iter..traits..iterator..Iterator$GT$4next17h1d2470c5d9a8e5ffE.exit"

bb5.i:                                            ; preds = %"_ZN91_$LT$core..slice..iter..Iter$LT$T$GT$$u20$as$u20$core..iter..traits..iterator..Iterator$GT$4next17hf7d1340a322c1c85E.exit.i"
  %v.i = load i8, ptr %_0.sroa.0.0.i.i, align 1, !noalias !1794, !noundef !11
  br label %"_ZN81_$LT$core..str..iter..Bytes$u20$as$u20$core..iter..traits..iterator..Iterator$GT$4next17h1d2470c5d9a8e5ffE.exit"

"_ZN81_$LT$core..str..iter..Bytes$u20$as$u20$core..iter..traits..iterator..Iterator$GT$4next17h1d2470c5d9a8e5ffE.exit": ; preds = %"_ZN91_$LT$core..slice..iter..Iter$LT$T$GT$$u20$as$u20$core..iter..traits..iterator..Iterator$GT$4next17hf7d1340a322c1c85E.exit.i", %bb5.i
  %_0.sroa.3.0.i = phi i8 [ %v.i, %bb5.i ], [ undef, %"_ZN91_$LT$core..slice..iter..Iter$LT$T$GT$$u20$as$u20$core..iter..traits..iterator..Iterator$GT$4next17hf7d1340a322c1c85E.exit.i" ]
  br i1 %.not.i.not.not.not, label %bb7, label %bb9

bb9:                                              ; preds = %bb7, %"_ZN81_$LT$core..str..iter..Bytes$u20$as$u20$core..iter..traits..iterator..Iterator$GT$4next17h1d2470c5d9a8e5ffE.exit", %start
  %not._8.i = phi i1 [ true, %start ], [ %.not.i.not.not.not, %"_ZN81_$LT$core..str..iter..Bytes$u20$as$u20$core..iter..traits..iterator..Iterator$GT$4next17h1d2470c5d9a8e5ffE.exit" ], [ %.not.i.not.not.not, %bb7 ]
  ret i1 %not._8.i

bb7:                                              ; preds = %"_ZN81_$LT$core..str..iter..Bytes$u20$as$u20$core..iter..traits..iterator..Iterator$GT$4next17h1d2470c5d9a8e5ffE.exit"
  store i8 %_0.sroa.3.0.i, ptr %iter.sroa.0.010, align 1
  %6 = load i64, ptr %1, align 8, !noundef !11
  %7 = add i64 %6, 1
  store i64 %7, ptr %1, align 8
  %_8.i = icmp ne ptr %spec.select12, %4
  %spec.select.idx = zext i1 %_8.i to i64
  %spec.select = getelementptr inbounds nuw i8, ptr %spec.select12, i64 %spec.select.idx
  br i1 %_8.i, label %bb4, label %bb9
}

; alloc::vec::splice::<impl alloc::vec::drain::Drain<T,A>>::move_tail
; Function Attrs: nonlazybind uwtable
define void @"_ZN5alloc3vec6splice55_$LT$impl$u20$alloc..vec..drain..Drain$LT$T$C$A$GT$$GT$9move_tail17h5cacf35e63f71de5E"(ptr noalias noundef align 8 captures(none) dereferenceable(40) %self, i64 noundef %additional) unnamed_addr #0 {
start:
  %0 = getelementptr inbounds nuw i8, ptr %self, i64 16
  %_18 = load ptr, ptr %0, align 8, !nonnull !11, !noundef !11
  %1 = getelementptr inbounds nuw i8, ptr %self, i64 24
  %_5 = load i64, ptr %1, align 8, !noundef !11
  %2 = getelementptr inbounds nuw i8, ptr %self, i64 32
  %_6 = load i64, ptr %2, align 8, !noundef !11
  %len = add i64 %_6, %_5
  %self2 = load i64, ptr %_18, align 8, !range !1800, !noundef !11
  %_23 = sub i64 %self2, %len
  %_21 = icmp ugt i64 %additional, %_23
  br i1 %_21, label %bb1, label %bb2, !prof !14

bb2:                                              ; preds = %bb1, %start
  %new_tail_start = add i64 %_5, %additional
  %3 = getelementptr inbounds nuw i8, ptr %_18, i64 8
  %_29 = load ptr, ptr %3, align 8, !nonnull !11, !noundef !11
  %src = getelementptr inbounds nuw i8, ptr %_29, i64 %_5
  %dst = getelementptr inbounds nuw i8, ptr %_29, i64 %new_tail_start
  tail call void @llvm.memmove.p0.p0.i64(ptr nonnull align 1 %dst, ptr nonnull align 1 %src, i64 %_6, i1 false)
  store i64 %new_tail_start, ptr %1, align 8
  ret void

bb1:                                              ; preds = %start
; call alloc::raw_vec::RawVecInner<A>::reserve::do_reserve_and_handle
  tail call void @"_ZN5alloc7raw_vec20RawVecInner$LT$A$GT$7reserve21do_reserve_and_handle17h3fb8db3e79fd71d4E"(ptr noalias noundef align 8 dereferenceable(16) %_18, i64 noundef %len, i64 noundef %additional, i64 noundef 1, i64 noundef 1)
  br label %bb2
}

; alloc::vec::into_iter::IntoIter<T,A>::as_raw_mut_slice
; Function Attrs: mustprogress nofree norecurse nosync nounwind nonlazybind willreturn memory(argmem: read) uwtable
define { ptr, i64 } @"_ZN5alloc3vec9into_iter21IntoIter$LT$T$C$A$GT$16as_raw_mut_slice17he263b6417d157a6eE"(ptr noalias noundef readonly align 8 captures(none) dereferenceable(32) %self) unnamed_addr #13 {
start:
  %0 = getelementptr inbounds nuw i8, ptr %self, i64 8
  %self1 = load ptr, ptr %0, align 8, !nonnull !11, !noundef !11
  %_22 = getelementptr inbounds nuw i8, ptr %self, i64 24
  %_20 = load ptr, ptr %_22, align 8, !nonnull !11, !noundef !11
  %1 = ptrtoint ptr %_20 to i64
  %2 = ptrtoint ptr %self1 to i64
  %3 = sub nuw i64 %1, %2
  %4 = insertvalue { ptr, i64 } poison, ptr %self1, 0
  %5 = insertvalue { ptr, i64 } %4, i64 %3, 1
  ret { ptr, i64 } %5
}

; alloc::slice::<impl core::slice::sort::stable::BufGuard<T> for alloc::vec::Vec<T>>::with_capacity
; Function Attrs: nonlazybind uwtable
define void @"_ZN5alloc5slice99_$LT$impl$u20$core..slice..sort..stable..BufGuard$LT$T$GT$$u20$for$u20$alloc..vec..Vec$LT$T$GT$$GT$13with_capacity17h47ff7f189d415ff6E"(ptr dead_on_unwind noalias noundef writable writeonly sret([24 x i8]) align 8 captures(none) dereferenceable(24) %_0, i64 noundef %capacity) unnamed_addr #0 {
start:
  %_4.i = alloca [24 x i8], align 8
  call void @llvm.lifetime.start.p0(i64 24, ptr nonnull %_4.i)
; call alloc::raw_vec::RawVecInner<A>::try_allocate_in
  call void @"_ZN5alloc7raw_vec20RawVecInner$LT$A$GT$15try_allocate_in17had089b3ffc2704ecE"(ptr noalias noundef sret([24 x i8]) align 8 captures(none) dereferenceable(24) %_4.i, i64 noundef %capacity, i1 noundef zeroext false, i64 noundef 4, i64 noundef 4)
  %_5.i = load i64, ptr %_4.i, align 8, !range !12, !noundef !11
  %0 = trunc nuw i64 %_5.i to i1
  %1 = getelementptr inbounds nuw i8, ptr %_4.i, i64 8
  %err.0.i = load i64, ptr %1, align 8, !range !13, !noundef !11
  %2 = getelementptr inbounds nuw i8, ptr %_4.i, i64 16
  br i1 %0, label %bb3.i, label %"_ZN5alloc7raw_vec20RawVecInner$LT$A$GT$16with_capacity_in17h0c8f4b8bb02748e6E.exit", !prof !14

bb3.i:                                            ; preds = %start
  %err.1.i = load i64, ptr %2, align 8
; call alloc::raw_vec::handle_error
  tail call void @_ZN5alloc7raw_vec12handle_error17h3a8c375904e593b2E(i64 noundef %err.0.i, i64 %err.1.i) #29
  unreachable

"_ZN5alloc7raw_vec20RawVecInner$LT$A$GT$16with_capacity_in17h0c8f4b8bb02748e6E.exit": ; preds = %start
  %this.1.i = load ptr, ptr %2, align 8, !nonnull !11, !noundef !11
  %_7.i = icmp ule i64 %capacity, %err.0.i
  tail call void @llvm.assume(i1 %_7.i)
  call void @llvm.lifetime.end.p0(i64 24, ptr nonnull %_4.i)
  store i64 %err.0.i, ptr %_0, align 8
  %3 = getelementptr inbounds nuw i8, ptr %_0, i64 8
  store ptr %this.1.i, ptr %3, align 8
  %4 = getelementptr inbounds nuw i8, ptr %_0, i64 16
  store i64 0, ptr %4, align 8
  ret void
}

; alloc::slice::<impl core::slice::sort::stable::BufGuard<T> for alloc::vec::Vec<T>>::as_uninit_slice_mut
; Function Attrs: mustprogress nofree norecurse nosync nounwind nonlazybind willreturn memory(argmem: read) uwtable
define { ptr, i64 } @"_ZN5alloc5slice99_$LT$impl$u20$core..slice..sort..stable..BufGuard$LT$T$GT$$u20$for$u20$alloc..vec..Vec$LT$T$GT$$GT$19as_uninit_slice_mut17h4f28b0372a6120c9E"(ptr noalias noundef readonly align 8 captures(none) dereferenceable(24) %self) unnamed_addr #13 {
start:
  %0 = getelementptr inbounds nuw i8, ptr %self, i64 8
  %_10 = load ptr, ptr %0, align 8, !nonnull !11, !noundef !11
  %1 = getelementptr inbounds nuw i8, ptr %self, i64 16
  %count = load i64, ptr %1, align 8, !noundef !11
  %_3 = getelementptr inbounds nuw i32, ptr %_10, i64 %count
  %self1 = load i64, ptr %self, align 8, !range !1800, !noundef !11
  %len = sub i64 %self1, %count
  %2 = insertvalue { ptr, i64 } poison, ptr %_3, 0
  %3 = insertvalue { ptr, i64 } %2, i64 %len, 1
  ret { ptr, i64 } %3
}

; alloc::string::String::replace_range
; Function Attrs: nonlazybind uwtable
define void @_ZN5alloc6string6String13replace_range17h664d473e476aaa46E(ptr noalias noundef align 8 dereferenceable(24) %self, i64 noundef %0, i64 noundef %1, ptr noalias noundef nonnull readonly align 1 captures(address, read_provenance) %replace_with.0, i64 noundef %replace_with.1, ptr noalias noundef readonly align 8 captures(address, read_provenance) dereferenceable(24) %2) unnamed_addr #0 personality ptr @rust_eh_personality {
start:
  %_30 = alloca [32 x i8], align 8
  %_28 = alloca [56 x i8], align 8
  %range = alloca [16 x i8], align 8
  store i64 %0, ptr %range, align 8
  %3 = getelementptr inbounds nuw i8, ptr %range, i64 8
  store i64 %1, ptr %3, align 8
  %4 = getelementptr inbounds nuw i8, ptr %self, i64 8
  %_49 = load ptr, ptr %4, align 8, !nonnull !11, !noundef !11
  %5 = getelementptr inbounds nuw i8, ptr %self, i64 16
  %len = load i64, ptr %5, align 8, !noundef !11
  %_54 = icmp eq i64 %0, 0
  br i1 %_54, label %bb5, label %bb30

bb30:                                             ; preds = %start
  %_55.not = icmp ult i64 %0, %len
  br i1 %_55.not, label %bb33, label %bb31

bb31:                                             ; preds = %bb30
  %6 = icmp eq i64 %0, %len
  br label %bb34

bb33:                                             ; preds = %bb30
  %7 = getelementptr inbounds nuw i8, ptr %_49, i64 %0
  %self2 = load i8, ptr %7, align 1, !noundef !11
  %8 = icmp sgt i8 %self2, -65
  br label %bb34

bb34:                                             ; preds = %bb31, %bb33
  %_8.sroa.0.0.in = phi i1 [ %6, %bb31 ], [ %8, %bb33 ]
  br i1 %_8.sroa.0.0.in, label %bb5, label %bb6, !prof !1737

bb6:                                              ; preds = %bb34
; call core::panicking::panic
  tail call void @_ZN4core9panicking5panic17ha2e20a73227bb72eE(ptr noalias noundef nonnull readonly align 1 captures(address, read_provenance) @alloc_92ed622ad60a8e3eb42de5b155ee835e, i64 noundef 42, ptr noalias noundef readonly align 8 captures(address, read_provenance) dereferenceable(24) %2) #29
  unreachable

bb5:                                              ; preds = %start, %bb34
  %_93 = icmp eq i64 %1, 0
  br i1 %_93, label %bb15, label %bb54

bb54:                                             ; preds = %bb5
  %_94.not = icmp ult i64 %1, %len
  br i1 %_94.not, label %bb57, label %bb55

bb55:                                             ; preds = %bb54
  %9 = icmp eq i64 %1, %len
  br label %bb58

bb57:                                             ; preds = %bb54
  %10 = getelementptr inbounds nuw i8, ptr %_49, i64 %1
  %self15 = load i8, ptr %10, align 1, !noundef !11
  %11 = icmp sgt i8 %self15, -65
  br label %bb58

bb58:                                             ; preds = %bb55, %bb57
  %_25.sroa.0.0.in = phi i1 [ %9, %bb55 ], [ %11, %bb57 ]
  br i1 %_25.sroa.0.0.in, label %bb15, label %bb16, !prof !1737

bb16:                                             ; preds = %bb58
; call core::panicking::panic
  tail call void @_ZN4core9panicking5panic17ha2e20a73227bb72eE(ptr noalias noundef nonnull readonly align 1 captures(address, read_provenance) @alloc_92ed622ad60a8e3eb42de5b155ee835e, i64 noundef 42, ptr noalias noundef readonly align 8 captures(address, read_provenance) dereferenceable(24) %2) #29
  unreachable

bb15:                                             ; preds = %bb5, %bb58
  call void @llvm.lifetime.start.p0(i64 56, ptr nonnull %_28)
  call void @llvm.lifetime.start.p0(i64 32, ptr nonnull %_30)
  store i64 0, ptr %_30, align 8
  %12 = getelementptr inbounds nuw i8, ptr %_30, i64 8
  store ptr %range, ptr %12, align 8
  %13 = getelementptr inbounds nuw i8, ptr %_30, i64 16
  store i64 1, ptr %13, align 8
  %14 = getelementptr inbounds nuw i8, ptr %_30, i64 24
  store ptr %3, ptr %14, align 8
  %_106 = getelementptr inbounds nuw i8, ptr %replace_with.0, i64 %replace_with.1
  call void @llvm.experimental.noalias.scope.decl(metadata !1801)
  call void @llvm.experimental.noalias.scope.decl(metadata !1804)
  call void @llvm.experimental.noalias.scope.decl(metadata !1806)
  %_15.i.i = icmp sgt i64 %len, -1
  call void @llvm.assume(i1 %_15.i.i)
; call core::slice::index::range
  %15 = call { i64, i64 } @_ZN4core5slice5index5range17h2ea26939d47998d4E(ptr noalias noundef nonnull readonly align 8 captures(address) dereferenceable(32) %_30, i64 noundef %len, ptr noalias noundef readonly align 8 captures(address, read_provenance) dereferenceable(24) @alloc_c66764e78d07cfd97cd1ec1962f8a17a), !noalias !1809
  %_6.0.i.i = extractvalue { i64, i64 } %15, 0
  %_6.1.i.i = extractvalue { i64, i64 } %15, 1
  store i64 %_6.0.i.i, ptr %5, align 8, !alias.scope !1811, !noalias !1812
  %16 = getelementptr inbounds nuw i8, ptr %_49, i64 %_6.0.i.i
  %_12.i.i = sub i64 %len, %_6.1.i.i
  %_30.i.i = getelementptr inbounds nuw i8, ptr %_49, i64 %_6.1.i.i
  store ptr %16, ptr %_28, align 8, !alias.scope !1801, !noalias !1815
  %_4.sroa.4.0._0.sroa_idx.i = getelementptr inbounds nuw i8, ptr %_28, i64 8
  store ptr %_30.i.i, ptr %_4.sroa.4.0._0.sroa_idx.i, align 8, !alias.scope !1801, !noalias !1815
  %_4.sroa.5.0._0.sroa_idx.i = getelementptr inbounds nuw i8, ptr %_28, i64 16
  store ptr %self, ptr %_4.sroa.5.0._0.sroa_idx.i, align 8, !alias.scope !1801, !noalias !1815
  %_4.sroa.6.0._0.sroa_idx.i = getelementptr inbounds nuw i8, ptr %_28, i64 24
  store i64 %_6.1.i.i, ptr %_4.sroa.6.0._0.sroa_idx.i, align 8, !alias.scope !1801, !noalias !1815
  %_4.sroa.7.0._0.sroa_idx.i = getelementptr inbounds nuw i8, ptr %_28, i64 32
  store i64 %_12.i.i, ptr %_4.sroa.7.0._0.sroa_idx.i, align 8, !alias.scope !1801, !noalias !1815
  %17 = getelementptr inbounds nuw i8, ptr %_28, i64 40
  store ptr %replace_with.0, ptr %17, align 8, !alias.scope !1801, !noalias !1815
  %18 = getelementptr inbounds nuw i8, ptr %_28, i64 48
  store ptr %_106, ptr %18, align 8, !alias.scope !1801, !noalias !1815
  call void @llvm.lifetime.end.p0(i64 32, ptr nonnull %_30)
  call void @llvm.experimental.noalias.scope.decl(metadata !1816)
; invoke <alloc::vec::splice::Splice<I,A> as core::ops::drop::Drop>::drop
  invoke void @"_ZN81_$LT$alloc..vec..splice..Splice$LT$I$C$A$GT$$u20$as$u20$core..ops..drop..Drop$GT$4drop17h320c041d738abf6eE"(ptr noalias noundef nonnull align 8 dereferenceable(56) %_28)
          to label %bb4.i unwind label %cleanup.i

cleanup.i:                                        ; preds = %bb15
  %19 = landingpad { ptr, i32 }
          cleanup
; call core::ptr::drop_in_place<alloc::vec::drain::Drain<u8>>
  call fastcc void @"_ZN4core3ptr55drop_in_place$LT$alloc..vec..drain..Drain$LT$u8$GT$$GT$17h762c86ba9763d124E"(ptr noalias noundef nonnull align 8 dereferenceable(56) %_28) #30
  resume { ptr, i32 } %19

bb4.i:                                            ; preds = %bb15
  call void @llvm.experimental.noalias.scope.decl(metadata !1819)
  call void @llvm.experimental.noalias.scope.decl(metadata !1822)
  %iter.0.i.i.i = load ptr, ptr %_28, align 8, !alias.scope !1825, !nonnull !11, !noundef !11
  %iter.1.i.i.i = load ptr, ptr %_4.sroa.4.0._0.sroa_idx.i, align 8, !alias.scope !1825, !nonnull !11, !noundef !11
  store ptr inttoptr (i64 1 to ptr), ptr %_28, align 8, !alias.scope !1825
  store ptr inttoptr (i64 1 to ptr), ptr %_4.sroa.4.0._0.sroa_idx.i, align 8, !alias.scope !1825
  %_15.i.i.i = icmp eq ptr %iter.1.i.i.i, %iter.0.i.i.i
  %_3.i.i.i.i.i = load i64, ptr %_4.sroa.7.0._0.sroa_idx.i, align 8, !alias.scope !1825, !noalias !11, !noundef !11
  %_2.not.i.i.i.i.i = icmp eq i64 %_3.i.i.i.i.i, 0
  br i1 %_15.i.i.i, label %bb3.i.i.i, label %bb40.i.i.i

bb3.i.i.i:                                        ; preds = %bb4.i
  br i1 %_2.not.i.i.i.i.i, label %"_ZN4core3ptr77drop_in_place$LT$alloc..vec..splice..Splice$LT$core..str..iter..Bytes$GT$$GT$17h554f981d45337611E.exit", label %bb1.i.i.i.i.i

bb1.i.i.i.i.i:                                    ; preds = %bb3.i.i.i
  %_22.i.i.i.i.i = load ptr, ptr %_4.sroa.5.0._0.sroa_idx.i, align 8, !alias.scope !1825, !noalias !1826, !nonnull !11, !noundef !11
  %20 = getelementptr inbounds nuw i8, ptr %_22.i.i.i.i.i, i64 16
  %start1.i.i.i.i.i = load i64, ptr %20, align 8, !noalias !1831, !noundef !11
  %_23.i.i.i.i.i = icmp sgt i64 %start1.i.i.i.i.i, -1
  call void @llvm.assume(i1 %_23.i.i.i.i.i)
  %tail.i.i.i.i.i = load i64, ptr %_4.sroa.6.0._0.sroa_idx.i, align 8, !alias.scope !1825, !noalias !1826, !noundef !11
  %_7.not.i.i.i.i.i = icmp eq i64 %tail.i.i.i.i.i, %start1.i.i.i.i.i
  br i1 %_7.not.i.i.i.i.i, label %bb3.i.i.i.i.i, label %bb2.i.i.i.i.i

bb3.i.i.i.i.i:                                    ; preds = %bb2.i.i.i.i.i, %bb1.i.i.i.i.i
  %new_len.i.i.i.i.i = add i64 %start1.i.i.i.i.i, %_3.i.i.i.i.i
  store i64 %new_len.i.i.i.i.i, ptr %20, align 8, !noalias !1831
  br label %"_ZN4core3ptr77drop_in_place$LT$alloc..vec..splice..Splice$LT$core..str..iter..Bytes$GT$$GT$17h554f981d45337611E.exit"

bb2.i.i.i.i.i:                                    ; preds = %bb1.i.i.i.i.i
  %21 = getelementptr inbounds nuw i8, ptr %_22.i.i.i.i.i, i64 8
  %_24.i.i.i.i.i = load ptr, ptr %21, align 8, !noalias !1831, !nonnull !11, !noundef !11
  %src.i.i.i.i.i = getelementptr inbounds nuw i8, ptr %_24.i.i.i.i.i, i64 %tail.i.i.i.i.i
  %dst.i.i.i.i.i = getelementptr inbounds nuw i8, ptr %_24.i.i.i.i.i, i64 %start1.i.i.i.i.i
  call void @llvm.memmove.p0.p0.i64(ptr nonnull align 1 %dst.i.i.i.i.i, ptr nonnull align 1 %src.i.i.i.i.i, i64 %_3.i.i.i.i.i, i1 false), !noalias !1831
  br label %bb3.i.i.i.i.i

bb40.i.i.i:                                       ; preds = %bb4.i
  br i1 %_2.not.i.i.i.i.i, label %"_ZN4core3ptr77drop_in_place$LT$alloc..vec..splice..Splice$LT$core..str..iter..Bytes$GT$$GT$17h554f981d45337611E.exit", label %bb1.i.i24.i.i.i

bb1.i.i24.i.i.i:                                  ; preds = %bb40.i.i.i
  %_22.i.i25.i.i.i = load ptr, ptr %_4.sroa.5.0._0.sroa_idx.i, align 8, !alias.scope !1825, !noalias !1832, !nonnull !11, !noundef !11
  %22 = getelementptr inbounds nuw i8, ptr %_22.i.i25.i.i.i, i64 16
  %start1.i.i26.i.i.i = load i64, ptr %22, align 8, !noalias !1837, !noundef !11
  %_23.i.i27.i.i.i = icmp sgt i64 %start1.i.i26.i.i.i, -1
  call void @llvm.assume(i1 %_23.i.i27.i.i.i)
  %tail.i.i28.i.i.i = load i64, ptr %_4.sroa.6.0._0.sroa_idx.i, align 8, !alias.scope !1825, !noalias !1832, !noundef !11
  %_7.not.i.i29.i.i.i = icmp eq i64 %tail.i.i28.i.i.i, %start1.i.i26.i.i.i
  br i1 %_7.not.i.i29.i.i.i, label %bb3.i.i34.i.i.i, label %bb2.i.i30.i.i.i

bb3.i.i34.i.i.i:                                  ; preds = %bb2.i.i30.i.i.i, %bb1.i.i24.i.i.i
  %new_len.i.i36.i.i.i = add i64 %start1.i.i26.i.i.i, %_3.i.i.i.i.i
  store i64 %new_len.i.i36.i.i.i, ptr %22, align 8, !noalias !1837
  br label %"_ZN4core3ptr77drop_in_place$LT$alloc..vec..splice..Splice$LT$core..str..iter..Bytes$GT$$GT$17h554f981d45337611E.exit"

bb2.i.i30.i.i.i:                                  ; preds = %bb1.i.i24.i.i.i
  %23 = getelementptr inbounds nuw i8, ptr %_22.i.i25.i.i.i, i64 8
  %_24.i.i31.i.i.i = load ptr, ptr %23, align 8, !noalias !1837, !nonnull !11, !noundef !11
  %src.i.i32.i.i.i = getelementptr inbounds nuw i8, ptr %_24.i.i31.i.i.i, i64 %tail.i.i28.i.i.i
  %dst.i.i33.i.i.i = getelementptr inbounds nuw i8, ptr %_24.i.i31.i.i.i, i64 %start1.i.i26.i.i.i
  call void @llvm.memmove.p0.p0.i64(ptr nonnull align 1 %dst.i.i33.i.i.i, ptr nonnull align 1 %src.i.i32.i.i.i, i64 %_3.i.i.i.i.i, i1 false), !noalias !1837
  br label %bb3.i.i34.i.i.i

"_ZN4core3ptr77drop_in_place$LT$alloc..vec..splice..Splice$LT$core..str..iter..Bytes$GT$$GT$17h554f981d45337611E.exit": ; preds = %bb3.i.i.i, %bb3.i.i.i.i.i, %bb40.i.i.i, %bb3.i.i34.i.i.i
  call void @llvm.lifetime.end.p0(i64 56, ptr nonnull %_28)
  ret void
}

; <alloc::vec::Vec<T,A> as core::ops::drop::Drop>::drop
; Function Attrs: mustprogress nofree norecurse nosync nounwind nonlazybind willreturn memory(none) uwtable
define void @"_ZN70_$LT$alloc..vec..Vec$LT$T$C$A$GT$$u20$as$u20$core..ops..drop..Drop$GT$4drop17he1ec055327b1a03bE"(ptr noalias noundef readnone align 8 captures(none) dereferenceable(24) %self) unnamed_addr #9 {
start:
  ret void
}

; <&mut I as core::iter::traits::iterator::Iterator>::fold
; Function Attrs: nofree norecurse nosync nounwind nonlazybind uwtable
define void @"_ZN72_$LT$$RF$mut$u20$I$u20$as$u20$core..iter..traits..iterator..Iterator$GT$4fold17h27995977b519942bE"(ptr noalias noundef align 8 captures(none) dereferenceable(16) %self, ptr dead_on_return noalias noundef readonly align 8 captures(none) dereferenceable(24) %f) unnamed_addr #11 personality ptr @rust_eh_personality {
start:
  tail call void @llvm.experimental.noalias.scope.decl(metadata !1838)
  tail call void @llvm.experimental.noalias.scope.decl(metadata !1841)
  %f.sroa.0.0.copyload.i = load ptr, ptr %f, align 8, !alias.scope !1841, !noalias !1838
  %f.sroa.4.0.fold.sroa_idx.i = getelementptr inbounds nuw i8, ptr %f, i64 8
  %f.sroa.4.0.copyload.i = load i64, ptr %f.sroa.4.0.fold.sroa_idx.i, align 8, !alias.scope !1841, !noalias !1838
  %f.sroa.7.0.fold.sroa_idx.i = getelementptr inbounds nuw i8, ptr %f, i64 16
  %f.sroa.7.0.copyload.i = load ptr, ptr %f.sroa.7.0.fold.sroa_idx.i, align 8, !alias.scope !1841, !noalias !1838
  tail call void @llvm.experimental.noalias.scope.decl(metadata !1843)
  %0 = getelementptr inbounds nuw i8, ptr %self, i64 8
  %end_or_len.i.i.i.i = load ptr, ptr %0, align 8, !alias.scope !1846, !noalias !1851, !nonnull !11, !noundef !11
  %self.promoted.i.i = load ptr, ptr %self, align 8, !alias.scope !1846, !noalias !1851
  br label %bb1.i.i

bb1.i.i:                                          ; preds = %bb3.i.i, %start
  %f.sroa.4.0.i = phi i64 [ %f.sroa.4.0.copyload.i, %start ], [ %1, %bb3.i.i ]
  %_18.i.i5.i.i = phi ptr [ %self.promoted.i.i, %start ], [ %_18.i.i4.i.i, %bb3.i.i ]
  tail call void @llvm.experimental.noalias.scope.decl(metadata !1853)
  %_7.i.i.i.i = icmp eq ptr %_18.i.i5.i.i, %end_or_len.i.i.i.i
  br i1 %_7.i.i.i.i, label %"_ZN91_$LT$core..slice..iter..Iter$LT$T$GT$$u20$as$u20$core..iter..traits..iterator..Iterator$GT$4next17hf7d1340a322c1c85E.exit.i.i.i", label %bb6.i.i.i.i

bb6.i.i.i.i:                                      ; preds = %bb1.i.i
  %_18.i.i.i.i = getelementptr inbounds nuw i8, ptr %_18.i.i5.i.i, i64 1
  store ptr %_18.i.i.i.i, ptr %self, align 8, !alias.scope !1846, !noalias !1851
  br label %"_ZN91_$LT$core..slice..iter..Iter$LT$T$GT$$u20$as$u20$core..iter..traits..iterator..Iterator$GT$4next17hf7d1340a322c1c85E.exit.i.i.i"

"_ZN91_$LT$core..slice..iter..Iter$LT$T$GT$$u20$as$u20$core..iter..traits..iterator..Iterator$GT$4next17hf7d1340a322c1c85E.exit.i.i.i": ; preds = %bb6.i.i.i.i, %bb1.i.i
  %_18.i.i4.i.i = phi ptr [ %_18.i.i.i.i, %bb6.i.i.i.i ], [ %_18.i.i5.i.i, %bb1.i.i ]
  %_0.sroa.0.0.i.i.i.i = phi ptr [ %_18.i.i5.i.i, %bb6.i.i.i.i ], [ null, %bb1.i.i ]
  %.not.i.not.i.i = icmp eq ptr %_0.sroa.0.0.i.i.i.i, null
  br i1 %.not.i.not.i.i, label %"_ZN81_$LT$core..str..iter..Bytes$u20$as$u20$core..iter..traits..iterator..Iterator$GT$4next17h1d2470c5d9a8e5ffE.exit.i.i", label %bb5.i.i.i

bb5.i.i.i:                                        ; preds = %"_ZN91_$LT$core..slice..iter..Iter$LT$T$GT$$u20$as$u20$core..iter..traits..iterator..Iterator$GT$4next17hf7d1340a322c1c85E.exit.i.i.i"
  %v.i.i.i = load i8, ptr %_0.sroa.0.0.i.i.i.i, align 1, !noalias !1854, !noundef !11
  br label %"_ZN81_$LT$core..str..iter..Bytes$u20$as$u20$core..iter..traits..iterator..Iterator$GT$4next17h1d2470c5d9a8e5ffE.exit.i.i"

"_ZN81_$LT$core..str..iter..Bytes$u20$as$u20$core..iter..traits..iterator..Iterator$GT$4next17h1d2470c5d9a8e5ffE.exit.i.i": ; preds = %bb5.i.i.i, %"_ZN91_$LT$core..slice..iter..Iter$LT$T$GT$$u20$as$u20$core..iter..traits..iterator..Iterator$GT$4next17hf7d1340a322c1c85E.exit.i.i.i"
  %_0.sroa.3.0.i.i.i = phi i8 [ %v.i.i.i, %bb5.i.i.i ], [ undef, %"_ZN91_$LT$core..slice..iter..Iter$LT$T$GT$$u20$as$u20$core..iter..traits..iterator..Iterator$GT$4next17hf7d1340a322c1c85E.exit.i.i.i" ]
  br i1 %.not.i.not.i.i, label %"_ZN79_$LT$$RF$mut$u20$I$u20$as$u20$core..iter..traits..iterator..IteratorRefSpec$GT$9spec_fold17h2b397796b6b9701bE.exit", label %bb3.i.i

bb3.i.i:                                          ; preds = %"_ZN81_$LT$core..str..iter..Bytes$u20$as$u20$core..iter..traits..iterator..Iterator$GT$4next17h1d2470c5d9a8e5ffE.exit.i.i"
  %_3.i.i.i.i.i = getelementptr inbounds nuw i8, ptr %f.sroa.7.0.copyload.i, i64 %f.sroa.4.0.i
  store i8 %_0.sroa.3.0.i.i.i, ptr %_3.i.i.i.i.i, align 1, !noalias !1855
  %1 = add i64 %f.sroa.4.0.i, 1
  br label %bb1.i.i

"_ZN79_$LT$$RF$mut$u20$I$u20$as$u20$core..iter..traits..iterator..IteratorRefSpec$GT$9spec_fold17h2b397796b6b9701bE.exit": ; preds = %"_ZN81_$LT$core..str..iter..Bytes$u20$as$u20$core..iter..traits..iterator..Iterator$GT$4next17h1d2470c5d9a8e5ffE.exit.i.i"
  %2 = icmp ne ptr %f.sroa.0.0.copyload.i, null
  tail call void @llvm.assume(i1 %2)
