; ModuleID = 'LEXICOGRAPHICALLY_MINIMUM_STRING_ROTATION_emit.943fd80978e545e7-cgu.0'
source_filename = "LEXICOGRAPHICALLY_MINIMUM_STRING_ROTATION_emit.943fd80978e545e7-cgu.0"
target datalayout = "e-m:e-p270:32:32-p271:32:32-p272:64:64-i64:64-i128:128-f80:128-n8:16:32:64-S128"
target triple = "x86_64-unknown-linux-gnu"

%"alloc::string::String" = type { %"alloc::vec::Vec<u8>" }
%"alloc::vec::Vec<u8>" = type { %"alloc::raw_vec::RawVec<u8>", i64 }
%"alloc::raw_vec::RawVec<u8>" = type { %"alloc::raw_vec::RawVecInner", %"core::marker::PhantomData<u8>" }
%"alloc::raw_vec::RawVecInner" = type { i64, ptr, %"alloc::alloc::Global" }
%"alloc::alloc::Global" = type {}
%"core::marker::PhantomData<u8>" = type {}

@alloc_d1084648e479974e70c9329824bf76f9 = private unnamed_addr constant [9 x i8] c"mid > len", align 1
@alloc_e8e5fd9f509afcb950667480b3e3e42a = private unnamed_addr constant [126 x i8] c"/root/.rustup/toolchains/stable-x86_64-unknown-linux-gnu/lib/rustlib/src/rust/library/core/src/slice/sort/stable/quicksort.rs\00", align 1
@alloc_58d434a1e795f965ef82c8e9c5db822a = private unnamed_addr constant <{ ptr, [16 x i8] }> <{ ptr @alloc_e8e5fd9f509afcb950667480b3e3e42a, [16 x i8] c"}\00\00\00\00\00\00\00J\00\00\00\1F\00\00\00" }>, align 8
@alloc_0766b232215672ee1bd2195fdb153938 = private unnamed_addr constant <{ ptr, [16 x i8] }> <{ ptr @alloc_e8e5fd9f509afcb950667480b3e3e42a, [16 x i8] c"}\00\00\00\00\00\00\00D\00\00\00\17\00\00\00" }>, align 8
@alloc_8509a3c87a45bed5fb7d7125d0b4da5e = private unnamed_addr constant [137 x i8] c"/root/es/vert/vert/rust_funcs/cpp_transcoder/LEXICOGRAPHICALLY_MINIMUM_STRING_ROTATION/LEXICOGRAPHICALLY_MINIMUM_STRING_ROTATION_emit.rs\00", align 1
@alloc_731aaa3b1d0e174abb75650cf8233bd4 = private unnamed_addr constant <{ ptr, [16 x i8] }> <{ ptr @alloc_8509a3c87a45bed5fb7d7125d0b4da5e, [16 x i8] c"\88\00\00\00\00\00\00\00\1F\00\00\00\08\00\00\00" }>, align 8
@alloc_ca685516a45432c9ecfc325128ac9b4c = private unnamed_addr constant <{ ptr, [16 x i8] }> <{ ptr @alloc_8509a3c87a45bed5fb7d7125d0b4da5e, [16 x i8] c"\88\00\00\00\00\00\00\00\1B\00\00\00\18\00\00\00" }>, align 8

; core::ptr::drop_in_place<alloc::vec::Vec<alloc::string::String>>
; Function Attrs: nounwind nonlazybind uwtable
define internal fastcc void @"_ZN4core3ptr65drop_in_place$LT$alloc..vec..Vec$LT$alloc..string..String$GT$$GT$17ha5714b0b3d45e72aE"(ptr noalias noundef nonnull readonly align 8 captures(none) dereferenceable(24) %_1) unnamed_addr #0 personality ptr @rust_eh_personality {
start:
  tail call void @llvm.experimental.noalias.scope.decl(metadata !3)
  %0 = getelementptr inbounds nuw i8, ptr %_1, i64 8
  %_5.i = load ptr, ptr %0, align 8, !alias.scope !3, !nonnull !6, !noundef !6
  %1 = getelementptr inbounds nuw i8, ptr %_1, i64 16
  %len.i = load i64, ptr %1, align 8, !alias.scope !3, !noundef !6
  tail call void @llvm.experimental.noalias.scope.decl(metadata !7)
  %_711.i.i = icmp eq i64 %len.i, 0
  br i1 %_711.i.i, label %bb4, label %bb5.i.i

bb5.i.i:                                          ; preds = %start, %"_ZN4core3ptr42drop_in_place$LT$alloc..string..String$GT$17heba7bfbe8384b04bE.exit.i.i"
  %_3.sroa.0.012.i.i = phi i64 [ %2, %"_ZN4core3ptr42drop_in_place$LT$alloc..string..String$GT$17heba7bfbe8384b04bE.exit.i.i" ], [ 0, %start ]
  %_6.i.i = getelementptr inbounds nuw %"alloc::string::String", ptr %_5.i, i64 %_3.sroa.0.012.i.i
  %2 = add nuw i64 %_3.sroa.0.012.i.i, 1
  tail call void @llvm.experimental.noalias.scope.decl(metadata !10)
  tail call void @llvm.experimental.noalias.scope.decl(metadata !13)
  tail call void @llvm.experimental.noalias.scope.decl(metadata !16)
  tail call void @llvm.experimental.noalias.scope.decl(metadata !19)
  tail call void @llvm.experimental.noalias.scope.decl(metadata !22)
  %self1.i.i.i.i1.i.i.i.i = load i64, ptr %_6.i.i, align 8, !range !25, !alias.scope !26, !noalias !29, !noundef !6
  %_6.i.i.i.i2.i.i.i.i = icmp eq i64 %self1.i.i.i.i1.i.i.i.i, 0
  br i1 %_6.i.i.i.i2.i.i.i.i, label %"_ZN4core3ptr42drop_in_place$LT$alloc..string..String$GT$17heba7bfbe8384b04bE.exit.i.i", label %bb2.i.i.i3.i.i.i.i

bb2.i.i.i3.i.i.i.i:                               ; preds = %bb5.i.i
  %3 = getelementptr inbounds nuw i8, ptr %_6.i.i, i64 8
  %self3.i.i.i.i4.i.i.i.i = load ptr, ptr %3, align 8, !alias.scope !26, !noalias !29, !nonnull !6, !noundef !6
; call __rustc::__rust_dealloc
  tail call void @_RNvCsdBezzDwma51_7___rustc14___rust_dealloc(ptr noundef nonnull %self3.i.i.i.i4.i.i.i.i, i64 noundef %self1.i.i.i.i1.i.i.i.i, i64 noundef range(i64 1, -9223372036854775807) 1) #25, !noalias !31
  br label %"_ZN4core3ptr42drop_in_place$LT$alloc..string..String$GT$17heba7bfbe8384b04bE.exit.i.i"

"_ZN4core3ptr42drop_in_place$LT$alloc..string..String$GT$17heba7bfbe8384b04bE.exit.i.i": ; preds = %bb2.i.i.i3.i.i.i.i, %bb5.i.i
  %_7.i.i = icmp eq i64 %2, %len.i
  br i1 %_7.i.i, label %bb4, label %bb5.i.i

bb4:                                              ; preds = %"_ZN4core3ptr42drop_in_place$LT$alloc..string..String$GT$17heba7bfbe8384b04bE.exit.i.i", %start
  tail call void @llvm.experimental.noalias.scope.decl(metadata !32)
  tail call void @llvm.experimental.noalias.scope.decl(metadata !35)
  tail call void @llvm.experimental.noalias.scope.decl(metadata !38)
  %self1.i.i.i.i1 = load i64, ptr %_1, align 8, !range !25, !alias.scope !41, !noalias !44, !noundef !6
  %_6.i.i.i.i2 = icmp eq i64 %self1.i.i.i.i1, 0
  br i1 %_6.i.i.i.i2, label %"_ZN4core3ptr72drop_in_place$LT$alloc..raw_vec..RawVec$LT$alloc..string..String$GT$$GT$17h6acf535462ed31a6E.exit5", label %bb2.i.i.i3

bb2.i.i.i3:                                       ; preds = %bb4
  %4 = mul nuw i64 %self1.i.i.i.i1, 24
; call __rustc::__rust_dealloc
  tail call void @_RNvCsdBezzDwma51_7___rustc14___rust_dealloc(ptr noundef nonnull %_5.i, i64 noundef %4, i64 noundef range(i64 1, -9223372036854775807) 8) #25, !noalias !46
  br label %"_ZN4core3ptr72drop_in_place$LT$alloc..raw_vec..RawVec$LT$alloc..string..String$GT$$GT$17h6acf535462ed31a6E.exit5"

"_ZN4core3ptr72drop_in_place$LT$alloc..raw_vec..RawVec$LT$alloc..string..String$GT$$GT$17h6acf535462ed31a6E.exit5": ; preds = %bb4, %bb2.i.i.i3
  ret void
}

; core::slice::sort::shared::pivot::median3_rec
; Function Attrs: nofree nosync nounwind nonlazybind memory(read, inaccessiblemem: readwrite) uwtable
define internal fastcc noundef nonnull ptr @_ZN4core5slice4sort6shared5pivot11median3_rec17hf37be3b880a53badE(ptr noundef nonnull %0, ptr noundef nonnull %1, ptr noundef nonnull %2, i64 noundef range(i64 0, 288230376151711744) %n) unnamed_addr #1 {
start:
  %_6 = icmp samesign ugt i64 %n, 7
  br i1 %_6, label %bb1, label %bb6

bb1:                                              ; preds = %start
  %n84 = lshr i64 %n, 3
  %count = shl nuw nsw i64 %n84, 2
  %_10 = getelementptr inbounds nuw i32, ptr %0, i64 %count
  %count1 = mul nuw nsw i64 %n84, 7
  %_13 = getelementptr inbounds nuw i32, ptr %0, i64 %count1
; call core::slice::sort::shared::pivot::median3_rec
  %3 = tail call fastcc noundef ptr @_ZN4core5slice4sort6shared5pivot11median3_rec17hf37be3b880a53badE(ptr noundef %0, ptr noundef %_10, ptr noundef %_13, i64 noundef %n84)
  %_16 = getelementptr inbounds nuw i32, ptr %1, i64 %count
  %_18 = getelementptr inbounds nuw i32, ptr %1, i64 %count1
; call core::slice::sort::shared::pivot::median3_rec
  %4 = tail call fastcc noundef ptr @_ZN4core5slice4sort6shared5pivot11median3_rec17hf37be3b880a53badE(ptr noundef %1, ptr noundef %_16, ptr noundef %_18, i64 noundef %n84)
  %_20 = getelementptr inbounds nuw i32, ptr %2, i64 %count
  %_22 = getelementptr inbounds nuw i32, ptr %2, i64 %count1
; call core::slice::sort::shared::pivot::median3_rec
  %5 = tail call fastcc noundef ptr @_ZN4core5slice4sort6shared5pivot11median3_rec17hf37be3b880a53badE(ptr noundef %2, ptr noundef %_20, ptr noundef %_22, i64 noundef %n84)
  br label %bb6

bb6:                                              ; preds = %start, %bb1
  %c.sroa.0.0 = phi ptr [ %5, %bb1 ], [ %2, %start ]
  %b.sroa.0.0 = phi ptr [ %4, %bb1 ], [ %1, %start ]
  %a.sroa.0.0 = phi ptr [ %3, %bb1 ], [ %0, %start ]
  tail call void @llvm.experimental.noalias.scope.decl(metadata !47)
  tail call void @llvm.experimental.noalias.scope.decl(metadata !50)
  tail call void @llvm.experimental.noalias.scope.decl(metadata !52), !noalias !55
  tail call void @llvm.experimental.noalias.scope.decl(metadata !58), !noalias !55
  tail call void @llvm.experimental.noalias.scope.decl(metadata !60), !noalias !55
  tail call void @llvm.experimental.noalias.scope.decl(metadata !63), !noalias !55
  %_3.i.i.i = load i32, ptr %a.sroa.0.0, align 4, !alias.scope !65, !noalias !66, !noundef !6
  %_4.i.i.i = load i32, ptr %b.sroa.0.0, align 4, !alias.scope !67, !noalias !68, !noundef !6
  %_0.i = icmp slt i32 %_3.i.i.i, %_4.i.i.i
  %_4.i.i.i6 = load i32, ptr %c.sroa.0.0, align 4, !alias.scope !69, !noalias !76, !noundef !6
  %_0.i7 = icmp slt i32 %_3.i.i.i, %_4.i.i.i6
  %6 = xor i1 %_0.i, %_0.i7
  %_0.i10 = icmp slt i32 %_4.i.i.i, %_4.i.i.i6
  %_12.i = xor i1 %_0.i, %_0.i10
  %c.b.i = select i1 %_12.i, ptr %c.sroa.0.0, ptr %b.sroa.0.0
  %_0.sroa.0.0.i = select i1 %6, ptr %a.sroa.0.0, ptr %c.b.i
  ret ptr %_0.sroa.0.0.i
}

; core::slice::sort::shared::pivot::median3_rec
; Function Attrs: nofree nounwind nonlazybind memory(read, inaccessiblemem: readwrite) uwtable
define internal fastcc noundef nonnull ptr @_ZN4core5slice4sort6shared5pivot11median3_rec17hfb09d8ea71499d5cE(ptr noundef nonnull %0, ptr noundef nonnull %1, ptr noundef nonnull %2, i64 noundef range(i64 0, 48038396025285291) %n) unnamed_addr #2 {
start:
  %_6 = icmp samesign ugt i64 %n, 7
  br i1 %_6, label %bb1, label %bb6

bb1:                                              ; preds = %start
  %n84 = lshr i64 %n, 3
  %count = shl nuw nsw i64 %n84, 2
  %_10 = getelementptr inbounds nuw %"alloc::string::String", ptr %0, i64 %count
  %count1 = mul nuw nsw i64 %n84, 7
  %_13 = getelementptr inbounds nuw %"alloc::string::String", ptr %0, i64 %count1
; call core::slice::sort::shared::pivot::median3_rec
  %3 = tail call fastcc noundef ptr @_ZN4core5slice4sort6shared5pivot11median3_rec17hfb09d8ea71499d5cE(ptr noundef %0, ptr noundef %_10, ptr noundef %_13, i64 noundef %n84)
  %_16 = getelementptr inbounds nuw %"alloc::string::String", ptr %1, i64 %count
  %_18 = getelementptr inbounds nuw %"alloc::string::String", ptr %1, i64 %count1
; call core::slice::sort::shared::pivot::median3_rec
  %4 = tail call fastcc noundef ptr @_ZN4core5slice4sort6shared5pivot11median3_rec17hfb09d8ea71499d5cE(ptr noundef %1, ptr noundef %_16, ptr noundef %_18, i64 noundef %n84)
  %_20 = getelementptr inbounds nuw %"alloc::string::String", ptr %2, i64 %count
  %_22 = getelementptr inbounds nuw %"alloc::string::String", ptr %2, i64 %count1
; call core::slice::sort::shared::pivot::median3_rec
  %5 = tail call fastcc noundef ptr @_ZN4core5slice4sort6shared5pivot11median3_rec17hfb09d8ea71499d5cE(ptr noundef %2, ptr noundef %_20, ptr noundef %_22, i64 noundef %n84)
  br label %bb6

bb6:                                              ; preds = %start, %bb1
  %c.sroa.0.0 = phi ptr [ %5, %bb1 ], [ %2, %start ]
  %b.sroa.0.0 = phi ptr [ %4, %bb1 ], [ %1, %start ]
  %a.sroa.0.0 = phi ptr [ %3, %bb1 ], [ %0, %start ]
  tail call void @llvm.experimental.noalias.scope.decl(metadata !80)
  tail call void @llvm.experimental.noalias.scope.decl(metadata !83)
  tail call void @llvm.experimental.noalias.scope.decl(metadata !85), !noalias !88
  tail call void @llvm.experimental.noalias.scope.decl(metadata !91), !noalias !88
  tail call void @llvm.experimental.noalias.scope.decl(metadata !93), !noalias !88
  tail call void @llvm.experimental.noalias.scope.decl(metadata !96), !noalias !88
  %6 = getelementptr inbounds nuw i8, ptr %a.sroa.0.0, i64 8
  %_7.i.i.i = load ptr, ptr %6, align 8, !alias.scope !98, !noalias !99, !nonnull !6, !noundef !6
  %7 = getelementptr inbounds nuw i8, ptr %a.sroa.0.0, i64 16
  %len1.i.i.i = load i64, ptr %7, align 8, !alias.scope !98, !noalias !99, !noundef !6
  %8 = getelementptr inbounds nuw i8, ptr %b.sroa.0.0, i64 8
  %_14.i.i.i = load ptr, ptr %8, align 8, !alias.scope !100, !noalias !101, !nonnull !6, !noundef !6
  %9 = getelementptr inbounds nuw i8, ptr %b.sroa.0.0, i64 16
  %10 = load i64, ptr %9, align 8, !alias.scope !100, !noalias !101, !noundef !6
  %spec.store.select.i.i.i.i = tail call i64 @llvm.umin.i64(i64 range(i64 0, -9223372036854775808) %len1.i.i.i, i64 range(i64 0, -9223372036854775808) %10)
  %11 = tail call i32 @memcmp(ptr nonnull readonly align 1 %_7.i.i.i, ptr nonnull readonly align 1 %_14.i.i.i, i64 %spec.store.select.i.i.i.i), !alias.scope !102, !noalias !106
  %12 = sext i32 %11 to i64
  %_15.i.i.i.i = icmp eq i32 %11, 0
  %diff.i.i.i.i = sub nsw i64 %len1.i.i.i, %10
  %spec.select.i.i.i.i = select i1 %_15.i.i.i.i, i64 %diff.i.i.i.i, i64 %12
  tail call void @llvm.experimental.noalias.scope.decl(metadata !107)
  tail call void @llvm.experimental.noalias.scope.decl(metadata !110)
  tail call void @llvm.experimental.noalias.scope.decl(metadata !113)
  %13 = getelementptr inbounds nuw i8, ptr %c.sroa.0.0, i64 8
  %_14.i.i.i7 = load ptr, ptr %13, align 8, !alias.scope !116, !noalias !117, !nonnull !6, !noundef !6
  %14 = getelementptr inbounds nuw i8, ptr %c.sroa.0.0, i64 16
  %15 = load i64, ptr %14, align 8, !alias.scope !116, !noalias !117, !noundef !6
  %spec.store.select.i.i.i.i8 = tail call i64 @llvm.umin.i64(i64 range(i64 0, -9223372036854775808) %len1.i.i.i, i64 range(i64 0, -9223372036854775808) %15)
  %16 = tail call i32 @memcmp(ptr nonnull readonly align 1 %_7.i.i.i, ptr nonnull readonly align 1 %_14.i.i.i7, i64 %spec.store.select.i.i.i.i8), !alias.scope !121, !noalias !125
  %17 = sext i32 %16 to i64
  %_15.i.i.i.i9 = icmp eq i32 %16, 0
  %diff.i.i.i.i10 = sub nsw i64 %len1.i.i.i, %15
  %spec.select.i.i.i.i11 = select i1 %_15.i.i.i.i9, i64 %diff.i.i.i.i10, i64 %17
  %18 = xor i64 %spec.select.i.i.i.i11, %spec.select.i.i.i.i
  %19 = icmp slt i64 %18, 0
  br i1 %19, label %_ZN4core5slice4sort6shared5pivot7median317h0e5bc2dbc1971a6eE.exit, label %bb3.i

bb3.i:                                            ; preds = %bb6
  %spec.store.select.i.i.i.i16 = tail call i64 @llvm.umin.i64(i64 range(i64 0, -9223372036854775808) %10, i64 range(i64 0, -9223372036854775808) %15)
  %20 = tail call i32 @memcmp(ptr nonnull readonly align 1 %_14.i.i.i, ptr nonnull readonly align 1 %_14.i.i.i7, i64 %spec.store.select.i.i.i.i16), !alias.scope !126, !noalias !130
  %21 = sext i32 %20 to i64
  %_15.i.i.i.i17 = icmp eq i32 %20, 0
  %diff.i.i.i.i18 = sub nsw i64 %10, %15
  %spec.select.i.i.i.i19 = select i1 %_15.i.i.i.i17, i64 %diff.i.i.i.i18, i64 %21
  %22 = xor i64 %spec.select.i.i.i.i19, %spec.select.i.i.i.i
  %_12.i = icmp slt i64 %22, 0
  %c.b.i = select i1 %_12.i, ptr %c.sroa.0.0, ptr %b.sroa.0.0
  br label %_ZN4core5slice4sort6shared5pivot7median317h0e5bc2dbc1971a6eE.exit

_ZN4core5slice4sort6shared5pivot7median317h0e5bc2dbc1971a6eE.exit: ; preds = %bb6, %bb3.i
  %_0.sroa.0.0.i = phi ptr [ %a.sroa.0.0, %bb6 ], [ %c.b.i, %bb3.i ]
  ret ptr %_0.sroa.0.0.i
}

; core::slice::sort::shared::smallsort::sort4_stable
; Function Attrs: mustprogress nofree norecurse nounwind nonlazybind willreturn memory(read, argmem: readwrite, inaccessiblemem: readwrite) uwtable
define internal fastcc void @_ZN4core5slice4sort6shared9smallsort12sort4_stable17h3f04cd941118cad7E(ptr noundef nonnull readonly captures(none) %v_base, ptr noundef nonnull writeonly captures(none) initializes((0, 96)) %dst) unnamed_addr #3 personality ptr @rust_eh_personality {
start:
  tail call void @llvm.experimental.noalias.scope.decl(metadata !140)
  tail call void @llvm.experimental.noalias.scope.decl(metadata !143)
  tail call void @llvm.experimental.noalias.scope.decl(metadata !145)
  tail call void @llvm.experimental.noalias.scope.decl(metadata !148)
  tail call void @llvm.experimental.noalias.scope.decl(metadata !150)
  tail call void @llvm.experimental.noalias.scope.decl(metadata !153)
  %0 = getelementptr inbounds nuw i8, ptr %v_base, i64 32
  %_7.i.i.i = load ptr, ptr %0, align 8, !alias.scope !155, !noalias !156, !nonnull !6, !noundef !6
  %1 = getelementptr inbounds nuw i8, ptr %v_base, i64 40
  %len1.i.i.i = load i64, ptr %1, align 8, !alias.scope !155, !noalias !156, !noundef !6
  %2 = getelementptr inbounds nuw i8, ptr %v_base, i64 8
  %_14.i.i.i = load ptr, ptr %2, align 8, !alias.scope !156, !noalias !155, !nonnull !6, !noundef !6
  %3 = getelementptr inbounds nuw i8, ptr %v_base, i64 16
  %4 = load i64, ptr %3, align 8, !alias.scope !156, !noalias !155, !noundef !6
  %spec.store.select.i.i.i.i = tail call i64 @llvm.umin.i64(i64 range(i64 0, -9223372036854775808) %len1.i.i.i, i64 range(i64 0, -9223372036854775808) %4)
  %5 = tail call i32 @memcmp(ptr nonnull readonly align 1 %_7.i.i.i, ptr nonnull readonly align 1 %_14.i.i.i, i64 %spec.store.select.i.i.i.i), !alias.scope !157, !noalias !161
  %6 = sext i32 %5 to i64
  %_15.i.i.i.i = icmp eq i32 %5, 0
  %diff.i.i.i.i = sub nsw i64 %len1.i.i.i, %4
  %spec.select.i.i.i.i = select i1 %_15.i.i.i.i, i64 %diff.i.i.i.i, i64 %6
  %_0.i = icmp sgt i64 %spec.select.i.i.i.i, -1
  tail call void @llvm.experimental.noalias.scope.decl(metadata !162)
  tail call void @llvm.experimental.noalias.scope.decl(metadata !165)
  tail call void @llvm.experimental.noalias.scope.decl(metadata !167)
  tail call void @llvm.experimental.noalias.scope.decl(metadata !170)
  tail call void @llvm.experimental.noalias.scope.decl(metadata !172)
  tail call void @llvm.experimental.noalias.scope.decl(metadata !175)
  %7 = getelementptr inbounds nuw i8, ptr %v_base, i64 80
  %_7.i.i.i7 = load ptr, ptr %7, align 8, !alias.scope !177, !noalias !178, !nonnull !6, !noundef !6
  %8 = getelementptr inbounds nuw i8, ptr %v_base, i64 88
  %len1.i.i.i8 = load i64, ptr %8, align 8, !alias.scope !177, !noalias !178, !noundef !6
  %9 = getelementptr inbounds nuw i8, ptr %v_base, i64 56
  %_14.i.i.i9 = load ptr, ptr %9, align 8, !alias.scope !178, !noalias !177, !nonnull !6, !noundef !6
  %10 = getelementptr inbounds nuw i8, ptr %v_base, i64 64
  %11 = load i64, ptr %10, align 8, !alias.scope !178, !noalias !177, !noundef !6
  %spec.store.select.i.i.i.i10 = tail call i64 @llvm.umin.i64(i64 range(i64 0, -9223372036854775808) %len1.i.i.i8, i64 range(i64 0, -9223372036854775808) %11)
  %12 = tail call i32 @memcmp(ptr nonnull readonly align 1 %_7.i.i.i7, ptr nonnull readonly align 1 %_14.i.i.i9, i64 %spec.store.select.i.i.i.i10), !alias.scope !179, !noalias !183
  %13 = sext i32 %12 to i64
  %_15.i.i.i.i11 = icmp eq i32 %12, 0
  %diff.i.i.i.i12 = sub nsw i64 %len1.i.i.i8, %11
  %spec.select.i.i.i.i13 = select i1 %_15.i.i.i.i11, i64 %diff.i.i.i.i12, i64 %13
  %_0.i14 = icmp slt i64 %spec.select.i.i.i.i13, 0
  %spec.select.i.i.i.i.lobit = lshr i64 %spec.select.i.i.i.i, 63
  %a = getelementptr inbounds nuw %"alloc::string::String", ptr %v_base, i64 %spec.select.i.i.i.i.lobit
  %count2 = zext i1 %_0.i to i64
  %b = getelementptr inbounds nuw %"alloc::string::String", ptr %v_base, i64 %count2
  %count3 = select i1 %_0.i14, i64 3, i64 2
  %c = getelementptr inbounds nuw %"alloc::string::String", ptr %v_base, i64 %count3
  %count4 = select i1 %_0.i14, i64 2, i64 3
  %d = getelementptr inbounds nuw %"alloc::string::String", ptr %v_base, i64 %count4
  tail call void @llvm.experimental.noalias.scope.decl(metadata !184)
  tail call void @llvm.experimental.noalias.scope.decl(metadata !187)
  tail call void @llvm.experimental.noalias.scope.decl(metadata !189)
  tail call void @llvm.experimental.noalias.scope.decl(metadata !192)
  tail call void @llvm.experimental.noalias.scope.decl(metadata !194)
  tail call void @llvm.experimental.noalias.scope.decl(metadata !197)
  %14 = getelementptr inbounds nuw i8, ptr %c, i64 8
  %_7.i.i.i15 = load ptr, ptr %14, align 8, !alias.scope !199, !noalias !200, !nonnull !6, !noundef !6
  %15 = getelementptr inbounds nuw i8, ptr %c, i64 16
  %len1.i.i.i16 = load i64, ptr %15, align 8, !alias.scope !199, !noalias !200, !noundef !6
  %16 = getelementptr inbounds nuw i8, ptr %a, i64 8
  %_14.i.i.i17 = load ptr, ptr %16, align 8, !alias.scope !200, !noalias !199, !nonnull !6, !noundef !6
  %17 = getelementptr inbounds nuw i8, ptr %a, i64 16
  %18 = load i64, ptr %17, align 8, !alias.scope !200, !noalias !199, !noundef !6
  %spec.store.select.i.i.i.i18 = tail call i64 @llvm.umin.i64(i64 range(i64 0, -9223372036854775808) %len1.i.i.i16, i64 range(i64 0, -9223372036854775808) %18)
  %19 = tail call i32 @memcmp(ptr nonnull readonly align 1 %_7.i.i.i15, ptr nonnull readonly align 1 %_14.i.i.i17, i64 %spec.store.select.i.i.i.i18), !alias.scope !201, !noalias !205
  %20 = sext i32 %19 to i64
  %_15.i.i.i.i19 = icmp eq i32 %19, 0
  %diff.i.i.i.i20 = sub nsw i64 %len1.i.i.i16, %18
  %spec.select.i.i.i.i21 = select i1 %_15.i.i.i.i19, i64 %diff.i.i.i.i20, i64 %20
  %_0.i22 = icmp slt i64 %spec.select.i.i.i.i21, 0
  tail call void @llvm.experimental.noalias.scope.decl(metadata !206)
  tail call void @llvm.experimental.noalias.scope.decl(metadata !209)
  tail call void @llvm.experimental.noalias.scope.decl(metadata !211)
  tail call void @llvm.experimental.noalias.scope.decl(metadata !214)
  tail call void @llvm.experimental.noalias.scope.decl(metadata !216)
  tail call void @llvm.experimental.noalias.scope.decl(metadata !219)
  %21 = getelementptr inbounds nuw i8, ptr %d, i64 8
  %_7.i.i.i23 = load ptr, ptr %21, align 8, !alias.scope !221, !noalias !222, !nonnull !6, !noundef !6
  %22 = getelementptr inbounds nuw i8, ptr %d, i64 16
  %len1.i.i.i24 = load i64, ptr %22, align 8, !alias.scope !221, !noalias !222, !noundef !6
  %23 = getelementptr inbounds nuw i8, ptr %b, i64 8
  %_14.i.i.i25 = load ptr, ptr %23, align 8, !alias.scope !222, !noalias !221, !nonnull !6, !noundef !6
  %24 = getelementptr inbounds nuw i8, ptr %b, i64 16
  %25 = load i64, ptr %24, align 8, !alias.scope !222, !noalias !221, !noundef !6
  %spec.store.select.i.i.i.i26 = tail call i64 @llvm.umin.i64(i64 range(i64 0, -9223372036854775808) %len1.i.i.i24, i64 range(i64 0, -9223372036854775808) %25)
  %26 = tail call i32 @memcmp(ptr nonnull readonly align 1 %_7.i.i.i23, ptr nonnull readonly align 1 %_14.i.i.i25, i64 %spec.store.select.i.i.i.i26), !alias.scope !223, !noalias !227
  %27 = sext i32 %26 to i64
  %_15.i.i.i.i27 = icmp eq i32 %26, 0
  %diff.i.i.i.i28 = sub nsw i64 %len1.i.i.i24, %25
  %spec.select.i.i.i.i29 = select i1 %_15.i.i.i.i27, i64 %diff.i.i.i.i28, i64 %27
  %_0.i30 = icmp slt i64 %spec.select.i.i.i.i29, 0
  %28 = select i1 %_0.i22, ptr %c, ptr %a, !unpredictable !6
  %29 = select i1 %_0.i30, ptr %b, ptr %d, !unpredictable !6
  %30 = select i1 %_0.i30, ptr %c, ptr %b, !unpredictable !6
  %31 = select i1 %_0.i22, ptr %a, ptr %30, !unpredictable !6
  %32 = select i1 %_0.i22, ptr %b, ptr %c, !unpredictable !6
  %33 = select i1 %_0.i30, ptr %d, ptr %32, !unpredictable !6
  tail call void @llvm.experimental.noalias.scope.decl(metadata !228)
  tail call void @llvm.experimental.noalias.scope.decl(metadata !231)
  tail call void @llvm.experimental.noalias.scope.decl(metadata !233)
  tail call void @llvm.experimental.noalias.scope.decl(metadata !236)
  tail call void @llvm.experimental.noalias.scope.decl(metadata !238)
  tail call void @llvm.experimental.noalias.scope.decl(metadata !241)
  %34 = getelementptr inbounds nuw i8, ptr %33, i64 8
  %_7.i.i.i31 = load ptr, ptr %34, align 8, !alias.scope !243, !noalias !244, !nonnull !6, !noundef !6
  %35 = getelementptr inbounds nuw i8, ptr %33, i64 16
  %len1.i.i.i32 = load i64, ptr %35, align 8, !alias.scope !243, !noalias !244, !noundef !6
  %36 = getelementptr inbounds nuw i8, ptr %31, i64 8
  %_14.i.i.i33 = load ptr, ptr %36, align 8, !alias.scope !244, !noalias !243, !nonnull !6, !noundef !6
  %37 = getelementptr inbounds nuw i8, ptr %31, i64 16
  %38 = load i64, ptr %37, align 8, !alias.scope !244, !noalias !243, !noundef !6
  %spec.store.select.i.i.i.i34 = tail call i64 @llvm.umin.i64(i64 range(i64 0, -9223372036854775808) %len1.i.i.i32, i64 range(i64 0, -9223372036854775808) %38)
  %39 = tail call i32 @memcmp(ptr nonnull readonly align 1 %_7.i.i.i31, ptr nonnull readonly align 1 %_14.i.i.i33, i64 %spec.store.select.i.i.i.i34), !alias.scope !245, !noalias !249
  %40 = sext i32 %39 to i64
  %_15.i.i.i.i35 = icmp eq i32 %39, 0
  %diff.i.i.i.i36 = sub nsw i64 %len1.i.i.i32, %38
  %spec.select.i.i.i.i37 = select i1 %_15.i.i.i.i35, i64 %diff.i.i.i.i36, i64 %40
  %_0.i38 = icmp slt i64 %spec.select.i.i.i.i37, 0
  %41 = select i1 %_0.i38, ptr %33, ptr %31, !unpredictable !6
  %42 = select i1 %_0.i38, ptr %31, ptr %33, !unpredictable !6
  tail call void @llvm.memcpy.p0.p0.i64(ptr noundef nonnull align 8 dereferenceable(24) %dst, ptr noundef nonnull align 8 dereferenceable(24) %28, i64 24, i1 false)
  %dst5 = getelementptr inbounds nuw i8, ptr %dst, i64 24
  tail call void @llvm.memcpy.p0.p0.i64(ptr noundef nonnull align 8 dereferenceable(24) %dst5, ptr noundef nonnull align 8 dereferenceable(24) %41, i64 24, i1 false)
  %dst6 = getelementptr inbounds nuw i8, ptr %dst, i64 48
  tail call void @llvm.memcpy.p0.p0.i64(ptr noundef nonnull align 8 dereferenceable(24) %dst6, ptr noundef nonnull align 8 dereferenceable(24) %42, i64 24, i1 false)
  %43 = getelementptr inbounds nuw i8, ptr %dst, i64 72
  tail call void @llvm.memcpy.p0.p0.i64(ptr noundef nonnull align 8 dereferenceable(24) %43, ptr noundef nonnull align 8 dereferenceable(24) %29, i64 24, i1 false)
  ret void
}

; core::slice::sort::shared::smallsort::sort8_stable
; Function Attrs: nonlazybind uwtable
define internal fastcc void @_ZN4core5slice4sort6shared9smallsort12sort8_stable17h037ef7737253a409E(ptr noundef nonnull readonly captures(none) %v_base, ptr noundef nonnull writeonly captures(none) initializes((0, 32)) %dst, ptr noundef nonnull captures(address) initializes((0, 32)) %scratch_base) unnamed_addr #4 personality ptr @rust_eh_personality {
start:
  %_7.i = getelementptr inbounds nuw i8, ptr %v_base, i64 4
  tail call void @llvm.experimental.noalias.scope.decl(metadata !250)
  tail call void @llvm.experimental.noalias.scope.decl(metadata !253)
  tail call void @llvm.experimental.noalias.scope.decl(metadata !255)
  tail call void @llvm.experimental.noalias.scope.decl(metadata !258)
  tail call void @llvm.experimental.noalias.scope.decl(metadata !260)
  tail call void @llvm.experimental.noalias.scope.decl(metadata !263)
  %_3.i.i.i.i = load i32, ptr %_7.i, align 4, !alias.scope !265, !noalias !266, !noundef !6
  %_4.i.i.i.i = load i32, ptr %v_base, align 4, !alias.scope !266, !noalias !265, !noundef !6
  %_0.i.i = icmp slt i32 %_3.i.i.i.i, %_4.i.i.i.i
  %_12.i = getelementptr inbounds nuw i8, ptr %v_base, i64 12
  %_14.i = getelementptr inbounds nuw i8, ptr %v_base, i64 8
  tail call void @llvm.experimental.noalias.scope.decl(metadata !267)
  tail call void @llvm.experimental.noalias.scope.decl(metadata !270)
  tail call void @llvm.experimental.noalias.scope.decl(metadata !272)
  tail call void @llvm.experimental.noalias.scope.decl(metadata !275)
  tail call void @llvm.experimental.noalias.scope.decl(metadata !277)
  tail call void @llvm.experimental.noalias.scope.decl(metadata !280)
  %_3.i.i.i7.i = load i32, ptr %_12.i, align 4, !alias.scope !282, !noalias !283, !noundef !6
  %_4.i.i.i8.i = load i32, ptr %_14.i, align 4, !alias.scope !283, !noalias !282, !noundef !6
  %_0.i9.i = icmp slt i32 %_3.i.i.i7.i, %_4.i.i.i8.i
  %count.i = zext i1 %_0.i.i to i64
  %a.i = getelementptr inbounds nuw i32, ptr %v_base, i64 %count.i
  %_19.i = xor i1 %_0.i.i, true
  %count2.i = zext i1 %_19.i to i64
  %b.i = getelementptr inbounds nuw i32, ptr %v_base, i64 %count2.i
  %count3.i = select i1 %_0.i9.i, i64 3, i64 2
  %c.i = getelementptr inbounds nuw i32, ptr %v_base, i64 %count3.i
  %count4.i = select i1 %_0.i9.i, i64 2, i64 3
  %d.i = getelementptr inbounds nuw i32, ptr %v_base, i64 %count4.i
  tail call void @llvm.experimental.noalias.scope.decl(metadata !284)
  tail call void @llvm.experimental.noalias.scope.decl(metadata !287)
  tail call void @llvm.experimental.noalias.scope.decl(metadata !289)
  tail call void @llvm.experimental.noalias.scope.decl(metadata !292)
  tail call void @llvm.experimental.noalias.scope.decl(metadata !294)
  tail call void @llvm.experimental.noalias.scope.decl(metadata !297)
  %_3.i.i.i10.i = load i32, ptr %c.i, align 4, !alias.scope !299, !noalias !300, !noundef !6
  %_4.i.i.i11.i = load i32, ptr %a.i, align 4, !alias.scope !300, !noalias !299, !noundef !6
  %_0.i12.i = icmp slt i32 %_3.i.i.i10.i, %_4.i.i.i11.i
  tail call void @llvm.experimental.noalias.scope.decl(metadata !301)
  tail call void @llvm.experimental.noalias.scope.decl(metadata !304)
  tail call void @llvm.experimental.noalias.scope.decl(metadata !306)
  tail call void @llvm.experimental.noalias.scope.decl(metadata !309)
  tail call void @llvm.experimental.noalias.scope.decl(metadata !311)
  tail call void @llvm.experimental.noalias.scope.decl(metadata !314)
  %_3.i.i.i13.i = load i32, ptr %d.i, align 4, !alias.scope !316, !noalias !317, !noundef !6
  %_4.i.i.i14.i = load i32, ptr %b.i, align 4, !alias.scope !317, !noalias !316, !noundef !6
  %_0.i15.i = icmp slt i32 %_3.i.i.i13.i, %_4.i.i.i14.i
  %0 = tail call i32 @llvm.smin.i32(i32 %_3.i.i.i10.i, i32 %_4.i.i.i11.i)
  %1 = select i1 %_0.i15.i, ptr %c.i, ptr %b.i, !unpredictable !6
  %2 = select i1 %_0.i12.i, ptr %a.i, ptr %1, !unpredictable !6
  %3 = select i1 %_0.i12.i, ptr %b.i, ptr %c.i, !unpredictable !6
  %4 = select i1 %_0.i15.i, ptr %d.i, ptr %3, !unpredictable !6
  tail call void @llvm.experimental.noalias.scope.decl(metadata !318)
  tail call void @llvm.experimental.noalias.scope.decl(metadata !321)
  tail call void @llvm.experimental.noalias.scope.decl(metadata !323)
  tail call void @llvm.experimental.noalias.scope.decl(metadata !326)
  tail call void @llvm.experimental.noalias.scope.decl(metadata !328)
  tail call void @llvm.experimental.noalias.scope.decl(metadata !331)
  %_3.i.i.i16.i = load i32, ptr %4, align 4, !alias.scope !333, !noalias !334, !noundef !6
  %_4.i.i.i17.i = load i32, ptr %2, align 4, !alias.scope !334, !noalias !333, !noundef !6
  %_0.i18.i = icmp slt i32 %_3.i.i.i16.i, %_4.i.i.i17.i
  store i32 %0, ptr %scratch_base, align 4
  %dst5.i = getelementptr inbounds nuw i8, ptr %scratch_base, i64 4
  %.val.i = load i32, ptr %4, align 4
  %.val19.i = load i32, ptr %2, align 4
  %5 = select i1 %_0.i18.i, i32 %.val.i, i32 %.val19.i
  store i32 %5, ptr %dst5.i, align 4
  %dst6.i = getelementptr inbounds nuw i8, ptr %scratch_base, i64 8
  %.val20.i = load i32, ptr %2, align 4
  %.val21.i = load i32, ptr %4, align 4
  %6 = select i1 %_0.i18.i, i32 %.val20.i, i32 %.val21.i
  store i32 %6, ptr %dst6.i, align 4
  %7 = getelementptr i8, ptr %scratch_base, i64 12
  %b.val.i = load i32, ptr %b.i, align 4
  %d.val.i = load i32, ptr %d.i, align 4
  %8 = select i1 %_0.i15.i, i32 %b.val.i, i32 %d.val.i
  store i32 %8, ptr %7, align 4
  %_9 = getelementptr inbounds nuw i8, ptr %v_base, i64 16
  %_10 = getelementptr i8, ptr %scratch_base, i64 16
  %_7.i1 = getelementptr inbounds nuw i8, ptr %v_base, i64 20
  tail call void @llvm.experimental.noalias.scope.decl(metadata !335)
  tail call void @llvm.experimental.noalias.scope.decl(metadata !338)
  tail call void @llvm.experimental.noalias.scope.decl(metadata !340)
  tail call void @llvm.experimental.noalias.scope.decl(metadata !343)
  tail call void @llvm.experimental.noalias.scope.decl(metadata !345)
  tail call void @llvm.experimental.noalias.scope.decl(metadata !348)
  %_3.i.i.i.i2 = load i32, ptr %_7.i1, align 4, !alias.scope !350, !noalias !351, !noundef !6
  %_4.i.i.i.i3 = load i32, ptr %_9, align 4, !alias.scope !351, !noalias !350, !noundef !6
  %_0.i.i4 = icmp slt i32 %_3.i.i.i.i2, %_4.i.i.i.i3
  %_12.i5 = getelementptr inbounds nuw i8, ptr %v_base, i64 28
  %_14.i6 = getelementptr inbounds nuw i8, ptr %v_base, i64 24
  tail call void @llvm.experimental.noalias.scope.decl(metadata !352)
  tail call void @llvm.experimental.noalias.scope.decl(metadata !355)
  tail call void @llvm.experimental.noalias.scope.decl(metadata !357)
  tail call void @llvm.experimental.noalias.scope.decl(metadata !360)
  tail call void @llvm.experimental.noalias.scope.decl(metadata !362)
  tail call void @llvm.experimental.noalias.scope.decl(metadata !365)
  %_3.i.i.i7.i7 = load i32, ptr %_12.i5, align 4, !alias.scope !367, !noalias !368, !noundef !6
  %_4.i.i.i8.i8 = load i32, ptr %_14.i6, align 4, !alias.scope !368, !noalias !367, !noundef !6
  %_0.i9.i9 = icmp slt i32 %_3.i.i.i7.i7, %_4.i.i.i8.i8
  %count.i10 = zext i1 %_0.i.i4 to i64
  %a.i11 = getelementptr inbounds nuw i32, ptr %_9, i64 %count.i10
  %_19.i12 = xor i1 %_0.i.i4, true
  %count2.i13 = zext i1 %_19.i12 to i64
  %b.i14 = getelementptr inbounds nuw i32, ptr %_9, i64 %count2.i13
  %count3.i15 = select i1 %_0.i9.i9, i64 3, i64 2
  %c.i16 = getelementptr inbounds nuw i32, ptr %_9, i64 %count3.i15
  %count4.i17 = select i1 %_0.i9.i9, i64 2, i64 3
  %d.i18 = getelementptr inbounds nuw i32, ptr %_9, i64 %count4.i17
  tail call void @llvm.experimental.noalias.scope.decl(metadata !369)
  tail call void @llvm.experimental.noalias.scope.decl(metadata !372)
  tail call void @llvm.experimental.noalias.scope.decl(metadata !374)
  tail call void @llvm.experimental.noalias.scope.decl(metadata !377)
  tail call void @llvm.experimental.noalias.scope.decl(metadata !379)
  tail call void @llvm.experimental.noalias.scope.decl(metadata !382)
  %_3.i.i.i10.i19 = load i32, ptr %c.i16, align 4, !alias.scope !384, !noalias !385, !noundef !6
  %_4.i.i.i11.i20 = load i32, ptr %a.i11, align 4, !alias.scope !385, !noalias !384, !noundef !6
  %_0.i12.i21 = icmp slt i32 %_3.i.i.i10.i19, %_4.i.i.i11.i20
  tail call void @llvm.experimental.noalias.scope.decl(metadata !386)
  tail call void @llvm.experimental.noalias.scope.decl(metadata !389)
  tail call void @llvm.experimental.noalias.scope.decl(metadata !391)
  tail call void @llvm.experimental.noalias.scope.decl(metadata !394)
  tail call void @llvm.experimental.noalias.scope.decl(metadata !396)
  tail call void @llvm.experimental.noalias.scope.decl(metadata !399)
  %_3.i.i.i13.i22 = load i32, ptr %d.i18, align 4, !alias.scope !401, !noalias !402, !noundef !6
  %_4.i.i.i14.i23 = load i32, ptr %b.i14, align 4, !alias.scope !402, !noalias !401, !noundef !6
  %_0.i15.i24 = icmp slt i32 %_3.i.i.i13.i22, %_4.i.i.i14.i23
  %9 = tail call i32 @llvm.smin.i32(i32 %_3.i.i.i10.i19, i32 %_4.i.i.i11.i20)
  %10 = select i1 %_0.i15.i24, ptr %c.i16, ptr %b.i14, !unpredictable !6
  %11 = select i1 %_0.i12.i21, ptr %a.i11, ptr %10, !unpredictable !6
  %12 = select i1 %_0.i12.i21, ptr %b.i14, ptr %c.i16, !unpredictable !6
  %13 = select i1 %_0.i15.i24, ptr %d.i18, ptr %12, !unpredictable !6
  tail call void @llvm.experimental.noalias.scope.decl(metadata !403)
  tail call void @llvm.experimental.noalias.scope.decl(metadata !406)
  tail call void @llvm.experimental.noalias.scope.decl(metadata !408)
  tail call void @llvm.experimental.noalias.scope.decl(metadata !411)
  tail call void @llvm.experimental.noalias.scope.decl(metadata !413)
  tail call void @llvm.experimental.noalias.scope.decl(metadata !416)
  %_3.i.i.i16.i25 = load i32, ptr %13, align 4, !alias.scope !418, !noalias !419, !noundef !6
  %_4.i.i.i17.i26 = load i32, ptr %11, align 4, !alias.scope !419, !noalias !418, !noundef !6
  %_0.i18.i27 = icmp slt i32 %_3.i.i.i16.i25, %_4.i.i.i17.i26
  store i32 %9, ptr %_10, align 4
  %dst5.i28 = getelementptr i8, ptr %scratch_base, i64 20
  %.val.i29 = load i32, ptr %13, align 4
  %.val19.i30 = load i32, ptr %11, align 4
  %14 = select i1 %_0.i18.i27, i32 %.val.i29, i32 %.val19.i30
  store i32 %14, ptr %dst5.i28, align 4
  %dst6.i31 = getelementptr i8, ptr %scratch_base, i64 24
  %.val20.i32 = load i32, ptr %11, align 4
  %.val21.i33 = load i32, ptr %13, align 4
  %15 = select i1 %_0.i18.i27, i32 %.val20.i32, i32 %.val21.i33
  store i32 %15, ptr %dst6.i31, align 4
  %16 = getelementptr i8, ptr %scratch_base, i64 28
  %b.val.i34 = load i32, ptr %b.i14, align 4
  %d.val.i35 = load i32, ptr %d.i18, align 4
  %17 = select i1 %_0.i15.i24, i32 %b.val.i34, i32 %d.val.i35
  store i32 %17, ptr %16, align 4
  tail call void @llvm.experimental.noalias.scope.decl(metadata !420)
  %18 = getelementptr inbounds nuw i8, ptr %dst, i64 28
  %_4.i.i.i.i37 = load i32, ptr %scratch_base, align 4, !alias.scope !423, !noalias !430, !noundef !6
  %_0.i.i38 = icmp slt i32 %9, %_4.i.i.i.i37
  %is_l.i18.i = xor i1 %_0.i.i38, true
  %19 = tail call i32 @llvm.smin.i32(i32 %9, i32 %_4.i.i.i.i37)
  store i32 %19, ptr %dst, align 4, !noalias !436
  %count.i.i = zext i1 %_0.i.i38 to i64
  %_12.i.i = getelementptr inbounds nuw i32, ptr %_10, i64 %count.i.i
  %count2.i.i = zext i1 %is_l.i18.i to i64
  %_14.i.i = getelementptr inbounds nuw i32, ptr %scratch_base, i64 %count2.i.i
  %_16.i.i = getelementptr inbounds nuw i8, ptr %dst, i64 4
  %_4.i.i.i20.i = load i32, ptr %7, align 4, !alias.scope !438, !noalias !445, !noundef !6
  %_0.i21.i = icmp slt i32 %17, %_4.i.i.i20.i
  %is_l.i.i = xor i1 %_0.i21.i, true
  %20 = tail call i32 @llvm.smax.i32(i32 %17, i32 %_4.i.i.i20.i)
  store i32 %20, ptr %18, align 4, !noalias !451
  %count.neg.i.i = sext i1 %is_l.i.i to i64
  %21 = getelementptr i32, ptr %16, i64 %count.neg.i.i
  %count3.neg.i.i = sext i1 %_0.i21.i to i64
  %22 = getelementptr i32, ptr %7, i64 %count3.neg.i.i
  %23 = getelementptr inbounds nuw i8, ptr %dst, i64 24
  tail call void @llvm.experimental.noalias.scope.decl(metadata !453)
  tail call void @llvm.experimental.noalias.scope.decl(metadata !455)
  tail call void @llvm.experimental.noalias.scope.decl(metadata !457), !noalias !459
  tail call void @llvm.experimental.noalias.scope.decl(metadata !460), !noalias !459
  tail call void @llvm.experimental.noalias.scope.decl(metadata !462), !noalias !459
  tail call void @llvm.experimental.noalias.scope.decl(metadata !464), !noalias !459
  %_3.i.i.i.i36.1 = load i32, ptr %_12.i.i, align 4, !alias.scope !466, !noalias !467, !noundef !6
  %_4.i.i.i.i37.1 = load i32, ptr %_14.i.i, align 4, !alias.scope !468, !noalias !469, !noundef !6
  %_0.i.i38.1 = icmp slt i32 %_3.i.i.i.i36.1, %_4.i.i.i.i37.1
  %is_l.i18.i.1 = xor i1 %_0.i.i38.1, true
  %24 = tail call i32 @llvm.smin.i32(i32 %_3.i.i.i.i36.1, i32 %_4.i.i.i.i37.1)
  store i32 %24, ptr %_16.i.i, align 4, !noalias !436
  %count.i.i.1 = zext i1 %_0.i.i38.1 to i64
  %_12.i.i.1 = getelementptr inbounds nuw i32, ptr %_12.i.i, i64 %count.i.i.1
  %count2.i.i.1 = zext i1 %is_l.i18.i.1 to i64
  %_14.i.i.1 = getelementptr inbounds nuw i32, ptr %_14.i.i, i64 %count2.i.i.1
  %_16.i.i.1 = getelementptr inbounds nuw i8, ptr %dst, i64 8
  tail call void @llvm.experimental.noalias.scope.decl(metadata !470)
  tail call void @llvm.experimental.noalias.scope.decl(metadata !472)
  tail call void @llvm.experimental.noalias.scope.decl(metadata !474), !noalias !476
  tail call void @llvm.experimental.noalias.scope.decl(metadata !477), !noalias !476
  tail call void @llvm.experimental.noalias.scope.decl(metadata !479), !noalias !476
  tail call void @llvm.experimental.noalias.scope.decl(metadata !481), !noalias !476
  %_3.i.i.i19.i.1 = load i32, ptr %21, align 4, !alias.scope !483, !noalias !484, !noundef !6
  %_4.i.i.i20.i.1 = load i32, ptr %22, align 4, !alias.scope !485, !noalias !486, !noundef !6
  %_0.i21.i.1 = icmp slt i32 %_3.i.i.i19.i.1, %_4.i.i.i20.i.1
  %is_l.i.i.1 = xor i1 %_0.i21.i.1, true
  %25 = tail call i32 @llvm.smax.i32(i32 %_3.i.i.i19.i.1, i32 %_4.i.i.i20.i.1)
  store i32 %25, ptr %23, align 4, !noalias !451
  %count.neg.i.i.1 = sext i1 %is_l.i.i.1 to i64
  %26 = getelementptr i32, ptr %21, i64 %count.neg.i.i.1
  %count3.neg.i.i.1 = sext i1 %_0.i21.i.1 to i64
  %27 = getelementptr i32, ptr %22, i64 %count3.neg.i.i.1
  %28 = getelementptr inbounds nuw i8, ptr %dst, i64 20
  tail call void @llvm.experimental.noalias.scope.decl(metadata !487)
  tail call void @llvm.experimental.noalias.scope.decl(metadata !489)
  tail call void @llvm.experimental.noalias.scope.decl(metadata !491), !noalias !459
  tail call void @llvm.experimental.noalias.scope.decl(metadata !493), !noalias !459
  tail call void @llvm.experimental.noalias.scope.decl(metadata !495), !noalias !459
  tail call void @llvm.experimental.noalias.scope.decl(metadata !497), !noalias !459
  %_3.i.i.i.i36.2 = load i32, ptr %_12.i.i.1, align 4, !alias.scope !499, !noalias !500, !noundef !6
  %_4.i.i.i.i37.2 = load i32, ptr %_14.i.i.1, align 4, !alias.scope !501, !noalias !502, !noundef !6
  %_0.i.i38.2 = icmp slt i32 %_3.i.i.i.i36.2, %_4.i.i.i.i37.2
  %is_l.i18.i.2 = xor i1 %_0.i.i38.2, true
  %29 = tail call i32 @llvm.smin.i32(i32 %_3.i.i.i.i36.2, i32 %_4.i.i.i.i37.2)
  store i32 %29, ptr %_16.i.i.1, align 4, !noalias !436
  %count.i.i.2 = zext i1 %_0.i.i38.2 to i64
  %_12.i.i.2 = getelementptr inbounds nuw i32, ptr %_12.i.i.1, i64 %count.i.i.2
  %count2.i.i.2 = zext i1 %is_l.i18.i.2 to i64
  %_14.i.i.2 = getelementptr inbounds nuw i32, ptr %_14.i.i.1, i64 %count2.i.i.2
  %_16.i.i.2 = getelementptr inbounds nuw i8, ptr %dst, i64 12
  tail call void @llvm.experimental.noalias.scope.decl(metadata !503)
  tail call void @llvm.experimental.noalias.scope.decl(metadata !505)
  tail call void @llvm.experimental.noalias.scope.decl(metadata !507), !noalias !476
  tail call void @llvm.experimental.noalias.scope.decl(metadata !509), !noalias !476
  tail call void @llvm.experimental.noalias.scope.decl(metadata !511), !noalias !476
  tail call void @llvm.experimental.noalias.scope.decl(metadata !513), !noalias !476
  %_3.i.i.i19.i.2 = load i32, ptr %26, align 4, !alias.scope !515, !noalias !516, !noundef !6
  %_4.i.i.i20.i.2 = load i32, ptr %27, align 4, !alias.scope !517, !noalias !518, !noundef !6
  %_0.i21.i.2 = icmp slt i32 %_3.i.i.i19.i.2, %_4.i.i.i20.i.2
  %is_l.i.i.2 = xor i1 %_0.i21.i.2, true
  %30 = tail call i32 @llvm.smax.i32(i32 %_3.i.i.i19.i.2, i32 %_4.i.i.i20.i.2)
  store i32 %30, ptr %28, align 4, !noalias !451
  %count.neg.i.i.2 = sext i1 %is_l.i.i.2 to i64
  %31 = getelementptr i32, ptr %26, i64 %count.neg.i.i.2
  %count3.neg.i.i.2 = sext i1 %_0.i21.i.2 to i64
  %32 = getelementptr i32, ptr %27, i64 %count3.neg.i.i.2
  %33 = getelementptr inbounds nuw i8, ptr %dst, i64 16
  tail call void @llvm.experimental.noalias.scope.decl(metadata !519)
  tail call void @llvm.experimental.noalias.scope.decl(metadata !521)
  tail call void @llvm.experimental.noalias.scope.decl(metadata !523), !noalias !459
  tail call void @llvm.experimental.noalias.scope.decl(metadata !525), !noalias !459
  tail call void @llvm.experimental.noalias.scope.decl(metadata !527), !noalias !459
  tail call void @llvm.experimental.noalias.scope.decl(metadata !529), !noalias !459
  %_3.i.i.i.i36.3 = load i32, ptr %_12.i.i.2, align 4, !alias.scope !531, !noalias !532, !noundef !6
  %_4.i.i.i.i37.3 = load i32, ptr %_14.i.i.2, align 4, !alias.scope !533, !noalias !534, !noundef !6
  %_0.i.i38.3 = icmp slt i32 %_3.i.i.i.i36.3, %_4.i.i.i.i37.3
  %is_l.i18.i.3 = xor i1 %_0.i.i38.3, true
  %34 = tail call i32 @llvm.smin.i32(i32 %_3.i.i.i.i36.3, i32 %_4.i.i.i.i37.3)
  store i32 %34, ptr %_16.i.i.2, align 4, !noalias !436
  %count.i.i.3 = zext i1 %_0.i.i38.3 to i64
  %_12.i.i.3 = getelementptr inbounds nuw i32, ptr %_12.i.i.2, i64 %count.i.i.3
  %count2.i.i.3 = zext i1 %is_l.i18.i.3 to i64
  %_14.i.i.3 = getelementptr inbounds nuw i32, ptr %_14.i.i.2, i64 %count2.i.i.3
  tail call void @llvm.experimental.noalias.scope.decl(metadata !535)
  tail call void @llvm.experimental.noalias.scope.decl(metadata !537)
  tail call void @llvm.experimental.noalias.scope.decl(metadata !539), !noalias !476
  tail call void @llvm.experimental.noalias.scope.decl(metadata !541), !noalias !476
  tail call void @llvm.experimental.noalias.scope.decl(metadata !543), !noalias !476
  tail call void @llvm.experimental.noalias.scope.decl(metadata !545), !noalias !476
  %_3.i.i.i19.i.3 = load i32, ptr %31, align 4, !alias.scope !547, !noalias !548, !noundef !6
  %_4.i.i.i20.i.3 = load i32, ptr %32, align 4, !alias.scope !549, !noalias !550, !noundef !6
  %_0.i21.i.3 = icmp slt i32 %_3.i.i.i19.i.3, %_4.i.i.i20.i.3
  %is_l.i.i.3 = xor i1 %_0.i21.i.3, true
  %35 = tail call i32 @llvm.smax.i32(i32 %_3.i.i.i19.i.3, i32 %_4.i.i.i20.i.3)
  store i32 %35, ptr %33, align 4, !noalias !451
  %count.neg.i.i.3 = sext i1 %is_l.i.i.3 to i64
  %36 = getelementptr i32, ptr %31, i64 %count.neg.i.i.3
  %count3.neg.i.i.3 = sext i1 %_0.i21.i.3 to i64
  %37 = getelementptr i32, ptr %32, i64 %count3.neg.i.i.3
  %38 = getelementptr i8, ptr %37, i64 4
  %39 = getelementptr i8, ptr %36, i64 4
  %_31.i = icmp ne ptr %_14.i.i.3, %38
  %_32.i = icmp ne ptr %_12.i.i.3, %39
  %or.cond.i = select i1 %_31.i, i1 true, i1 %_32.i
  br i1 %or.cond.i, label %bb13.i, label %_ZN4core5slice4sort6shared9smallsort19bidirectional_merge17h5d0d96e883197981E.exit, !prof !551

bb13.i:                                           ; preds = %start
; call core::slice::sort::shared::smallsort::panic_on_ord_violation
  tail call void @_ZN4core5slice4sort6shared9smallsort22panic_on_ord_violation17hc77a22a2d50782cdE() #26, !noalias !420
  unreachable

_ZN4core5slice4sort6shared9smallsort19bidirectional_merge17h5d0d96e883197981E.exit: ; preds = %start
  ret void
}

; core::slice::sort::shared::smallsort::insertion_sort_shift_left
; Function Attrs: nofree norecurse nounwind nonlazybind memory(read, argmem: readwrite, inaccessiblemem: readwrite) uwtable
define internal fastcc void @_ZN4core5slice4sort6shared9smallsort25insertion_sort_shift_left17hd9613328857599b6E(ptr noalias noundef nonnull align 8 captures(address) %v.0, i64 noundef range(i64 2, 21) %v.1) unnamed_addr #5 personality ptr @rust_eh_personality {
bb5.preheader:
  %v_end.idx = mul nuw nsw i64 %v.1, 24
  %v_end = getelementptr inbounds nuw i8, ptr %v.0, i64 %v_end.idx
  %tail.sroa.0.01 = getelementptr inbounds nuw i8, ptr %v.0, i64 24
  br label %bb5

bb7:                                              ; preds = %_ZN4core5slice4sort6shared9smallsort11insert_tail17h8519b9f909450705E.exit
  ret void

bb5:                                              ; preds = %bb5.preheader, %_ZN4core5slice4sort6shared9smallsort11insert_tail17h8519b9f909450705E.exit
  %tail.sroa.0.04 = phi ptr [ %tail.sroa.0.0, %_ZN4core5slice4sort6shared9smallsort11insert_tail17h8519b9f909450705E.exit ], [ %tail.sroa.0.01, %bb5.preheader ]
  %v.0.pn3 = phi ptr [ %tail.sroa.0.04, %_ZN4core5slice4sort6shared9smallsort11insert_tail17h8519b9f909450705E.exit ], [ %v.0, %bb5.preheader ]
  tail call void @llvm.experimental.noalias.scope.decl(metadata !552)
  tail call void @llvm.experimental.noalias.scope.decl(metadata !555)
  tail call void @llvm.experimental.noalias.scope.decl(metadata !557)
  tail call void @llvm.experimental.noalias.scope.decl(metadata !560)
  tail call void @llvm.experimental.noalias.scope.decl(metadata !562)
  tail call void @llvm.experimental.noalias.scope.decl(metadata !565)
  %0 = getelementptr inbounds nuw i8, ptr %v.0.pn3, i64 32
  %_7.i.i.i.i = load ptr, ptr %0, align 8, !alias.scope !567, !noalias !568, !nonnull !6, !noundef !6
  %1 = getelementptr inbounds nuw i8, ptr %v.0.pn3, i64 40
  %len1.i.i.i.i = load i64, ptr %1, align 8, !alias.scope !567, !noalias !568, !noundef !6
  %2 = getelementptr inbounds nuw i8, ptr %v.0.pn3, i64 8
  %_14.i.i.i.i = load ptr, ptr %2, align 8, !alias.scope !568, !noalias !567, !nonnull !6, !noundef !6
  %3 = getelementptr inbounds nuw i8, ptr %v.0.pn3, i64 16
  %4 = load i64, ptr %3, align 8, !alias.scope !568, !noalias !567, !noundef !6
  %spec.store.select.i.i.i.i.i = tail call i64 @llvm.umin.i64(i64 range(i64 0, -9223372036854775808) %len1.i.i.i.i, i64 range(i64 0, -9223372036854775808) %4)
  %5 = tail call i32 @memcmp(ptr nonnull readonly align 1 %_7.i.i.i.i, ptr nonnull readonly align 1 %_14.i.i.i.i, i64 %spec.store.select.i.i.i.i.i), !alias.scope !569, !noalias !573
  %6 = sext i32 %5 to i64
  %_15.i.i.i.i.i = icmp eq i32 %5, 0
  %diff.i.i.i.i.i = sub nsw i64 %len1.i.i.i.i, %4
  %spec.select.i.i.i.i.i = select i1 %_15.i.i.i.i.i, i64 %diff.i.i.i.i.i, i64 %6
  %_0.i.i = icmp slt i64 %spec.select.i.i.i.i.i, 0
  br i1 %_0.i.i, label %bb2.i, label %_ZN4core5slice4sort6shared9smallsort11insert_tail17h8519b9f909450705E.exit

bb2.i:                                            ; preds = %bb5
  %value.sroa.0.0.copyload.i = load i64, ptr %tail.sroa.0.04, align 8
  br label %bb4.i

bb4.i:                                            ; preds = %bb7.i, %bb2.i
  %gap_guard.sroa.5.0.i = phi ptr [ %tail.sroa.0.04, %bb2.i ], [ %sift.sroa.0.0.i, %bb7.i ]
  %sift.sroa.0.0.i = getelementptr inbounds i8, ptr %gap_guard.sroa.5.0.i, i64 -24
  tail call void @llvm.memcpy.p0.p0.i64(ptr noundef nonnull align 8 dereferenceable(24) %gap_guard.sroa.5.0.i, ptr noundef nonnull align 8 dereferenceable(24) %sift.sroa.0.0.i, i64 24, i1 false)
  %_18.i = icmp eq ptr %sift.sroa.0.0.i, %v.0
  br i1 %_18.i, label %bb10.i, label %bb7.i

bb7.i:                                            ; preds = %bb4.i
  tail call void @llvm.experimental.noalias.scope.decl(metadata !574)
  tail call void @llvm.experimental.noalias.scope.decl(metadata !577)
  tail call void @llvm.experimental.noalias.scope.decl(metadata !580)
  %7 = getelementptr inbounds i8, ptr %gap_guard.sroa.5.0.i, i64 -40
  %_14.i.i.i3.i = load ptr, ptr %7, align 8, !alias.scope !583, !noalias !584, !nonnull !6, !noundef !6
  %8 = getelementptr inbounds i8, ptr %gap_guard.sroa.5.0.i, i64 -32
  %9 = load i64, ptr %8, align 8, !alias.scope !583, !noalias !584, !noundef !6
  %spec.store.select.i.i.i.i4.i = tail call i64 @llvm.umin.i64(i64 range(i64 0, -9223372036854775808) %len1.i.i.i.i, i64 range(i64 0, -9223372036854775808) %9)
  %10 = tail call i32 @memcmp(ptr nonnull readonly align 1 %_7.i.i.i.i, ptr nonnull readonly align 1 %_14.i.i.i3.i, i64 %spec.store.select.i.i.i.i4.i), !alias.scope !588, !noalias !592
  %11 = sext i32 %10 to i64
  %_15.i.i.i.i5.i = icmp eq i32 %10, 0
  %diff.i.i.i.i6.i = sub nsw i64 %len1.i.i.i.i, %9
  %spec.select.i.i.i.i7.i = select i1 %_15.i.i.i.i5.i, i64 %diff.i.i.i.i6.i, i64 %11
  %_0.i8.i = icmp slt i64 %spec.select.i.i.i.i7.i, 0
  br i1 %_0.i8.i, label %bb4.i, label %bb10.i

bb10.i:                                           ; preds = %bb7.i, %bb4.i
  %sift.sroa.0.0.i.lcssa = phi ptr [ %sift.sroa.0.0.i, %bb7.i ], [ %v.0, %bb4.i ]
  store i64 %value.sroa.0.0.copyload.i, ptr %sift.sroa.0.0.i.lcssa, align 8, !noalias !593
  %tmp.sroa.4.0.sift.sroa.0.0.lcssa.sroa_idx.i = getelementptr inbounds i8, ptr %gap_guard.sroa.5.0.i, i64 -16
  store ptr %_7.i.i.i.i, ptr %tmp.sroa.4.0.sift.sroa.0.0.lcssa.sroa_idx.i, align 8, !noalias !593
  %tmp.sroa.5.0.sift.sroa.0.0.lcssa.sroa_idx.i = getelementptr inbounds i8, ptr %gap_guard.sroa.5.0.i, i64 -8
  store i64 %len1.i.i.i.i, ptr %tmp.sroa.5.0.sift.sroa.0.0.lcssa.sroa_idx.i, align 8, !noalias !593
  br label %_ZN4core5slice4sort6shared9smallsort11insert_tail17h8519b9f909450705E.exit

_ZN4core5slice4sort6shared9smallsort11insert_tail17h8519b9f909450705E.exit: ; preds = %bb5, %bb10.i
  %tail.sroa.0.0 = getelementptr inbounds nuw i8, ptr %tail.sroa.0.04, i64 24
  %_11.not = icmp eq ptr %tail.sroa.0.0, %v_end
  br i1 %_11.not, label %bb7, label %bb5
}

; core::slice::sort::stable::driftsort_main
; Function Attrs: noinline nonlazybind uwtable
define void @_ZN4core5slice4sort6stable14driftsort_main17hb21a17c31e7d60c9E(ptr noalias noundef nonnull align 8 %v.0, i64 noundef range(i64 0, 384307168202282326) %v.1, ptr noalias noundef align 8 dereferenceable(8) %is_less) unnamed_addr #6 personality ptr @rust_eh_personality {
start:
  %heap_buf = alloca [24 x i8], align 8
  %stack_buf = alloca [4096 x i8], align 8
  %_105 = lshr i64 %v.1, 1
  %v1 = sub nsw i64 %v.1, %_105
  %_0.sroa.0.0.i = tail call noundef i64 @llvm.umin.i64(i64 %v.1, i64 333333)
  %_0.sroa.0.0.i6 = tail call noundef i64 @llvm.umax.i64(i64 %_0.sroa.0.0.i, i64 %v1)
  %_0.sroa.0.0.i7 = tail call noundef i64 @llvm.umax.i64(i64 %_0.sroa.0.0.i6, i64 48)
  call void @llvm.lifetime.start.p0(i64 4096, ptr nonnull %stack_buf)
  call void @llvm.lifetime.start.p0(i64 24, ptr nonnull %heap_buf)
  %_15 = icmp ult i64 %_0.sroa.0.0.i6, 171
  br i1 %_15, label %bb8, label %bb4

bb4:                                              ; preds = %start
  %_21.0.i.i.i.i = mul i64 %_0.sroa.0.0.i7, 24
  %or.cond.i.i.i.i = icmp ugt i64 %v1, 384307168202282325
  br i1 %or.cond.i.i.i.i, label %bb3.i.i, label %bb17.i.i.i, !prof !598

bb17.i.i.i:                                       ; preds = %bb4
  %_8.i.i.i = icmp eq i64 %_21.0.i.i.i.i, 0
  br i1 %_8.i.i.i, label %bb6, label %"_ZN63_$LT$alloc..alloc..Global$u20$as$u20$core..alloc..Allocator$GT$8allocate17h02618852de544ee2E.exit.i.i.i"

"_ZN63_$LT$alloc..alloc..Global$u20$as$u20$core..alloc..Allocator$GT$8allocate17h02618852de544ee2E.exit.i.i.i": ; preds = %bb17.i.i.i
; call __rustc::__rust_no_alloc_shim_is_unstable_v2
  tail call void @_RNvCsdBezzDwma51_7___rustc35___rust_no_alloc_shim_is_unstable_v2() #25, !noalias !599
; call __rustc::__rust_alloc
  %0 = tail call noundef align 8 ptr @_RNvCsdBezzDwma51_7___rustc12___rust_alloc(i64 noundef %_21.0.i.i.i.i, i64 noundef range(i64 1, 9) 8) #25, !noalias !599
  %1 = icmp eq ptr %0, null
  br i1 %1, label %bb3.i.i, label %bb6

bb3.i.i:                                          ; preds = %"_ZN63_$LT$alloc..alloc..Global$u20$as$u20$core..alloc..Allocator$GT$8allocate17h02618852de544ee2E.exit.i.i.i", %bb4
  %_4.sroa.4.0.ph.i.i = phi i64 [ 8, %"_ZN63_$LT$alloc..alloc..Global$u20$as$u20$core..alloc..Allocator$GT$8allocate17h02618852de544ee2E.exit.i.i.i" ], [ 0, %bb4 ]
; call alloc::raw_vec::handle_error
  tail call void @_ZN5alloc7raw_vec12handle_error17h3a8c375904e593b2E(i64 noundef %_4.sroa.4.0.ph.i.i, i64 %_21.0.i.i.i.i) #27
  unreachable

cleanup:                                          ; preds = %bb8
  %2 = landingpad { ptr, i32 }
          cleanup
  br i1 %_15, label %bb11, label %bb13

bb6:                                              ; preds = %bb17.i.i.i, %"_ZN63_$LT$alloc..alloc..Global$u20$as$u20$core..alloc..Allocator$GT$8allocate17h02618852de544ee2E.exit.i.i.i"
  %_4.sroa.4.0.i.i = phi i64 [ 0, %bb17.i.i.i ], [ %_0.sroa.0.0.i7, %"_ZN63_$LT$alloc..alloc..Global$u20$as$u20$core..alloc..Allocator$GT$8allocate17h02618852de544ee2E.exit.i.i.i" ]
  %_4.sroa.10.0.i.i = phi ptr [ inttoptr (i64 8 to ptr), %bb17.i.i.i ], [ %0, %"_ZN63_$LT$alloc..alloc..Global$u20$as$u20$core..alloc..Allocator$GT$8allocate17h02618852de544ee2E.exit.i.i.i" ]
  %_7.i.i = icmp samesign ule i64 %_0.sroa.0.0.i7, %_4.sroa.4.0.i.i
  tail call void @llvm.assume(i1 %_7.i.i)
  store i64 %_4.sroa.4.0.i.i, ptr %heap_buf, align 8
  %_18.sroa.4.0.heap_buf.sroa_idx = getelementptr inbounds nuw i8, ptr %heap_buf, i64 8
  store ptr %_4.sroa.10.0.i.i, ptr %_18.sroa.4.0.heap_buf.sroa_idx, align 8
  %_18.sroa.5.0.heap_buf.sroa_idx = getelementptr inbounds nuw i8, ptr %heap_buf, i64 16
  store i64 0, ptr %_18.sroa.5.0.heap_buf.sroa_idx, align 8
  br label %bb8

bb8:                                              ; preds = %bb6, %start
  %_10.i9 = phi ptr [ undef, %start ], [ %_4.sroa.10.0.i.i, %bb6 ]
  %self1.i8 = phi i64 [ undef, %start ], [ %_4.sroa.4.0.i.i, %bb6 ]
  %stack_scratch.sroa.4.0 = phi i64 [ 170, %start ], [ %_4.sroa.4.0.i.i, %bb6 ]
  %stack_buf.pn = phi ptr [ %stack_buf, %start ], [ %_4.sroa.10.0.i.i, %bb6 ]
  %eager_sort = icmp samesign ult i64 %v.1, 65
; invoke core::slice::sort::stable::drift::sort
  invoke fastcc void @_ZN4core5slice4sort6stable5drift4sort17h6aa4f489c3c231eeE(ptr noalias noundef nonnull align 8 %v.0, i64 noundef %v.1, ptr noalias noundef nonnull align 8 %stack_buf.pn, i64 noundef %stack_scratch.sroa.4.0, i1 noundef zeroext %eager_sort, ptr noalias noundef align 8 dereferenceable(8) %is_less)
          to label %bb9 unwind label %cleanup

bb9:                                              ; preds = %bb8
  %_6.i.i.i.i2.i = icmp eq i64 %self1.i8, 0
  %or.cond = or i1 %_15, %_6.i.i.i.i2.i
  br i1 %or.cond, label %bb10, label %bb2.i.i.i3.i

bb10:                                             ; preds = %bb2.i.i.i3.i, %bb9
  call void @llvm.lifetime.end.p0(i64 24, ptr nonnull %heap_buf)
  call void @llvm.lifetime.end.p0(i64 4096, ptr nonnull %stack_buf)
  ret void

bb2.i.i.i3.i:                                     ; preds = %bb9
  %3 = mul nuw i64 %self1.i8, 24
; call __rustc::__rust_dealloc
  call void @_RNvCsdBezzDwma51_7___rustc14___rust_dealloc(ptr noundef nonnull %_10.i9, i64 noundef %3, i64 noundef range(i64 1, -9223372036854775807) 8) #25, !noalias !604
  br label %bb10

bb11:                                             ; preds = %bb13, %cleanup
  resume { ptr, i32 } %2

bb13:                                             ; preds = %cleanup
; call core::ptr::drop_in_place<alloc::vec::Vec<alloc::string::String>>
  call fastcc void @"_ZN4core3ptr65drop_in_place$LT$alloc..vec..Vec$LT$alloc..string..String$GT$$GT$17ha5714b0b3d45e72aE"(ptr noalias noundef align 8 dereferenceable(24) %heap_buf) #28
  br label %bb11
}

; core::slice::sort::stable::driftsort_main
; Function Attrs: noinline nonlazybind uwtable
define void @_ZN4core5slice4sort6stable14driftsort_main17hd81a1f6a05f6cdf3E(ptr noalias noundef nonnull align 4 %v.0, i64 noundef range(i64 0, 2305843009213693952) %v.1, ptr noalias noundef align 8 dereferenceable(8) %is_less) unnamed_addr #6 personality ptr @rust_eh_personality {
start:
  %stack_buf = alloca [4096 x i8], align 4
  %_105 = lshr i64 %v.1, 1
  %v1 = sub nsw i64 %v.1, %_105
  %_0.sroa.0.0.i = tail call noundef i64 @llvm.umin.i64(i64 %v.1, i64 2000000)
  %_0.sroa.0.0.i6 = tail call noundef i64 @llvm.umax.i64(i64 %_0.sroa.0.0.i, i64 %v1)
  %_0.sroa.0.0.i7 = tail call noundef i64 @llvm.umax.i64(i64 %_0.sroa.0.0.i6, i64 48)
  call void @llvm.lifetime.start.p0(i64 4096, ptr nonnull %stack_buf)
  %_15 = icmp ugt i64 %_0.sroa.0.0.i6, 1024
  br i1 %_15, label %bb4, label %bb8

bb4:                                              ; preds = %start
  %_21.0.i.i.i.i = shl i64 %_0.sroa.0.0.i7, 2
  %_21.1.i.i.i.i = icmp ugt i64 %v1, 4611686018427387903
  %_26.i.i.i.i = icmp ugt i64 %_21.0.i.i.i.i, 9223372036854775804
  %or.cond.i.i.i.i = or i1 %_21.1.i.i.i.i, %_26.i.i.i.i
  br i1 %or.cond.i.i.i.i, label %bb3.i.i, label %"_ZN63_$LT$alloc..alloc..Global$u20$as$u20$core..alloc..Allocator$GT$8allocate17h02618852de544ee2E.exit.i.i.i", !prof !598

"_ZN63_$LT$alloc..alloc..Global$u20$as$u20$core..alloc..Allocator$GT$8allocate17h02618852de544ee2E.exit.i.i.i": ; preds = %bb4
; call __rustc::__rust_no_alloc_shim_is_unstable_v2
  tail call void @_RNvCsdBezzDwma51_7___rustc35___rust_no_alloc_shim_is_unstable_v2() #25, !noalias !613
; call __rustc::__rust_alloc
  %0 = tail call noundef align 4 ptr @_RNvCsdBezzDwma51_7___rustc12___rust_alloc(i64 noundef %_21.0.i.i.i.i, i64 noundef range(i64 1, 9) 4) #25, !noalias !613
  %1 = icmp eq ptr %0, null
  br i1 %1, label %bb3.i.i, label %bb8

bb3.i.i:                                          ; preds = %"_ZN63_$LT$alloc..alloc..Global$u20$as$u20$core..alloc..Allocator$GT$8allocate17h02618852de544ee2E.exit.i.i.i", %bb4
  %_4.sroa.4.0.ph.i.i = phi i64 [ 4, %"_ZN63_$LT$alloc..alloc..Global$u20$as$u20$core..alloc..Allocator$GT$8allocate17h02618852de544ee2E.exit.i.i.i" ], [ 0, %bb4 ]
; call alloc::raw_vec::handle_error
  tail call void @_ZN5alloc7raw_vec12handle_error17h3a8c375904e593b2E(i64 noundef %_4.sroa.4.0.ph.i.i, i64 %_21.0.i.i.i.i) #27
  unreachable

cleanup:                                          ; preds = %bb8
  %2 = landingpad { ptr, i32 }
          cleanup
  br i1 %_15, label %"_ZN4core3ptr47drop_in_place$LT$alloc..vec..Vec$LT$i32$GT$$GT$17h26411d5b89b0f0caE.exit12", label %bb11

bb8:                                              ; preds = %"_ZN63_$LT$alloc..alloc..Global$u20$as$u20$core..alloc..Allocator$GT$8allocate17h02618852de544ee2E.exit.i.i.i", %start
  %heap_buf.sroa.6.1 = phi ptr [ undef, %start ], [ %0, %"_ZN63_$LT$alloc..alloc..Global$u20$as$u20$core..alloc..Allocator$GT$8allocate17h02618852de544ee2E.exit.i.i.i" ]
  %stack_scratch.sroa.4.0 = phi i64 [ 1024, %start ], [ %_0.sroa.0.0.i7, %"_ZN63_$LT$alloc..alloc..Global$u20$as$u20$core..alloc..Allocator$GT$8allocate17h02618852de544ee2E.exit.i.i.i" ]
  %stack_buf.pn = phi ptr [ %stack_buf, %start ], [ %0, %"_ZN63_$LT$alloc..alloc..Global$u20$as$u20$core..alloc..Allocator$GT$8allocate17h02618852de544ee2E.exit.i.i.i" ]
  %eager_sort = icmp samesign ult i64 %v.1, 65
; invoke core::slice::sort::stable::drift::sort
  invoke fastcc void @_ZN4core5slice4sort6stable5drift4sort17h5baa579da18fc185E(ptr noalias noundef nonnull align 4 %v.0, i64 noundef %v.1, ptr noalias noundef nonnull align 4 %stack_buf.pn, i64 noundef %stack_scratch.sroa.4.0, i1 noundef zeroext %eager_sort, ptr noalias noundef align 8 dereferenceable(8) %is_less)
          to label %bb9 unwind label %cleanup

bb9:                                              ; preds = %bb8
  br i1 %_15, label %"_ZN4core3ptr47drop_in_place$LT$alloc..vec..Vec$LT$i32$GT$$GT$17h26411d5b89b0f0caE.exit", label %bb10

bb10:                                             ; preds = %"_ZN4core3ptr47drop_in_place$LT$alloc..vec..Vec$LT$i32$GT$$GT$17h26411d5b89b0f0caE.exit", %bb9
  call void @llvm.lifetime.end.p0(i64 4096, ptr nonnull %stack_buf)
  ret void

"_ZN4core3ptr47drop_in_place$LT$alloc..vec..Vec$LT$i32$GT$$GT$17h26411d5b89b0f0caE.exit": ; preds = %bb9
  %3 = shl nuw i64 %_0.sroa.0.0.i7, 2
  %4 = icmp ne ptr %heap_buf.sroa.6.1, null
  call void @llvm.assume(i1 %4)
; call __rustc::__rust_dealloc
  call void @_RNvCsdBezzDwma51_7___rustc14___rust_dealloc(ptr noundef nonnull %heap_buf.sroa.6.1, i64 noundef %3, i64 noundef range(i64 1, -9223372036854775807) 4) #25, !noalias !618
  br label %bb10

bb11:                                             ; preds = %"_ZN4core3ptr47drop_in_place$LT$alloc..vec..Vec$LT$i32$GT$$GT$17h26411d5b89b0f0caE.exit12", %cleanup
  resume { ptr, i32 } %2

"_ZN4core3ptr47drop_in_place$LT$alloc..vec..Vec$LT$i32$GT$$GT$17h26411d5b89b0f0caE.exit12": ; preds = %cleanup
  %5 = shl nuw i64 %_0.sroa.0.0.i7, 2
  %6 = icmp ne ptr %heap_buf.sroa.6.1, null
  call void @llvm.assume(i1 %6)
; call __rustc::__rust_dealloc
  call void @_RNvCsdBezzDwma51_7___rustc14___rust_dealloc(ptr noundef nonnull %heap_buf.sroa.6.1, i64 noundef %5, i64 noundef range(i64 1, -9223372036854775807) 4) #25, !noalias !627
  br label %bb11
}

; core::slice::sort::stable::drift::sort
; Function Attrs: nonlazybind uwtable
define internal fastcc void @_ZN4core5slice4sort6stable5drift4sort17h5baa579da18fc185E(ptr noalias noundef nonnull align 4 %v.0, i64 noundef range(i64 0, 2305843009213693952) %v.1, ptr noalias noundef nonnull align 4 %scratch.0, i64 noundef range(i64 0, 2305843009213693952) %scratch.1, i1 noundef zeroext %eager_sort, ptr noalias noundef nonnull align 8 dereferenceable(8) %is_less) unnamed_addr #4 personality ptr @rust_eh_personality {
start:
  %desired_depth_storage = alloca [66 x i8], align 1
  %run_storage = alloca [528 x i8], align 8
  %_6 = icmp samesign ult i64 %v.1, 2
  br i1 %_6, label %bb22, label %bb2

bb2:                                              ; preds = %start
  %d = udiv i64 4611686018427387904, %v.1
  %r = urem i64 4611686018427387904, %v.1
  %_73.not = icmp ne i64 %r, 0
  %0 = zext i1 %_73.not to i64
  %scale_factor.sroa.0.0 = add nuw nsw i64 %d, %0
  %_9 = icmp samesign ult i64 %v.1, 4097
  br i1 %_9, label %bb3, label %bb4

bb4:                                              ; preds = %bb2
; call core::slice::sort::stable::drift::sqrt_approx
  %1 = tail call noundef i64 @_ZN4core5slice4sort6stable5drift11sqrt_approx17h72a4dc1ae46294f4E(i64 noundef %v.1)
  br label %bb5

bb3:                                              ; preds = %bb2
  %_1135 = lshr i64 %v.1, 1
  %v1 = sub nsw i64 %v.1, %_1135
  %_0.sroa.0.0.i36 = tail call noundef i64 @llvm.umin.i64(i64 %v1, i64 64)
  br label %bb5

bb5:                                              ; preds = %bb3, %bb4
  %min_good_run_len.sroa.0.0 = phi i64 [ %_0.sroa.0.0.i36, %bb3 ], [ %1, %bb4 ]
  call void @llvm.lifetime.start.p0(i64 528, ptr nonnull %run_storage)
  call void @llvm.lifetime.start.p0(i64 66, ptr nonnull %desired_depth_storage)
  %_13.not.i97 = icmp ugt i64 %min_good_run_len.sroa.0.0, 2
  %_13.not.i103 = icmp ugt i64 %min_good_run_len.sroa.0.0, 2
  br label %bb6

bb6:                                              ; preds = %bb19, %bb5
  %prev_run.sroa.0.0 = phi i64 [ 1, %bb5 ], [ %next_run.sroa.0.0, %bb19 ]
  %scan_idx.sroa.0.0 = phi i64 [ 0, %bb5 ], [ %36, %bb19 ]
  %stack_len.sroa.0.0 = phi i64 [ 0, %bb5 ], [ %35, %bb19 ]
  %_22 = icmp ult i64 %scan_idx.sroa.0.0, %v.1
  br i1 %_22, label %bb30, label %bb10

bb10:                                             ; preds = %bb6, %_ZN4core5slice4sort6stable5drift10create_run17he4a5d5408d856782E.exit
  %desired_depth.sroa.0.0 = phi i8 [ %18, %_ZN4core5slice4sort6stable5drift10create_run17he4a5d5408d856782E.exit ], [ 0, %bb6 ]
  %next_run.sroa.0.0 = phi i64 [ %_0.sroa.0.0.i40, %_ZN4core5slice4sort6stable5drift10create_run17he4a5d5408d856782E.exit ], [ 1, %bb6 ]
  %_3782 = icmp ugt i64 %stack_len.sroa.0.0, 1
  br i1 %_3782, label %bb12.lr.ph, label %bb17

bb12.lr.ph:                                       ; preds = %bb10
  %v_end.i = getelementptr inbounds nuw i32, ptr %v.0, i64 %scan_idx.sroa.0.0
  br label %bb12

bb30:                                             ; preds = %bb6
  %new_len = sub nuw nsw i64 %v.1, %scan_idx.sroa.0.0
  %_82 = getelementptr inbounds nuw i32, ptr %v.0, i64 %scan_idx.sroa.0.0
  %_7.not.i = icmp ult i64 %new_len, %min_good_run_len.sroa.0.0
  br i1 %_7.not.i, label %bb7.i41, label %bb1.i

bb7.i41:                                          ; preds = %_ZN4core5slice4sort6shared17find_existing_run17h9858b652d1314ffdE.exit.i.thread100, %_ZN4core5slice4sort6shared17find_existing_run17h9858b652d1314ffdE.exit.i.thread, %_ZN4core5slice4sort6shared17find_existing_run17h9858b652d1314ffdE.exit.i, %bb30
  br i1 %eager_sort, label %bb16.i43, label %bb11.i42

bb1.i:                                            ; preds = %bb30
  %_4.i.i = icmp samesign ult i64 %new_len, 2
  br i1 %_4.i.i, label %bb5.i38, label %bb2.i.i

bb2.i.i:                                          ; preds = %bb1.i
  %_28.i.i = getelementptr inbounds nuw i8, ptr %_82, i64 4
  tail call void @llvm.experimental.noalias.scope.decl(metadata !636)
  tail call void @llvm.experimental.noalias.scope.decl(metadata !639)
  tail call void @llvm.experimental.noalias.scope.decl(metadata !641), !noalias !644
  tail call void @llvm.experimental.noalias.scope.decl(metadata !647), !noalias !644
  tail call void @llvm.experimental.noalias.scope.decl(metadata !649), !noalias !644
  tail call void @llvm.experimental.noalias.scope.decl(metadata !652), !noalias !644
  %_3.i.i.i61 = load i32, ptr %_28.i.i, align 4, !alias.scope !654, !noalias !655, !noundef !6
  %_4.i.i.i62 = load i32, ptr %_82, align 4, !alias.scope !656, !noalias !657, !noundef !6
  %_0.i63 = icmp slt i32 %_3.i.i.i61, %_4.i.i.i62
  %_10.i.i78.not = icmp eq i64 %new_len, 2
  br i1 %_0.i63, label %bb4.i.i.preheader, label %bb11.i.i.preheader

bb11.i.i.preheader:                               ; preds = %bb2.i.i
  br i1 %_10.i.i78.not, label %_ZN4core5slice4sort6shared17find_existing_run17h9858b652d1314ffdE.exit.i.thread, label %bb12.i.i

bb4.i.i.preheader:                                ; preds = %bb2.i.i
  br i1 %_10.i.i78.not, label %_ZN4core5slice4sort6shared17find_existing_run17h9858b652d1314ffdE.exit.i.thread100, label %bb5.i.i

bb12.i.i:                                         ; preds = %bb11.i.i.preheader, %bb15.i.i
  %_4.i.i.i59 = phi i32 [ %_3.i.i.i58, %bb15.i.i ], [ %_3.i.i.i61, %bb11.i.i.preheader ]
  %run_len.sroa.0.0.i.i76 = phi i64 [ %3, %bb15.i.i ], [ 2, %bb11.i.i.preheader ]
  %2 = getelementptr inbounds nuw i32, ptr %_82, i64 %run_len.sroa.0.0.i.i76
  %_3.i.i.i58 = load i32, ptr %2, align 4, !alias.scope !658, !noalias !665, !noundef !6
  %_0.i60 = icmp slt i32 %_3.i.i.i58, %_4.i.i.i59
  br i1 %_0.i60, label %_ZN4core5slice4sort6shared17find_existing_run17h9858b652d1314ffdE.exit.i, label %bb15.i.i

bb15.i.i:                                         ; preds = %bb12.i.i
  %3 = add nuw i64 %run_len.sroa.0.0.i.i76, 1
  %exitcond.not = icmp eq i64 %3, %new_len
  br i1 %exitcond.not, label %_ZN4core5slice4sort6shared17find_existing_run17h9858b652d1314ffdE.exit.i, label %bb12.i.i

bb5.i.i:                                          ; preds = %bb4.i.i.preheader, %bb7.i.i
  %_4.i.i.i = phi i32 [ %_3.i.i.i, %bb7.i.i ], [ %_3.i.i.i61, %bb4.i.i.preheader ]
  %run_len.sroa.0.1.i.i79 = phi i64 [ %5, %bb7.i.i ], [ 2, %bb4.i.i.preheader ]
  %4 = getelementptr inbounds nuw i32, ptr %_82, i64 %run_len.sroa.0.1.i.i79
  %_3.i.i.i = load i32, ptr %4, align 4, !alias.scope !669, !noalias !676, !noundef !6
  %_0.i = icmp slt i32 %_3.i.i.i, %_4.i.i.i
  br i1 %_0.i, label %bb7.i.i, label %_ZN4core5slice4sort6shared17find_existing_run17h9858b652d1314ffdE.exit.i

bb7.i.i:                                          ; preds = %bb5.i.i
  %5 = add nuw i64 %run_len.sroa.0.1.i.i79, 1
  %exitcond92.not = icmp eq i64 %5, %new_len
  br i1 %exitcond92.not, label %_ZN4core5slice4sort6shared17find_existing_run17h9858b652d1314ffdE.exit.i, label %bb5.i.i

_ZN4core5slice4sort6shared17find_existing_run17h9858b652d1314ffdE.exit.i: ; preds = %bb15.i.i, %bb12.i.i, %bb7.i.i, %bb5.i.i
  %_0.sroa.0.0.i.i = phi i64 [ %new_len, %bb7.i.i ], [ %run_len.sroa.0.1.i.i79, %bb5.i.i ], [ %new_len, %bb15.i.i ], [ %run_len.sroa.0.0.i.i76, %bb12.i.i ]
  %_12.i = icmp samesign ule i64 %_0.sroa.0.0.i.i, %new_len
  tail call void @llvm.assume(i1 %_12.i)
  %_13.not.i = icmp ult i64 %_0.sroa.0.0.i.i, %min_good_run_len.sroa.0.0
  br i1 %_13.not.i, label %bb7.i41, label %bb3.i37

_ZN4core5slice4sort6shared17find_existing_run17h9858b652d1314ffdE.exit.i.thread100: ; preds = %bb4.i.i.preheader
  br i1 %_13.not.i103, label %bb7.i41, label %bb5.preheader.i.i

_ZN4core5slice4sort6shared17find_existing_run17h9858b652d1314ffdE.exit.i.thread: ; preds = %bb11.i.i.preheader
  br i1 %_13.not.i97, label %bb7.i41, label %bb5.i38

bb3.i37:                                          ; preds = %_ZN4core5slice4sort6shared17find_existing_run17h9858b652d1314ffdE.exit.i
  br i1 %_0.i63, label %bb14.i, label %bb5.i38

bb11.i42:                                         ; preds = %bb7.i41
  %_0.sroa.0.0.i57 = tail call noundef i64 @llvm.umin.i64(i64 range(i64 0, 2305843009213693952) %new_len, i64 %min_good_run_len.sroa.0.0)
  %_36.i = shl nuw nsw i64 %_0.sroa.0.0.i57, 1
  br label %_ZN4core5slice4sort6stable5drift10create_run17he4a5d5408d856782E.exit

bb16.i43:                                         ; preds = %bb7.i41
  %_0.sroa.0.0.i56 = tail call noundef i64 @llvm.umin.i64(i64 range(i64 0, 2305843009213693952) %new_len, i64 32)
; call core::slice::sort::stable::quicksort::quicksort
  tail call void @_ZN4core5slice4sort6stable9quicksort9quicksort17h29f47d65ff463170E(ptr noalias noundef nonnull align 4 %_82, i64 noundef %_0.sroa.0.0.i56, ptr noalias noundef nonnull align 4 %scratch.0, i64 noundef range(i64 0, 2305843009213693952) %scratch.1, i32 noundef 0, ptr noalias noundef readonly align 4 captures(address, read_provenance) dereferenceable_or_null(4) null, ptr noalias noundef nonnull align 8 dereferenceable(8) %is_less) #29
  %_35.i = shl nuw nsw i64 %_0.sroa.0.0.i56, 1
  %_34.i = or disjoint i64 %_35.i, 1
  br label %_ZN4core5slice4sort6stable5drift10create_run17he4a5d5408d856782E.exit

bb5.i38:                                          ; preds = %bb6.i.i, %middle.block, %_ZN4core5slice4sort6shared17find_existing_run17h9858b652d1314ffdE.exit.i.thread, %bb1.i, %bb14.i, %bb3.i37
  %_0.sroa.0.0.i.i6972 = phi i64 [ %_0.sroa.0.0.i.i, %bb3.i37 ], [ 1, %bb14.i ], [ %new_len, %bb1.i ], [ 2, %_ZN4core5slice4sort6shared17find_existing_run17h9858b652d1314ffdE.exit.i.thread ], [ %_0.sroa.0.0.i.i98106110, %middle.block ], [ %_0.sroa.0.0.i.i98106110, %bb6.i.i ]
  %_27.i = shl nuw nsw i64 %_0.sroa.0.0.i.i6972, 1
  %_26.i = or disjoint i64 %_27.i, 1
  br label %_ZN4core5slice4sort6stable5drift10create_run17he4a5d5408d856782E.exit

bb14.i:                                           ; preds = %bb3.i37
  %half_len2.i = lshr i64 %_0.sroa.0.0.i.i, 1
  tail call void @llvm.experimental.noalias.scope.decl(metadata !680), !noalias !683
  tail call void @llvm.experimental.noalias.scope.decl(metadata !685), !noalias !683
  %_915.not.i.i = icmp samesign ult i64 %_0.sroa.0.0.i.i, 2
  br i1 %_915.not.i.i, label %bb5.i38, label %bb5.preheader.i.i

bb5.preheader.i.i:                                ; preds = %_ZN4core5slice4sort6shared17find_existing_run17h9858b652d1314ffdE.exit.i.thread100, %bb14.i
  %half_len2.i111 = phi i64 [ %half_len2.i, %bb14.i ], [ 1, %_ZN4core5slice4sort6shared17find_existing_run17h9858b652d1314ffdE.exit.i.thread100 ]
  %_0.sroa.0.0.i.i98106110 = phi i64 [ %_0.sroa.0.0.i.i, %bb14.i ], [ 2, %_ZN4core5slice4sort6shared17find_existing_run17h9858b652d1314ffdE.exit.i.thread100 ]
  %end.i = getelementptr inbounds nuw i32, ptr %_82, i64 %_0.sroa.0.0.i.i98106110
  %min.iters.check = icmp samesign ult i64 %half_len2.i111, 8
  br i1 %min.iters.check, label %bb6.i.i.preheader, label %vector.ph

vector.ph:                                        ; preds = %bb5.preheader.i.i
  %n.vec = and i64 %half_len2.i111, 9223372036854775800
  br label %vector.body

vector.body:                                      ; preds = %vector.body, %vector.ph
  %index = phi i64 [ 0, %vector.ph ], [ %index.next, %vector.body ]
  %6 = xor i64 %index, -1
  %7 = getelementptr inbounds nuw i32, ptr %_82, i64 %index
  %8 = getelementptr i32, ptr %end.i, i64 %6
  %9 = getelementptr inbounds nuw i8, ptr %7, i64 16
  %wide.load = load <4 x i32>, ptr %7, align 4, !alias.scope !687, !noalias !690
  %wide.load118 = load <4 x i32>, ptr %9, align 4, !alias.scope !687, !noalias !690
  %10 = getelementptr i8, ptr %8, i64 -12
  %11 = getelementptr i8, ptr %8, i64 -28
  %wide.load119 = load <4 x i32>, ptr %10, align 4, !alias.scope !691, !noalias !692
  %reverse = shufflevector <4 x i32> %wide.load119, <4 x i32> poison, <4 x i32> <i32 3, i32 2, i32 1, i32 0>
  %wide.load120 = load <4 x i32>, ptr %11, align 4, !alias.scope !691, !noalias !692
  %reverse121 = shufflevector <4 x i32> %wide.load120, <4 x i32> poison, <4 x i32> <i32 3, i32 2, i32 1, i32 0>
  store <4 x i32> %reverse, ptr %7, align 4, !alias.scope !687, !noalias !690
  store <4 x i32> %reverse121, ptr %9, align 4, !alias.scope !687, !noalias !690
  %reverse122 = shufflevector <4 x i32> %wide.load, <4 x i32> poison, <4 x i32> <i32 3, i32 2, i32 1, i32 0>
  store <4 x i32> %reverse122, ptr %10, align 4, !alias.scope !691, !noalias !692
  %reverse123 = shufflevector <4 x i32> %wide.load118, <4 x i32> poison, <4 x i32> <i32 3, i32 2, i32 1, i32 0>
  store <4 x i32> %reverse123, ptr %11, align 4, !alias.scope !691, !noalias !692
  %index.next = add nuw i64 %index, 8
  %12 = icmp eq i64 %index.next, %n.vec
  br i1 %12, label %middle.block, label %vector.body, !llvm.loop !693

middle.block:                                     ; preds = %vector.body
  %cmp.n = icmp eq i64 %half_len2.i111, %n.vec
  br i1 %cmp.n, label %bb5.i38, label %bb6.i.i.preheader

bb6.i.i.preheader:                                ; preds = %bb5.preheader.i.i, %middle.block
  %i.sroa.0.016.i.i.ph = phi i64 [ 0, %bb5.preheader.i.i ], [ %n.vec, %middle.block ]
  br label %bb6.i.i

bb6.i.i:                                          ; preds = %bb6.i.i.preheader, %bb6.i.i
  %i.sroa.0.016.i.i = phi i64 [ %16, %bb6.i.i ], [ %i.sroa.0.016.i.i.ph, %bb6.i.i.preheader ]
  %13 = xor i64 %i.sroa.0.016.i.i, -1
  %x.i.i = getelementptr inbounds nuw i32, ptr %_82, i64 %i.sroa.0.016.i.i
  %y.i.i = getelementptr i32, ptr %end.i, i64 %13
  %14 = load i32, ptr %x.i.i, align 4, !alias.scope !687, !noalias !690, !noundef !6
  %15 = load i32, ptr %y.i.i, align 4, !alias.scope !691, !noalias !692
  store i32 %15, ptr %x.i.i, align 4, !alias.scope !687, !noalias !690
  store i32 %14, ptr %y.i.i, align 4, !alias.scope !691, !noalias !692
  %16 = add nuw nsw i64 %i.sroa.0.016.i.i, 1
  %exitcond.not.i.i = icmp eq i64 %16, %half_len2.i111
  br i1 %exitcond.not.i.i, label %bb5.i38, label %bb6.i.i, !llvm.loop !696

_ZN4core5slice4sort6stable5drift10create_run17he4a5d5408d856782E.exit: ; preds = %bb11.i42, %bb16.i43, %bb5.i38
  %_0.sroa.0.0.i40 = phi i64 [ %_26.i, %bb5.i38 ], [ %_34.i, %bb16.i43 ], [ %_36.i, %bb11.i42 ]
  %_31 = lshr i64 %prev_run.sroa.0.0, 1
  %_35 = lshr i64 %_0.sroa.0.0.i40, 1
  %factor = shl i64 %scan_idx.sroa.0.0, 1
  %x = sub i64 %factor, %_31
  %y = add i64 %_35, %factor
  %_90 = mul i64 %x, %scale_factor.sroa.0.0
  %_91 = mul i64 %y, %scale_factor.sroa.0.0
  %self4 = xor i64 %_91, %_90
  %17 = tail call range(i64 0, 65) i64 @llvm.ctlz.i64(i64 %self4, i1 false)
  %18 = trunc nuw nsw i64 %17 to i8
  br label %bb10

bb12:                                             ; preds = %bb12.lr.ph, %_ZN4core5slice4sort6stable5drift13logical_merge17h77240b02d0b46790E.exit
  %stack_len.sroa.0.184 = phi i64 [ %stack_len.sroa.0.0, %bb12.lr.ph ], [ %count, %_ZN4core5slice4sort6stable5drift13logical_merge17h77240b02d0b46790E.exit ]
  %prev_run.sroa.0.183 = phi i64 [ %prev_run.sroa.0.0, %bb12.lr.ph ], [ %_0.sroa.0.0.i, %_ZN4core5slice4sort6stable5drift13logical_merge17h77240b02d0b46790E.exit ]
  %count = add i64 %stack_len.sroa.0.184, -1
  %_41 = getelementptr inbounds nuw i8, ptr %desired_depth_storage, i64 %count
  %_40 = load i8, ptr %_41, align 1, !noundef !6
  %_39.not = icmp ult i8 %_40, %desired_depth.sroa.0.0
  br i1 %_39.not, label %bb17, label %bb13

bb17:                                             ; preds = %_ZN4core5slice4sort6stable5drift13logical_merge17h77240b02d0b46790E.exit, %bb12, %bb10
  %prev_run.sroa.0.1.lcssa = phi i64 [ %prev_run.sroa.0.0, %bb10 ], [ %prev_run.sroa.0.183, %bb12 ], [ %_0.sroa.0.0.i, %_ZN4core5slice4sort6stable5drift13logical_merge17h77240b02d0b46790E.exit ]
  %stack_len.sroa.0.1.lcssa = phi i64 [ %stack_len.sroa.0.0, %bb10 ], [ %stack_len.sroa.0.184, %bb12 ], [ 1, %_ZN4core5slice4sort6stable5drift13logical_merge17h77240b02d0b46790E.exit ]
  %_59 = getelementptr inbounds nuw i64, ptr %run_storage, i64 %stack_len.sroa.0.1.lcssa
  store i64 %prev_run.sroa.0.1.lcssa, ptr %_59, align 8
  %_61 = getelementptr inbounds nuw i8, ptr %desired_depth_storage, i64 %stack_len.sroa.0.1.lcssa
  store i8 %desired_depth.sroa.0.0, ptr %_61, align 1
  br i1 %_22, label %bb19, label %bb18

bb13:                                             ; preds = %bb12
  %_46 = getelementptr inbounds nuw i64, ptr %run_storage, i64 %count
  %left10 = load i64, ptr %_46, align 8, !noundef !6
  %_50 = lshr i64 %left10, 1
  %_51 = lshr i64 %prev_run.sroa.0.183, 1
  %merged_len = add nuw i64 %_50, %_51
  %merge_start_idx = sub i64 %scan_idx.sroa.0.0, %merged_len
  %_98 = getelementptr inbounds nuw i32, ptr %v.0, i64 %merge_start_idx
  %can_fit_in_scratch.i = icmp samesign ugt i64 %merged_len, %scratch.1
  %_22.i = and i64 %prev_run.sroa.0.183, 1
  %_10.not.i = icmp eq i64 %_22.i, 0
  %19 = or i64 %left10, %prev_run.sroa.0.183
  %20 = and i64 %19, 1
  %21 = icmp ne i64 %20, 0
  %or.cond2.i = or i1 %can_fit_in_scratch.i, %21
  br i1 %or.cond2.i, label %bb3.i, label %bb9.i

bb3.i:                                            ; preds = %bb13
  %_21.i = and i64 %left10, 1
  %_9.not.i = icmp eq i64 %_21.i, 0
  br i1 %_9.not.i, label %bb11.i, label %bb5.i

bb9.i:                                            ; preds = %bb13
  %_40.i = shl nuw nsw i64 %merged_len, 1
  br label %_ZN4core5slice4sort6stable5drift13logical_merge17h77240b02d0b46790E.exit

bb5.i:                                            ; preds = %bb11.i, %bb3.i
  br i1 %_10.not.i, label %bb16.i, label %bb7.i

bb11.i:                                           ; preds = %bb3.i
  %self.i = or i64 %_50, 1
  %22 = tail call range(i64 3, 64) i64 @llvm.ctlz.i64(i64 %self.i, i1 true)
  %23 = trunc nuw nsw i64 %22 to i32
  %log.i = shl nuw nsw i32 %23, 1
  %limit.i = xor i32 %log.i, 126
; call core::slice::sort::stable::quicksort::quicksort
  tail call void @_ZN4core5slice4sort6stable9quicksort9quicksort17h29f47d65ff463170E(ptr noalias noundef nonnull align 4 %_98, i64 noundef range(i64 0, 2305843009213693952) %_50, ptr noalias noundef nonnull align 4 %scratch.0, i64 noundef range(i64 0, 2305843009213693952) %scratch.1, i32 noundef %limit.i, ptr noalias noundef readonly align 4 captures(address, read_provenance) dereferenceable_or_null(4) null, ptr noalias noundef nonnull align 8 dereferenceable(8) %is_less) #29
  br label %bb5.i

bb7.i:                                            ; preds = %bb16.i, %bb5.i
  tail call void @llvm.experimental.noalias.scope.decl(metadata !697)
  tail call void @llvm.experimental.noalias.scope.decl(metadata !700)
  %_6.i = icmp ult i64 %left10, 2
  %_7.i = icmp ult i64 %prev_run.sroa.0.183, 2
  %or.cond.i = select i1 %_6.i, i1 true, i1 %_7.i
  br i1 %or.cond.i, label %_ZN4core5slice4sort6stable5merge5merge17h688fe9b76dfd8950E.exit, label %bb2.i

bb2.i:                                            ; preds = %bb7.i
  %_0.sroa.0.0.i.i44 = tail call i64 @llvm.umin.i64(i64 %_51, i64 range(i64 0, -9223372036854775808) %_50)
  %_8.i = icmp samesign ult i64 %scratch.1, %_0.sroa.0.0.i.i44
  br i1 %_8.i, label %_ZN4core5slice4sort6stable5merge5merge17h688fe9b76dfd8950E.exit, label %bb5.i45

bb5.i45:                                          ; preds = %bb2.i
  %v_mid.i = getelementptr inbounds nuw i32, ptr %_98, i64 %_50
  %left_is_shorter.not.i = icmp samesign ugt i64 %_50, %_51
  %spec.select.i = select i1 %left_is_shorter.not.i, ptr %v_mid.i, ptr %_98
  %24 = shl nuw nsw i64 %_0.sroa.0.0.i.i44, 2
  tail call void @llvm.memcpy.p0.p0.i64(ptr nonnull align 4 %scratch.0, ptr nonnull align 4 %spec.select.i, i64 %24, i1 false), !alias.scope !702
  %_22.i46 = getelementptr inbounds nuw i8, ptr %scratch.0, i64 %24
  br i1 %left_is_shorter.not.i, label %bb1.i.i, label %bb3.i.i

bb1.i.i:                                          ; preds = %bb5.i45, %bb1.i.i
  %_2110.i.i = phi ptr [ %_21.i.i49, %bb1.i.i ], [ %_22.i46, %bb5.i45 ]
  %_188.i.i = phi ptr [ %_18.i.i, %bb1.i.i ], [ %v_mid.i, %bb5.i45 ]
  %out.sroa.0.0.i.i = phi ptr [ %27, %bb1.i.i ], [ %v_end.i, %bb5.i45 ]
  %25 = getelementptr inbounds i8, ptr %_188.i.i, i64 -4
  %26 = getelementptr inbounds i8, ptr %_2110.i.i, i64 -4
  %27 = getelementptr inbounds i8, ptr %out.sroa.0.0.i.i, i64 -4
  tail call void @llvm.experimental.noalias.scope.decl(metadata !703)
  tail call void @llvm.experimental.noalias.scope.decl(metadata !706)
  tail call void @llvm.experimental.noalias.scope.decl(metadata !708)
  tail call void @llvm.experimental.noalias.scope.decl(metadata !711)
  tail call void @llvm.experimental.noalias.scope.decl(metadata !713)
  tail call void @llvm.experimental.noalias.scope.decl(metadata !716)
  %_3.i.i.i.i.i = load i32, ptr %26, align 4, !alias.scope !718, !noalias !719, !noundef !6
  %_4.i.i.i.i.i = load i32, ptr %25, align 4, !alias.scope !722, !noalias !723, !noundef !6
  %_0.i.i.i = icmp slt i32 %_3.i.i.i.i.i, %_4.i.i.i.i.i
  %28 = tail call i32 @llvm.smax.i32(i32 %_3.i.i.i.i.i, i32 %_4.i.i.i.i.i)
  store i32 %28, ptr %27, align 4, !alias.scope !697, !noalias !724
  %_20.i.i = xor i1 %_0.i.i.i, true
  %count.i.i = zext i1 %_20.i.i to i64
  %_18.i.i = getelementptr inbounds nuw i32, ptr %25, i64 %count.i.i
  %count4.i.i = zext i1 %_0.i.i.i to i64
  %_21.i.i49 = getelementptr inbounds nuw i32, ptr %26, i64 %count4.i.i
  %_23.i.i = icmp eq ptr %_18.i.i, %_98
  %_26.i.i = icmp eq ptr %_21.i.i49, %scratch.0
  %or.cond.i.i = select i1 %_23.i.i, i1 true, i1 %_26.i.i
  br i1 %or.cond.i.i, label %bb16.i48, label %bb1.i.i

bb3.i.i:                                          ; preds = %bb5.i45, %bb3.i.i
  %_2511.i.i = phi ptr [ %_25.i.i, %bb3.i.i ], [ %_98, %bb5.i45 ]
  %right.sroa.0.010.i.i = phi ptr [ %_23.i17.i, %bb3.i.i ], [ %v_mid.i, %bb5.i45 ]
  %_2059.i.i = phi ptr [ %_20.i16.i, %bb3.i.i ], [ %scratch.0, %bb5.i45 ]
  tail call void @llvm.experimental.noalias.scope.decl(metadata !725)
  tail call void @llvm.experimental.noalias.scope.decl(metadata !728)
  tail call void @llvm.experimental.noalias.scope.decl(metadata !730)
  tail call void @llvm.experimental.noalias.scope.decl(metadata !733)
  tail call void @llvm.experimental.noalias.scope.decl(metadata !735)
  tail call void @llvm.experimental.noalias.scope.decl(metadata !738)
  %_3.i.i.i.i12.i = load i32, ptr %right.sroa.0.010.i.i, align 4, !alias.scope !740, !noalias !741, !noundef !6
  %_4.i.i.i.i13.i = load i32, ptr %_2059.i.i, align 4, !alias.scope !744, !noalias !745, !noundef !6
  %_0.i.i14.i = icmp slt i32 %_3.i.i.i.i12.i, %_4.i.i.i.i13.i
  %consume_left.i.i = xor i1 %_0.i.i14.i, true
  %29 = tail call i32 @llvm.smin.i32(i32 %_3.i.i.i.i12.i, i32 %_4.i.i.i.i13.i)
  store i32 %29, ptr %_2511.i.i, align 4, !alias.scope !697, !noalias !746
  %count.i15.i = zext i1 %consume_left.i.i to i64
  %_20.i16.i = getelementptr inbounds nuw i32, ptr %_2059.i.i, i64 %count.i15.i
  %count2.i.i = zext i1 %_0.i.i14.i to i64
  %_23.i17.i = getelementptr inbounds nuw i32, ptr %right.sroa.0.010.i.i, i64 %count2.i.i
  %_25.i.i = getelementptr inbounds nuw i8, ptr %_2511.i.i, i64 4
  %_7.i.i = icmp ne ptr %_20.i16.i, %_22.i46
  %_10.i.i47 = icmp ne ptr %_23.i17.i, %v_end.i
  %or.cond.i18.i = select i1 %_7.i.i, i1 %_10.i.i47, i1 false
  br i1 %or.cond.i18.i, label %bb3.i.i, label %bb16.i48

bb16.i48:                                         ; preds = %bb3.i.i, %bb1.i.i
  %merge_state.sroa.13.0.i = phi ptr [ %_18.i.i, %bb1.i.i ], [ %_25.i.i, %bb3.i.i ]
  %merge_state.sroa.7.0.i = phi ptr [ %_21.i.i49, %bb1.i.i ], [ %_22.i46, %bb3.i.i ]
  %merge_state.sroa.0.0.i = phi ptr [ %scratch.0, %bb1.i.i ], [ %_20.i16.i, %bb3.i.i ]
  %30 = ptrtoint ptr %merge_state.sroa.7.0.i to i64
  %31 = ptrtoint ptr %merge_state.sroa.0.0.i to i64
  %32 = sub nuw i64 %30, %31
  tail call void @llvm.memcpy.p0.p0.i64(ptr nonnull align 4 %merge_state.sroa.13.0.i, ptr align 4 %merge_state.sroa.0.0.i, i64 %32, i1 false), !alias.scope !702, !noalias !747
  br label %_ZN4core5slice4sort6stable5merge5merge17h688fe9b76dfd8950E.exit

_ZN4core5slice4sort6stable5merge5merge17h688fe9b76dfd8950E.exit: ; preds = %bb7.i, %bb2.i, %bb16.i48
  %_39.i = shl nuw nsw i64 %merged_len, 1
  %_38.i = or disjoint i64 %_39.i, 1
  br label %_ZN4core5slice4sort6stable5drift13logical_merge17h77240b02d0b46790E.exit

bb16.i:                                           ; preds = %bb5.i
  %_37.i = getelementptr inbounds nuw i32, ptr %_98, i64 %_50
  %self.i50 = or i64 %_51, 1
  %33 = tail call range(i64 3, 64) i64 @llvm.ctlz.i64(i64 %self.i50, i1 true)
  %34 = trunc nuw nsw i64 %33 to i32
  %log.i51 = shl nuw nsw i32 %34, 1
  %limit.i52 = xor i32 %log.i51, 126
; call core::slice::sort::stable::quicksort::quicksort
  tail call void @_ZN4core5slice4sort6stable9quicksort9quicksort17h29f47d65ff463170E(ptr noalias noundef nonnull align 4 %_37.i, i64 noundef range(i64 0, 2305843009213693952) %_51, ptr noalias noundef nonnull align 4 %scratch.0, i64 noundef range(i64 0, 2305843009213693952) %scratch.1, i32 noundef %limit.i52, ptr noalias noundef readonly align 4 captures(address, read_provenance) dereferenceable_or_null(4) null, ptr noalias noundef nonnull align 8 dereferenceable(8) %is_less) #29
  br label %bb7.i

_ZN4core5slice4sort6stable5drift13logical_merge17h77240b02d0b46790E.exit: ; preds = %bb9.i, %_ZN4core5slice4sort6stable5merge5merge17h688fe9b76dfd8950E.exit
  %_0.sroa.0.0.i = phi i64 [ %_38.i, %_ZN4core5slice4sort6stable5merge5merge17h688fe9b76dfd8950E.exit ], [ %_40.i, %bb9.i ]
  %_37 = icmp ugt i64 %count, 1
  br i1 %_37, label %bb12, label %bb17

bb19:                                             ; preds = %bb17
  %35 = add i64 %stack_len.sroa.0.1.lcssa, 1
  %_65 = lshr i64 %next_run.sroa.0.0, 1
  %36 = add nuw i64 %_65, %scan_idx.sroa.0.0
  br label %bb6

bb18:                                             ; preds = %bb17
  %_99 = and i64 %prev_run.sroa.0.1.lcssa, 1
  %_66.not = icmp eq i64 %_99, 0
  br i1 %_66.not, label %bb20, label %bb21

bb20:                                             ; preds = %bb18
  %self.i53 = or i64 %v.1, 1
  %37 = tail call range(i64 3, 64) i64 @llvm.ctlz.i64(i64 %self.i53, i1 true)
  %38 = trunc nuw nsw i64 %37 to i32
  %log.i54 = shl nuw nsw i32 %38, 1
  %limit.i55 = xor i32 %log.i54, 126
; call core::slice::sort::stable::quicksort::quicksort
  tail call void @_ZN4core5slice4sort6stable9quicksort9quicksort17h29f47d65ff463170E(ptr noalias noundef nonnull align 4 %v.0, i64 noundef range(i64 0, 2305843009213693952) %v.1, ptr noalias noundef nonnull align 4 %scratch.0, i64 noundef range(i64 0, 2305843009213693952) %scratch.1, i32 noundef %limit.i55, ptr noalias noundef readonly align 4 captures(address, read_provenance) dereferenceable_or_null(4) null, ptr noalias noundef nonnull align 8 dereferenceable(8) %is_less) #29
  br label %bb21

bb21:                                             ; preds = %bb20, %bb18
  call void @llvm.lifetime.end.p0(i64 66, ptr nonnull %desired_depth_storage)
  call void @llvm.lifetime.end.p0(i64 528, ptr nonnull %run_storage)
  br label %bb22

bb22:                                             ; preds = %start, %bb21
  ret void
}

; core::slice::sort::stable::drift::sort
; Function Attrs: nonlazybind uwtable
define internal fastcc void @_ZN4core5slice4sort6stable5drift4sort17h6aa4f489c3c231eeE(ptr noalias noundef nonnull align 8 %v.0, i64 noundef range(i64 0, 384307168202282326) %v.1, ptr noalias noundef nonnull align 8 %scratch.0, i64 noundef range(i64 0, 384307168202282326) %scratch.1, i1 noundef zeroext %eager_sort, ptr noalias noundef nonnull align 8 dereferenceable(8) %is_less) unnamed_addr #4 personality ptr @rust_eh_personality {
start:
  %desired_depth_storage = alloca [66 x i8], align 1
  %run_storage = alloca [528 x i8], align 8
  %_6 = icmp samesign ult i64 %v.1, 2
  br i1 %_6, label %bb22, label %bb2

bb2:                                              ; preds = %start
  %d = udiv i64 4611686018427387904, %v.1
  %r = urem i64 4611686018427387904, %v.1
  %_73.not = icmp ne i64 %r, 0
  %0 = zext i1 %_73.not to i64
  %scale_factor.sroa.0.0 = add nuw nsw i64 %d, %0
  %_9 = icmp samesign ult i64 %v.1, 4097
  br i1 %_9, label %bb3, label %bb4

bb4:                                              ; preds = %bb2
; call core::slice::sort::stable::drift::sqrt_approx
  %1 = tail call noundef i64 @_ZN4core5slice4sort6stable5drift11sqrt_approx17h72a4dc1ae46294f4E(i64 noundef %v.1)
  br label %bb5

bb3:                                              ; preds = %bb2
  %_1135 = lshr i64 %v.1, 1
  %v1 = sub nsw i64 %v.1, %_1135
  %_0.sroa.0.0.i36 = tail call noundef i64 @llvm.umin.i64(i64 %v1, i64 64)
  br label %bb5

bb5:                                              ; preds = %bb3, %bb4
  %min_good_run_len.sroa.0.0 = phi i64 [ %_0.sroa.0.0.i36, %bb3 ], [ %1, %bb4 ]
  call void @llvm.lifetime.start.p0(i64 528, ptr nonnull %run_storage)
  call void @llvm.lifetime.start.p0(i64 66, ptr nonnull %desired_depth_storage)
  %_13.not.i111 = icmp ugt i64 %min_good_run_len.sroa.0.0, 2
  %_13.not.i117 = icmp ugt i64 %min_good_run_len.sroa.0.0, 2
  br label %bb6

bb6:                                              ; preds = %bb19, %bb5
  %prev_run.sroa.0.0 = phi i64 [ 1, %bb5 ], [ %next_run.sroa.0.0, %bb19 ]
  %scan_idx.sroa.0.0 = phi i64 [ 0, %bb5 ], [ %56, %bb19 ]
  %stack_len.sroa.0.0 = phi i64 [ 0, %bb5 ], [ %55, %bb19 ]
  %_22 = icmp ult i64 %scan_idx.sroa.0.0, %v.1
  br i1 %_22, label %bb30, label %bb10

bb10:                                             ; preds = %bb6, %_ZN4core5slice4sort6stable5drift10create_run17h144e354a571d8fbeE.exit
  %desired_depth.sroa.0.0 = phi i8 [ %26, %_ZN4core5slice4sort6stable5drift10create_run17h144e354a571d8fbeE.exit ], [ 0, %bb6 ]
  %next_run.sroa.0.0 = phi i64 [ %_0.sroa.0.0.i40, %_ZN4core5slice4sort6stable5drift10create_run17h144e354a571d8fbeE.exit ], [ 1, %bb6 ]
  %_3792 = icmp ugt i64 %stack_len.sroa.0.0, 1
  br i1 %_3792, label %bb12.lr.ph, label %bb17

bb12.lr.ph:                                       ; preds = %bb10
  %v_end.i = getelementptr inbounds nuw %"alloc::string::String", ptr %v.0, i64 %scan_idx.sroa.0.0
  br label %bb12

bb30:                                             ; preds = %bb6
  %new_len = sub nuw nsw i64 %v.1, %scan_idx.sroa.0.0
  %_82 = getelementptr inbounds nuw %"alloc::string::String", ptr %v.0, i64 %scan_idx.sroa.0.0
  %_7.not.i = icmp ult i64 %new_len, %min_good_run_len.sroa.0.0
  br i1 %_7.not.i, label %bb7.i41, label %bb1.i

bb7.i41:                                          ; preds = %_ZN4core5slice4sort6shared17find_existing_run17h082bf3a2a560d49bE.exit.i.thread114, %_ZN4core5slice4sort6shared17find_existing_run17h082bf3a2a560d49bE.exit.i.thread, %_ZN4core5slice4sort6shared17find_existing_run17h082bf3a2a560d49bE.exit.i, %bb30
  br i1 %eager_sort, label %bb16.i43, label %bb11.i42

bb1.i:                                            ; preds = %bb30
  %_4.i.i = icmp samesign ult i64 %new_len, 2
  br i1 %_4.i.i, label %bb5.i38, label %bb2.i.i

bb2.i.i:                                          ; preds = %bb1.i
  tail call void @llvm.experimental.noalias.scope.decl(metadata !752)
  tail call void @llvm.experimental.noalias.scope.decl(metadata !755)
  tail call void @llvm.experimental.noalias.scope.decl(metadata !757), !noalias !760
  tail call void @llvm.experimental.noalias.scope.decl(metadata !763), !noalias !760
  tail call void @llvm.experimental.noalias.scope.decl(metadata !765), !noalias !760
  tail call void @llvm.experimental.noalias.scope.decl(metadata !768), !noalias !760
  %2 = getelementptr inbounds nuw i8, ptr %_82, i64 32
  %_7.i.i.i66 = load ptr, ptr %2, align 8, !alias.scope !770, !noalias !771, !nonnull !6, !noundef !6
  %3 = getelementptr inbounds nuw i8, ptr %_82, i64 40
  %len1.i.i.i67 = load i64, ptr %3, align 8, !alias.scope !770, !noalias !771, !noundef !6
  %4 = getelementptr inbounds nuw i8, ptr %_82, i64 8
  %_14.i.i.i68 = load ptr, ptr %4, align 8, !alias.scope !772, !noalias !773, !nonnull !6, !noundef !6
  %5 = getelementptr inbounds nuw i8, ptr %_82, i64 16
  %6 = load i64, ptr %5, align 8, !alias.scope !772, !noalias !773, !noundef !6
  %spec.store.select.i.i.i.i69 = tail call i64 @llvm.umin.i64(i64 range(i64 0, -9223372036854775808) %len1.i.i.i67, i64 range(i64 0, -9223372036854775808) %6)
  %7 = tail call i32 @memcmp(ptr nonnull readonly align 1 %_7.i.i.i66, ptr nonnull readonly align 1 %_14.i.i.i68, i64 %spec.store.select.i.i.i.i69), !alias.scope !774, !noalias !778
  %8 = sext i32 %7 to i64
  %_15.i.i.i.i70 = icmp eq i32 %7, 0
  %diff.i.i.i.i71 = sub nsw i64 %len1.i.i.i67, %6
  %spec.select.i.i.i.i72 = select i1 %_15.i.i.i.i70, i64 %diff.i.i.i.i71, i64 %8
  %_0.i73 = icmp slt i64 %spec.select.i.i.i.i72, 0
  %_10.i.i88.not = icmp eq i64 %new_len, 2
  br i1 %_0.i73, label %bb4.i.i.preheader, label %bb11.i.i.preheader

bb11.i.i.preheader:                               ; preds = %bb2.i.i
  br i1 %_10.i.i88.not, label %_ZN4core5slice4sort6shared17find_existing_run17h082bf3a2a560d49bE.exit.i.thread, label %bb12.i.i

bb4.i.i.preheader:                                ; preds = %bb2.i.i
  br i1 %_10.i.i88.not, label %_ZN4core5slice4sort6shared17find_existing_run17h082bf3a2a560d49bE.exit.i.thread114, label %bb5.i.i

bb12.i.i:                                         ; preds = %bb11.i.i.preheader, %bb15.i.i
  %9 = phi i64 [ %len1.i.i.i59, %bb15.i.i ], [ %len1.i.i.i67, %bb11.i.i.preheader ]
  %_14.i.i.i60 = phi ptr [ %_7.i.i.i58, %bb15.i.i ], [ %_7.i.i.i66, %bb11.i.i.preheader ]
  %run_len.sroa.0.0.i.i86 = phi i64 [ %15, %bb15.i.i ], [ 2, %bb11.i.i.preheader ]
  %10 = getelementptr inbounds nuw %"alloc::string::String", ptr %_82, i64 %run_len.sroa.0.0.i.i86
  tail call void @llvm.experimental.noalias.scope.decl(metadata !779)
  tail call void @llvm.experimental.noalias.scope.decl(metadata !782), !noalias !760
  tail call void @llvm.experimental.noalias.scope.decl(metadata !785), !noalias !760
  %11 = getelementptr inbounds nuw i8, ptr %10, i64 8
  %_7.i.i.i58 = load ptr, ptr %11, align 8, !alias.scope !788, !noalias !789, !nonnull !6, !noundef !6
  %12 = getelementptr inbounds nuw i8, ptr %10, i64 16
  %len1.i.i.i59 = load i64, ptr %12, align 8, !alias.scope !788, !noalias !789, !noundef !6
  %spec.store.select.i.i.i.i61 = tail call i64 @llvm.umin.i64(i64 range(i64 0, -9223372036854775808) %len1.i.i.i59, i64 range(i64 0, -9223372036854775808) %9)
  %13 = tail call i32 @memcmp(ptr nonnull readonly align 1 %_7.i.i.i58, ptr nonnull readonly align 1 %_14.i.i.i60, i64 %spec.store.select.i.i.i.i61), !alias.scope !793, !noalias !797
  %14 = sext i32 %13 to i64
  %_15.i.i.i.i62 = icmp eq i32 %13, 0
  %diff.i.i.i.i63 = sub nsw i64 %len1.i.i.i59, %9
  %spec.select.i.i.i.i64 = select i1 %_15.i.i.i.i62, i64 %diff.i.i.i.i63, i64 %14
  %_0.i65 = icmp slt i64 %spec.select.i.i.i.i64, 0
  br i1 %_0.i65, label %_ZN4core5slice4sort6shared17find_existing_run17h082bf3a2a560d49bE.exit.i, label %bb15.i.i

bb15.i.i:                                         ; preds = %bb12.i.i
  %15 = add nuw i64 %run_len.sroa.0.0.i.i86, 1
  %exitcond.not = icmp eq i64 %15, %new_len
  br i1 %exitcond.not, label %_ZN4core5slice4sort6shared17find_existing_run17h082bf3a2a560d49bE.exit.i, label %bb12.i.i

bb5.i.i:                                          ; preds = %bb4.i.i.preheader, %bb7.i.i
  %16 = phi i64 [ %len1.i.i.i, %bb7.i.i ], [ %len1.i.i.i67, %bb4.i.i.preheader ]
  %_14.i.i.i = phi ptr [ %_7.i.i.i, %bb7.i.i ], [ %_7.i.i.i66, %bb4.i.i.preheader ]
  %run_len.sroa.0.1.i.i89 = phi i64 [ %22, %bb7.i.i ], [ 2, %bb4.i.i.preheader ]
  %17 = getelementptr inbounds nuw %"alloc::string::String", ptr %_82, i64 %run_len.sroa.0.1.i.i89
  tail call void @llvm.experimental.noalias.scope.decl(metadata !798)
  tail call void @llvm.experimental.noalias.scope.decl(metadata !801), !noalias !760
  tail call void @llvm.experimental.noalias.scope.decl(metadata !804), !noalias !760
  %18 = getelementptr inbounds nuw i8, ptr %17, i64 8
  %_7.i.i.i = load ptr, ptr %18, align 8, !alias.scope !807, !noalias !808, !nonnull !6, !noundef !6
  %19 = getelementptr inbounds nuw i8, ptr %17, i64 16
  %len1.i.i.i = load i64, ptr %19, align 8, !alias.scope !807, !noalias !808, !noundef !6
  %spec.store.select.i.i.i.i = tail call i64 @llvm.umin.i64(i64 range(i64 0, -9223372036854775808) %len1.i.i.i, i64 range(i64 0, -9223372036854775808) %16)
  %20 = tail call i32 @memcmp(ptr nonnull readonly align 1 %_7.i.i.i, ptr nonnull readonly align 1 %_14.i.i.i, i64 %spec.store.select.i.i.i.i), !alias.scope !812, !noalias !816
  %21 = sext i32 %20 to i64
  %_15.i.i.i.i = icmp eq i32 %20, 0
  %diff.i.i.i.i = sub nsw i64 %len1.i.i.i, %16
  %spec.select.i.i.i.i = select i1 %_15.i.i.i.i, i64 %diff.i.i.i.i, i64 %21
  %_0.i = icmp slt i64 %spec.select.i.i.i.i, 0
  br i1 %_0.i, label %bb7.i.i, label %_ZN4core5slice4sort6shared17find_existing_run17h082bf3a2a560d49bE.exit.i

bb7.i.i:                                          ; preds = %bb5.i.i
  %22 = add nuw i64 %run_len.sroa.0.1.i.i89, 1
  %exitcond102.not = icmp eq i64 %22, %new_len
  br i1 %exitcond102.not, label %_ZN4core5slice4sort6shared17find_existing_run17h082bf3a2a560d49bE.exit.i, label %bb5.i.i

_ZN4core5slice4sort6shared17find_existing_run17h082bf3a2a560d49bE.exit.i: ; preds = %bb15.i.i, %bb12.i.i, %bb7.i.i, %bb5.i.i
  %_0.sroa.0.0.i.i = phi i64 [ %new_len, %bb7.i.i ], [ %run_len.sroa.0.1.i.i89, %bb5.i.i ], [ %new_len, %bb15.i.i ], [ %run_len.sroa.0.0.i.i86, %bb12.i.i ]
  %_12.i = icmp samesign ule i64 %_0.sroa.0.0.i.i, %new_len
  tail call void @llvm.assume(i1 %_12.i)
  %_13.not.i = icmp ult i64 %_0.sroa.0.0.i.i, %min_good_run_len.sroa.0.0
  br i1 %_13.not.i, label %bb7.i41, label %bb3.i37

_ZN4core5slice4sort6shared17find_existing_run17h082bf3a2a560d49bE.exit.i.thread114: ; preds = %bb4.i.i.preheader
  br i1 %_13.not.i117, label %bb7.i41, label %bb5.preheader.i.i

_ZN4core5slice4sort6shared17find_existing_run17h082bf3a2a560d49bE.exit.i.thread: ; preds = %bb11.i.i.preheader
  br i1 %_13.not.i111, label %bb7.i41, label %bb5.i38

bb3.i37:                                          ; preds = %_ZN4core5slice4sort6shared17find_existing_run17h082bf3a2a560d49bE.exit.i
  br i1 %_0.i73, label %bb14.i, label %bb5.i38

bb11.i42:                                         ; preds = %bb7.i41
  %_0.sroa.0.0.i57 = tail call noundef i64 @llvm.umin.i64(i64 range(i64 0, 384307168202282326) %new_len, i64 %min_good_run_len.sroa.0.0)
  %_36.i = shl nuw nsw i64 %_0.sroa.0.0.i57, 1
  br label %_ZN4core5slice4sort6stable5drift10create_run17h144e354a571d8fbeE.exit

bb16.i43:                                         ; preds = %bb7.i41
  %_0.sroa.0.0.i56 = tail call noundef i64 @llvm.umin.i64(i64 range(i64 0, 384307168202282326) %new_len, i64 32)
; call core::slice::sort::stable::quicksort::quicksort
  tail call void @_ZN4core5slice4sort6stable9quicksort9quicksort17h6aa3617edc74af8eE(ptr noalias noundef nonnull align 8 %_82, i64 noundef %_0.sroa.0.0.i56, ptr noalias noundef nonnull align 8 %scratch.0, i64 noundef range(i64 0, 384307168202282326) %scratch.1, i32 noundef 0, ptr noalias noundef readonly align 8 captures(address, read_provenance) dereferenceable_or_null(24) null, ptr noalias noundef nonnull align 8 dereferenceable(8) %is_less) #29
  %_35.i = shl nuw nsw i64 %_0.sroa.0.0.i56, 1
  %_34.i = or disjoint i64 %_35.i, 1
  br label %_ZN4core5slice4sort6stable5drift10create_run17h144e354a571d8fbeE.exit

bb5.i38:                                          ; preds = %bb6.i.i, %_ZN4core5slice4sort6shared17find_existing_run17h082bf3a2a560d49bE.exit.i.thread, %bb1.i, %bb14.i, %bb3.i37
  %_0.sroa.0.0.i.i7982 = phi i64 [ %_0.sroa.0.0.i.i, %bb3.i37 ], [ 1, %bb14.i ], [ %new_len, %bb1.i ], [ 2, %_ZN4core5slice4sort6shared17find_existing_run17h082bf3a2a560d49bE.exit.i.thread ], [ %_0.sroa.0.0.i.i112120124, %bb6.i.i ]
  %_27.i = shl nuw nsw i64 %_0.sroa.0.0.i.i7982, 1
  %_26.i = or disjoint i64 %_27.i, 1
  br label %_ZN4core5slice4sort6stable5drift10create_run17h144e354a571d8fbeE.exit

bb14.i:                                           ; preds = %bb3.i37
  %half_len2.i = lshr i64 %_0.sroa.0.0.i.i, 1
  tail call void @llvm.experimental.noalias.scope.decl(metadata !817), !noalias !820
  tail call void @llvm.experimental.noalias.scope.decl(metadata !822), !noalias !820
  %_915.not.i.i = icmp samesign ult i64 %_0.sroa.0.0.i.i, 2
  br i1 %_915.not.i.i, label %bb5.i38, label %bb5.preheader.i.i

bb5.preheader.i.i:                                ; preds = %_ZN4core5slice4sort6shared17find_existing_run17h082bf3a2a560d49bE.exit.i.thread114, %bb14.i
  %half_len2.i125 = phi i64 [ %half_len2.i, %bb14.i ], [ 1, %_ZN4core5slice4sort6shared17find_existing_run17h082bf3a2a560d49bE.exit.i.thread114 ]
  %_0.sroa.0.0.i.i112120124 = phi i64 [ %_0.sroa.0.0.i.i, %bb14.i ], [ 2, %_ZN4core5slice4sort6shared17find_existing_run17h082bf3a2a560d49bE.exit.i.thread114 ]
  %end.i = getelementptr inbounds nuw %"alloc::string::String", ptr %_82, i64 %_0.sroa.0.0.i.i112120124
  br label %bb6.i.i

bb6.i.i:                                          ; preds = %bb6.i.i, %bb5.preheader.i.i
  %i.sroa.0.016.i.i = phi i64 [ %24, %bb6.i.i ], [ 0, %bb5.preheader.i.i ]
  %23 = xor i64 %i.sroa.0.016.i.i, -1
  %x.i.i = getelementptr inbounds nuw %"alloc::string::String", ptr %_82, i64 %i.sroa.0.016.i.i
  %y.i.i = getelementptr %"alloc::string::String", ptr %end.i, i64 %23
  tail call void @llvm.experimental.noalias.scope.decl(metadata !824), !noalias !820
  tail call void @llvm.experimental.noalias.scope.decl(metadata !827), !noalias !820
  %_3.sroa.0.0.copyload.i.i.i.i.i.i.i = load i64, ptr %x.i.i, align 8, !alias.scope !829, !noalias !832
  %_4.sroa.0.0.copyload.i.i.i.i.i.i.i = load i64, ptr %y.i.i, align 8, !alias.scope !833, !noalias !834
  store i64 %_4.sroa.0.0.copyload.i.i.i.i.i.i.i, ptr %x.i.i, align 8, !alias.scope !829, !noalias !832
  store i64 %_3.sroa.0.0.copyload.i.i.i.i.i.i.i, ptr %y.i.i, align 8, !alias.scope !833, !noalias !834
  %_11.1.i.i.i.i.i.i = getelementptr inbounds nuw i8, ptr %x.i.i, i64 8
  %_13.1.i.i.i.i.i.i = getelementptr inbounds nuw i8, ptr %y.i.i, i64 8
  tail call void @llvm.experimental.noalias.scope.decl(metadata !835), !noalias !820
  tail call void @llvm.experimental.noalias.scope.decl(metadata !837), !noalias !820
  %_3.sroa.0.0.copyload.i.1.i.i.i.i.i.i = load i64, ptr %_11.1.i.i.i.i.i.i, align 8, !alias.scope !839, !noalias !840
  %_4.sroa.0.0.copyload.i.1.i.i.i.i.i.i = load i64, ptr %_13.1.i.i.i.i.i.i, align 8, !alias.scope !841, !noalias !842
  store i64 %_4.sroa.0.0.copyload.i.1.i.i.i.i.i.i, ptr %_11.1.i.i.i.i.i.i, align 8, !alias.scope !839, !noalias !840
  store i64 %_3.sroa.0.0.copyload.i.1.i.i.i.i.i.i, ptr %_13.1.i.i.i.i.i.i, align 8, !alias.scope !841, !noalias !842
  %_11.2.i.i.i.i.i.i = getelementptr inbounds nuw i8, ptr %x.i.i, i64 16
  %_13.2.i.i.i.i.i.i = getelementptr inbounds nuw i8, ptr %y.i.i, i64 16
  tail call void @llvm.experimental.noalias.scope.decl(metadata !843), !noalias !820
  tail call void @llvm.experimental.noalias.scope.decl(metadata !845), !noalias !820
  %_3.sroa.0.0.copyload.i.2.i.i.i.i.i.i = load i64, ptr %_11.2.i.i.i.i.i.i, align 8, !alias.scope !847, !noalias !848
  %_4.sroa.0.0.copyload.i.2.i.i.i.i.i.i = load i64, ptr %_13.2.i.i.i.i.i.i, align 8, !alias.scope !849, !noalias !850
  store i64 %_4.sroa.0.0.copyload.i.2.i.i.i.i.i.i, ptr %_11.2.i.i.i.i.i.i, align 8, !alias.scope !847, !noalias !848
  store i64 %_3.sroa.0.0.copyload.i.2.i.i.i.i.i.i, ptr %_13.2.i.i.i.i.i.i, align 8, !alias.scope !849, !noalias !850
  %24 = add nuw nsw i64 %i.sroa.0.016.i.i, 1
  %exitcond.not.i.i = icmp eq i64 %24, %half_len2.i125
  br i1 %exitcond.not.i.i, label %bb5.i38, label %bb6.i.i

_ZN4core5slice4sort6stable5drift10create_run17h144e354a571d8fbeE.exit: ; preds = %bb11.i42, %bb16.i43, %bb5.i38
  %_0.sroa.0.0.i40 = phi i64 [ %_26.i, %bb5.i38 ], [ %_34.i, %bb16.i43 ], [ %_36.i, %bb11.i42 ]
  %_31 = lshr i64 %prev_run.sroa.0.0, 1
  %_35 = lshr i64 %_0.sroa.0.0.i40, 1
  %factor = shl i64 %scan_idx.sroa.0.0, 1
  %x = sub i64 %factor, %_31
  %y = add i64 %_35, %factor
  %_90 = mul i64 %x, %scale_factor.sroa.0.0
  %_91 = mul i64 %y, %scale_factor.sroa.0.0
  %self4 = xor i64 %_91, %_90
  %25 = tail call range(i64 0, 65) i64 @llvm.ctlz.i64(i64 %self4, i1 false)
  %26 = trunc nuw nsw i64 %25 to i8
  br label %bb10

bb12:                                             ; preds = %bb12.lr.ph, %_ZN4core5slice4sort6stable5drift13logical_merge17h23bed48e6891bee4E.exit
  %stack_len.sroa.0.194 = phi i64 [ %stack_len.sroa.0.0, %bb12.lr.ph ], [ %count, %_ZN4core5slice4sort6stable5drift13logical_merge17h23bed48e6891bee4E.exit ]
  %prev_run.sroa.0.193 = phi i64 [ %prev_run.sroa.0.0, %bb12.lr.ph ], [ %_0.sroa.0.0.i, %_ZN4core5slice4sort6stable5drift13logical_merge17h23bed48e6891bee4E.exit ]
  %count = add i64 %stack_len.sroa.0.194, -1
  %_41 = getelementptr inbounds nuw i8, ptr %desired_depth_storage, i64 %count
  %_40 = load i8, ptr %_41, align 1, !noundef !6
  %_39.not = icmp ult i8 %_40, %desired_depth.sroa.0.0
  br i1 %_39.not, label %bb17, label %bb13

bb17:                                             ; preds = %_ZN4core5slice4sort6stable5drift13logical_merge17h23bed48e6891bee4E.exit, %bb12, %bb10
  %prev_run.sroa.0.1.lcssa = phi i64 [ %prev_run.sroa.0.0, %bb10 ], [ %prev_run.sroa.0.193, %bb12 ], [ %_0.sroa.0.0.i, %_ZN4core5slice4sort6stable5drift13logical_merge17h23bed48e6891bee4E.exit ]
  %stack_len.sroa.0.1.lcssa = phi i64 [ %stack_len.sroa.0.0, %bb10 ], [ %stack_len.sroa.0.194, %bb12 ], [ 1, %_ZN4core5slice4sort6stable5drift13logical_merge17h23bed48e6891bee4E.exit ]
  %_59 = getelementptr inbounds nuw i64, ptr %run_storage, i64 %stack_len.sroa.0.1.lcssa
  store i64 %prev_run.sroa.0.1.lcssa, ptr %_59, align 8
  %_61 = getelementptr inbounds nuw i8, ptr %desired_depth_storage, i64 %stack_len.sroa.0.1.lcssa
  store i8 %desired_depth.sroa.0.0, ptr %_61, align 1
  br i1 %_22, label %bb19, label %bb18

bb13:                                             ; preds = %bb12
  %_46 = getelementptr inbounds nuw i64, ptr %run_storage, i64 %count
  %left10 = load i64, ptr %_46, align 8, !noundef !6
  %_50 = lshr i64 %left10, 1
  %_51 = lshr i64 %prev_run.sroa.0.193, 1
  %merged_len = add nuw i64 %_50, %_51
  %merge_start_idx = sub i64 %scan_idx.sroa.0.0, %merged_len
  %_98 = getelementptr inbounds nuw %"alloc::string::String", ptr %v.0, i64 %merge_start_idx
  %can_fit_in_scratch.i = icmp samesign ugt i64 %merged_len, %scratch.1
  %_22.i = and i64 %prev_run.sroa.0.193, 1
  %_10.not.i = icmp eq i64 %_22.i, 0
  %27 = or i64 %left10, %prev_run.sroa.0.193
  %28 = and i64 %27, 1
  %29 = icmp ne i64 %28, 0
  %or.cond2.i = or i1 %can_fit_in_scratch.i, %29
  br i1 %or.cond2.i, label %bb3.i, label %bb9.i

bb3.i:                                            ; preds = %bb13
  %_21.i = and i64 %left10, 1
  %_9.not.i = icmp eq i64 %_21.i, 0
  br i1 %_9.not.i, label %bb11.i, label %bb5.i

bb9.i:                                            ; preds = %bb13
  %_40.i = shl nuw nsw i64 %merged_len, 1
  br label %_ZN4core5slice4sort6stable5drift13logical_merge17h23bed48e6891bee4E.exit

bb5.i:                                            ; preds = %bb11.i, %bb3.i
  br i1 %_10.not.i, label %bb16.i, label %bb7.i

bb11.i:                                           ; preds = %bb3.i
  %self.i = or i64 %_50, 1
  %30 = tail call range(i64 5, 64) i64 @llvm.ctlz.i64(i64 %self.i, i1 true)
  %31 = trunc nuw nsw i64 %30 to i32
  %log.i = shl nuw nsw i32 %31, 1
  %limit.i = xor i32 %log.i, 126
; call core::slice::sort::stable::quicksort::quicksort
  tail call void @_ZN4core5slice4sort6stable9quicksort9quicksort17h6aa3617edc74af8eE(ptr noalias noundef nonnull align 8 %_98, i64 noundef range(i64 0, 384307168202282326) %_50, ptr noalias noundef nonnull align 8 %scratch.0, i64 noundef range(i64 0, 384307168202282326) %scratch.1, i32 noundef %limit.i, ptr noalias noundef readonly align 8 captures(address, read_provenance) dereferenceable_or_null(24) null, ptr noalias noundef nonnull align 8 dereferenceable(8) %is_less) #29
  br label %bb5.i

bb7.i:                                            ; preds = %bb16.i, %bb5.i
  tail call void @llvm.experimental.noalias.scope.decl(metadata !851)
  tail call void @llvm.experimental.noalias.scope.decl(metadata !854)
  %_6.i = icmp ult i64 %left10, 2
  %_7.i = icmp ult i64 %prev_run.sroa.0.193, 2
  %or.cond.i = select i1 %_6.i, i1 true, i1 %_7.i
  br i1 %or.cond.i, label %_ZN4core5slice4sort6stable5merge5merge17hc9e947f542eaded7E.exit, label %bb2.i

bb2.i:                                            ; preds = %bb7.i
  %_0.sroa.0.0.i.i44 = tail call i64 @llvm.umin.i64(i64 %_51, i64 range(i64 0, -9223372036854775808) %_50)
  %_8.i = icmp samesign ult i64 %scratch.1, %_0.sroa.0.0.i.i44
  br i1 %_8.i, label %_ZN4core5slice4sort6stable5merge5merge17hc9e947f542eaded7E.exit, label %bb5.i45

bb5.i45:                                          ; preds = %bb2.i
  %v_mid.i = getelementptr inbounds nuw %"alloc::string::String", ptr %_98, i64 %_50
  %left_is_shorter.not.i = icmp samesign ugt i64 %_50, %_51
  %spec.select.i = select i1 %left_is_shorter.not.i, ptr %v_mid.i, ptr %_98
  %32 = mul nuw nsw i64 %_0.sroa.0.0.i.i44, 24
  tail call void @llvm.memcpy.p0.p0.i64(ptr nonnull align 8 %scratch.0, ptr nonnull align 8 %spec.select.i, i64 %32, i1 false), !alias.scope !856
  %_22.i46 = getelementptr inbounds nuw i8, ptr %scratch.0, i64 %32
  br i1 %left_is_shorter.not.i, label %bb1.i.i, label %bb3.i.i

bb1.i.i:                                          ; preds = %bb5.i45, %bb1.i.i
  %_219.i.i = phi ptr [ %_21.i.i49, %bb1.i.i ], [ %_22.i46, %bb5.i45 ]
  %_187.i.i = phi ptr [ %_18.i.i, %bb1.i.i ], [ %v_mid.i, %bb5.i45 ]
  %out.sroa.0.0.i.i = phi ptr [ %35, %bb1.i.i ], [ %v_end.i, %bb5.i45 ]
  %33 = getelementptr inbounds i8, ptr %_187.i.i, i64 -24
  %34 = getelementptr inbounds i8, ptr %_219.i.i, i64 -24
  %35 = getelementptr inbounds i8, ptr %out.sroa.0.0.i.i, i64 -24
  tail call void @llvm.experimental.noalias.scope.decl(metadata !857)
  tail call void @llvm.experimental.noalias.scope.decl(metadata !860)
  tail call void @llvm.experimental.noalias.scope.decl(metadata !862)
  tail call void @llvm.experimental.noalias.scope.decl(metadata !865)
  tail call void @llvm.experimental.noalias.scope.decl(metadata !867)
  tail call void @llvm.experimental.noalias.scope.decl(metadata !870)
  %36 = getelementptr inbounds i8, ptr %_219.i.i, i64 -16
  %_7.i.i.i.i.i = load ptr, ptr %36, align 8, !alias.scope !872, !noalias !873, !nonnull !6, !noundef !6
  %37 = getelementptr inbounds i8, ptr %_219.i.i, i64 -8
  %len1.i.i.i.i.i = load i64, ptr %37, align 8, !alias.scope !872, !noalias !873, !noundef !6
  %38 = getelementptr inbounds i8, ptr %_187.i.i, i64 -16
  %_14.i.i.i.i.i = load ptr, ptr %38, align 8, !alias.scope !876, !noalias !877, !nonnull !6, !noundef !6
  %39 = getelementptr inbounds i8, ptr %_187.i.i, i64 -8
  %40 = load i64, ptr %39, align 8, !alias.scope !876, !noalias !877, !noundef !6
  %spec.store.select.i.i.i.i.i.i = tail call i64 @llvm.umin.i64(i64 range(i64 0, -9223372036854775808) %len1.i.i.i.i.i, i64 range(i64 0, -9223372036854775808) %40)
  %41 = tail call i32 @memcmp(ptr nonnull readonly align 1 %_7.i.i.i.i.i, ptr nonnull readonly align 1 %_14.i.i.i.i.i, i64 %spec.store.select.i.i.i.i.i.i), !alias.scope !878, !noalias !882
  %42 = sext i32 %41 to i64
  %_15.i.i.i.i.i.i = icmp eq i32 %41, 0
  %diff.i.i.i.i.i.i = sub nsw i64 %len1.i.i.i.i.i, %40
  %spec.select.i.i.i.i.i.i = select i1 %_15.i.i.i.i.i.i, i64 %diff.i.i.i.i.i.i, i64 %42
  %_0.i.i.i = icmp sgt i64 %spec.select.i.i.i.i.i.i, -1
  %..i.i = select i1 %_0.i.i.i, ptr %34, ptr %33
  tail call void @llvm.memcpy.p0.p0.i64(ptr noundef nonnull align 8 dereferenceable(24) %35, ptr noundef nonnull align 8 dereferenceable(24) %..i.i, i64 24, i1 false), !alias.scope !856, !noalias !883
  %count.i.i = zext i1 %_0.i.i.i to i64
  %_18.i.i = getelementptr inbounds nuw %"alloc::string::String", ptr %33, i64 %count.i.i
  %spec.select.i.i.i.i.lobit.i.i = lshr i64 %spec.select.i.i.i.i.i.i, 63
  %_21.i.i49 = getelementptr inbounds nuw %"alloc::string::String", ptr %34, i64 %spec.select.i.i.i.i.lobit.i.i
  %_23.i.i = icmp eq ptr %_18.i.i, %_98
  %_26.i.i = icmp eq ptr %_21.i.i49, %scratch.0
  %or.cond.i.i = select i1 %_23.i.i, i1 true, i1 %_26.i.i
  br i1 %or.cond.i.i, label %bb16.i48, label %bb1.i.i

bb3.i.i:                                          ; preds = %bb5.i45, %bb3.i.i
  %_2511.i.i = phi ptr [ %_25.i.i, %bb3.i.i ], [ %_98, %bb5.i45 ]
  %right.sroa.0.010.i.i = phi ptr [ %_23.i22.i, %bb3.i.i ], [ %v_mid.i, %bb5.i45 ]
  %_2059.i.i = phi ptr [ %_20.i.i, %bb3.i.i ], [ %scratch.0, %bb5.i45 ]
  tail call void @llvm.experimental.noalias.scope.decl(metadata !884)
  tail call void @llvm.experimental.noalias.scope.decl(metadata !887)
  tail call void @llvm.experimental.noalias.scope.decl(metadata !889)
  tail call void @llvm.experimental.noalias.scope.decl(metadata !892)
  tail call void @llvm.experimental.noalias.scope.decl(metadata !894)
  tail call void @llvm.experimental.noalias.scope.decl(metadata !897)
  %43 = getelementptr inbounds nuw i8, ptr %right.sroa.0.010.i.i, i64 8
  %_7.i.i.i.i12.i = load ptr, ptr %43, align 8, !alias.scope !899, !noalias !900, !nonnull !6, !noundef !6
  %44 = getelementptr inbounds nuw i8, ptr %right.sroa.0.010.i.i, i64 16
  %len1.i.i.i.i13.i = load i64, ptr %44, align 8, !alias.scope !899, !noalias !900, !noundef !6
  %45 = getelementptr inbounds nuw i8, ptr %_2059.i.i, i64 8
  %_14.i.i.i.i14.i = load ptr, ptr %45, align 8, !alias.scope !903, !noalias !904, !nonnull !6, !noundef !6
  %46 = getelementptr inbounds nuw i8, ptr %_2059.i.i, i64 16
  %47 = load i64, ptr %46, align 8, !alias.scope !903, !noalias !904, !noundef !6
  %spec.store.select.i.i.i.i.i15.i = tail call i64 @llvm.umin.i64(i64 range(i64 0, -9223372036854775808) %len1.i.i.i.i13.i, i64 range(i64 0, -9223372036854775808) %47)
  %48 = tail call i32 @memcmp(ptr nonnull readonly align 1 %_7.i.i.i.i12.i, ptr nonnull readonly align 1 %_14.i.i.i.i14.i, i64 %spec.store.select.i.i.i.i.i15.i), !alias.scope !905, !noalias !909
  %49 = sext i32 %48 to i64
  %_15.i.i.i.i.i16.i = icmp eq i32 %48, 0
  %diff.i.i.i.i.i17.i = sub nsw i64 %len1.i.i.i.i13.i, %47
  %spec.select.i.i.i.i.i18.i = select i1 %_15.i.i.i.i.i16.i, i64 %diff.i.i.i.i.i17.i, i64 %49
  %_0.i.i19.i = icmp sgt i64 %spec.select.i.i.i.i.i18.i, -1
  %src.sroa.0.0.i.i = select i1 %_0.i.i19.i, ptr %_2059.i.i, ptr %right.sroa.0.010.i.i
  tail call void @llvm.memcpy.p0.p0.i64(ptr noundef nonnull align 8 dereferenceable(24) %_2511.i.i, ptr noundef nonnull align 8 dereferenceable(24) %src.sroa.0.0.i.i, i64 24, i1 false), !alias.scope !856, !noalias !910
  %count.i20.i = zext i1 %_0.i.i19.i to i64
  %_20.i.i = getelementptr inbounds nuw %"alloc::string::String", ptr %_2059.i.i, i64 %count.i20.i
  %spec.select.i.i.i.i.lobit.i21.i = lshr i64 %spec.select.i.i.i.i.i18.i, 63
  %_23.i22.i = getelementptr inbounds nuw %"alloc::string::String", ptr %right.sroa.0.010.i.i, i64 %spec.select.i.i.i.i.lobit.i21.i
  %_25.i.i = getelementptr inbounds nuw i8, ptr %_2511.i.i, i64 24
  %_7.i.i = icmp ne ptr %_20.i.i, %_22.i46
  %_10.i.i47 = icmp ne ptr %_23.i22.i, %v_end.i
  %or.cond.i23.i = select i1 %_7.i.i, i1 %_10.i.i47, i1 false
  br i1 %or.cond.i23.i, label %bb3.i.i, label %bb16.i48

bb16.i48:                                         ; preds = %bb3.i.i, %bb1.i.i
  %merge_state.sroa.13.0.i = phi ptr [ %_18.i.i, %bb1.i.i ], [ %_25.i.i, %bb3.i.i ]
  %merge_state.sroa.7.0.i = phi ptr [ %_21.i.i49, %bb1.i.i ], [ %_22.i46, %bb3.i.i ]
  %merge_state.sroa.0.0.i = phi ptr [ %scratch.0, %bb1.i.i ], [ %_20.i.i, %bb3.i.i ]
  %50 = ptrtoint ptr %merge_state.sroa.7.0.i to i64
  %51 = ptrtoint ptr %merge_state.sroa.0.0.i to i64
  %52 = sub nuw i64 %50, %51
  tail call void @llvm.memcpy.p0.p0.i64(ptr nonnull align 8 %merge_state.sroa.13.0.i, ptr align 8 %merge_state.sroa.0.0.i, i64 %52, i1 false), !alias.scope !856, !noalias !911
  br label %_ZN4core5slice4sort6stable5merge5merge17hc9e947f542eaded7E.exit

_ZN4core5slice4sort6stable5merge5merge17hc9e947f542eaded7E.exit: ; preds = %bb7.i, %bb2.i, %bb16.i48
  %_39.i = shl nuw nsw i64 %merged_len, 1
  %_38.i = or disjoint i64 %_39.i, 1
  br label %_ZN4core5slice4sort6stable5drift13logical_merge17h23bed48e6891bee4E.exit

bb16.i:                                           ; preds = %bb5.i
  %_37.i = getelementptr inbounds nuw %"alloc::string::String", ptr %_98, i64 %_50
  %self.i50 = or i64 %_51, 1
  %53 = tail call range(i64 5, 64) i64 @llvm.ctlz.i64(i64 %self.i50, i1 true)
  %54 = trunc nuw nsw i64 %53 to i32
  %log.i51 = shl nuw nsw i32 %54, 1
  %limit.i52 = xor i32 %log.i51, 126
; call core::slice::sort::stable::quicksort::quicksort
  tail call void @_ZN4core5slice4sort6stable9quicksort9quicksort17h6aa3617edc74af8eE(ptr noalias noundef nonnull align 8 %_37.i, i64 noundef range(i64 0, 384307168202282326) %_51, ptr noalias noundef nonnull align 8 %scratch.0, i64 noundef range(i64 0, 384307168202282326) %scratch.1, i32 noundef %limit.i52, ptr noalias noundef readonly align 8 captures(address, read_provenance) dereferenceable_or_null(24) null, ptr noalias noundef nonnull align 8 dereferenceable(8) %is_less) #29
  br label %bb7.i

_ZN4core5slice4sort6stable5drift13logical_merge17h23bed48e6891bee4E.exit: ; preds = %bb9.i, %_ZN4core5slice4sort6stable5merge5merge17hc9e947f542eaded7E.exit
  %_0.sroa.0.0.i = phi i64 [ %_38.i, %_ZN4core5slice4sort6stable5merge5merge17hc9e947f542eaded7E.exit ], [ %_40.i, %bb9.i ]
  %_37 = icmp ugt i64 %count, 1
  br i1 %_37, label %bb12, label %bb17

bb19:                                             ; preds = %bb17
  %55 = add i64 %stack_len.sroa.0.1.lcssa, 1
  %_65 = lshr i64 %next_run.sroa.0.0, 1
  %56 = add nuw i64 %_65, %scan_idx.sroa.0.0
  br label %bb6

bb18:                                             ; preds = %bb17
  %_99 = and i64 %prev_run.sroa.0.1.lcssa, 1
  %_66.not = icmp eq i64 %_99, 0
  br i1 %_66.not, label %bb20, label %bb21

bb20:                                             ; preds = %bb18
  %self.i53 = or i64 %v.1, 1
  %57 = tail call range(i64 5, 64) i64 @llvm.ctlz.i64(i64 %self.i53, i1 true)
  %58 = trunc nuw nsw i64 %57 to i32
  %log.i54 = shl nuw nsw i32 %58, 1
  %limit.i55 = xor i32 %log.i54, 126
; call core::slice::sort::stable::quicksort::quicksort
  tail call void @_ZN4core5slice4sort6stable9quicksort9quicksort17h6aa3617edc74af8eE(ptr noalias noundef nonnull align 8 %v.0, i64 noundef range(i64 0, 384307168202282326) %v.1, ptr noalias noundef nonnull align 8 %scratch.0, i64 noundef range(i64 0, 384307168202282326) %scratch.1, i32 noundef %limit.i55, ptr noalias noundef readonly align 8 captures(address, read_provenance) dereferenceable_or_null(24) null, ptr noalias noundef nonnull align 8 dereferenceable(8) %is_less) #29
  br label %bb21

bb21:                                             ; preds = %bb20, %bb18
  call void @llvm.lifetime.end.p0(i64 66, ptr nonnull %desired_depth_storage)
  call void @llvm.lifetime.end.p0(i64 528, ptr nonnull %run_storage)
  br label %bb22

bb22:                                             ; preds = %start, %bb21
  ret void
}

; core::slice::sort::stable::quicksort::quicksort
; Function Attrs: noinline nonlazybind uwtable
define void @_ZN4core5slice4sort6stable9quicksort9quicksort17h29f47d65ff463170E(ptr noalias noundef nonnull align 4 %0, i64 noundef range(i64 0, 2305843009213693952) %1, ptr noalias noundef nonnull align 4 %scratch.0, i64 noundef range(i64 0, 2305843009213693952) %scratch.1, i32 noundef %2, ptr noalias noundef readonly align 4 captures(address) dereferenceable_or_null(4) %3, ptr noalias noundef align 8 dereferenceable(8) %is_less) unnamed_addr #6 personality ptr @rust_eh_personality {
start:
  %pivot_copy = alloca [4 x i8], align 4
  %_8130136 = icmp samesign ult i64 %1, 33
  br i1 %_8130136, label %bb3, label %bb5.lr.ph

bb5.lr.ph:                                        ; preds = %start, %bb28
  %v.sroa.0.0.ph140 = phi ptr [ %_54, %bb28 ], [ %0, %start ]
  %v.sroa.16.0.ph139 = phi i64 [ %_63.i63, %bb28 ], [ %1, %start ]
  %limit.sroa.0.0.ph138 = phi i32 [ %48, %bb28 ], [ %2, %start ]
  %left_ancestor_pivot.sroa.0.0.ph137 = phi ptr [ null, %bb28 ], [ %3, %start ]
  %4 = ptrtoint ptr %v.sroa.0.0.ph140 to i64
  %.not = icmp eq ptr %left_ancestor_pivot.sroa.0.0.ph137, null
  br label %bb5

bb5:                                              ; preds = %bb5.lr.ph, %"_ZN4core5slice29_$LT$impl$u20$$u5b$T$u5d$$GT$12split_at_mut17h0ceeda8e75cd17abE.exit"
  %v.sroa.16.0132 = phi i64 [ %v.sroa.16.0.ph139, %bb5.lr.ph ], [ %state.sroa.27.2.lcssa.i, %"_ZN4core5slice29_$LT$impl$u20$$u5b$T$u5d$$GT$12split_at_mut17h0ceeda8e75cd17abE.exit" ]
  %limit.sroa.0.0131 = phi i32 [ %limit.sroa.0.0.ph138, %bb5.lr.ph ], [ %48, %"_ZN4core5slice29_$LT$impl$u20$$u5b$T$u5d$$GT$12split_at_mut17h0ceeda8e75cd17abE.exit" ]
  %_11 = icmp eq i32 %limit.sroa.0.0131, 0
  br i1 %_11, label %bb6, label %bb7

bb3:                                              ; preds = %bb28, %"_ZN4core5slice29_$LT$impl$u20$$u5b$T$u5d$$GT$12split_at_mut17h0ceeda8e75cd17abE.exit", %start
  %v.sroa.0.0.ph.lcssa129 = phi ptr [ %0, %start ], [ %v.sroa.0.0.ph140, %"_ZN4core5slice29_$LT$impl$u20$$u5b$T$u5d$$GT$12split_at_mut17h0ceeda8e75cd17abE.exit" ], [ %_54, %bb28 ]
  %v.sroa.16.0.lcssa = phi i64 [ %1, %start ], [ %state.sroa.27.2.lcssa.i, %"_ZN4core5slice29_$LT$impl$u20$$u5b$T$u5d$$GT$12split_at_mut17h0ceeda8e75cd17abE.exit" ], [ %_63.i63, %bb28 ]
  call void @llvm.experimental.noalias.scope.decl(metadata !916)
  call void @llvm.experimental.noalias.scope.decl(metadata !919)
  %_5.i = icmp samesign ult i64 %v.sroa.16.0.lcssa, 2
  br i1 %_5.i, label %bb22, label %bb2.i

bb2.i:                                            ; preds = %bb3
  %_8.i = add nuw nsw i64 %v.sroa.16.0.lcssa, 16
  %_6.i = icmp samesign ult i64 %scratch.1, %_8.i
  br i1 %_6.i, label %bb3.i, label %bb4.i

bb4.i:                                            ; preds = %bb2.i
  %len_div_211.i = lshr i64 %v.sroa.16.0.lcssa, 1
  %_14.i = icmp samesign ugt i64 %v.sroa.16.0.lcssa, 15
  br i1 %_14.i, label %bb6.i, label %bb9.i

bb3.i:                                            ; preds = %bb2.i
  call void @llvm.trap()
  unreachable

bb9.i:                                            ; preds = %bb4.i
  %_22.i = icmp samesign ugt i64 %v.sroa.16.0.lcssa, 7
  br i1 %_22.i, label %bb10.i, label %bb46.i

bb6.i:                                            ; preds = %bb4.i
  %_16.i = getelementptr inbounds nuw i32, ptr %scratch.0, i64 %v.sroa.16.0.lcssa
; call core::slice::sort::shared::smallsort::sort8_stable
  call fastcc void @_ZN4core5slice4sort6shared9smallsort12sort8_stable17h037ef7737253a409E(ptr noundef nonnull align 4 %v.sroa.0.0.ph.lcssa129, ptr noundef nonnull align 4 %scratch.0, ptr noundef %_16.i)
  %_18.i = getelementptr inbounds nuw i32, ptr %v.sroa.0.0.ph.lcssa129, i64 %len_div_211.i
  %_19.i = getelementptr inbounds nuw i32, ptr %scratch.0, i64 %len_div_211.i
  %_20.i = getelementptr inbounds nuw i8, ptr %_16.i, i64 32
; call core::slice::sort::shared::smallsort::sort8_stable
  call fastcc void @_ZN4core5slice4sort6shared9smallsort12sort8_stable17h037ef7737253a409E(ptr noundef %_18.i, ptr noundef %_19.i, ptr noundef %_20.i)
  br label %bb15.i

bb10.i:                                           ; preds = %bb9.i
  %_7.i.i = getelementptr inbounds nuw i8, ptr %v.sroa.0.0.ph.lcssa129, i64 4
  call void @llvm.experimental.noalias.scope.decl(metadata !921)
  call void @llvm.experimental.noalias.scope.decl(metadata !924)
  call void @llvm.experimental.noalias.scope.decl(metadata !926)
  call void @llvm.experimental.noalias.scope.decl(metadata !929)
  call void @llvm.experimental.noalias.scope.decl(metadata !931)
  call void @llvm.experimental.noalias.scope.decl(metadata !934)
  %_3.i.i.i.i.i = load i32, ptr %_7.i.i, align 4, !alias.scope !936, !noalias !937, !noundef !6
  %_4.i.i.i.i.i = load i32, ptr %v.sroa.0.0.ph.lcssa129, align 4, !alias.scope !939, !noalias !940, !noundef !6
  %_0.i.i.i = icmp slt i32 %_3.i.i.i.i.i, %_4.i.i.i.i.i
  %_12.i.i = getelementptr inbounds nuw i8, ptr %v.sroa.0.0.ph.lcssa129, i64 12
  %_14.i.i = getelementptr inbounds nuw i8, ptr %v.sroa.0.0.ph.lcssa129, i64 8
  call void @llvm.experimental.noalias.scope.decl(metadata !941)
  call void @llvm.experimental.noalias.scope.decl(metadata !944)
  call void @llvm.experimental.noalias.scope.decl(metadata !946)
  call void @llvm.experimental.noalias.scope.decl(metadata !949)
  call void @llvm.experimental.noalias.scope.decl(metadata !951)
  call void @llvm.experimental.noalias.scope.decl(metadata !954)
  %_3.i.i.i7.i.i = load i32, ptr %_12.i.i, align 4, !alias.scope !956, !noalias !957, !noundef !6
  %_4.i.i.i8.i.i = load i32, ptr %_14.i.i, align 4, !alias.scope !958, !noalias !959, !noundef !6
  %_0.i9.i.i = icmp slt i32 %_3.i.i.i7.i.i, %_4.i.i.i8.i.i
  %count.i.i = zext i1 %_0.i.i.i to i64
  %a.i.i = getelementptr inbounds nuw i32, ptr %v.sroa.0.0.ph.lcssa129, i64 %count.i.i
  %_19.i.i = xor i1 %_0.i.i.i, true
  %count2.i.i = zext i1 %_19.i.i to i64
  %b.i.i = getelementptr inbounds nuw i32, ptr %v.sroa.0.0.ph.lcssa129, i64 %count2.i.i
  %count3.i.i = select i1 %_0.i9.i.i, i64 3, i64 2
  %c.i.i = getelementptr inbounds nuw i32, ptr %v.sroa.0.0.ph.lcssa129, i64 %count3.i.i
  %count4.i.i = select i1 %_0.i9.i.i, i64 2, i64 3
  %d.i.i = getelementptr inbounds nuw i32, ptr %v.sroa.0.0.ph.lcssa129, i64 %count4.i.i
  call void @llvm.experimental.noalias.scope.decl(metadata !960)
  call void @llvm.experimental.noalias.scope.decl(metadata !963)
  call void @llvm.experimental.noalias.scope.decl(metadata !965)
  call void @llvm.experimental.noalias.scope.decl(metadata !968)
  call void @llvm.experimental.noalias.scope.decl(metadata !970)
  call void @llvm.experimental.noalias.scope.decl(metadata !973)
  %_3.i.i.i10.i.i = load i32, ptr %c.i.i, align 4, !alias.scope !975, !noalias !976, !noundef !6
  %_4.i.i.i11.i.i = load i32, ptr %a.i.i, align 4, !alias.scope !977, !noalias !978, !noundef !6
  %_0.i12.i.i = icmp slt i32 %_3.i.i.i10.i.i, %_4.i.i.i11.i.i
  call void @llvm.experimental.noalias.scope.decl(metadata !979)
  call void @llvm.experimental.noalias.scope.decl(metadata !982)
  call void @llvm.experimental.noalias.scope.decl(metadata !984)
  call void @llvm.experimental.noalias.scope.decl(metadata !987)
  call void @llvm.experimental.noalias.scope.decl(metadata !989)
  call void @llvm.experimental.noalias.scope.decl(metadata !992)
  %_3.i.i.i13.i.i = load i32, ptr %d.i.i, align 4, !alias.scope !994, !noalias !995, !noundef !6
  %_4.i.i.i14.i.i = load i32, ptr %b.i.i, align 4, !alias.scope !996, !noalias !997, !noundef !6
  %_0.i15.i.i = icmp slt i32 %_3.i.i.i13.i.i, %_4.i.i.i14.i.i
  %5 = call i32 @llvm.smin.i32(i32 %_3.i.i.i10.i.i, i32 %_4.i.i.i11.i.i)
  %6 = select i1 %_0.i15.i.i, ptr %c.i.i, ptr %b.i.i, !unpredictable !6
  %7 = select i1 %_0.i12.i.i, ptr %a.i.i, ptr %6, !unpredictable !6
  %8 = select i1 %_0.i12.i.i, ptr %b.i.i, ptr %c.i.i, !unpredictable !6
  %9 = select i1 %_0.i15.i.i, ptr %d.i.i, ptr %8, !unpredictable !6
  call void @llvm.experimental.noalias.scope.decl(metadata !998)
  call void @llvm.experimental.noalias.scope.decl(metadata !1001)
  call void @llvm.experimental.noalias.scope.decl(metadata !1003)
  call void @llvm.experimental.noalias.scope.decl(metadata !1006)
  call void @llvm.experimental.noalias.scope.decl(metadata !1008)
  call void @llvm.experimental.noalias.scope.decl(metadata !1011)
  %_3.i.i.i16.i.i = load i32, ptr %9, align 4, !alias.scope !1013, !noalias !1014, !noundef !6
  %_4.i.i.i17.i.i = load i32, ptr %7, align 4, !alias.scope !1015, !noalias !1016, !noundef !6
  store i32 %5, ptr %scratch.0, align 4, !alias.scope !919, !noalias !1017
  %dst5.i.i = getelementptr inbounds nuw i8, ptr %scratch.0, i64 4
  %10 = call i32 @llvm.smin.i32(i32 %_3.i.i.i16.i.i, i32 %_4.i.i.i17.i.i)
  store i32 %10, ptr %dst5.i.i, align 4, !alias.scope !919, !noalias !1017
  %dst6.i.i = getelementptr inbounds nuw i8, ptr %scratch.0, i64 8
  %11 = call i32 @llvm.smax.i32(i32 %_3.i.i.i16.i.i, i32 %_4.i.i.i17.i.i)
  store i32 %11, ptr %dst6.i.i, align 4, !alias.scope !919, !noalias !1017
  %12 = getelementptr inbounds nuw i8, ptr %scratch.0, i64 12
  %13 = call i32 @llvm.smax.i32(i32 %_3.i.i.i13.i.i, i32 %_4.i.i.i14.i.i)
  store i32 %13, ptr %12, align 4, !alias.scope !919, !noalias !1017
  %_27.i = getelementptr inbounds nuw i32, ptr %v.sroa.0.0.ph.lcssa129, i64 %len_div_211.i
  %_28.i = getelementptr inbounds nuw i32, ptr %scratch.0, i64 %len_div_211.i
  %_7.i13.i = getelementptr inbounds nuw i8, ptr %_27.i, i64 4
  call void @llvm.experimental.noalias.scope.decl(metadata !1018)
  call void @llvm.experimental.noalias.scope.decl(metadata !1021)
  call void @llvm.experimental.noalias.scope.decl(metadata !1023)
  call void @llvm.experimental.noalias.scope.decl(metadata !1026)
  call void @llvm.experimental.noalias.scope.decl(metadata !1028)
  call void @llvm.experimental.noalias.scope.decl(metadata !1031)
  %_3.i.i.i.i14.i = load i32, ptr %_7.i13.i, align 4, !alias.scope !1033, !noalias !1034, !noundef !6
  %_4.i.i.i.i15.i = load i32, ptr %_27.i, align 4, !alias.scope !1035, !noalias !1036, !noundef !6
  %_0.i.i16.i = icmp slt i32 %_3.i.i.i.i14.i, %_4.i.i.i.i15.i
  %_12.i17.i = getelementptr inbounds nuw i8, ptr %_27.i, i64 12
  %_14.i18.i = getelementptr inbounds nuw i8, ptr %_27.i, i64 8
  call void @llvm.experimental.noalias.scope.decl(metadata !1037)
  call void @llvm.experimental.noalias.scope.decl(metadata !1040)
  call void @llvm.experimental.noalias.scope.decl(metadata !1042)
  call void @llvm.experimental.noalias.scope.decl(metadata !1045)
  call void @llvm.experimental.noalias.scope.decl(metadata !1047)
  call void @llvm.experimental.noalias.scope.decl(metadata !1050)
  %_3.i.i.i7.i19.i = load i32, ptr %_12.i17.i, align 4, !alias.scope !1052, !noalias !1053, !noundef !6
  %_4.i.i.i8.i20.i = load i32, ptr %_14.i18.i, align 4, !alias.scope !1054, !noalias !1055, !noundef !6
  %_0.i9.i21.i = icmp slt i32 %_3.i.i.i7.i19.i, %_4.i.i.i8.i20.i
  %count.i22.i = zext i1 %_0.i.i16.i to i64
  %a.i23.i = getelementptr inbounds nuw i32, ptr %_27.i, i64 %count.i22.i
  %_19.i24.i = xor i1 %_0.i.i16.i, true
  %count2.i25.i = zext i1 %_19.i24.i to i64
  %b.i26.i = getelementptr inbounds nuw i32, ptr %_27.i, i64 %count2.i25.i
  %count3.i27.i = select i1 %_0.i9.i21.i, i64 3, i64 2
  %c.i28.i = getelementptr inbounds nuw i32, ptr %_27.i, i64 %count3.i27.i
  %count4.i29.i = select i1 %_0.i9.i21.i, i64 2, i64 3
  %d.i30.i = getelementptr inbounds nuw i32, ptr %_27.i, i64 %count4.i29.i
  call void @llvm.experimental.noalias.scope.decl(metadata !1056)
  call void @llvm.experimental.noalias.scope.decl(metadata !1059)
  call void @llvm.experimental.noalias.scope.decl(metadata !1061)
  call void @llvm.experimental.noalias.scope.decl(metadata !1064)
  call void @llvm.experimental.noalias.scope.decl(metadata !1066)
  call void @llvm.experimental.noalias.scope.decl(metadata !1069)
  %_3.i.i.i10.i31.i = load i32, ptr %c.i28.i, align 4, !alias.scope !1071, !noalias !1072, !noundef !6
  %_4.i.i.i11.i32.i = load i32, ptr %a.i23.i, align 4, !alias.scope !1073, !noalias !1074, !noundef !6
  %_0.i12.i33.i = icmp slt i32 %_3.i.i.i10.i31.i, %_4.i.i.i11.i32.i
  call void @llvm.experimental.noalias.scope.decl(metadata !1075)
  call void @llvm.experimental.noalias.scope.decl(metadata !1078)
  call void @llvm.experimental.noalias.scope.decl(metadata !1080)
  call void @llvm.experimental.noalias.scope.decl(metadata !1083)
  call void @llvm.experimental.noalias.scope.decl(metadata !1085)
  call void @llvm.experimental.noalias.scope.decl(metadata !1088)
  %_3.i.i.i13.i34.i = load i32, ptr %d.i30.i, align 4, !alias.scope !1090, !noalias !1091, !noundef !6
  %_4.i.i.i14.i35.i = load i32, ptr %b.i26.i, align 4, !alias.scope !1092, !noalias !1093, !noundef !6
  %_0.i15.i36.i = icmp slt i32 %_3.i.i.i13.i34.i, %_4.i.i.i14.i35.i
  %14 = call i32 @llvm.smin.i32(i32 %_3.i.i.i10.i31.i, i32 %_4.i.i.i11.i32.i)
  %15 = select i1 %_0.i15.i36.i, ptr %c.i28.i, ptr %b.i26.i, !unpredictable !6
  %16 = select i1 %_0.i12.i33.i, ptr %a.i23.i, ptr %15, !unpredictable !6
  %17 = select i1 %_0.i12.i33.i, ptr %b.i26.i, ptr %c.i28.i, !unpredictable !6
  %18 = select i1 %_0.i15.i36.i, ptr %d.i30.i, ptr %17, !unpredictable !6
  call void @llvm.experimental.noalias.scope.decl(metadata !1094)
  call void @llvm.experimental.noalias.scope.decl(metadata !1097)
  call void @llvm.experimental.noalias.scope.decl(metadata !1099)
  call void @llvm.experimental.noalias.scope.decl(metadata !1102)
  call void @llvm.experimental.noalias.scope.decl(metadata !1104)
  call void @llvm.experimental.noalias.scope.decl(metadata !1107)
  %_3.i.i.i16.i37.i = load i32, ptr %18, align 4, !alias.scope !1109, !noalias !1110, !noundef !6
  %_4.i.i.i17.i38.i = load i32, ptr %16, align 4, !alias.scope !1111, !noalias !1112, !noundef !6
  store i32 %14, ptr %_28.i, align 4, !alias.scope !919, !noalias !1017
  %dst5.i40.i = getelementptr inbounds nuw i8, ptr %_28.i, i64 4
  %19 = call i32 @llvm.smin.i32(i32 %_3.i.i.i16.i37.i, i32 %_4.i.i.i17.i38.i)
  store i32 %19, ptr %dst5.i40.i, align 4, !alias.scope !919, !noalias !1017
  %dst6.i43.i = getelementptr inbounds nuw i8, ptr %_28.i, i64 8
  %20 = call i32 @llvm.smax.i32(i32 %_3.i.i.i16.i37.i, i32 %_4.i.i.i17.i38.i)
  store i32 %20, ptr %dst6.i43.i, align 4, !alias.scope !919, !noalias !1017
  %21 = getelementptr inbounds nuw i8, ptr %_28.i, i64 12
  %22 = call i32 @llvm.smax.i32(i32 %_3.i.i.i13.i34.i, i32 %_4.i.i.i14.i35.i)
  store i32 %22, ptr %21, align 4, !alias.scope !919, !noalias !1017
  br label %bb15.i

bb46.i:                                           ; preds = %bb9.i
  %23 = load i32, ptr %v.sroa.0.0.ph.lcssa129, align 4, !alias.scope !916, !noalias !1113
  store i32 %23, ptr %scratch.0, align 4, !alias.scope !919, !noalias !1017
  %_31.i = getelementptr inbounds nuw i32, ptr %v.sroa.0.0.ph.lcssa129, i64 %len_div_211.i
  %24 = getelementptr inbounds nuw i32, ptr %scratch.0, i64 %len_div_211.i
  %25 = load i32, ptr %_31.i, align 4, !alias.scope !916, !noalias !1113
  store i32 %25, ptr %24, align 4, !alias.scope !919, !noalias !1017
  br label %bb15.i

bb15.i:                                           ; preds = %bb46.i, %bb10.i, %bb6.i
  %presorted_len.sroa.0.0.i = phi i64 [ 8, %bb6.i ], [ 4, %bb10.i ], [ 1, %bb46.i ]
  %26 = sub nsw i64 %v.sroa.16.0.lcssa, %len_div_211.i
  %_8061.i = icmp samesign ult i64 %presorted_len.sroa.0.0.i, %len_div_211.i
  br i1 %_8061.i, label %bb24.preheader.i, label %bb16.loopexit.i

bb16.loopexit.i:                                  ; preds = %_ZN4core5slice4sort6shared9smallsort11insert_tail17h33c1c8880b2fd19dE.exit.i, %bb15.i
  %src5.1.i = getelementptr inbounds nuw i32, ptr %v.sroa.0.0.ph.lcssa129, i64 %len_div_211.i
  %dst6.1.i = getelementptr i32, ptr %scratch.0, i64 %len_div_211.i
  %_8061.1.i = icmp ult i64 %presorted_len.sroa.0.0.i, %26
  br i1 %_8061.1.i, label %bb24.preheader.1.i, label %bb16.loopexit.1.i

bb24.preheader.1.i:                               ; preds = %bb16.loopexit.i
  %iter1.sroa.0.163.1.i = add nuw nsw i64 %presorted_len.sroa.0.0.i, 1
  br label %bb24.1.i

bb24.1.i:                                         ; preds = %_ZN4core5slice4sort6shared9smallsort11insert_tail17h33c1c8880b2fd19dE.exit.1.i, %bb24.preheader.1.i
  %iter1.sroa.0.165.1.i = phi i64 [ %iter1.sroa.0.1.1.i, %_ZN4core5slice4sort6shared9smallsort11insert_tail17h33c1c8880b2fd19dE.exit.1.i ], [ %iter1.sroa.0.163.1.i, %bb24.preheader.1.i ]
  %iter1.sroa.0.064.1.i = phi i64 [ %iter1.sroa.0.165.1.i, %_ZN4core5slice4sort6shared9smallsort11insert_tail17h33c1c8880b2fd19dE.exit.1.i ], [ %presorted_len.sroa.0.0.i, %bb24.preheader.1.i ]
  %_55.1.i = getelementptr inbounds nuw i32, ptr %src5.1.i, i64 %iter1.sroa.0.064.1.i
  %dst7.1.i = getelementptr inbounds nuw i32, ptr %dst6.1.i, i64 %iter1.sroa.0.064.1.i
  %27 = load i32, ptr %_55.1.i, align 4, !alias.scope !916, !noalias !1113
  store i32 %27, ptr %dst7.1.i, align 4, !alias.scope !919, !noalias !1017
  %28 = getelementptr inbounds i8, ptr %dst7.1.i, i64 -4
  %_4.i.i.i.i55.1.i = load i32, ptr %28, align 4, !alias.scope !1114, !noalias !1121, !noundef !6
  %_0.i.i56.1.i = icmp slt i32 %27, %_4.i.i.i.i55.1.i
  br i1 %_0.i.i56.1.i, label %bb4.i.1.i, label %_ZN4core5slice4sort6shared9smallsort11insert_tail17h33c1c8880b2fd19dE.exit.1.i

bb4.i.1.i:                                        ; preds = %bb24.1.i, %bb7.i.1.i
  %29 = phi i32 [ %_4.i.i.i2.i.1.i, %bb7.i.1.i ], [ %_4.i.i.i.i55.1.i, %bb24.1.i ]
  %gap_guard.sroa.5.0.i.1.i = phi ptr [ %sift.sroa.0.0.i.1.i, %bb7.i.1.i ], [ %dst7.1.i, %bb24.1.i ]
  %sift.sroa.0.0.i.1.i = phi ptr [ %30, %bb7.i.1.i ], [ %28, %bb24.1.i ]
  store i32 %29, ptr %gap_guard.sroa.5.0.i.1.i, align 4, !alias.scope !919, !noalias !1017
  %_18.i.1.i = icmp eq ptr %sift.sroa.0.0.i.1.i, %dst6.1.i
  br i1 %_18.i.1.i, label %bb10.i.1.i, label %bb7.i.1.i

bb7.i.1.i:                                        ; preds = %bb4.i.1.i
  %30 = getelementptr inbounds i8, ptr %sift.sroa.0.0.i.1.i, i64 -4
  %_4.i.i.i2.i.1.i = load i32, ptr %30, align 4, !alias.scope !1125, !noalias !1132, !noundef !6
  %_0.i3.i.1.i = icmp slt i32 %27, %_4.i.i.i2.i.1.i
  br i1 %_0.i3.i.1.i, label %bb4.i.1.i, label %bb10.i.1.i

bb10.i.1.i:                                       ; preds = %bb7.i.1.i, %bb4.i.1.i
  %sift.sroa.0.0.i.lcssa.1.i = phi ptr [ %sift.sroa.0.0.i.1.i, %bb7.i.1.i ], [ %dst6.1.i, %bb4.i.1.i ]
  store i32 %27, ptr %sift.sroa.0.0.i.lcssa.1.i, align 4, !alias.scope !919, !noalias !1136
  br label %_ZN4core5slice4sort6shared9smallsort11insert_tail17h33c1c8880b2fd19dE.exit.1.i

_ZN4core5slice4sort6shared9smallsort11insert_tail17h33c1c8880b2fd19dE.exit.1.i: ; preds = %bb10.i.1.i, %bb24.1.i
  %_80.1.i = icmp ult i64 %iter1.sroa.0.165.1.i, %26
  %_84.1.i = zext i1 %_80.1.i to i64
  %iter1.sroa.0.1.1.i = add nuw i64 %iter1.sroa.0.165.1.i, %_84.1.i
  br i1 %_80.1.i, label %bb24.1.i, label %bb16.loopexit.1.i

bb16.loopexit.1.i:                                ; preds = %_ZN4core5slice4sort6shared9smallsort11insert_tail17h33c1c8880b2fd19dE.exit.1.i, %bb16.loopexit.i
  call void @llvm.experimental.noalias.scope.decl(metadata !1141)
  %count1.i.i = add nsw i64 %v.sroa.16.0.lcssa, -1
  %31 = getelementptr inbounds nuw i32, ptr %v.sroa.0.0.ph.lcssa129, i64 %count1.i.i
  %32 = getelementptr inbounds nuw i32, ptr %scratch.0, i64 %count1.i.i
  %33 = getelementptr i8, ptr %dst6.1.i, i64 -4
  br label %bb15.i.i

bb24.preheader.i:                                 ; preds = %bb15.i
  %iter1.sroa.0.163.i = add nuw nsw i64 %presorted_len.sroa.0.0.i, 1
  br label %bb24.i

bb16.i.i:                                         ; preds = %bb15.i.i
  %34 = getelementptr i8, ptr %39, i64 4
  %35 = getelementptr i8, ptr %38, i64 4
  %_44.i.i = and i64 %v.sroa.16.0.lcssa, 1
  %_22.i.i = icmp eq i64 %_44.i.i, 0
  br i1 %_22.i.i, label %bb9.i.i, label %bb5.i.i

bb15.i.i:                                         ; preds = %bb15.i.i, %bb16.loopexit.1.i
  %dst.sroa.0.029.i.i = phi ptr [ %_16.i.i.i, %bb15.i.i ], [ %v.sroa.0.0.ph.lcssa129, %bb16.loopexit.1.i ]
  %iter.sroa.0.028.i.i = phi i64 [ %_39.i.i, %bb15.i.i ], [ 0, %bb16.loopexit.1.i ]
  %left.sroa.0.027.i.i = phi ptr [ %_14.i.i.i, %bb15.i.i ], [ %scratch.0, %bb16.loopexit.1.i ]
  %right.sroa.0.026.i.i = phi ptr [ %_12.i.i.i, %bb15.i.i ], [ %dst6.1.i, %bb16.loopexit.1.i ]
  %left_rev.sroa.0.025.i.i = phi ptr [ %39, %bb15.i.i ], [ %33, %bb16.loopexit.1.i ]
  %right_rev.sroa.0.024.i.i = phi ptr [ %38, %bb15.i.i ], [ %32, %bb16.loopexit.1.i ]
  %dst_rev.sroa.0.023.i.i = phi ptr [ %40, %bb15.i.i ], [ %31, %bb16.loopexit.1.i ]
  %_39.i.i = add nuw nsw i64 %iter.sroa.0.028.i.i, 1
  call void @llvm.experimental.noalias.scope.decl(metadata !1144)
  call void @llvm.experimental.noalias.scope.decl(metadata !1147)
  call void @llvm.experimental.noalias.scope.decl(metadata !1149), !noalias !1152
  call void @llvm.experimental.noalias.scope.decl(metadata !1155), !noalias !1152
  call void @llvm.experimental.noalias.scope.decl(metadata !1157), !noalias !1152
  call void @llvm.experimental.noalias.scope.decl(metadata !1160), !noalias !1152
  %_3.i.i.i.i48.i = load i32, ptr %right.sroa.0.026.i.i, align 4, !alias.scope !1162, !noalias !1163, !noundef !6
  %_4.i.i.i.i49.i = load i32, ptr %left.sroa.0.027.i.i, align 4, !alias.scope !1164, !noalias !1165, !noundef !6
  %_0.i.i50.i = icmp slt i32 %_3.i.i.i.i48.i, %_4.i.i.i.i49.i
  %is_l.i18.i.i = xor i1 %_0.i.i50.i, true
  %36 = call i32 @llvm.smin.i32(i32 %_3.i.i.i.i48.i, i32 %_4.i.i.i.i49.i)
  store i32 %36, ptr %dst.sroa.0.029.i.i, align 4, !alias.scope !916, !noalias !1166
  %count.i.i.i = zext i1 %_0.i.i50.i to i64
  %_12.i.i.i = getelementptr inbounds nuw i32, ptr %right.sroa.0.026.i.i, i64 %count.i.i.i
  %count2.i.i.i = zext i1 %is_l.i18.i.i to i64
  %_14.i.i.i = getelementptr inbounds nuw i32, ptr %left.sroa.0.027.i.i, i64 %count2.i.i.i
  %_16.i.i.i = getelementptr inbounds nuw i8, ptr %dst.sroa.0.029.i.i, i64 4
  call void @llvm.experimental.noalias.scope.decl(metadata !1168)
  call void @llvm.experimental.noalias.scope.decl(metadata !1171)
  call void @llvm.experimental.noalias.scope.decl(metadata !1173), !noalias !1176
  call void @llvm.experimental.noalias.scope.decl(metadata !1179), !noalias !1176
  call void @llvm.experimental.noalias.scope.decl(metadata !1181), !noalias !1176
  call void @llvm.experimental.noalias.scope.decl(metadata !1184), !noalias !1176
  %_3.i.i.i19.i.i = load i32, ptr %right_rev.sroa.0.024.i.i, align 4, !alias.scope !1186, !noalias !1187, !noundef !6
  %_4.i.i.i20.i.i = load i32, ptr %left_rev.sroa.0.025.i.i, align 4, !alias.scope !1188, !noalias !1189, !noundef !6
  %_0.i21.i.i = icmp slt i32 %_3.i.i.i19.i.i, %_4.i.i.i20.i.i
  %is_l.i.i.i = xor i1 %_0.i21.i.i, true
  %37 = call i32 @llvm.smax.i32(i32 %_3.i.i.i19.i.i, i32 %_4.i.i.i20.i.i)
  store i32 %37, ptr %dst_rev.sroa.0.023.i.i, align 4, !alias.scope !916, !noalias !1190
  %count.neg.i.i.i = sext i1 %is_l.i.i.i to i64
  %38 = getelementptr i32, ptr %right_rev.sroa.0.024.i.i, i64 %count.neg.i.i.i
  %count3.neg.i.i.i = sext i1 %_0.i21.i.i to i64
  %39 = getelementptr i32, ptr %left_rev.sroa.0.025.i.i, i64 %count3.neg.i.i.i
  %40 = getelementptr inbounds i8, ptr %dst_rev.sroa.0.023.i.i, i64 -4
  %exitcond.not.i.i = icmp eq i64 %_39.i.i, %len_div_211.i
  br i1 %exitcond.not.i.i, label %bb16.i.i, label %bb15.i.i

bb5.i.i:                                          ; preds = %bb16.i.i
  %left_nonempty.i.i = icmp ult ptr %_14.i.i.i, %34
  %left.sroa.0.0.right.sroa.0.0.i.i = select i1 %left_nonempty.i.i, ptr %_14.i.i.i, ptr %_12.i.i.i
  %41 = load i32, ptr %left.sroa.0.0.right.sroa.0.0.i.i, align 4, !alias.scope !1192, !noalias !1017
  store i32 %41, ptr %_16.i.i.i, align 4, !alias.scope !916, !noalias !1193
  %count2.i51.i = zext i1 %left_nonempty.i.i to i64
  %_26.i.i = getelementptr inbounds nuw i32, ptr %_14.i.i.i, i64 %count2.i51.i
  %_30.i.i = xor i1 %left_nonempty.i.i, true
  %count3.i52.i = zext i1 %_30.i.i to i64
  %_28.i.i = getelementptr inbounds nuw i32, ptr %_12.i.i.i, i64 %count3.i52.i
  br label %bb9.i.i

bb9.i.i:                                          ; preds = %bb5.i.i, %bb16.i.i
  %right.sroa.0.1.i.i = phi ptr [ %_12.i.i.i, %bb16.i.i ], [ %_28.i.i, %bb5.i.i ]
  %left.sroa.0.1.i.i = phi ptr [ %_14.i.i.i, %bb16.i.i ], [ %_26.i.i, %bb5.i.i ]
  %_31.i.i = icmp ne ptr %left.sroa.0.1.i.i, %34
  %_32.i.i = icmp ne ptr %right.sroa.0.1.i.i, %35
  %or.cond.i.i = select i1 %_31.i.i, i1 true, i1 %_32.i.i
  br i1 %or.cond.i.i, label %bb13.i.i, label %bb22, !prof !551

bb13.i.i:                                         ; preds = %bb9.i.i
; invoke core::slice::sort::shared::smallsort::panic_on_ord_violation
  invoke void @_ZN4core5slice4sort6shared9smallsort22panic_on_ord_violation17hc77a22a2d50782cdE() #26
          to label %.noexc.i unwind label %cleanup2.i, !noalias !1194

.noexc.i:                                         ; preds = %bb13.i.i
  unreachable

cleanup2.i:                                       ; preds = %bb13.i.i
  %42 = landingpad { ptr, i32 }
          cleanup
  %43 = shl nuw nsw i64 %v.sroa.16.0.lcssa, 2
  call void @llvm.memcpy.p0.p0.i64(ptr nonnull align 4 %v.sroa.0.0.ph.lcssa129, ptr nonnull align 4 %scratch.0, i64 %43, i1 false), !alias.scope !1195, !noalias !1196
  resume { ptr, i32 } %42

bb24.i:                                           ; preds = %_ZN4core5slice4sort6shared9smallsort11insert_tail17h33c1c8880b2fd19dE.exit.i, %bb24.preheader.i
  %iter1.sroa.0.165.i = phi i64 [ %iter1.sroa.0.1.i, %_ZN4core5slice4sort6shared9smallsort11insert_tail17h33c1c8880b2fd19dE.exit.i ], [ %iter1.sroa.0.163.i, %bb24.preheader.i ]
  %iter1.sroa.0.064.i = phi i64 [ %iter1.sroa.0.165.i, %_ZN4core5slice4sort6shared9smallsort11insert_tail17h33c1c8880b2fd19dE.exit.i ], [ %presorted_len.sroa.0.0.i, %bb24.preheader.i ]
  %_55.i = getelementptr inbounds nuw i32, ptr %v.sroa.0.0.ph.lcssa129, i64 %iter1.sroa.0.064.i
  %dst7.i = getelementptr inbounds nuw i32, ptr %scratch.0, i64 %iter1.sroa.0.064.i
  %44 = load i32, ptr %_55.i, align 4, !alias.scope !916, !noalias !1113
  store i32 %44, ptr %dst7.i, align 4, !alias.scope !919, !noalias !1017
  %45 = getelementptr inbounds i8, ptr %dst7.i, i64 -4
  %_4.i.i.i.i55.i = load i32, ptr %45, align 4, !alias.scope !1114, !noalias !1121, !noundef !6
  %_0.i.i56.i = icmp slt i32 %44, %_4.i.i.i.i55.i
  br i1 %_0.i.i56.i, label %bb4.i.i, label %_ZN4core5slice4sort6shared9smallsort11insert_tail17h33c1c8880b2fd19dE.exit.i

bb4.i.i:                                          ; preds = %bb24.i, %bb7.i.i
  %46 = phi i32 [ %_4.i.i.i2.i.i, %bb7.i.i ], [ %_4.i.i.i.i55.i, %bb24.i ]
  %gap_guard.sroa.5.0.i.i = phi ptr [ %sift.sroa.0.0.i.i, %bb7.i.i ], [ %dst7.i, %bb24.i ]
  %sift.sroa.0.0.i.i = phi ptr [ %47, %bb7.i.i ], [ %45, %bb24.i ]
  store i32 %46, ptr %gap_guard.sroa.5.0.i.i, align 4, !alias.scope !919, !noalias !1017
  %_18.i.i = icmp eq ptr %sift.sroa.0.0.i.i, %scratch.0
  br i1 %_18.i.i, label %bb10.i.i, label %bb7.i.i

bb7.i.i:                                          ; preds = %bb4.i.i
  %47 = getelementptr inbounds i8, ptr %sift.sroa.0.0.i.i, i64 -4
  %_4.i.i.i2.i.i = load i32, ptr %47, align 4, !alias.scope !1125, !noalias !1132, !noundef !6
  %_0.i3.i.i = icmp slt i32 %44, %_4.i.i.i2.i.i
  br i1 %_0.i3.i.i, label %bb4.i.i, label %bb10.i.i

bb10.i.i:                                         ; preds = %bb7.i.i, %bb4.i.i
  %sift.sroa.0.0.i.lcssa.i = phi ptr [ %sift.sroa.0.0.i.i, %bb7.i.i ], [ %scratch.0, %bb4.i.i ]
  store i32 %44, ptr %sift.sroa.0.0.i.lcssa.i, align 4, !alias.scope !919, !noalias !1136
  br label %_ZN4core5slice4sort6shared9smallsort11insert_tail17h33c1c8880b2fd19dE.exit.i

_ZN4core5slice4sort6shared9smallsort11insert_tail17h33c1c8880b2fd19dE.exit.i: ; preds = %bb10.i.i, %bb24.i
  %_80.i = icmp ult i64 %iter1.sroa.0.165.i, %len_div_211.i
  %_84.i = zext i1 %_80.i to i64
  %iter1.sroa.0.1.i = add nuw i64 %iter1.sroa.0.165.i, %_84.i
  br i1 %_80.i, label %bb24.i, label %bb16.loopexit.i

bb7:                                              ; preds = %bb5
  %48 = add i32 %limit.sroa.0.0131, -1
  %len_div_84.i = lshr i64 %v.sroa.16.0132, 3
  %b.idx.i = shl nuw nsw i64 %len_div_84.i, 4
  %b.i = getelementptr inbounds nuw i8, ptr %v.sroa.0.0.ph140, i64 %b.idx.i
  %c.idx.i = mul nuw nsw i64 %len_div_84.i, 28
  %c.i = getelementptr inbounds nuw i8, ptr %v.sroa.0.0.ph140, i64 %c.idx.i
  %_12.i = icmp samesign ult i64 %v.sroa.16.0132, 64
  br i1 %_12.i, label %bb3.i23, label %bb5.i

bb5.i:                                            ; preds = %bb7
; call core::slice::sort::shared::pivot::median3_rec
  %self.i = call fastcc noundef ptr @_ZN4core5slice4sort6shared5pivot11median3_rec17hf37be3b880a53badE(ptr noundef nonnull readonly align 4 %v.sroa.0.0.ph140, ptr noundef readonly %b.i, ptr noundef readonly %c.i, i64 noundef %len_div_84.i)
  br label %bb10

bb3.i23:                                          ; preds = %bb7
  call void @llvm.experimental.noalias.scope.decl(metadata !1201)
  call void @llvm.experimental.noalias.scope.decl(metadata !1204)
  call void @llvm.experimental.noalias.scope.decl(metadata !1206), !noalias !1209
  call void @llvm.experimental.noalias.scope.decl(metadata !1212), !noalias !1209
  call void @llvm.experimental.noalias.scope.decl(metadata !1214), !noalias !1209
  call void @llvm.experimental.noalias.scope.decl(metadata !1217), !noalias !1209
  %_3.i.i.i.i = load i32, ptr %v.sroa.0.0.ph140, align 4, !alias.scope !1219, !noalias !1222, !noundef !6
  %_4.i.i.i.i = load i32, ptr %b.i, align 4, !alias.scope !1224, !noalias !1225, !noundef !6
  %_0.i.i = icmp slt i32 %_3.i.i.i.i, %_4.i.i.i.i
  %_4.i.i.i6.i = load i32, ptr %c.i, align 4, !alias.scope !1226, !noalias !1233, !noundef !6
  %_0.i7.i = icmp slt i32 %_3.i.i.i.i, %_4.i.i.i6.i
  %49 = xor i1 %_0.i.i, %_0.i7.i
  %_0.i10.i = icmp slt i32 %_4.i.i.i.i, %_4.i.i.i6.i
  %_12.i.i24 = xor i1 %_0.i.i, %_0.i10.i
  %c.b.i.i = select i1 %_12.i.i24, ptr %c.i, ptr %b.i
  %_0.sroa.0.0.i.i = select i1 %49, ptr %v.sroa.0.0.ph140, ptr %c.b.i.i
  br label %bb10

bb6:                                              ; preds = %bb5
; call core::slice::sort::stable::drift::sort
  call fastcc void @_ZN4core5slice4sort6stable5drift4sort17h5baa579da18fc185E(ptr noalias noundef nonnull align 4 %v.sroa.0.0.ph140, i64 noundef %v.sroa.16.0132, ptr noalias noundef nonnull align 4 %scratch.0, i64 noundef %scratch.1, i1 noundef zeroext true, ptr noalias noundef align 8 dereferenceable(8) %is_less)
  br label %bb22

bb10:                                             ; preds = %bb3.i23, %bb5.i
  %_0.sroa.0.0.i.sink.i = phi ptr [ %_0.sroa.0.0.i.i, %bb3.i23 ], [ %self.i, %bb5.i ]
  %50 = ptrtoint ptr %_0.sroa.0.0.i.sink.i to i64
  %51 = sub nuw i64 %50, %4
  %index.sroa.0.0.i = lshr exact i64 %51, 2
  %cond.i = icmp samesign ult i64 %index.sroa.0.0.i, %v.sroa.16.0132
  call void @llvm.assume(i1 %cond.i)
  call void @llvm.lifetime.start.p0(i64 4, ptr nonnull %pivot_copy)
  %src = getelementptr inbounds nuw i8, ptr %v.sroa.0.0.ph140, i64 %51
  %value = load i32, ptr %src, align 4, !noundef !6
  store i32 %value, ptr %pivot_copy, align 4
  br i1 %.not, label %bb14, label %bb12

bb12:                                             ; preds = %bb10
  %_3.i.i.i = load i32, ptr %left_ancestor_pivot.sroa.0.0.ph137, align 4, !alias.scope !1237, !noalias !1244, !noundef !6
  %_0.i = icmp slt i32 %_3.i.i.i, %value
  br i1 %_0.i, label %bb14, label %bb17

bb14:                                             ; preds = %bb10, %bb12
  call void @llvm.experimental.noalias.scope.decl(metadata !1248)
  call void @llvm.experimental.noalias.scope.decl(metadata !1251)
  %_8.i25.not = icmp samesign ult i64 %scratch.1, %v.sroa.16.0132
  br i1 %_8.i25.not, label %bb31.i, label %bb33.i, !prof !551

bb33.i:                                           ; preds = %bb14
  %_86.i = getelementptr i32, ptr %scratch.0, i64 %v.sroa.16.0132
  br label %bb3.i26

bb31.i:                                           ; preds = %bb14
  call void @llvm.trap()
  unreachable

bb3.i26:                                          ; preds = %bb23.i, %bb33.i
  %state.sroa.27.0.i = phi i64 [ 0, %bb33.i ], [ %state.sroa.27.2.lcssa.i, %bb23.i ]
  %state.sroa.9.0.i = phi ptr [ %v.sroa.0.0.ph140, %bb33.i ], [ %_9.i70.i, %bb23.i ]
  %state.sroa.43.0.i = phi ptr [ %_86.i, %bb33.i ], [ %63, %bb23.i ]
  %pivot_pos.sroa.0.0.i = phi i64 [ %index.sroa.0.0.i, %bb33.i ], [ %v.sroa.16.0132, %bb23.i ]
  %52 = call i64 @llvm.usub.sat.i64(i64 %pivot_pos.sroa.0.0.i, i64 3)
  %unroll_end.i = getelementptr inbounds nuw i32, ptr %v.sroa.0.0.ph140, i64 %52
  %_1984.i = icmp ult ptr %state.sroa.9.0.i, %unroll_end.i
  br i1 %_1984.i, label %bb6.i28.preheader, label %bb16.i

bb6.i28.preheader:                                ; preds = %bb3.i26
  %_4.i.i.i.i30 = load i32, ptr %src, align 4, !alias.scope !1253, !noalias !1260, !noundef !6
  br label %bb6.i28

bb6.i28:                                          ; preds = %bb6.i28.preheader, %bb6.i28
  %state.sroa.43.187.i = phi ptr [ %59, %bb6.i28 ], [ %state.sroa.43.0.i, %bb6.i28.preheader ]
  %state.sroa.9.186.i = phi ptr [ %_9.i54.i, %bb6.i28 ], [ %state.sroa.9.0.i, %bb6.i28.preheader ]
  %state.sroa.27.185.i = phi i64 [ %60, %bb6.i28 ], [ %state.sroa.27.0.i, %bb6.i28.preheader ]
  call void @llvm.experimental.noalias.scope.decl(metadata !1264)
  call void @llvm.experimental.noalias.scope.decl(metadata !1265)
  call void @llvm.experimental.noalias.scope.decl(metadata !1266)
  call void @llvm.experimental.noalias.scope.decl(metadata !1267)
  call void @llvm.experimental.noalias.scope.decl(metadata !1268)
  call void @llvm.experimental.noalias.scope.decl(metadata !1269)
  %_3.i.i.i.i29 = load i32, ptr %state.sroa.9.186.i, align 4, !alias.scope !1270, !noalias !1271, !noundef !6
  %_0.i.i31 = icmp slt i32 %_3.i.i.i.i29, %_4.i.i.i.i30
  %53 = getelementptr inbounds i8, ptr %state.sroa.43.187.i, i64 -4
  %dst_base.sroa.0.0.i.i = select i1 %_0.i.i31, ptr %scratch.0, ptr %53
  %dst.i.i = getelementptr inbounds nuw i32, ptr %dst_base.sroa.0.0.i.i, i64 %state.sroa.27.185.i
  store i32 %_3.i.i.i.i29, ptr %dst.i.i, align 4, !alias.scope !1251, !noalias !1272
  %_8.i.i = zext i1 %_0.i.i31 to i64
  %54 = add i64 %state.sroa.27.185.i, %_8.i.i
  %_9.i.i = getelementptr inbounds nuw i8, ptr %state.sroa.9.186.i, i64 4
  %_3.i.i.i25.i = load i32, ptr %_9.i.i, align 4, !alias.scope !1275, !noalias !1282, !noundef !6
  %_0.i27.i = icmp slt i32 %_3.i.i.i25.i, %_4.i.i.i.i30
  %55 = getelementptr inbounds i8, ptr %state.sroa.43.187.i, i64 -8
  %dst_base.sroa.0.0.i29.i = select i1 %_0.i27.i, ptr %scratch.0, ptr %55
  %dst.i31.i = getelementptr inbounds nuw i32, ptr %dst_base.sroa.0.0.i29.i, i64 %54
  store i32 %_3.i.i.i25.i, ptr %dst.i31.i, align 4, !alias.scope !1251, !noalias !1286
  %_8.i33.i = zext i1 %_0.i27.i to i64
  %56 = add i64 %54, %_8.i33.i
  %_9.i34.i = getelementptr inbounds nuw i8, ptr %state.sroa.9.186.i, i64 8
  %_3.i.i.i35.i = load i32, ptr %_9.i34.i, align 4, !alias.scope !1289, !noalias !1296, !noundef !6
  %_0.i37.i = icmp slt i32 %_3.i.i.i35.i, %_4.i.i.i.i30
  %57 = getelementptr inbounds i8, ptr %state.sroa.43.187.i, i64 -12
  %dst_base.sroa.0.0.i39.i = select i1 %_0.i37.i, ptr %scratch.0, ptr %57
  %dst.i41.i = getelementptr inbounds nuw i32, ptr %dst_base.sroa.0.0.i39.i, i64 %56
  store i32 %_3.i.i.i35.i, ptr %dst.i41.i, align 4, !alias.scope !1251, !noalias !1300
  %_8.i43.i = zext i1 %_0.i37.i to i64
  %58 = add i64 %56, %_8.i43.i
  %_9.i44.i = getelementptr inbounds nuw i8, ptr %state.sroa.9.186.i, i64 12
  %_3.i.i.i45.i = load i32, ptr %_9.i44.i, align 4, !alias.scope !1303, !noalias !1310, !noundef !6
  %_0.i47.i = icmp slt i32 %_3.i.i.i45.i, %_4.i.i.i.i30
  %59 = getelementptr inbounds i8, ptr %state.sroa.43.187.i, i64 -16
  %dst_base.sroa.0.0.i49.i = select i1 %_0.i47.i, ptr %scratch.0, ptr %59
  %dst.i51.i = getelementptr inbounds nuw i32, ptr %dst_base.sroa.0.0.i49.i, i64 %58
  store i32 %_3.i.i.i45.i, ptr %dst.i51.i, align 4, !alias.scope !1251, !noalias !1314
  %_8.i53.i = zext i1 %_0.i47.i to i64
  %60 = add i64 %58, %_8.i53.i
  %_9.i54.i = getelementptr inbounds nuw i8, ptr %state.sroa.9.186.i, i64 16
  %_19.i32 = icmp ult ptr %_9.i54.i, %unroll_end.i
  br i1 %_19.i32, label %bb6.i28, label %bb16.i

bb16.i:                                           ; preds = %bb6.i28, %bb3.i26
  %state.sroa.27.1.lcssa.i = phi i64 [ %state.sroa.27.0.i, %bb3.i26 ], [ %60, %bb6.i28 ]
  %state.sroa.9.1.lcssa.i = phi ptr [ %state.sroa.9.0.i, %bb3.i26 ], [ %_9.i54.i, %bb6.i28 ]
  %state.sroa.43.1.lcssa.i = phi ptr [ %state.sroa.43.0.i, %bb3.i26 ], [ %59, %bb6.i28 ]
  %loop_end.i = getelementptr inbounds nuw i32, ptr %v.sroa.0.0.ph140, i64 %pivot_pos.sroa.0.0.i
  %_4790.i = icmp ult ptr %state.sroa.9.1.lcssa.i, %loop_end.i
  br i1 %_4790.i, label %bb18.i.preheader, label %bb21.i

bb18.i.preheader:                                 ; preds = %bb16.i
  %_4.i.i.i56.i = load i32, ptr %src, align 4, !alias.scope !1317, !noalias !1324, !noundef !6
  br label %bb18.i

bb21.i:                                           ; preds = %bb18.i, %bb16.i
  %state.sroa.27.2.lcssa.i = phi i64 [ %state.sroa.27.1.lcssa.i, %bb16.i ], [ %62, %bb18.i ]
  %state.sroa.9.2.lcssa.i = phi ptr [ %state.sroa.9.1.lcssa.i, %bb16.i ], [ %_9.i64.i, %bb18.i ]
  %state.sroa.43.2.lcssa.i = phi ptr [ %state.sroa.43.1.lcssa.i, %bb16.i ], [ %61, %bb18.i ]
  %_55.i27 = icmp eq i64 %pivot_pos.sroa.0.0.i, %v.sroa.16.0132
  br i1 %_55.i27, label %bb22.i, label %bb23.i

bb18.i:                                           ; preds = %bb18.i.preheader, %bb18.i
  %state.sroa.43.293.i = phi ptr [ %61, %bb18.i ], [ %state.sroa.43.1.lcssa.i, %bb18.i.preheader ]
  %state.sroa.9.292.i = phi ptr [ %_9.i64.i, %bb18.i ], [ %state.sroa.9.1.lcssa.i, %bb18.i.preheader ]
  %state.sroa.27.291.i = phi i64 [ %62, %bb18.i ], [ %state.sroa.27.1.lcssa.i, %bb18.i.preheader ]
  call void @llvm.experimental.noalias.scope.decl(metadata !1328)
  call void @llvm.experimental.noalias.scope.decl(metadata !1329)
  call void @llvm.experimental.noalias.scope.decl(metadata !1330)
  call void @llvm.experimental.noalias.scope.decl(metadata !1331)
  call void @llvm.experimental.noalias.scope.decl(metadata !1332)
  call void @llvm.experimental.noalias.scope.decl(metadata !1333)
  %_3.i.i.i55.i = load i32, ptr %state.sroa.9.292.i, align 4, !alias.scope !1334, !noalias !1335, !noundef !6
  %_0.i57.i = icmp slt i32 %_3.i.i.i55.i, %_4.i.i.i56.i
  %61 = getelementptr inbounds i8, ptr %state.sroa.43.293.i, i64 -4
  %dst_base.sroa.0.0.i59.i = select i1 %_0.i57.i, ptr %scratch.0, ptr %61
  %dst.i61.i = getelementptr inbounds nuw i32, ptr %dst_base.sroa.0.0.i59.i, i64 %state.sroa.27.291.i
  store i32 %_3.i.i.i55.i, ptr %dst.i61.i, align 4, !alias.scope !1251, !noalias !1336
  %_8.i63.i = zext i1 %_0.i57.i to i64
  %62 = add i64 %state.sroa.27.291.i, %_8.i63.i
  %_9.i64.i = getelementptr inbounds nuw i8, ptr %state.sroa.9.292.i, i64 4
  %_47.i = icmp ult ptr %_9.i64.i, %loop_end.i
  br i1 %_47.i, label %bb18.i, label %bb21.i

bb23.i:                                           ; preds = %bb21.i
  %63 = getelementptr inbounds i8, ptr %state.sroa.43.2.lcssa.i, i64 -4
  %dst.i68.i = getelementptr inbounds nuw i32, ptr %63, i64 %state.sroa.27.2.lcssa.i
  %64 = load i32, ptr %state.sroa.9.2.lcssa.i, align 4, !alias.scope !1248, !noalias !1339
  store i32 %64, ptr %dst.i68.i, align 4, !alias.scope !1251, !noalias !1342
  %_9.i70.i = getelementptr inbounds nuw i8, ptr %state.sroa.9.2.lcssa.i, i64 4
  br label %bb3.i26

bb22.i:                                           ; preds = %bb21.i
  %65 = shl i64 %state.sroa.27.2.lcssa.i, 2
  call void @llvm.memcpy.p0.p0.i64(ptr nonnull align 4 %v.sroa.0.0.ph140, ptr nonnull align 4 %scratch.0, i64 %65, i1 false), !alias.scope !1343
  %_63.i = sub i64 %v.sroa.16.0132, %state.sroa.27.2.lcssa.i
  %_9797.not.i = icmp eq i64 %v.sroa.16.0132, %state.sroa.27.2.lcssa.i
  br i1 %_9797.not.i, label %bb16, label %bb42.lr.ph.i

bb42.lr.ph.i:                                     ; preds = %bb22.i
  %66 = getelementptr i32, ptr %v.sroa.0.0.ph140, i64 %state.sroa.27.2.lcssa.i
  %min.iters.check265 = icmp ult i64 %_63.i, 8
  br i1 %min.iters.check265, label %bb42.i.preheader, label %vector.ph266

vector.ph266:                                     ; preds = %bb42.lr.ph.i
  %n.vec268 = and i64 %_63.i, -8
  br label %vector.body269

vector.body269:                                   ; preds = %vector.body269, %vector.ph266
  %index270 = phi i64 [ 0, %vector.ph266 ], [ %index.next275, %vector.body269 ]
  %67 = getelementptr i32, ptr %66, i64 %index270
  %68 = xor i64 %index270, -1
  %69 = getelementptr i32, ptr %_86.i, i64 %68
  %70 = getelementptr i8, ptr %69, i64 -12
  %71 = getelementptr i8, ptr %69, i64 -28
  %wide.load271 = load <4 x i32>, ptr %70, align 4, !alias.scope !1251, !noalias !1248
  %reverse272 = shufflevector <4 x i32> %wide.load271, <4 x i32> poison, <4 x i32> <i32 3, i32 2, i32 1, i32 0>
  %wide.load273 = load <4 x i32>, ptr %71, align 4, !alias.scope !1251, !noalias !1248
  %reverse274 = shufflevector <4 x i32> %wide.load273, <4 x i32> poison, <4 x i32> <i32 3, i32 2, i32 1, i32 0>
  %72 = getelementptr i8, ptr %67, i64 16
  store <4 x i32> %reverse272, ptr %67, align 4, !alias.scope !1248, !noalias !1251
  store <4 x i32> %reverse274, ptr %72, align 4, !alias.scope !1248, !noalias !1251
  %index.next275 = add nuw i64 %index270, 8
  %73 = icmp eq i64 %index.next275, %n.vec268
  br i1 %73, label %middle.block276, label %vector.body269, !llvm.loop !1344

middle.block276:                                  ; preds = %vector.body269
  %cmp.n277 = icmp eq i64 %_63.i, %n.vec268
  br i1 %cmp.n277, label %bb16, label %bb42.i.preheader

bb42.i.preheader:                                 ; preds = %bb42.lr.ph.i, %middle.block276
  %iter.sroa.0.098.i.ph = phi i64 [ 0, %bb42.lr.ph.i ], [ %n.vec268, %middle.block276 ]
  br label %bb42.i

bb42.i:                                           ; preds = %bb42.i.preheader, %bb42.i
  %iter.sroa.0.098.i = phi i64 [ %74, %bb42.i ], [ %iter.sroa.0.098.i.ph, %bb42.i.preheader ]
  %74 = add nuw i64 %iter.sroa.0.098.i, 1
  %75 = getelementptr i32, ptr %66, i64 %iter.sroa.0.098.i
  %76 = xor i64 %iter.sroa.0.098.i, -1
  %77 = getelementptr i32, ptr %_86.i, i64 %76
  %78 = load i32, ptr %77, align 4, !alias.scope !1251, !noalias !1248
  store i32 %78, ptr %75, align 4, !alias.scope !1248, !noalias !1251
  %exitcond.not.i = icmp eq i64 %74, %_63.i
  br i1 %exitcond.not.i, label %bb16, label %bb42.i, !llvm.loop !1345

bb16:                                             ; preds = %bb42.i, %middle.block276, %bb22.i
  %79 = icmp eq i64 %state.sroa.27.2.lcssa.i, 0
  br i1 %79, label %bb17, label %bb19

bb19:                                             ; preds = %bb16
  %_6.not.i = icmp ugt i64 %state.sroa.27.2.lcssa.i, %v.sroa.16.0132
  br i1 %_6.not.i, label %bb3.i33, label %"_ZN4core5slice29_$LT$impl$u20$$u5b$T$u5d$$GT$12split_at_mut17h0ceeda8e75cd17abE.exit", !prof !1346

bb3.i33:                                          ; preds = %bb19
; call core::panicking::panic_fmt
  call void @_ZN4core9panicking9panic_fmt17ha4414e4328fe24a0E(ptr noundef nonnull @alloc_d1084648e479974e70c9329824bf76f9, ptr noundef nonnull inttoptr (i64 19 to ptr), ptr noalias noundef nonnull readonly align 8 captures(address, read_provenance) dereferenceable(24) @alloc_58d434a1e795f965ef82c8e9c5db822a) #26, !noalias !1347
  unreachable

"_ZN4core5slice29_$LT$impl$u20$$u5b$T$u5d$$GT$12split_at_mut17h0ceeda8e75cd17abE.exit": ; preds = %bb19
  %80 = getelementptr inbounds nuw i32, ptr %v.sroa.0.0.ph140, i64 %state.sroa.27.2.lcssa.i
; call core::slice::sort::stable::quicksort::quicksort
  call void @_ZN4core5slice4sort6stable9quicksort9quicksort17h29f47d65ff463170E(ptr noalias noundef nonnull align 4 %80, i64 noundef %_63.i, ptr noalias noundef nonnull align 4 %scratch.0, i64 noundef %scratch.1, i32 noundef %48, ptr noalias noundef nonnull readonly align 4 captures(address, read_provenance) dereferenceable_or_null(4) %pivot_copy, ptr noalias noundef nonnull align 8 dereferenceable(8) %is_less) #29
  call void @llvm.lifetime.end.p0(i64 4, ptr nonnull %pivot_copy)
  %_8 = icmp ult i64 %state.sroa.27.2.lcssa.i, 33
  br i1 %_8, label %bb3, label %bb5

bb17:                                             ; preds = %bb12, %bb16
  call void @llvm.experimental.noalias.scope.decl(metadata !1351)
  call void @llvm.experimental.noalias.scope.decl(metadata !1354)
  %_8.i34.not = icmp samesign ult i64 %scratch.1, %v.sroa.16.0132
  br i1 %_8.i34.not, label %bb31.i37, label %bb33.i38, !prof !551

bb33.i38:                                         ; preds = %bb17
  %_86.i40 = getelementptr i32, ptr %scratch.0, i64 %v.sroa.16.0132
  br label %bb3.i41

bb31.i37:                                         ; preds = %bb17
  call void @llvm.trap()
  unreachable

bb3.i41:                                          ; preds = %bb23.i59, %bb33.i38
  %state.sroa.27.0.i42 = phi i64 [ 0, %bb33.i38 ], [ %94, %bb23.i59 ]
  %state.sroa.9.0.i43 = phi ptr [ %v.sroa.0.0.ph140, %bb33.i38 ], [ %_9.i70.i61, %bb23.i59 ]
  %state.sroa.43.0.i44 = phi ptr [ %_86.i40, %bb33.i38 ], [ %92, %bb23.i59 ]
  %pivot_pos.sroa.0.0.i45 = phi i64 [ %index.sroa.0.0.i, %bb33.i38 ], [ %v.sroa.16.0132, %bb23.i59 ]
  %81 = call i64 @llvm.usub.sat.i64(i64 %pivot_pos.sroa.0.0.i45, i64 3)
  %unroll_end.i46 = getelementptr inbounds nuw i32, ptr %v.sroa.0.0.ph140, i64 %81
  %_1984.i47 = icmp ult ptr %state.sroa.9.0.i43, %unroll_end.i46
  br i1 %_1984.i47, label %bb6.i78.preheader, label %bb16.i48

bb6.i78.preheader:                                ; preds = %bb3.i41
  %_3.i.i.i.i.i82 = load i32, ptr %src, align 4, !alias.scope !1356, !noalias !1365, !noundef !6
  br label %bb6.i78

bb6.i78:                                          ; preds = %bb6.i78.preheader, %bb6.i78
  %state.sroa.43.187.i79 = phi ptr [ %88, %bb6.i78 ], [ %state.sroa.43.0.i44, %bb6.i78.preheader ]
  %state.sroa.9.186.i80 = phi ptr [ %_9.i54.i100, %bb6.i78 ], [ %state.sroa.9.0.i43, %bb6.i78.preheader ]
  %state.sroa.27.185.i81 = phi i64 [ %89, %bb6.i78 ], [ %state.sroa.27.0.i42, %bb6.i78.preheader ]
  call void @llvm.experimental.noalias.scope.decl(metadata !1370)
  call void @llvm.experimental.noalias.scope.decl(metadata !1371)
  call void @llvm.experimental.noalias.scope.decl(metadata !1372)
  call void @llvm.experimental.noalias.scope.decl(metadata !1373)
  call void @llvm.experimental.noalias.scope.decl(metadata !1374)
  call void @llvm.experimental.noalias.scope.decl(metadata !1375)
  call void @llvm.experimental.noalias.scope.decl(metadata !1376)
  call void @llvm.experimental.noalias.scope.decl(metadata !1377)
  %_4.i.i.i.i.i83 = load i32, ptr %state.sroa.9.186.i80, align 4, !alias.scope !1378, !noalias !1379, !noundef !6
  %_0.i.i.i84 = icmp sge i32 %_3.i.i.i.i.i82, %_4.i.i.i.i.i83
  %82 = getelementptr inbounds i8, ptr %state.sroa.43.187.i79, i64 -4
  %dst_base.sroa.0.0.i.i85 = select i1 %_0.i.i.i84, ptr %scratch.0, ptr %82
  %dst.i.i86 = getelementptr inbounds nuw i32, ptr %dst_base.sroa.0.0.i.i85, i64 %state.sroa.27.185.i81
  store i32 %_4.i.i.i.i.i83, ptr %dst.i.i86, align 4, !alias.scope !1354, !noalias !1380
  %_8.i.i87 = zext i1 %_0.i.i.i84 to i64
  %83 = add i64 %state.sroa.27.185.i81, %_8.i.i87
  %_9.i.i88 = getelementptr inbounds nuw i8, ptr %state.sroa.9.186.i80, i64 4
  %_4.i.i.i.i26.i = load i32, ptr %_9.i.i88, align 4, !alias.scope !1383, !noalias !1392, !noundef !6
  %_0.i.i27.i = icmp sge i32 %_3.i.i.i.i.i82, %_4.i.i.i.i26.i
  %84 = getelementptr inbounds i8, ptr %state.sroa.43.187.i79, i64 -8
  %dst_base.sroa.0.0.i29.i89 = select i1 %_0.i.i27.i, ptr %scratch.0, ptr %84
  %dst.i31.i90 = getelementptr inbounds nuw i32, ptr %dst_base.sroa.0.0.i29.i89, i64 %83
  store i32 %_4.i.i.i.i26.i, ptr %dst.i31.i90, align 4, !alias.scope !1354, !noalias !1397
  %_8.i33.i91 = zext i1 %_0.i.i27.i to i64
  %85 = add i64 %83, %_8.i33.i91
  %_9.i34.i92 = getelementptr inbounds nuw i8, ptr %state.sroa.9.186.i80, i64 8
  %_4.i.i.i.i36.i = load i32, ptr %_9.i34.i92, align 4, !alias.scope !1400, !noalias !1409, !noundef !6
  %_0.i.i37.i = icmp sge i32 %_3.i.i.i.i.i82, %_4.i.i.i.i36.i
  %86 = getelementptr inbounds i8, ptr %state.sroa.43.187.i79, i64 -12
  %dst_base.sroa.0.0.i39.i93 = select i1 %_0.i.i37.i, ptr %scratch.0, ptr %86
  %dst.i41.i94 = getelementptr inbounds nuw i32, ptr %dst_base.sroa.0.0.i39.i93, i64 %85
  store i32 %_4.i.i.i.i36.i, ptr %dst.i41.i94, align 4, !alias.scope !1354, !noalias !1414
  %_8.i43.i95 = zext i1 %_0.i.i37.i to i64
  %87 = add i64 %85, %_8.i43.i95
  %_9.i44.i96 = getelementptr inbounds nuw i8, ptr %state.sroa.9.186.i80, i64 12
  %_4.i.i.i.i46.i = load i32, ptr %_9.i44.i96, align 4, !alias.scope !1417, !noalias !1426, !noundef !6
  %_0.i.i47.i = icmp sge i32 %_3.i.i.i.i.i82, %_4.i.i.i.i46.i
  %88 = getelementptr inbounds i8, ptr %state.sroa.43.187.i79, i64 -16
  %dst_base.sroa.0.0.i49.i97 = select i1 %_0.i.i47.i, ptr %scratch.0, ptr %88
  %dst.i51.i98 = getelementptr inbounds nuw i32, ptr %dst_base.sroa.0.0.i49.i97, i64 %87
  store i32 %_4.i.i.i.i46.i, ptr %dst.i51.i98, align 4, !alias.scope !1354, !noalias !1431
  %_8.i53.i99 = zext i1 %_0.i.i47.i to i64
  %89 = add i64 %87, %_8.i53.i99
  %_9.i54.i100 = getelementptr inbounds nuw i8, ptr %state.sroa.9.186.i80, i64 16
  %_19.i101 = icmp ult ptr %_9.i54.i100, %unroll_end.i46
  br i1 %_19.i101, label %bb6.i78, label %bb16.i48

bb16.i48:                                         ; preds = %bb6.i78, %bb3.i41
  %state.sroa.27.1.lcssa.i49 = phi i64 [ %state.sroa.27.0.i42, %bb3.i41 ], [ %89, %bb6.i78 ]
  %state.sroa.9.1.lcssa.i50 = phi ptr [ %state.sroa.9.0.i43, %bb3.i41 ], [ %_9.i54.i100, %bb6.i78 ]
  %state.sroa.43.1.lcssa.i51 = phi ptr [ %state.sroa.43.0.i44, %bb3.i41 ], [ %88, %bb6.i78 ]
  %loop_end.i52 = getelementptr inbounds nuw i32, ptr %v.sroa.0.0.ph140, i64 %pivot_pos.sroa.0.0.i45
  %_4790.i53 = icmp ult ptr %state.sroa.9.1.lcssa.i50, %loop_end.i52
  br i1 %_4790.i53, label %bb18.i69.preheader, label %bb21.i54

bb18.i69.preheader:                               ; preds = %bb16.i48
  %_3.i.i.i.i55.i = load i32, ptr %src, align 4, !alias.scope !1434, !noalias !1443, !noundef !6
  br label %bb18.i69

bb21.i54:                                         ; preds = %bb18.i69, %bb16.i48
  %state.sroa.27.2.lcssa.i55 = phi i64 [ %state.sroa.27.1.lcssa.i49, %bb16.i48 ], [ %91, %bb18.i69 ]
  %state.sroa.9.2.lcssa.i56 = phi ptr [ %state.sroa.9.1.lcssa.i50, %bb16.i48 ], [ %_9.i64.i76, %bb18.i69 ]
  %state.sroa.43.2.lcssa.i57 = phi ptr [ %state.sroa.43.1.lcssa.i51, %bb16.i48 ], [ %90, %bb18.i69 ]
  %_55.i58 = icmp eq i64 %pivot_pos.sroa.0.0.i45, %v.sroa.16.0132
  br i1 %_55.i58, label %bb22.i62, label %bb23.i59

bb18.i69:                                         ; preds = %bb18.i69.preheader, %bb18.i69
  %state.sroa.43.293.i70 = phi ptr [ %90, %bb18.i69 ], [ %state.sroa.43.1.lcssa.i51, %bb18.i69.preheader ]
  %state.sroa.9.292.i71 = phi ptr [ %_9.i64.i76, %bb18.i69 ], [ %state.sroa.9.1.lcssa.i50, %bb18.i69.preheader ]
  %state.sroa.27.291.i72 = phi i64 [ %91, %bb18.i69 ], [ %state.sroa.27.1.lcssa.i49, %bb18.i69.preheader ]
  call void @llvm.experimental.noalias.scope.decl(metadata !1448)
  call void @llvm.experimental.noalias.scope.decl(metadata !1449)
  call void @llvm.experimental.noalias.scope.decl(metadata !1450)
  call void @llvm.experimental.noalias.scope.decl(metadata !1451)
  call void @llvm.experimental.noalias.scope.decl(metadata !1452)
  call void @llvm.experimental.noalias.scope.decl(metadata !1453)
  call void @llvm.experimental.noalias.scope.decl(metadata !1454)
  call void @llvm.experimental.noalias.scope.decl(metadata !1455)
  %_4.i.i.i.i56.i = load i32, ptr %state.sroa.9.292.i71, align 4, !alias.scope !1456, !noalias !1457, !noundef !6
  %_0.i.i57.i = icmp sge i32 %_3.i.i.i.i55.i, %_4.i.i.i.i56.i
  %90 = getelementptr inbounds i8, ptr %state.sroa.43.293.i70, i64 -4
  %dst_base.sroa.0.0.i59.i73 = select i1 %_0.i.i57.i, ptr %scratch.0, ptr %90
  %dst.i61.i74 = getelementptr inbounds nuw i32, ptr %dst_base.sroa.0.0.i59.i73, i64 %state.sroa.27.291.i72
  store i32 %_4.i.i.i.i56.i, ptr %dst.i61.i74, align 4, !alias.scope !1354, !noalias !1458
  %_8.i63.i75 = zext i1 %_0.i.i57.i to i64
  %91 = add i64 %state.sroa.27.291.i72, %_8.i63.i75
  %_9.i64.i76 = getelementptr inbounds nuw i8, ptr %state.sroa.9.292.i71, i64 4
  %_47.i77 = icmp ult ptr %_9.i64.i76, %loop_end.i52
  br i1 %_47.i77, label %bb18.i69, label %bb21.i54

bb23.i59:                                         ; preds = %bb21.i54
  %92 = getelementptr inbounds i8, ptr %state.sroa.43.2.lcssa.i57, i64 -4
  %dst.i68.i60 = getelementptr inbounds nuw i32, ptr %scratch.0, i64 %state.sroa.27.2.lcssa.i55
  %93 = load i32, ptr %state.sroa.9.2.lcssa.i56, align 4, !alias.scope !1351, !noalias !1461
  store i32 %93, ptr %dst.i68.i60, align 4, !alias.scope !1354, !noalias !1464
  %94 = add i64 %state.sroa.27.2.lcssa.i55, 1
  %_9.i70.i61 = getelementptr inbounds nuw i8, ptr %state.sroa.9.2.lcssa.i56, i64 4
  br label %bb3.i41

bb22.i62:                                         ; preds = %bb21.i54
  %95 = shl i64 %state.sroa.27.2.lcssa.i55, 2
  call void @llvm.memcpy.p0.p0.i64(ptr nonnull align 4 %v.sroa.0.0.ph140, ptr nonnull align 4 %scratch.0, i64 %95, i1 false), !alias.scope !1465
  %_63.i63 = sub i64 %v.sroa.16.0132, %state.sroa.27.2.lcssa.i55
  %_9797.not.i64 = icmp eq i64 %v.sroa.16.0132, %state.sroa.27.2.lcssa.i55
  br i1 %_9797.not.i64, label %bb3.thread, label %bb42.lr.ph.i65

bb42.lr.ph.i65:                                   ; preds = %bb22.i62
  %96 = getelementptr i32, ptr %v.sroa.0.0.ph140, i64 %state.sroa.27.2.lcssa.i55
  %min.iters.check = icmp ult i64 %_63.i63, 8
  br i1 %min.iters.check, label %bb42.i66.preheader, label %vector.ph

vector.ph:                                        ; preds = %bb42.lr.ph.i65
  %n.vec = and i64 %_63.i63, -8
  br label %vector.body

vector.body:                                      ; preds = %vector.body, %vector.ph
  %index = phi i64 [ 0, %vector.ph ], [ %index.next, %vector.body ]
  %97 = getelementptr i32, ptr %96, i64 %index
  %98 = xor i64 %index, -1
  %99 = getelementptr i32, ptr %_86.i40, i64 %98
  %100 = getelementptr i8, ptr %99, i64 -12
  %101 = getelementptr i8, ptr %99, i64 -28
  %wide.load = load <4 x i32>, ptr %100, align 4, !alias.scope !1354, !noalias !1351
  %reverse = shufflevector <4 x i32> %wide.load, <4 x i32> poison, <4 x i32> <i32 3, i32 2, i32 1, i32 0>
  %wide.load262 = load <4 x i32>, ptr %101, align 4, !alias.scope !1354, !noalias !1351
  %reverse263 = shufflevector <4 x i32> %wide.load262, <4 x i32> poison, <4 x i32> <i32 3, i32 2, i32 1, i32 0>
  %102 = getelementptr i8, ptr %97, i64 16
  store <4 x i32> %reverse, ptr %97, align 4, !alias.scope !1351, !noalias !1354
  store <4 x i32> %reverse263, ptr %102, align 4, !alias.scope !1351, !noalias !1354
  %index.next = add nuw i64 %index, 8
  %103 = icmp eq i64 %index.next, %n.vec
  br i1 %103, label %middle.block, label %vector.body, !llvm.loop !1466

middle.block:                                     ; preds = %vector.body
  %cmp.n = icmp eq i64 %_63.i63, %n.vec
  br i1 %cmp.n, label %_ZN4core5slice4sort6stable9quicksort16stable_partition17hb6ded74fc6134ad0E.exit, label %bb42.i66.preheader

bb42.i66.preheader:                               ; preds = %bb42.lr.ph.i65, %middle.block
  %iter.sroa.0.098.i67.ph = phi i64 [ 0, %bb42.lr.ph.i65 ], [ %n.vec, %middle.block ]
  br label %bb42.i66

bb42.i66:                                         ; preds = %bb42.i66.preheader, %bb42.i66
  %iter.sroa.0.098.i67 = phi i64 [ %104, %bb42.i66 ], [ %iter.sroa.0.098.i67.ph, %bb42.i66.preheader ]
  %104 = add nuw i64 %iter.sroa.0.098.i67, 1
  %105 = getelementptr i32, ptr %96, i64 %iter.sroa.0.098.i67
  %106 = xor i64 %iter.sroa.0.098.i67, -1
  %107 = getelementptr i32, ptr %_86.i40, i64 %106
  %108 = load i32, ptr %107, align 4, !alias.scope !1354, !noalias !1351
  store i32 %108, ptr %105, align 4, !alias.scope !1351, !noalias !1354
  %exitcond.not.i68 = icmp eq i64 %104, %_63.i63
  br i1 %exitcond.not.i68, label %_ZN4core5slice4sort6stable9quicksort16stable_partition17hb6ded74fc6134ad0E.exit, label %bb42.i66, !llvm.loop !1467

_ZN4core5slice4sort6stable9quicksort16stable_partition17hb6ded74fc6134ad0E.exit: ; preds = %bb42.i66, %middle.block
  %_47 = icmp ugt i64 %state.sroa.27.2.lcssa.i55, %v.sroa.16.0132
  br i1 %_47, label %bb27, label %bb28, !prof !1346

bb3.thread:                                       ; preds = %bb22.i62
  call void @llvm.lifetime.end.p0(i64 4, ptr nonnull %pivot_copy)
  br label %bb22

bb28:                                             ; preds = %_ZN4core5slice4sort6stable9quicksort16stable_partition17hb6ded74fc6134ad0E.exit
  %_54 = getelementptr inbounds nuw i32, ptr %v.sroa.0.0.ph140, i64 %state.sroa.27.2.lcssa.i55
  call void @llvm.lifetime.end.p0(i64 4, ptr nonnull %pivot_copy)
  %_8130 = icmp ult i64 %_63.i63, 33
  br i1 %_8130, label %bb3, label %bb5.lr.ph

bb27:                                             ; preds = %_ZN4core5slice4sort6stable9quicksort16stable_partition17hb6ded74fc6134ad0E.exit
; call core::slice::index::slice_index_fail
  call void @_ZN4core5slice5index16slice_index_fail17h62807bcaa490c9c1E(i64 noundef %state.sroa.27.2.lcssa.i55, i64 noundef %v.sroa.16.0132, i64 noundef %v.sroa.16.0132, ptr noalias noundef readonly align 8 captures(address, read_provenance) dereferenceable(24) @alloc_0766b232215672ee1bd2195fdb153938) #26
  unreachable

bb22:                                             ; preds = %bb3.thread, %bb9.i.i, %bb3, %bb6
  ret void
}

; core::slice::sort::stable::quicksort::quicksort
; Function Attrs: noinline nonlazybind uwtable
define void @_ZN4core5slice4sort6stable9quicksort9quicksort17h6aa3617edc74af8eE(ptr noalias noundef nonnull align 8 %0, i64 noundef range(i64 0, 384307168202282326) %1, ptr noalias noundef nonnull align 8 %scratch.0, i64 noundef range(i64 0, 384307168202282326) %scratch.1, i32 noundef %2, ptr noalias noundef readonly align 8 captures(address) dereferenceable_or_null(24) %3, ptr noalias noundef align 8 dereferenceable(8) %is_less) unnamed_addr #6 personality ptr @rust_eh_personality {
start:
  %pivot_copy = alloca [24 x i8], align 8
  %_8105111 = icmp samesign ult i64 %1, 33
  br i1 %_8105111, label %bb3, label %bb5.lr.ph

bb5.lr.ph:                                        ; preds = %start, %bb28
  %v.sroa.0.0.ph115 = phi ptr [ %_54, %bb28 ], [ %0, %start ]
  %v.sroa.16.0.ph114 = phi i64 [ %_63.i59, %bb28 ], [ %1, %start ]
  %limit.sroa.0.0.ph113 = phi i32 [ %58, %bb28 ], [ %2, %start ]
  %left_ancestor_pivot.sroa.0.0.ph112 = phi ptr [ null, %bb28 ], [ %3, %start ]
  %4 = getelementptr inbounds nuw i8, ptr %v.sroa.0.0.ph115, i64 8
  %5 = getelementptr inbounds nuw i8, ptr %v.sroa.0.0.ph115, i64 16
  %6 = ptrtoint ptr %v.sroa.0.0.ph115 to i64
  %.not = icmp eq ptr %left_ancestor_pivot.sroa.0.0.ph112, null
  %7 = getelementptr inbounds nuw i8, ptr %left_ancestor_pivot.sroa.0.0.ph112, i64 8
  %8 = getelementptr inbounds nuw i8, ptr %left_ancestor_pivot.sroa.0.0.ph112, i64 16
  br label %bb5

bb5:                                              ; preds = %bb5.lr.ph, %"_ZN4core5slice29_$LT$impl$u20$$u5b$T$u5d$$GT$12split_at_mut17h7dd69a5499b58ed4E.exit"
  %v.sroa.16.0107 = phi i64 [ %v.sroa.16.0.ph114, %bb5.lr.ph ], [ %state.sroa.11.1.lcssa.i, %"_ZN4core5slice29_$LT$impl$u20$$u5b$T$u5d$$GT$12split_at_mut17h7dd69a5499b58ed4E.exit" ]
  %limit.sroa.0.0106 = phi i32 [ %limit.sroa.0.0.ph113, %bb5.lr.ph ], [ %58, %"_ZN4core5slice29_$LT$impl$u20$$u5b$T$u5d$$GT$12split_at_mut17h7dd69a5499b58ed4E.exit" ]
  %_11 = icmp eq i32 %limit.sroa.0.0106, 0
  br i1 %_11, label %bb6, label %bb7

bb3:                                              ; preds = %bb28, %"_ZN4core5slice29_$LT$impl$u20$$u5b$T$u5d$$GT$12split_at_mut17h7dd69a5499b58ed4E.exit", %start
  %v.sroa.0.0.ph.lcssa104 = phi ptr [ %0, %start ], [ %v.sroa.0.0.ph115, %"_ZN4core5slice29_$LT$impl$u20$$u5b$T$u5d$$GT$12split_at_mut17h7dd69a5499b58ed4E.exit" ], [ %_54, %bb28 ]
  %v.sroa.16.0.lcssa = phi i64 [ %1, %start ], [ %state.sroa.11.1.lcssa.i, %"_ZN4core5slice29_$LT$impl$u20$$u5b$T$u5d$$GT$12split_at_mut17h7dd69a5499b58ed4E.exit" ], [ %_63.i59, %bb28 ]
  call void @llvm.experimental.noalias.scope.decl(metadata !1468)
  %_5.i = icmp samesign ult i64 %v.sroa.16.0.lcssa, 2
  br i1 %_5.i, label %bb22, label %bb2.i

bb2.i:                                            ; preds = %bb3
  %_8.i = add nuw nsw i64 %v.sroa.16.0.lcssa, 16
  %_6.i = icmp samesign ult i64 %scratch.1, %_8.i
  br i1 %_6.i, label %bb3.i, label %bb4.i

bb4.i:                                            ; preds = %bb2.i
  %len_div_211.i = lshr i64 %v.sroa.16.0.lcssa, 1
  %_22.i = icmp samesign ugt i64 %v.sroa.16.0.lcssa, 7
  %_27.i = getelementptr inbounds nuw %"alloc::string::String", ptr %v.sroa.0.0.ph.lcssa104, i64 %len_div_211.i
  %_28.i = getelementptr %"alloc::string::String", ptr %scratch.0, i64 %len_div_211.i
  br i1 %_22.i, label %bb10.i, label %bb46.i

bb3.i:                                            ; preds = %bb2.i
  call void @llvm.trap()
  unreachable

bb10.i:                                           ; preds = %bb4.i
; call core::slice::sort::shared::smallsort::sort4_stable
  call fastcc void @_ZN4core5slice4sort6shared9smallsort12sort4_stable17h3f04cd941118cad7E(ptr noundef nonnull align 8 %v.sroa.0.0.ph.lcssa104, ptr noundef nonnull align 8 %scratch.0)
; call core::slice::sort::shared::smallsort::sort4_stable
  call fastcc void @_ZN4core5slice4sort6shared9smallsort12sort4_stable17h3f04cd941118cad7E(ptr noundef %_27.i, ptr noundef %_28.i)
  br label %bb15.i

bb46.i:                                           ; preds = %bb4.i
  call void @llvm.memcpy.p0.p0.i64(ptr noundef nonnull align 8 dereferenceable(24) %scratch.0, ptr noundef nonnull align 8 dereferenceable(24) %v.sroa.0.0.ph.lcssa104, i64 24, i1 false), !alias.scope !1471, !noalias !1473
  call void @llvm.memcpy.p0.p0.i64(ptr noundef nonnull align 8 dereferenceable(24) %_28.i, ptr noundef nonnull align 8 dereferenceable(24) %_27.i, i64 24, i1 false), !alias.scope !1471, !noalias !1473
  br label %bb15.i

bb15.i:                                           ; preds = %bb46.i, %bb10.i
  %presorted_len.sroa.0.0.i = phi i64 [ 4, %bb10.i ], [ 1, %bb46.i ]
  %9 = sub nsw i64 %v.sroa.16.0.lcssa, %len_div_211.i
  %_8025.i = icmp samesign ult i64 %presorted_len.sroa.0.0.i, %len_div_211.i
  br i1 %_8025.i, label %bb24.preheader.i, label %bb16.loopexit.i

bb16.loopexit.i:                                  ; preds = %_ZN4core5slice4sort6shared9smallsort11insert_tail17h8519b9f909450705E.exit.i, %bb15.i
  %_8025.1.i = icmp ult i64 %presorted_len.sroa.0.0.i, %9
  br i1 %_8025.1.i, label %bb24.preheader.1.i, label %bb16.loopexit.1.i

bb24.preheader.1.i:                               ; preds = %bb16.loopexit.i
  %iter1.sroa.0.127.1.i = add nuw nsw i64 %presorted_len.sroa.0.0.i, 1
  br label %bb24.1.i

bb24.1.i:                                         ; preds = %_ZN4core5slice4sort6shared9smallsort11insert_tail17h8519b9f909450705E.exit.1.i, %bb24.preheader.1.i
  %iter1.sroa.0.129.1.i = phi i64 [ %iter1.sroa.0.1.1.i, %_ZN4core5slice4sort6shared9smallsort11insert_tail17h8519b9f909450705E.exit.1.i ], [ %iter1.sroa.0.127.1.i, %bb24.preheader.1.i ]
  %iter1.sroa.0.028.1.i = phi i64 [ %iter1.sroa.0.129.1.i, %_ZN4core5slice4sort6shared9smallsort11insert_tail17h8519b9f909450705E.exit.1.i ], [ %presorted_len.sroa.0.0.i, %bb24.preheader.1.i ]
  %_55.1.i = getelementptr inbounds nuw %"alloc::string::String", ptr %_27.i, i64 %iter1.sroa.0.028.1.i
  %dst7.1.i = getelementptr inbounds nuw %"alloc::string::String", ptr %_28.i, i64 %iter1.sroa.0.028.1.i
  call void @llvm.memcpy.p0.p0.i64(ptr noundef nonnull align 8 dereferenceable(24) %dst7.1.i, ptr noundef nonnull align 8 dereferenceable(24) %_55.1.i, i64 24, i1 false), !alias.scope !1471, !noalias !1473
  call void @llvm.experimental.noalias.scope.decl(metadata !1475)
  call void @llvm.experimental.noalias.scope.decl(metadata !1478)
  call void @llvm.experimental.noalias.scope.decl(metadata !1480)
  call void @llvm.experimental.noalias.scope.decl(metadata !1483)
  call void @llvm.experimental.noalias.scope.decl(metadata !1485)
  call void @llvm.experimental.noalias.scope.decl(metadata !1488)
  %10 = getelementptr inbounds nuw i8, ptr %dst7.1.i, i64 8
  %_7.i.i.i.i13.1.i = load ptr, ptr %10, align 8, !alias.scope !1490, !noalias !1491, !nonnull !6, !noundef !6
  %11 = getelementptr inbounds nuw i8, ptr %dst7.1.i, i64 16
  %len1.i.i.i.i14.1.i = load i64, ptr %11, align 8, !alias.scope !1490, !noalias !1491, !noundef !6
  %12 = getelementptr inbounds i8, ptr %dst7.1.i, i64 -16
  %_14.i.i.i.i15.1.i = load ptr, ptr %12, align 8, !alias.scope !1492, !noalias !1493, !nonnull !6, !noundef !6
  %13 = getelementptr inbounds i8, ptr %dst7.1.i, i64 -8
  %14 = load i64, ptr %13, align 8, !alias.scope !1492, !noalias !1493, !noundef !6
  %spec.store.select.i.i.i.i.i16.1.i = call i64 @llvm.umin.i64(i64 range(i64 0, -9223372036854775808) %len1.i.i.i.i14.1.i, i64 range(i64 0, -9223372036854775808) %14)
  %15 = call i32 @memcmp(ptr nonnull readonly align 1 %_7.i.i.i.i13.1.i, ptr nonnull readonly align 1 %_14.i.i.i.i15.1.i, i64 %spec.store.select.i.i.i.i.i16.1.i), !alias.scope !1494, !noalias !1498
  %16 = sext i32 %15 to i64
  %_15.i.i.i.i.i17.1.i = icmp eq i32 %15, 0
  %diff.i.i.i.i.i18.1.i = sub nsw i64 %len1.i.i.i.i14.1.i, %14
  %spec.select.i.i.i.i.i19.1.i = select i1 %_15.i.i.i.i.i17.1.i, i64 %diff.i.i.i.i.i18.1.i, i64 %16
  %_0.i.i20.1.i = icmp slt i64 %spec.select.i.i.i.i.i19.1.i, 0
  br i1 %_0.i.i20.1.i, label %bb2.i.1.i, label %_ZN4core5slice4sort6shared9smallsort11insert_tail17h8519b9f909450705E.exit.1.i

bb2.i.1.i:                                        ; preds = %bb24.1.i
  %value.sroa.0.0.copyload.i.1.i = load i64, ptr %dst7.1.i, align 8, !alias.scope !1499, !noalias !1500
  br label %bb4.i.1.i

bb4.i.1.i:                                        ; preds = %bb7.i.1.i, %bb2.i.1.i
  %gap_guard.sroa.5.0.i.1.i = phi ptr [ %dst7.1.i, %bb2.i.1.i ], [ %sift.sroa.0.0.i.1.i, %bb7.i.1.i ]
  %sift.sroa.0.0.i.1.i = getelementptr inbounds i8, ptr %gap_guard.sroa.5.0.i.1.i, i64 -24
  call void @llvm.memcpy.p0.p0.i64(ptr noundef nonnull align 8 dereferenceable(24) %gap_guard.sroa.5.0.i.1.i, ptr noundef nonnull align 8 dereferenceable(24) %sift.sroa.0.0.i.1.i, i64 24, i1 false), !alias.scope !1499, !noalias !1500
  %_18.i.1.i = icmp eq ptr %sift.sroa.0.0.i.1.i, %_28.i
  br i1 %_18.i.1.i, label %bb10.i.1.i, label %bb7.i.1.i

bb7.i.1.i:                                        ; preds = %bb4.i.1.i
  call void @llvm.experimental.noalias.scope.decl(metadata !1501)
  call void @llvm.experimental.noalias.scope.decl(metadata !1504)
  call void @llvm.experimental.noalias.scope.decl(metadata !1507)
  %17 = getelementptr inbounds i8, ptr %gap_guard.sroa.5.0.i.1.i, i64 -40
  %_14.i.i.i3.i.1.i = load ptr, ptr %17, align 8, !alias.scope !1510, !noalias !1511, !nonnull !6, !noundef !6
  %18 = getelementptr inbounds i8, ptr %gap_guard.sroa.5.0.i.1.i, i64 -32
  %19 = load i64, ptr %18, align 8, !alias.scope !1510, !noalias !1511, !noundef !6
  %spec.store.select.i.i.i.i4.i.1.i = call i64 @llvm.umin.i64(i64 range(i64 0, -9223372036854775808) %len1.i.i.i.i14.1.i, i64 range(i64 0, -9223372036854775808) %19)
  %20 = call i32 @memcmp(ptr nonnull readonly align 1 %_7.i.i.i.i13.1.i, ptr nonnull readonly align 1 %_14.i.i.i3.i.1.i, i64 %spec.store.select.i.i.i.i4.i.1.i), !alias.scope !1515, !noalias !1519
  %21 = sext i32 %20 to i64
  %_15.i.i.i.i5.i.1.i = icmp eq i32 %20, 0
  %diff.i.i.i.i6.i.1.i = sub nsw i64 %len1.i.i.i.i14.1.i, %19
  %spec.select.i.i.i.i7.i.1.i = select i1 %_15.i.i.i.i5.i.1.i, i64 %diff.i.i.i.i6.i.1.i, i64 %21
  %_0.i8.i.1.i = icmp slt i64 %spec.select.i.i.i.i7.i.1.i, 0
  br i1 %_0.i8.i.1.i, label %bb4.i.1.i, label %bb10.i.1.i

bb10.i.1.i:                                       ; preds = %bb7.i.1.i, %bb4.i.1.i
  %sift.sroa.0.0.i.lcssa.1.i = phi ptr [ %sift.sroa.0.0.i.1.i, %bb7.i.1.i ], [ %_28.i, %bb4.i.1.i ]
  store i64 %value.sroa.0.0.copyload.i.1.i, ptr %sift.sroa.0.0.i.lcssa.1.i, align 8, !alias.scope !1499, !noalias !1520
  %tmp.sroa.4.0.sift.sroa.0.0.lcssa.sroa_idx.i.1.i = getelementptr inbounds i8, ptr %gap_guard.sroa.5.0.i.1.i, i64 -16
  store ptr %_7.i.i.i.i13.1.i, ptr %tmp.sroa.4.0.sift.sroa.0.0.lcssa.sroa_idx.i.1.i, align 8, !alias.scope !1499, !noalias !1520
  %tmp.sroa.5.0.sift.sroa.0.0.lcssa.sroa_idx.i.1.i = getelementptr inbounds i8, ptr %gap_guard.sroa.5.0.i.1.i, i64 -8
  store i64 %len1.i.i.i.i14.1.i, ptr %tmp.sroa.5.0.sift.sroa.0.0.lcssa.sroa_idx.i.1.i, align 8, !alias.scope !1499, !noalias !1520
  br label %_ZN4core5slice4sort6shared9smallsort11insert_tail17h8519b9f909450705E.exit.1.i

_ZN4core5slice4sort6shared9smallsort11insert_tail17h8519b9f909450705E.exit.1.i: ; preds = %bb10.i.1.i, %bb24.1.i
  %_80.1.i = icmp ult i64 %iter1.sroa.0.129.1.i, %9
  %_84.1.i = zext i1 %_80.1.i to i64
  %iter1.sroa.0.1.1.i = add nuw i64 %iter1.sroa.0.129.1.i, %_84.1.i
  br i1 %_80.1.i, label %bb24.1.i, label %bb16.loopexit.1.i

bb16.loopexit.1.i:                                ; preds = %_ZN4core5slice4sort6shared9smallsort11insert_tail17h8519b9f909450705E.exit.1.i, %bb16.loopexit.i
  call void @llvm.experimental.noalias.scope.decl(metadata !1525)
  %count1.i.i = add nsw i64 %v.sroa.16.0.lcssa, -1
  %22 = getelementptr inbounds nuw %"alloc::string::String", ptr %v.sroa.0.0.ph.lcssa104, i64 %count1.i.i
  %23 = getelementptr inbounds nuw %"alloc::string::String", ptr %scratch.0, i64 %count1.i.i
  %24 = getelementptr i8, ptr %_28.i, i64 -24
  br label %bb15.i.i

bb24.preheader.i:                                 ; preds = %bb15.i
  %iter1.sroa.0.127.i = add nuw nsw i64 %presorted_len.sroa.0.0.i, 1
  br label %bb24.i

bb16.i.i:                                         ; preds = %bb15.i.i
  %25 = getelementptr i8, ptr %42, i64 24
  %26 = getelementptr i8, ptr %41, i64 24
  %_44.i.i = and i64 %v.sroa.16.0.lcssa, 1
  %_22.i.i = icmp eq i64 %_44.i.i, 0
  br i1 %_22.i.i, label %bb9.i.i, label %bb5.i.i

bb15.i.i:                                         ; preds = %bb15.i.i, %bb16.loopexit.1.i
  %dst.sroa.0.034.i.i = phi ptr [ %_16.i.i.i, %bb15.i.i ], [ %v.sroa.0.0.ph.lcssa104, %bb16.loopexit.1.i ]
  %iter.sroa.0.033.i.i = phi i64 [ %_39.i.i, %bb15.i.i ], [ 0, %bb16.loopexit.1.i ]
  %left.sroa.0.032.i.i = phi ptr [ %_14.i.i.i, %bb15.i.i ], [ %scratch.0, %bb16.loopexit.1.i ]
  %right.sroa.0.031.i.i = phi ptr [ %_12.i.i.i, %bb15.i.i ], [ %_28.i, %bb16.loopexit.1.i ]
  %left_rev.sroa.0.030.i.i = phi ptr [ %42, %bb15.i.i ], [ %24, %bb16.loopexit.1.i ]
  %right_rev.sroa.0.029.i.i = phi ptr [ %41, %bb15.i.i ], [ %23, %bb16.loopexit.1.i ]
  %dst_rev.sroa.0.028.i.i = phi ptr [ %43, %bb15.i.i ], [ %22, %bb16.loopexit.1.i ]
  %_39.i.i = add nuw nsw i64 %iter.sroa.0.033.i.i, 1
  call void @llvm.experimental.noalias.scope.decl(metadata !1528)
  call void @llvm.experimental.noalias.scope.decl(metadata !1531)
  call void @llvm.experimental.noalias.scope.decl(metadata !1533), !noalias !1536
  call void @llvm.experimental.noalias.scope.decl(metadata !1539), !noalias !1536
  call void @llvm.experimental.noalias.scope.decl(metadata !1541), !noalias !1536
  call void @llvm.experimental.noalias.scope.decl(metadata !1544), !noalias !1536
  %27 = getelementptr inbounds nuw i8, ptr %right.sroa.0.031.i.i, i64 8
  %_7.i.i.i.i.i = load ptr, ptr %27, align 8, !alias.scope !1546, !noalias !1547, !nonnull !6, !noundef !6
  %28 = getelementptr inbounds nuw i8, ptr %right.sroa.0.031.i.i, i64 16
  %len1.i.i.i.i.i = load i64, ptr %28, align 8, !alias.scope !1546, !noalias !1547, !noundef !6
  %29 = getelementptr inbounds nuw i8, ptr %left.sroa.0.032.i.i, i64 8
  %_14.i.i.i.i.i = load ptr, ptr %29, align 8, !alias.scope !1548, !noalias !1549, !nonnull !6, !noundef !6
  %30 = getelementptr inbounds nuw i8, ptr %left.sroa.0.032.i.i, i64 16
  %31 = load i64, ptr %30, align 8, !alias.scope !1548, !noalias !1549, !noundef !6
  %spec.store.select.i.i.i.i.i.i = call i64 @llvm.umin.i64(i64 range(i64 0, -9223372036854775808) %len1.i.i.i.i.i, i64 range(i64 0, -9223372036854775808) %31)
  %32 = call i32 @memcmp(ptr nonnull readonly align 1 %_7.i.i.i.i.i, ptr nonnull readonly align 1 %_14.i.i.i.i.i, i64 %spec.store.select.i.i.i.i.i.i), !alias.scope !1550, !noalias !1554
  %33 = sext i32 %32 to i64
  %_15.i.i.i.i.i.i = icmp eq i32 %32, 0
  %diff.i.i.i.i.i.i = sub nsw i64 %len1.i.i.i.i.i, %31
  %spec.select.i.i.i.i.i.i = select i1 %_15.i.i.i.i.i.i, i64 %diff.i.i.i.i.i.i, i64 %33
  %_0.i.i.i = icmp sgt i64 %spec.select.i.i.i.i.i.i, -1
  %..i17.i.i = select i1 %_0.i.i.i, ptr %left.sroa.0.032.i.i, ptr %right.sroa.0.031.i.i
  call void @llvm.memcpy.p0.p0.i64(ptr noundef nonnull align 8 dereferenceable(24) %dst.sroa.0.034.i.i, ptr noundef nonnull align 8 dereferenceable(24) %..i17.i.i, i64 24, i1 false), !alias.scope !1471, !noalias !1555
  %spec.select.i.i.i.i.lobit.i.i = lshr i64 %spec.select.i.i.i.i.i.i, 63
  %_12.i.i.i = getelementptr inbounds nuw %"alloc::string::String", ptr %right.sroa.0.031.i.i, i64 %spec.select.i.i.i.i.lobit.i.i
  %count2.i.i.i = zext i1 %_0.i.i.i to i64
  %_14.i.i.i = getelementptr inbounds nuw %"alloc::string::String", ptr %left.sroa.0.032.i.i, i64 %count2.i.i.i
  %_16.i.i.i = getelementptr inbounds nuw i8, ptr %dst.sroa.0.034.i.i, i64 24
  call void @llvm.experimental.noalias.scope.decl(metadata !1557)
  call void @llvm.experimental.noalias.scope.decl(metadata !1560)
  call void @llvm.experimental.noalias.scope.decl(metadata !1562), !noalias !1565
  call void @llvm.experimental.noalias.scope.decl(metadata !1568), !noalias !1565
  call void @llvm.experimental.noalias.scope.decl(metadata !1570), !noalias !1565
  call void @llvm.experimental.noalias.scope.decl(metadata !1573), !noalias !1565
  %34 = getelementptr inbounds nuw i8, ptr %right_rev.sroa.0.029.i.i, i64 8
  %_7.i.i.i19.i.i = load ptr, ptr %34, align 8, !alias.scope !1575, !noalias !1576, !nonnull !6, !noundef !6
  %35 = getelementptr inbounds nuw i8, ptr %right_rev.sroa.0.029.i.i, i64 16
  %len1.i.i.i20.i.i = load i64, ptr %35, align 8, !alias.scope !1575, !noalias !1576, !noundef !6
  %36 = getelementptr inbounds nuw i8, ptr %left_rev.sroa.0.030.i.i, i64 8
  %_14.i.i.i21.i.i = load ptr, ptr %36, align 8, !alias.scope !1577, !noalias !1578, !nonnull !6, !noundef !6
  %37 = getelementptr inbounds nuw i8, ptr %left_rev.sroa.0.030.i.i, i64 16
  %38 = load i64, ptr %37, align 8, !alias.scope !1577, !noalias !1578, !noundef !6
  %spec.store.select.i.i.i.i22.i.i = call i64 @llvm.umin.i64(i64 range(i64 0, -9223372036854775808) %len1.i.i.i20.i.i, i64 range(i64 0, -9223372036854775808) %38)
  %39 = call i32 @memcmp(ptr nonnull readonly align 1 %_7.i.i.i19.i.i, ptr nonnull readonly align 1 %_14.i.i.i21.i.i, i64 %spec.store.select.i.i.i.i22.i.i), !alias.scope !1579, !noalias !1583
  %40 = sext i32 %39 to i64
  %_15.i.i.i.i23.i.i = icmp eq i32 %39, 0
  %diff.i.i.i.i24.i.i = sub nsw i64 %len1.i.i.i20.i.i, %38
  %spec.select.i.i.i.i25.i.i = select i1 %_15.i.i.i.i23.i.i, i64 %diff.i.i.i.i24.i.i, i64 %40
  %_0.i26.i.i = icmp sgt i64 %spec.select.i.i.i.i25.i.i, -1
  %..i.i.i = select i1 %_0.i26.i.i, ptr %right_rev.sroa.0.029.i.i, ptr %left_rev.sroa.0.030.i.i
  call void @llvm.memcpy.p0.p0.i64(ptr noundef nonnull align 8 dereferenceable(24) %dst_rev.sroa.0.028.i.i, ptr noundef nonnull align 8 dereferenceable(24) %..i.i.i, i64 24, i1 false), !alias.scope !1471, !noalias !1584
  %count.neg.i.i.i = sext i1 %_0.i26.i.i to i64
  %41 = getelementptr %"alloc::string::String", ptr %right_rev.sroa.0.029.i.i, i64 %count.neg.i.i.i
  %spec.select.i.i.i.i25.lobit.i.i = ashr i64 %spec.select.i.i.i.i25.i.i, 63
  %42 = getelementptr %"alloc::string::String", ptr %left_rev.sroa.0.030.i.i, i64 %spec.select.i.i.i.i25.lobit.i.i
  %43 = getelementptr inbounds i8, ptr %dst_rev.sroa.0.028.i.i, i64 -24
  %exitcond.not.i.i = icmp eq i64 %_39.i.i, %len_div_211.i
  br i1 %exitcond.not.i.i, label %bb16.i.i, label %bb15.i.i

bb5.i.i:                                          ; preds = %bb16.i.i
  %left_nonempty.i.i = icmp ult ptr %_14.i.i.i, %25
  %left.sroa.0.0.right.sroa.0.0.i.i = select i1 %left_nonempty.i.i, ptr %_14.i.i.i, ptr %_12.i.i.i
  call void @llvm.memcpy.p0.p0.i64(ptr noundef nonnull align 8 dereferenceable(24) %_16.i.i.i, ptr noundef nonnull align 8 dereferenceable(24) %left.sroa.0.0.right.sroa.0.0.i.i, i64 24, i1 false), !alias.scope !1471, !noalias !1473
  %count2.i.i = zext i1 %left_nonempty.i.i to i64
  %_26.i.i = getelementptr inbounds nuw %"alloc::string::String", ptr %_14.i.i.i, i64 %count2.i.i
  %_30.i.i = xor i1 %left_nonempty.i.i, true
  %count3.i.i = zext i1 %_30.i.i to i64
  %_28.i.i = getelementptr inbounds nuw %"alloc::string::String", ptr %_12.i.i.i, i64 %count3.i.i
  br label %bb9.i.i

bb9.i.i:                                          ; preds = %bb5.i.i, %bb16.i.i
  %right.sroa.0.1.i.i = phi ptr [ %_12.i.i.i, %bb16.i.i ], [ %_28.i.i, %bb5.i.i ]
  %left.sroa.0.1.i.i = phi ptr [ %_14.i.i.i, %bb16.i.i ], [ %_26.i.i, %bb5.i.i ]
  %_31.i.i = icmp ne ptr %left.sroa.0.1.i.i, %25
  %_32.i.i = icmp ne ptr %right.sroa.0.1.i.i, %26
  %or.cond.i.i = select i1 %_31.i.i, i1 true, i1 %_32.i.i
  br i1 %or.cond.i.i, label %bb13.i.i, label %bb22, !prof !551

bb13.i.i:                                         ; preds = %bb9.i.i
; invoke core::slice::sort::shared::smallsort::panic_on_ord_violation
  invoke void @_ZN4core5slice4sort6shared9smallsort22panic_on_ord_violation17hc77a22a2d50782cdE() #26
          to label %.noexc.i unwind label %cleanup2.i, !noalias !1500

.noexc.i:                                         ; preds = %bb13.i.i
  unreachable

cleanup2.i:                                       ; preds = %bb13.i.i
  %44 = landingpad { ptr, i32 }
          cleanup
  %45 = mul nuw nsw i64 %v.sroa.16.0.lcssa, 24
  call void @llvm.memcpy.p0.p0.i64(ptr nonnull align 8 %v.sroa.0.0.ph.lcssa104, ptr nonnull align 8 %scratch.0, i64 %45, i1 false), !alias.scope !1471, !noalias !1586
  resume { ptr, i32 } %44

bb24.i:                                           ; preds = %_ZN4core5slice4sort6shared9smallsort11insert_tail17h8519b9f909450705E.exit.i, %bb24.preheader.i
  %iter1.sroa.0.129.i = phi i64 [ %iter1.sroa.0.1.i, %_ZN4core5slice4sort6shared9smallsort11insert_tail17h8519b9f909450705E.exit.i ], [ %iter1.sroa.0.127.i, %bb24.preheader.i ]
  %iter1.sroa.0.028.i = phi i64 [ %iter1.sroa.0.129.i, %_ZN4core5slice4sort6shared9smallsort11insert_tail17h8519b9f909450705E.exit.i ], [ %presorted_len.sroa.0.0.i, %bb24.preheader.i ]
  %_55.i = getelementptr inbounds nuw %"alloc::string::String", ptr %v.sroa.0.0.ph.lcssa104, i64 %iter1.sroa.0.028.i
  %dst7.i = getelementptr inbounds nuw %"alloc::string::String", ptr %scratch.0, i64 %iter1.sroa.0.028.i
  call void @llvm.memcpy.p0.p0.i64(ptr noundef nonnull align 8 dereferenceable(24) %dst7.i, ptr noundef nonnull align 8 dereferenceable(24) %_55.i, i64 24, i1 false), !alias.scope !1471, !noalias !1473
  call void @llvm.experimental.noalias.scope.decl(metadata !1591)
  call void @llvm.experimental.noalias.scope.decl(metadata !1593)
  call void @llvm.experimental.noalias.scope.decl(metadata !1595)
  call void @llvm.experimental.noalias.scope.decl(metadata !1597)
  call void @llvm.experimental.noalias.scope.decl(metadata !1599)
  call void @llvm.experimental.noalias.scope.decl(metadata !1601)
  %46 = getelementptr inbounds nuw i8, ptr %dst7.i, i64 8
  %_7.i.i.i.i13.i = load ptr, ptr %46, align 8, !alias.scope !1603, !noalias !1604, !nonnull !6, !noundef !6
  %47 = getelementptr inbounds nuw i8, ptr %dst7.i, i64 16
  %len1.i.i.i.i14.i = load i64, ptr %47, align 8, !alias.scope !1603, !noalias !1604, !noundef !6
  %48 = getelementptr inbounds i8, ptr %dst7.i, i64 -16
  %_14.i.i.i.i15.i = load ptr, ptr %48, align 8, !alias.scope !1605, !noalias !1606, !nonnull !6, !noundef !6
  %49 = getelementptr inbounds i8, ptr %dst7.i, i64 -8
  %50 = load i64, ptr %49, align 8, !alias.scope !1605, !noalias !1606, !noundef !6
  %spec.store.select.i.i.i.i.i16.i = call i64 @llvm.umin.i64(i64 range(i64 0, -9223372036854775808) %len1.i.i.i.i14.i, i64 range(i64 0, -9223372036854775808) %50)
  %51 = call i32 @memcmp(ptr nonnull readonly align 1 %_7.i.i.i.i13.i, ptr nonnull readonly align 1 %_14.i.i.i.i15.i, i64 %spec.store.select.i.i.i.i.i16.i), !alias.scope !1494, !noalias !1607
  %52 = sext i32 %51 to i64
  %_15.i.i.i.i.i17.i = icmp eq i32 %51, 0
  %diff.i.i.i.i.i18.i = sub nsw i64 %len1.i.i.i.i14.i, %50
  %spec.select.i.i.i.i.i19.i = select i1 %_15.i.i.i.i.i17.i, i64 %diff.i.i.i.i.i18.i, i64 %52
  %_0.i.i20.i = icmp slt i64 %spec.select.i.i.i.i.i19.i, 0
  br i1 %_0.i.i20.i, label %bb2.i.i, label %_ZN4core5slice4sort6shared9smallsort11insert_tail17h8519b9f909450705E.exit.i

bb2.i.i:                                          ; preds = %bb24.i
  %value.sroa.0.0.copyload.i.i = load i64, ptr %dst7.i, align 8, !alias.scope !1499, !noalias !1500
  br label %bb4.i.i

bb4.i.i:                                          ; preds = %bb7.i.i, %bb2.i.i
  %gap_guard.sroa.5.0.i.i = phi ptr [ %dst7.i, %bb2.i.i ], [ %sift.sroa.0.0.i.i, %bb7.i.i ]
  %sift.sroa.0.0.i.i = getelementptr inbounds i8, ptr %gap_guard.sroa.5.0.i.i, i64 -24
  call void @llvm.memcpy.p0.p0.i64(ptr noundef nonnull align 8 dereferenceable(24) %gap_guard.sroa.5.0.i.i, ptr noundef nonnull align 8 dereferenceable(24) %sift.sroa.0.0.i.i, i64 24, i1 false), !alias.scope !1499, !noalias !1500
  %_18.i.i = icmp eq ptr %sift.sroa.0.0.i.i, %scratch.0
  br i1 %_18.i.i, label %bb10.i.i, label %bb7.i.i

bb7.i.i:                                          ; preds = %bb4.i.i
  call void @llvm.experimental.noalias.scope.decl(metadata !1608)
  call void @llvm.experimental.noalias.scope.decl(metadata !1610)
  call void @llvm.experimental.noalias.scope.decl(metadata !1612)
  %53 = getelementptr inbounds i8, ptr %gap_guard.sroa.5.0.i.i, i64 -40
  %_14.i.i.i3.i.i = load ptr, ptr %53, align 8, !alias.scope !1614, !noalias !1511, !nonnull !6, !noundef !6
  %54 = getelementptr inbounds i8, ptr %gap_guard.sroa.5.0.i.i, i64 -32
  %55 = load i64, ptr %54, align 8, !alias.scope !1614, !noalias !1511, !noundef !6
  %spec.store.select.i.i.i.i4.i.i = call i64 @llvm.umin.i64(i64 range(i64 0, -9223372036854775808) %len1.i.i.i.i14.i, i64 range(i64 0, -9223372036854775808) %55)
  %56 = call i32 @memcmp(ptr nonnull readonly align 1 %_7.i.i.i.i13.i, ptr nonnull readonly align 1 %_14.i.i.i3.i.i, i64 %spec.store.select.i.i.i.i4.i.i), !alias.scope !1515, !noalias !1615
  %57 = sext i32 %56 to i64
  %_15.i.i.i.i5.i.i = icmp eq i32 %56, 0
  %diff.i.i.i.i6.i.i = sub nsw i64 %len1.i.i.i.i14.i, %55
  %spec.select.i.i.i.i7.i.i = select i1 %_15.i.i.i.i5.i.i, i64 %diff.i.i.i.i6.i.i, i64 %57
  %_0.i8.i.i = icmp slt i64 %spec.select.i.i.i.i7.i.i, 0
  br i1 %_0.i8.i.i, label %bb4.i.i, label %bb10.i.i

bb10.i.i:                                         ; preds = %bb7.i.i, %bb4.i.i
  %sift.sroa.0.0.i.lcssa.i = phi ptr [ %sift.sroa.0.0.i.i, %bb7.i.i ], [ %scratch.0, %bb4.i.i ]
  store i64 %value.sroa.0.0.copyload.i.i, ptr %sift.sroa.0.0.i.lcssa.i, align 8, !alias.scope !1499, !noalias !1520
  %tmp.sroa.4.0.sift.sroa.0.0.lcssa.sroa_idx.i.i = getelementptr inbounds i8, ptr %gap_guard.sroa.5.0.i.i, i64 -16
  store ptr %_7.i.i.i.i13.i, ptr %tmp.sroa.4.0.sift.sroa.0.0.lcssa.sroa_idx.i.i, align 8, !alias.scope !1499, !noalias !1520
  %tmp.sroa.5.0.sift.sroa.0.0.lcssa.sroa_idx.i.i = getelementptr inbounds i8, ptr %gap_guard.sroa.5.0.i.i, i64 -8
  store i64 %len1.i.i.i.i14.i, ptr %tmp.sroa.5.0.sift.sroa.0.0.lcssa.sroa_idx.i.i, align 8, !alias.scope !1499, !noalias !1520
  br label %_ZN4core5slice4sort6shared9smallsort11insert_tail17h8519b9f909450705E.exit.i

_ZN4core5slice4sort6shared9smallsort11insert_tail17h8519b9f909450705E.exit.i: ; preds = %bb10.i.i, %bb24.i
  %_80.i = icmp ult i64 %iter1.sroa.0.129.i, %len_div_211.i
  %_84.i = zext i1 %_80.i to i64
  %iter1.sroa.0.1.i = add nuw i64 %iter1.sroa.0.129.i, %_84.i
  br i1 %_80.i, label %bb24.i, label %bb16.loopexit.i

bb7:                                              ; preds = %bb5
  %58 = add i32 %limit.sroa.0.0106, -1
  call void @llvm.experimental.noalias.scope.decl(metadata !1616)
  %len_div_84.i = lshr i64 %v.sroa.16.0107, 3
  %b.idx.i = mul nuw nsw i64 %len_div_84.i, 96
  %b.i = getelementptr inbounds nuw i8, ptr %v.sroa.0.0.ph115, i64 %b.idx.i
  %c.idx.i = mul nuw nsw i64 %len_div_84.i, 168
  %c.i = getelementptr inbounds nuw i8, ptr %v.sroa.0.0.ph115, i64 %c.idx.i
  %_12.i = icmp samesign ult i64 %v.sroa.16.0107, 64
  br i1 %_12.i, label %bb3.i23, label %bb5.i

bb5.i:                                            ; preds = %bb7
; call core::slice::sort::shared::pivot::median3_rec
  %self.i = call fastcc noundef ptr @_ZN4core5slice4sort6shared5pivot11median3_rec17hfb09d8ea71499d5cE(ptr noundef nonnull readonly align 8 %v.sroa.0.0.ph115, ptr noundef readonly %b.i, ptr noundef readonly %c.i, i64 noundef %len_div_84.i)
  br label %bb10

bb3.i23:                                          ; preds = %bb7
  call void @llvm.experimental.noalias.scope.decl(metadata !1619)
  call void @llvm.experimental.noalias.scope.decl(metadata !1622)
  call void @llvm.experimental.noalias.scope.decl(metadata !1624), !noalias !1627
  call void @llvm.experimental.noalias.scope.decl(metadata !1630), !noalias !1627
  call void @llvm.experimental.noalias.scope.decl(metadata !1632), !noalias !1627
  call void @llvm.experimental.noalias.scope.decl(metadata !1635), !noalias !1627
  %_7.i.i.i.i = load ptr, ptr %4, align 8, !alias.scope !1637, !noalias !1638, !nonnull !6, !noundef !6
  %len1.i.i.i.i = load i64, ptr %5, align 8, !alias.scope !1637, !noalias !1638, !noundef !6
  %59 = getelementptr inbounds nuw i8, ptr %b.i, i64 8
  %_14.i.i.i.i = load ptr, ptr %59, align 8, !alias.scope !1640, !noalias !1641, !nonnull !6, !noundef !6
  %60 = getelementptr inbounds nuw i8, ptr %b.i, i64 16
  %61 = load i64, ptr %60, align 8, !alias.scope !1640, !noalias !1641, !noundef !6
  %spec.store.select.i.i.i.i.i = call i64 @llvm.umin.i64(i64 range(i64 0, -9223372036854775808) %len1.i.i.i.i, i64 range(i64 0, -9223372036854775808) %61)
  %62 = call i32 @memcmp(ptr nonnull readonly align 1 %_7.i.i.i.i, ptr nonnull readonly align 1 %_14.i.i.i.i, i64 %spec.store.select.i.i.i.i.i), !alias.scope !1642, !noalias !1646
  %63 = sext i32 %62 to i64
  %_15.i.i.i.i.i = icmp eq i32 %62, 0
  %diff.i.i.i.i.i = sub nsw i64 %len1.i.i.i.i, %61
  %spec.select.i.i.i.i.i = select i1 %_15.i.i.i.i.i, i64 %diff.i.i.i.i.i, i64 %63
  call void @llvm.experimental.noalias.scope.decl(metadata !1647)
  call void @llvm.experimental.noalias.scope.decl(metadata !1650)
  call void @llvm.experimental.noalias.scope.decl(metadata !1653)
  %64 = getelementptr inbounds nuw i8, ptr %c.i, i64 8
  %_14.i.i.i7.i = load ptr, ptr %64, align 8, !alias.scope !1656, !noalias !1657, !nonnull !6, !noundef !6
  %65 = getelementptr inbounds nuw i8, ptr %c.i, i64 16
  %66 = load i64, ptr %65, align 8, !alias.scope !1656, !noalias !1657, !noundef !6
  %spec.store.select.i.i.i.i8.i = call i64 @llvm.umin.i64(i64 range(i64 0, -9223372036854775808) %len1.i.i.i.i, i64 range(i64 0, -9223372036854775808) %66)
  %67 = call i32 @memcmp(ptr nonnull readonly align 1 %_7.i.i.i.i, ptr nonnull readonly align 1 %_14.i.i.i7.i, i64 %spec.store.select.i.i.i.i8.i), !alias.scope !1661, !noalias !1665
  %68 = sext i32 %67 to i64
  %_15.i.i.i.i9.i = icmp eq i32 %67, 0
  %diff.i.i.i.i10.i = sub nsw i64 %len1.i.i.i.i, %66
  %spec.select.i.i.i.i11.i = select i1 %_15.i.i.i.i9.i, i64 %diff.i.i.i.i10.i, i64 %68
  %69 = xor i64 %spec.select.i.i.i.i11.i, %spec.select.i.i.i.i.i
  %70 = icmp slt i64 %69, 0
  br i1 %70, label %bb10, label %bb3.i.i

bb3.i.i:                                          ; preds = %bb3.i23
  %spec.store.select.i.i.i.i16.i = call i64 @llvm.umin.i64(i64 range(i64 0, -9223372036854775808) %61, i64 range(i64 0, -9223372036854775808) %66)
  %71 = call i32 @memcmp(ptr nonnull readonly align 1 %_14.i.i.i.i, ptr nonnull readonly align 1 %_14.i.i.i7.i, i64 %spec.store.select.i.i.i.i16.i), !alias.scope !1666, !noalias !1670
  %72 = sext i32 %71 to i64
  %_15.i.i.i.i17.i = icmp eq i32 %71, 0
  %diff.i.i.i.i18.i = sub nsw i64 %61, %66
  %spec.select.i.i.i.i19.i = select i1 %_15.i.i.i.i17.i, i64 %diff.i.i.i.i18.i, i64 %72
  %73 = xor i64 %spec.select.i.i.i.i19.i, %spec.select.i.i.i.i.i
  %_12.i.i = icmp slt i64 %73, 0
  %c.b.i.i = select i1 %_12.i.i, ptr %c.i, ptr %b.i
  br label %bb10

bb6:                                              ; preds = %bb5
; call core::slice::sort::stable::drift::sort
  call fastcc void @_ZN4core5slice4sort6stable5drift4sort17h6aa4f489c3c231eeE(ptr noalias noundef nonnull align 8 %v.sroa.0.0.ph115, i64 noundef %v.sroa.16.0107, ptr noalias noundef nonnull align 8 %scratch.0, i64 noundef %scratch.1, i1 noundef zeroext true, ptr noalias noundef align 8 dereferenceable(8) %is_less)
  br label %bb22

bb10:                                             ; preds = %bb3.i.i, %bb3.i23, %bb5.i
  %_0.sroa.0.0.i.sink.i = phi ptr [ %self.i, %bb5.i ], [ %v.sroa.0.0.ph115, %bb3.i23 ], [ %c.b.i.i, %bb3.i.i ]
  %74 = ptrtoint ptr %_0.sroa.0.0.i.sink.i to i64
  %75 = sub nuw i64 %74, %6
  %index.sroa.0.0.i = udiv exact i64 %75, 24
  %cond.i = icmp samesign ult i64 %index.sroa.0.0.i, %v.sroa.16.0107
  call void @llvm.assume(i1 %cond.i)
  call void @llvm.lifetime.start.p0(i64 24, ptr nonnull %pivot_copy)
  %src = getelementptr inbounds nuw i8, ptr %v.sroa.0.0.ph115, i64 %75
  call void @llvm.memcpy.p0.p0.i64(ptr noundef nonnull align 8 dereferenceable(24) %pivot_copy, ptr noundef nonnull align 8 dereferenceable(24) %src, i64 24, i1 false)
  br i1 %.not, label %bb14, label %bb12

bb12:                                             ; preds = %bb10
  call void @llvm.experimental.noalias.scope.decl(metadata !1680)
  call void @llvm.experimental.noalias.scope.decl(metadata !1683)
  call void @llvm.experimental.noalias.scope.decl(metadata !1685)
  call void @llvm.experimental.noalias.scope.decl(metadata !1688)
  call void @llvm.experimental.noalias.scope.decl(metadata !1690)
  call void @llvm.experimental.noalias.scope.decl(metadata !1693)
  %_7.i.i.i = load ptr, ptr %7, align 8, !alias.scope !1695, !noalias !1696, !nonnull !6, !noundef !6
  %len1.i.i.i = load i64, ptr %8, align 8, !alias.scope !1695, !noalias !1696, !noundef !6
  %76 = getelementptr inbounds nuw i8, ptr %src, i64 8
  %_14.i.i.i24 = load ptr, ptr %76, align 8, !alias.scope !1696, !noalias !1695, !nonnull !6, !noundef !6
  %77 = getelementptr inbounds nuw i8, ptr %src, i64 16
  %78 = load i64, ptr %77, align 8, !alias.scope !1696, !noalias !1695, !noundef !6
  %spec.store.select.i.i.i.i = call i64 @llvm.umin.i64(i64 range(i64 0, -9223372036854775808) %len1.i.i.i, i64 range(i64 0, -9223372036854775808) %78)
  %79 = call i32 @memcmp(ptr nonnull readonly align 1 %_7.i.i.i, ptr nonnull readonly align 1 %_14.i.i.i24, i64 %spec.store.select.i.i.i.i), !alias.scope !1697, !noalias !1701
  %80 = sext i32 %79 to i64
  %_15.i.i.i.i = icmp eq i32 %79, 0
  %diff.i.i.i.i = sub nsw i64 %len1.i.i.i, %78
  %spec.select.i.i.i.i = select i1 %_15.i.i.i.i, i64 %diff.i.i.i.i, i64 %80
  %_0.i = icmp slt i64 %spec.select.i.i.i.i, 0
  br i1 %_0.i, label %bb14, label %bb17

bb14:                                             ; preds = %bb10, %bb12
  call void @llvm.experimental.noalias.scope.decl(metadata !1702)
  call void @llvm.experimental.noalias.scope.decl(metadata !1705)
  %_8.i25.not = icmp samesign ult i64 %scratch.1, %v.sroa.16.0107
  br i1 %_8.i25.not, label %bb31.i, label %bb33.i, !prof !551

bb33.i:                                           ; preds = %bb14
  %_86.i = getelementptr %"alloc::string::String", ptr %scratch.0, i64 %v.sroa.16.0107
  %81 = getelementptr inbounds nuw i8, ptr %src, i64 8
  %82 = getelementptr inbounds nuw i8, ptr %src, i64 16
  br label %bb3.i26

bb31.i:                                           ; preds = %bb14
  call void @llvm.trap()
  unreachable

bb3.i26:                                          ; preds = %bb23.i, %bb33.i
  %state.sroa.11.0.i = phi i64 [ 0, %bb33.i ], [ %state.sroa.11.1.lcssa.i, %bb23.i ]
  %state.sroa.5.0.i = phi ptr [ %v.sroa.0.0.ph115, %bb33.i ], [ %_9.i27.i, %bb23.i ]
  %state.sroa.19.0.i = phi ptr [ %_86.i, %bb33.i ], [ %90, %bb23.i ]
  %pivot_pos.sroa.0.0.i = phi i64 [ %index.sroa.0.0.i, %bb33.i ], [ %v.sroa.16.0107, %bb23.i ]
  %loop_end.i = getelementptr inbounds nuw %"alloc::string::String", ptr %v.sroa.0.0.ph115, i64 %pivot_pos.sroa.0.0.i
  %_4733.i = icmp ult ptr %state.sroa.5.0.i, %loop_end.i
  br i1 %_4733.i, label %bb18.i, label %bb21.i

bb21.i:                                           ; preds = %bb18.i, %bb3.i26
  %state.sroa.11.1.lcssa.i = phi i64 [ %state.sroa.11.0.i, %bb3.i26 ], [ %89, %bb18.i ]
  %state.sroa.5.1.lcssa.i = phi ptr [ %state.sroa.5.0.i, %bb3.i26 ], [ %_9.i.i, %bb18.i ]
  %state.sroa.19.1.lcssa.i = phi ptr [ %state.sroa.19.0.i, %bb3.i26 ], [ %88, %bb18.i ]
  %_55.i27 = icmp eq i64 %pivot_pos.sroa.0.0.i, %v.sroa.16.0107
  br i1 %_55.i27, label %bb22.i, label %bb23.i

bb18.i:                                           ; preds = %bb3.i26, %bb18.i
  %state.sroa.19.136.i = phi ptr [ %88, %bb18.i ], [ %state.sroa.19.0.i, %bb3.i26 ]
  %state.sroa.5.135.i = phi ptr [ %_9.i.i, %bb18.i ], [ %state.sroa.5.0.i, %bb3.i26 ]
  %state.sroa.11.134.i = phi i64 [ %89, %bb18.i ], [ %state.sroa.11.0.i, %bb3.i26 ]
  call void @llvm.experimental.noalias.scope.decl(metadata !1707)
  call void @llvm.experimental.noalias.scope.decl(metadata !1710)
  call void @llvm.experimental.noalias.scope.decl(metadata !1712)
  call void @llvm.experimental.noalias.scope.decl(metadata !1715)
  call void @llvm.experimental.noalias.scope.decl(metadata !1717)
  call void @llvm.experimental.noalias.scope.decl(metadata !1720)
  %83 = getelementptr inbounds nuw i8, ptr %state.sroa.5.135.i, i64 8
  %_7.i.i.i.i28 = load ptr, ptr %83, align 8, !alias.scope !1722, !noalias !1723, !nonnull !6, !noundef !6
  %84 = getelementptr inbounds nuw i8, ptr %state.sroa.5.135.i, i64 16
  %len1.i.i.i.i29 = load i64, ptr %84, align 8, !alias.scope !1722, !noalias !1723, !noundef !6
  %_14.i.i.i.i30 = load ptr, ptr %81, align 8, !alias.scope !1724, !noalias !1725, !nonnull !6, !noundef !6
  %85 = load i64, ptr %82, align 8, !alias.scope !1724, !noalias !1725, !noundef !6
  %spec.store.select.i.i.i.i.i31 = call i64 @llvm.umin.i64(i64 range(i64 0, -9223372036854775808) %len1.i.i.i.i29, i64 range(i64 0, -9223372036854775808) %85)
  %86 = call i32 @memcmp(ptr nonnull readonly align 1 %_7.i.i.i.i28, ptr nonnull readonly align 1 %_14.i.i.i.i30, i64 %spec.store.select.i.i.i.i.i31), !alias.scope !1726, !noalias !1730
  %87 = sext i32 %86 to i64
  %_15.i.i.i.i.i32 = icmp eq i32 %86, 0
  %diff.i.i.i.i.i33 = sub nsw i64 %len1.i.i.i.i29, %85
  %spec.select.i.i.i.i.i34 = select i1 %_15.i.i.i.i.i32, i64 %diff.i.i.i.i.i33, i64 %87
  %_0.i.i = icmp slt i64 %spec.select.i.i.i.i.i34, 0
  %88 = getelementptr inbounds i8, ptr %state.sroa.19.136.i, i64 -24
  %dst_base.sroa.0.0.i.i = select i1 %_0.i.i, ptr %scratch.0, ptr %88
  %dst.i.i = getelementptr inbounds nuw %"alloc::string::String", ptr %dst_base.sroa.0.0.i.i, i64 %state.sroa.11.134.i
  call void @llvm.memcpy.p0.p0.i64(ptr noundef nonnull align 8 dereferenceable(24) %dst.i.i, ptr noundef nonnull align 8 dereferenceable(24) %state.sroa.5.135.i, i64 24, i1 false), !alias.scope !1731, !noalias !1732
  %spec.select.i.i.i.i.lobit.i = lshr i64 %spec.select.i.i.i.i.i34, 63
  %89 = add i64 %spec.select.i.i.i.i.lobit.i, %state.sroa.11.134.i
  %_9.i.i = getelementptr inbounds nuw i8, ptr %state.sroa.5.135.i, i64 24
  %_47.i = icmp ult ptr %_9.i.i, %loop_end.i
  br i1 %_47.i, label %bb18.i, label %bb21.i

bb23.i:                                           ; preds = %bb21.i
  %90 = getelementptr inbounds i8, ptr %state.sroa.19.1.lcssa.i, i64 -24
  %dst.i25.i = getelementptr inbounds nuw %"alloc::string::String", ptr %90, i64 %state.sroa.11.1.lcssa.i
  call void @llvm.memcpy.p0.p0.i64(ptr noundef nonnull align 8 dereferenceable(24) %dst.i25.i, ptr noundef nonnull align 8 dereferenceable(24) %state.sroa.5.1.lcssa.i, i64 24, i1 false), !alias.scope !1731, !noalias !1735
  %_9.i27.i = getelementptr inbounds nuw i8, ptr %state.sroa.5.1.lcssa.i, i64 24
  br label %bb3.i26

bb22.i:                                           ; preds = %bb21.i
  %91 = mul i64 %state.sroa.11.1.lcssa.i, 24
  call void @llvm.memcpy.p0.p0.i64(ptr nonnull align 8 %v.sroa.0.0.ph115, ptr nonnull align 8 %scratch.0, i64 %91, i1 false), !alias.scope !1731
  %_63.i = sub i64 %v.sroa.16.0107, %state.sroa.11.1.lcssa.i
  %_9739.not.i = icmp eq i64 %v.sroa.16.0107, %state.sroa.11.1.lcssa.i
  br i1 %_9739.not.i, label %bb16, label %bb42.lr.ph.i

bb42.lr.ph.i:                                     ; preds = %bb22.i
  %92 = getelementptr %"alloc::string::String", ptr %v.sroa.0.0.ph115, i64 %state.sroa.11.1.lcssa.i
  %.neg = add i64 %state.sroa.11.1.lcssa.i, 1
  %xtraiter = and i64 %_63.i, 1
  %93 = icmp eq i64 %v.sroa.16.0107, %.neg
  br i1 %93, label %bb16.loopexit.unr-lcssa, label %bb42.lr.ph.i.new

bb42.lr.ph.i.new:                                 ; preds = %bb42.lr.ph.i
  %unroll_iter = and i64 %_63.i, -2
  %invariant.gep = getelementptr i8, ptr %92, i64 24
  br label %bb42.i

bb42.i:                                           ; preds = %bb42.i, %bb42.lr.ph.i.new
  %iter.sroa.0.040.i = phi i64 [ 0, %bb42.lr.ph.i.new ], [ %97, %bb42.i ]
  %niter = phi i64 [ 0, %bb42.lr.ph.i.new ], [ %niter.next.1, %bb42.i ]
  %94 = getelementptr %"alloc::string::String", ptr %92, i64 %iter.sroa.0.040.i
  %95 = xor i64 %iter.sroa.0.040.i, -1
  %96 = getelementptr %"alloc::string::String", ptr %_86.i, i64 %95
  call void @llvm.memcpy.p0.p0.i64(ptr noundef nonnull align 8 dereferenceable(24) %94, ptr noundef nonnull align 8 dereferenceable(24) %96, i64 24, i1 false), !alias.scope !1731
  %97 = add nuw i64 %iter.sroa.0.040.i, 2
  %gep = getelementptr %"alloc::string::String", ptr %invariant.gep, i64 %iter.sroa.0.040.i
  %98 = xor i64 %iter.sroa.0.040.i, -2
  %99 = getelementptr %"alloc::string::String", ptr %_86.i, i64 %98
  call void @llvm.memcpy.p0.p0.i64(ptr noundef nonnull align 8 dereferenceable(24) %gep, ptr noundef nonnull align 8 dereferenceable(24) %99, i64 24, i1 false), !alias.scope !1731
  %niter.next.1 = add i64 %niter, 2
  %niter.ncmp.1 = icmp eq i64 %niter.next.1, %unroll_iter
  br i1 %niter.ncmp.1, label %bb16.loopexit.unr-lcssa, label %bb42.i

bb16.loopexit.unr-lcssa:                          ; preds = %bb42.i, %bb42.lr.ph.i
  %iter.sroa.0.040.i.unr = phi i64 [ 0, %bb42.lr.ph.i ], [ %97, %bb42.i ]
  %lcmp.mod.not = icmp eq i64 %xtraiter, 0
  br i1 %lcmp.mod.not, label %bb16, label %bb42.i.epil

bb42.i.epil:                                      ; preds = %bb16.loopexit.unr-lcssa
  %100 = getelementptr %"alloc::string::String", ptr %92, i64 %iter.sroa.0.040.i.unr
  %101 = xor i64 %iter.sroa.0.040.i.unr, -1
  %102 = getelementptr %"alloc::string::String", ptr %_86.i, i64 %101
  call void @llvm.memcpy.p0.p0.i64(ptr noundef nonnull align 8 dereferenceable(24) %100, ptr noundef nonnull align 8 dereferenceable(24) %102, i64 24, i1 false), !alias.scope !1731
  br label %bb16

bb16:                                             ; preds = %bb42.i.epil, %bb16.loopexit.unr-lcssa, %bb22.i
  %103 = icmp eq i64 %state.sroa.11.1.lcssa.i, 0
  br i1 %103, label %bb17, label %bb19

bb19:                                             ; preds = %bb16
  %_6.not.i = icmp ugt i64 %state.sroa.11.1.lcssa.i, %v.sroa.16.0107
  br i1 %_6.not.i, label %bb3.i35, label %"_ZN4core5slice29_$LT$impl$u20$$u5b$T$u5d$$GT$12split_at_mut17h7dd69a5499b58ed4E.exit", !prof !1346

bb3.i35:                                          ; preds = %bb19
; call core::panicking::panic_fmt
  call void @_ZN4core9panicking9panic_fmt17ha4414e4328fe24a0E(ptr noundef nonnull @alloc_d1084648e479974e70c9329824bf76f9, ptr noundef nonnull inttoptr (i64 19 to ptr), ptr noalias noundef nonnull readonly align 8 captures(address, read_provenance) dereferenceable(24) @alloc_58d434a1e795f965ef82c8e9c5db822a) #26, !noalias !1738
  unreachable

"_ZN4core5slice29_$LT$impl$u20$$u5b$T$u5d$$GT$12split_at_mut17h7dd69a5499b58ed4E.exit": ; preds = %bb19
  %104 = getelementptr inbounds nuw %"alloc::string::String", ptr %v.sroa.0.0.ph115, i64 %state.sroa.11.1.lcssa.i
; call core::slice::sort::stable::quicksort::quicksort
  call void @_ZN4core5slice4sort6stable9quicksort9quicksort17h6aa3617edc74af8eE(ptr noalias noundef nonnull align 8 %104, i64 noundef %_63.i, ptr noalias noundef nonnull align 8 %scratch.0, i64 noundef %scratch.1, i32 noundef %58, ptr noalias noundef nonnull readonly align 8 captures(address, read_provenance) dereferenceable_or_null(24) %pivot_copy, ptr noalias noundef nonnull align 8 dereferenceable(8) %is_less) #29
  call void @llvm.lifetime.end.p0(i64 24, ptr nonnull %pivot_copy)
  %_8 = icmp ult i64 %state.sroa.11.1.lcssa.i, 33
  br i1 %_8, label %bb3, label %bb5

bb17:                                             ; preds = %bb12, %bb16
  call void @llvm.experimental.noalias.scope.decl(metadata !1742)
  call void @llvm.experimental.noalias.scope.decl(metadata !1745)
  %_8.i36.not = icmp samesign ult i64 %scratch.1, %v.sroa.16.0107
  br i1 %_8.i36.not, label %bb31.i39, label %bb33.i40, !prof !551

bb33.i40:                                         ; preds = %bb17
  %_86.i42 = getelementptr %"alloc::string::String", ptr %scratch.0, i64 %v.sroa.16.0107
  %105 = getelementptr inbounds nuw i8, ptr %src, i64 8
  %106 = getelementptr inbounds nuw i8, ptr %src, i64 16
  br label %bb3.i43

bb31.i39:                                         ; preds = %bb17
  call void @llvm.trap()
  unreachable

bb3.i43:                                          ; preds = %bb23.i55, %bb33.i40
  %state.sroa.11.0.i44 = phi i64 [ 0, %bb33.i40 ], [ %115, %bb23.i55 ]
  %state.sroa.5.0.i45 = phi ptr [ %v.sroa.0.0.ph115, %bb33.i40 ], [ %_9.i27.i57, %bb23.i55 ]
  %state.sroa.19.0.i46 = phi ptr [ %_86.i42, %bb33.i40 ], [ %114, %bb23.i55 ]
  %pivot_pos.sroa.0.0.i47 = phi i64 [ %index.sroa.0.0.i, %bb33.i40 ], [ %v.sroa.16.0107, %bb23.i55 ]
  %loop_end.i48 = getelementptr inbounds nuw %"alloc::string::String", ptr %v.sroa.0.0.ph115, i64 %pivot_pos.sroa.0.0.i47
  %_4733.i49 = icmp ult ptr %state.sroa.5.0.i45, %loop_end.i48
  br i1 %_4733.i49, label %bb18.i65, label %bb21.i50

bb21.i50:                                         ; preds = %bb18.i65, %bb3.i43
  %state.sroa.11.1.lcssa.i51 = phi i64 [ %state.sroa.11.0.i44, %bb3.i43 ], [ %113, %bb18.i65 ]
  %state.sroa.5.1.lcssa.i52 = phi ptr [ %state.sroa.5.0.i45, %bb3.i43 ], [ %_9.i.i79, %bb18.i65 ]
  %state.sroa.19.1.lcssa.i53 = phi ptr [ %state.sroa.19.0.i46, %bb3.i43 ], [ %112, %bb18.i65 ]
  %_55.i54 = icmp eq i64 %pivot_pos.sroa.0.0.i47, %v.sroa.16.0107
  br i1 %_55.i54, label %bb22.i58, label %bb23.i55

bb18.i65:                                         ; preds = %bb3.i43, %bb18.i65
  %state.sroa.19.136.i66 = phi ptr [ %112, %bb18.i65 ], [ %state.sroa.19.0.i46, %bb3.i43 ]
  %state.sroa.5.135.i67 = phi ptr [ %_9.i.i79, %bb18.i65 ], [ %state.sroa.5.0.i45, %bb3.i43 ]
  %state.sroa.11.134.i68 = phi i64 [ %113, %bb18.i65 ], [ %state.sroa.11.0.i44, %bb3.i43 ]
  call void @llvm.experimental.noalias.scope.decl(metadata !1747)
  call void @llvm.experimental.noalias.scope.decl(metadata !1750)
  call void @llvm.experimental.noalias.scope.decl(metadata !1752)
  call void @llvm.experimental.noalias.scope.decl(metadata !1755)
  call void @llvm.experimental.noalias.scope.decl(metadata !1757)
  call void @llvm.experimental.noalias.scope.decl(metadata !1760)
  call void @llvm.experimental.noalias.scope.decl(metadata !1762)
  call void @llvm.experimental.noalias.scope.decl(metadata !1765)
  %_7.i.i.i.i.i69 = load ptr, ptr %105, align 8, !alias.scope !1767, !noalias !1768, !nonnull !6, !noundef !6
  %len1.i.i.i.i.i70 = load i64, ptr %106, align 8, !alias.scope !1767, !noalias !1768, !noundef !6
  %107 = getelementptr inbounds nuw i8, ptr %state.sroa.5.135.i67, i64 8
  %_14.i.i.i.i.i71 = load ptr, ptr %107, align 8, !alias.scope !1769, !noalias !1770, !nonnull !6, !noundef !6
  %108 = getelementptr inbounds nuw i8, ptr %state.sroa.5.135.i67, i64 16
  %109 = load i64, ptr %108, align 8, !alias.scope !1769, !noalias !1770, !noundef !6
  %spec.store.select.i.i.i.i.i.i72 = call i64 @llvm.umin.i64(i64 range(i64 0, -9223372036854775808) %len1.i.i.i.i.i70, i64 range(i64 0, -9223372036854775808) %109)
  %110 = call i32 @memcmp(ptr nonnull readonly align 1 %_7.i.i.i.i.i69, ptr nonnull readonly align 1 %_14.i.i.i.i.i71, i64 %spec.store.select.i.i.i.i.i.i72), !alias.scope !1771, !noalias !1775
  %111 = sext i32 %110 to i64
  %_15.i.i.i.i.i.i73 = icmp eq i32 %110, 0
  %diff.i.i.i.i.i.i74 = sub nsw i64 %len1.i.i.i.i.i70, %109
  %spec.select.i.i.i.i.i.i75 = select i1 %_15.i.i.i.i.i.i73, i64 %diff.i.i.i.i.i.i74, i64 %111
  %_0.i.i.i76 = icmp sgt i64 %spec.select.i.i.i.i.i.i75, -1
  %112 = getelementptr inbounds i8, ptr %state.sroa.19.136.i66, i64 -24
  %dst_base.sroa.0.0.i.i77 = select i1 %_0.i.i.i76, ptr %scratch.0, ptr %112
  %dst.i.i78 = getelementptr inbounds nuw %"alloc::string::String", ptr %dst_base.sroa.0.0.i.i77, i64 %state.sroa.11.134.i68
  call void @llvm.memcpy.p0.p0.i64(ptr noundef nonnull align 8 dereferenceable(24) %dst.i.i78, ptr noundef nonnull align 8 dereferenceable(24) %state.sroa.5.135.i67, i64 24, i1 false), !alias.scope !1776, !noalias !1777
  %_8.i.i = zext i1 %_0.i.i.i76 to i64
  %113 = add i64 %state.sroa.11.134.i68, %_8.i.i
  %_9.i.i79 = getelementptr inbounds nuw i8, ptr %state.sroa.5.135.i67, i64 24
  %_47.i80 = icmp ult ptr %_9.i.i79, %loop_end.i48
  br i1 %_47.i80, label %bb18.i65, label %bb21.i50

bb23.i55:                                         ; preds = %bb21.i50
  %114 = getelementptr inbounds i8, ptr %state.sroa.19.1.lcssa.i53, i64 -24
  %dst.i25.i56 = getelementptr inbounds nuw %"alloc::string::String", ptr %scratch.0, i64 %state.sroa.11.1.lcssa.i51
  call void @llvm.memcpy.p0.p0.i64(ptr noundef nonnull align 8 dereferenceable(24) %dst.i25.i56, ptr noundef nonnull align 8 dereferenceable(24) %state.sroa.5.1.lcssa.i52, i64 24, i1 false), !alias.scope !1776, !noalias !1780
  %115 = add i64 %state.sroa.11.1.lcssa.i51, 1
  %_9.i27.i57 = getelementptr inbounds nuw i8, ptr %state.sroa.5.1.lcssa.i52, i64 24
  br label %bb3.i43

bb22.i58:                                         ; preds = %bb21.i50
  %116 = mul i64 %state.sroa.11.1.lcssa.i51, 24
  call void @llvm.memcpy.p0.p0.i64(ptr nonnull align 8 %v.sroa.0.0.ph115, ptr nonnull align 8 %scratch.0, i64 %116, i1 false), !alias.scope !1776
  %_63.i59 = sub i64 %v.sroa.16.0107, %state.sroa.11.1.lcssa.i51
  %_9739.not.i60 = icmp eq i64 %v.sroa.16.0107, %state.sroa.11.1.lcssa.i51
  br i1 %_9739.not.i60, label %bb3.thread, label %bb42.lr.ph.i61

bb42.lr.ph.i61:                                   ; preds = %bb22.i58
  %117 = getelementptr %"alloc::string::String", ptr %v.sroa.0.0.ph115, i64 %state.sroa.11.1.lcssa.i51
  %.neg271 = add i64 %state.sroa.11.1.lcssa.i51, 1
  %xtraiter267 = and i64 %_63.i59, 1
  %118 = icmp eq i64 %v.sroa.16.0107, %.neg271
  br i1 %118, label %_ZN4core5slice4sort6stable9quicksort16stable_partition17h2d823a91305b5458E.exit.unr-lcssa, label %bb42.lr.ph.i61.new

bb42.lr.ph.i61.new:                               ; preds = %bb42.lr.ph.i61
  %unroll_iter269 = and i64 %_63.i59, -2
  %invariant.gep308 = getelementptr i8, ptr %117, i64 24
  br label %bb42.i62

bb42.i62:                                         ; preds = %bb42.i62, %bb42.lr.ph.i61.new
  %iter.sroa.0.040.i63 = phi i64 [ 0, %bb42.lr.ph.i61.new ], [ %122, %bb42.i62 ]
  %niter270 = phi i64 [ 0, %bb42.lr.ph.i61.new ], [ %niter270.next.1, %bb42.i62 ]
  %119 = getelementptr %"alloc::string::String", ptr %117, i64 %iter.sroa.0.040.i63
  %120 = xor i64 %iter.sroa.0.040.i63, -1
  %121 = getelementptr %"alloc::string::String", ptr %_86.i42, i64 %120
  call void @llvm.memcpy.p0.p0.i64(ptr noundef nonnull align 8 dereferenceable(24) %119, ptr noundef nonnull align 8 dereferenceable(24) %121, i64 24, i1 false), !alias.scope !1776
  %122 = add nuw i64 %iter.sroa.0.040.i63, 2
  %gep309 = getelementptr %"alloc::string::String", ptr %invariant.gep308, i64 %iter.sroa.0.040.i63
  %123 = xor i64 %iter.sroa.0.040.i63, -2
  %124 = getelementptr %"alloc::string::String", ptr %_86.i42, i64 %123
  call void @llvm.memcpy.p0.p0.i64(ptr noundef nonnull align 8 dereferenceable(24) %gep309, ptr noundef nonnull align 8 dereferenceable(24) %124, i64 24, i1 false), !alias.scope !1776
  %niter270.next.1 = add i64 %niter270, 2
  %niter270.ncmp.1 = icmp eq i64 %niter270.next.1, %unroll_iter269
  br i1 %niter270.ncmp.1, label %_ZN4core5slice4sort6stable9quicksort16stable_partition17h2d823a91305b5458E.exit.unr-lcssa, label %bb42.i62

_ZN4core5slice4sort6stable9quicksort16stable_partition17h2d823a91305b5458E.exit.unr-lcssa: ; preds = %bb42.i62, %bb42.lr.ph.i61
  %iter.sroa.0.040.i63.unr = phi i64 [ 0, %bb42.lr.ph.i61 ], [ %122, %bb42.i62 ]
  %lcmp.mod268.not = icmp eq i64 %xtraiter267, 0
  br i1 %lcmp.mod268.not, label %_ZN4core5slice4sort6stable9quicksort16stable_partition17h2d823a91305b5458E.exit, label %bb42.i62.epil

bb42.i62.epil:                                    ; preds = %_ZN4core5slice4sort6stable9quicksort16stable_partition17h2d823a91305b5458E.exit.unr-lcssa
  %125 = getelementptr %"alloc::string::String", ptr %117, i64 %iter.sroa.0.040.i63.unr
  %126 = xor i64 %iter.sroa.0.040.i63.unr, -1
  %127 = getelementptr %"alloc::string::String", ptr %_86.i42, i64 %126
  call void @llvm.memcpy.p0.p0.i64(ptr noundef nonnull align 8 dereferenceable(24) %125, ptr noundef nonnull align 8 dereferenceable(24) %127, i64 24, i1 false), !alias.scope !1776
  br label %_ZN4core5slice4sort6stable9quicksort16stable_partition17h2d823a91305b5458E.exit

_ZN4core5slice4sort6stable9quicksort16stable_partition17h2d823a91305b5458E.exit: ; preds = %_ZN4core5slice4sort6stable9quicksort16stable_partition17h2d823a91305b5458E.exit.unr-lcssa, %bb42.i62.epil
  %_47 = icmp ugt i64 %state.sroa.11.1.lcssa.i51, %v.sroa.16.0107
  br i1 %_47, label %bb27, label %bb28, !prof !1346

bb3.thread:                                       ; preds = %bb22.i58
  call void @llvm.lifetime.end.p0(i64 24, ptr nonnull %pivot_copy)
  br label %bb22

bb28:                                             ; preds = %_ZN4core5slice4sort6stable9quicksort16stable_partition17h2d823a91305b5458E.exit
  %_54 = getelementptr inbounds nuw %"alloc::string::String", ptr %v.sroa.0.0.ph115, i64 %state.sroa.11.1.lcssa.i51
  call void @llvm.lifetime.end.p0(i64 24, ptr nonnull %pivot_copy)
  %_8105 = icmp ult i64 %_63.i59, 33
  br i1 %_8105, label %bb3, label %bb5.lr.ph

bb27:                                             ; preds = %_ZN4core5slice4sort6stable9quicksort16stable_partition17h2d823a91305b5458E.exit
; call core::slice::index::slice_index_fail
  call void @_ZN4core5slice5index16slice_index_fail17h62807bcaa490c9c1E(i64 noundef %state.sroa.11.1.lcssa.i51, i64 noundef %v.sroa.16.0107, i64 noundef %v.sroa.16.0107, ptr noalias noundef readonly align 8 captures(address, read_provenance) dereferenceable(24) @alloc_0766b232215672ee1bd2195fdb153938) #26
  unreachable

bb22:                                             ; preds = %bb3.thread, %bb9.i.i, %bb3, %bb6
  ret void
}

; alloc::raw_vec::RawVecInner<A>::finish_grow
; Function Attrs: cold nounwind nonlazybind uwtable
define internal fastcc void @"_ZN5alloc7raw_vec20RawVecInner$LT$A$GT$11finish_grow17h916314a8f318b50aE"(ptr dead_on_unwind noalias noundef nonnull writable writeonly sret([24 x i8]) align 8 captures(none) dereferenceable(24) initializes((0, 8)) %_0, ptr noalias noundef nonnull readonly align 8 captures(none) dereferenceable(16) %self, i64 noundef %cap) unnamed_addr #7 {
start:
  %_26.i = icmp slt i64 %cap, 0
  br i1 %_26.i, label %bb8, label %bb11, !prof !598

bb11:                                             ; preds = %start
  %self1.i = load i64, ptr %self, align 8, !range !25, !alias.scope !1783, !noalias !1786, !noundef !6
  %_6.i = icmp eq i64 %self1.i, 0
  br i1 %_6.i, label %bb5, label %"_ZN63_$LT$alloc..alloc..Global$u20$as$u20$core..alloc..Allocator$GT$4grow17hb74934e519f30dbcE.exit"

"_ZN63_$LT$alloc..alloc..Global$u20$as$u20$core..alloc..Allocator$GT$4grow17hb74934e519f30dbcE.exit": ; preds = %bb11
  %0 = getelementptr inbounds nuw i8, ptr %self, i64 8
  %self3.i = load ptr, ptr %0, align 8, !alias.scope !1783, !noalias !1786, !nonnull !6, !noundef !6
  %cond.i.i = icmp samesign uge i64 %cap, %self1.i
  tail call void @llvm.assume(i1 %cond.i.i)
; call __rustc::__rust_realloc
  %raw_ptr.i.i = tail call noundef ptr @_RNvCsdBezzDwma51_7___rustc14___rust_realloc(ptr noundef nonnull %self3.i, i64 noundef %self1.i, i64 noundef range(i64 1, -9223372036854775807) 1, i64 noundef %cap) #25
  br label %bb7

bb5:                                              ; preds = %bb11
  %1 = icmp eq i64 %cap, 0
  br i1 %1, label %bb16, label %bb4.i.i14

bb4.i.i14:                                        ; preds = %bb5
; call __rustc::__rust_no_alloc_shim_is_unstable_v2
  tail call void @_RNvCsdBezzDwma51_7___rustc35___rust_no_alloc_shim_is_unstable_v2() #25
; call __rustc::__rust_alloc
  %2 = tail call noundef ptr @_RNvCsdBezzDwma51_7___rustc12___rust_alloc(i64 noundef %cap, i64 noundef range(i64 1, -9223372036854775807) 1) #25
  br label %bb7

bb7:                                              ; preds = %bb4.i.i14, %"_ZN63_$LT$alloc..alloc..Global$u20$as$u20$core..alloc..Allocator$GT$4grow17hb74934e519f30dbcE.exit"
  %raw_ptr.i.i.pn = phi ptr [ %raw_ptr.i.i, %"_ZN63_$LT$alloc..alloc..Global$u20$as$u20$core..alloc..Allocator$GT$4grow17hb74934e519f30dbcE.exit" ], [ %2, %bb4.i.i14 ]
  %3 = icmp eq ptr %raw_ptr.i.i.pn, null
  br i1 %3, label %bb15, label %bb16

bb15:                                             ; preds = %bb7
  %4 = getelementptr inbounds nuw i8, ptr %_0, i64 8
  store i64 1, ptr %4, align 8
  br label %bb8

bb16:                                             ; preds = %bb5, %bb7
  %raw_ptr.i.i.pn24 = phi ptr [ %raw_ptr.i.i.pn, %bb7 ], [ inttoptr (i64 1 to ptr), %bb5 ]
  %5 = getelementptr inbounds nuw i8, ptr %_0, i64 8
  store ptr %raw_ptr.i.i.pn24, ptr %5, align 8
  br label %bb8

bb8:                                              ; preds = %start, %bb16, %bb15
  %.sink26 = phi i64 [ 16, %bb16 ], [ 16, %bb15 ], [ 8, %start ]
  %cap.sink = phi i64 [ %cap, %bb16 ], [ %cap, %bb15 ], [ 0, %start ]
  %.sink = phi i64 [ 0, %bb16 ], [ 1, %bb15 ], [ 1, %start ]
  %6 = getelementptr inbounds nuw i8, ptr %_0, i64 %.sink26
  store i64 %cap.sink, ptr %6, align 8
  store i64 %.sink, ptr %_0, align 8
  ret void
}

; alloc::raw_vec::RawVecInner<A>::reserve::do_reserve_and_handle
; Function Attrs: cold nonlazybind uwtable
define internal fastcc void @"_ZN5alloc7raw_vec20RawVecInner$LT$A$GT$7reserve21do_reserve_and_handle17h564a5fae3007f3f8E"(ptr noalias noundef nonnull align 8 captures(none) dereferenceable(16) %slf, i64 noundef %len, i64 noundef %additional) unnamed_addr #8 personality ptr @rust_eh_personality {
start:
  %self3.i = alloca [24 x i8], align 8
  tail call void @llvm.experimental.noalias.scope.decl(metadata !1788)
  %_26.0.i = add i64 %additional, %len
  %_26.1.i = icmp ult i64 %_26.0.i, %len
  br i1 %_26.1.i, label %bb2, label %bb9.i

bb9.i:                                            ; preds = %start
  %self5.i = load i64, ptr %slf, align 8, !range !25, !alias.scope !1788, !noundef !6
  %v16.i = shl nuw i64 %self5.i, 1
  %_0.sroa.0.0.i.i = tail call noundef i64 @llvm.umax.i64(i64 %_26.0.i, i64 %v16.i)
  %_0.sroa.0.0.i15.i = tail call noundef i64 @llvm.umax.i64(i64 %_0.sroa.0.0.i.i, i64 8)
  call void @llvm.lifetime.start.p0(i64 24, ptr nonnull %self3.i), !noalias !1788
; call alloc::raw_vec::RawVecInner<A>::finish_grow
  call fastcc void @"_ZN5alloc7raw_vec20RawVecInner$LT$A$GT$11finish_grow17h916314a8f318b50aE"(ptr noalias noundef sret([24 x i8]) align 8 captures(none) dereferenceable(24) %self3.i, ptr noalias noundef nonnull readonly align 8 captures(address, read_provenance) dereferenceable(16) %slf, i64 noundef %_0.sroa.0.0.i15.i)
  %_37.i = load i64, ptr %self3.i, align 8, !range !1791, !noalias !1788, !noundef !6
  %0 = trunc nuw i64 %_37.i to i1
  %1 = getelementptr inbounds nuw i8, ptr %self3.i, i64 8
  br i1 %0, label %bb18.i, label %bb3

bb18.i:                                           ; preds = %bb9.i
  %e.0.i = load i64, ptr %1, align 8, !range !1792, !noalias !1788, !noundef !6
  %2 = getelementptr inbounds nuw i8, ptr %self3.i, i64 16
  %e.1.i = load i64, ptr %2, align 8, !noalias !1788
  call void @llvm.lifetime.end.p0(i64 24, ptr nonnull %self3.i), !noalias !1788
  br label %bb2

bb2:                                              ; preds = %bb18.i, %start
  %_0.sroa.5.0.i.ph = phi i64 [ undef, %start ], [ %e.1.i, %bb18.i ]
  %_0.sroa.0.0.i.ph = phi i64 [ 0, %start ], [ %e.0.i, %bb18.i ]
; call alloc::raw_vec::handle_error
  tail call void @_ZN5alloc7raw_vec12handle_error17h3a8c375904e593b2E(i64 noundef %_0.sroa.0.0.i.ph, i64 %_0.sroa.5.0.i.ph) #27
  unreachable

bb3:                                              ; preds = %bb9.i
  %v.0.i = load ptr, ptr %1, align 8, !noalias !1788, !nonnull !6, !noundef !6
  call void @llvm.lifetime.end.p0(i64 24, ptr nonnull %self3.i), !noalias !1788
  %3 = getelementptr inbounds nuw i8, ptr %slf, i64 8
  store ptr %v.0.i, ptr %3, align 8, !alias.scope !1788
  %4 = icmp sgt i64 %_0.sroa.0.0.i15.i, -1
  tail call void @llvm.assume(i1 %4)
  store i64 %_0.sroa.0.0.i15.i, ptr %slf, align 8, !alias.scope !1788
  ret void
}

; Function Attrs: mustprogress nofree norecurse nosync nounwind nonlazybind willreturn memory(argmem: read) uwtable
define noundef range(i8 -1, 2) i8 @cmpfunc(ptr noalias noundef readonly align 4 captures(none) dereferenceable(4) %a, ptr noalias noundef readonly align 4 captures(none) dereferenceable(4) %b) unnamed_addr #9 {
start:
  %_3 = load i32, ptr %a, align 4, !noundef !6
  %_4 = load i32, ptr %b, align 4, !noundef !6
  %_0 = tail call i8 @llvm.scmp.i8.i32(i32 %_3, i32 %_4)
  ret i8 %_0
}

; Function Attrs: nonlazybind uwtable
define void @f_gold(ptr dead_on_unwind noalias noundef writable sret([24 x i8]) align 8 captures(none) dereferenceable(24) %_0, ptr dead_on_return noalias noundef align 8 captures(address) dereferenceable(24) %str) unnamed_addr #4 personality ptr @rust_eh_personality {
start:
  %compare.i = alloca [0 x i8], align 1
  %is_less.i.i = alloca [8 x i8], align 8
  %_5 = alloca [24 x i8], align 8
  %arr = alloca [24 x i8], align 8
  %0 = getelementptr inbounds nuw i8, ptr %str, i64 16
  %n = load i64, ptr %0, align 8, !noundef !6
  %_18 = icmp sgt i64 %n, -1
  tail call void @llvm.assume(i1 %_18)
  call void @llvm.lifetime.start.p0(i64 24, ptr nonnull %arr)
  %_21.0.i.i.i = mul i64 %n, 24
  %or.cond.i.i.i = icmp samesign ugt i64 %n, 384307168202282325
  br i1 %or.cond.i.i.i, label %bb3.i, label %bb17.i.i, !prof !598

bb17.i.i:                                         ; preds = %start
  %_8.i.i = icmp eq i64 %_21.0.i.i.i, 0
  br i1 %_8.i.i, label %bb14, label %"_ZN63_$LT$alloc..alloc..Global$u20$as$u20$core..alloc..Allocator$GT$8allocate17h02618852de544ee2E.exit.i.i"

"_ZN63_$LT$alloc..alloc..Global$u20$as$u20$core..alloc..Allocator$GT$8allocate17h02618852de544ee2E.exit.i.i": ; preds = %bb17.i.i
; call __rustc::__rust_no_alloc_shim_is_unstable_v2
  tail call void @_RNvCsdBezzDwma51_7___rustc35___rust_no_alloc_shim_is_unstable_v2() #25, !noalias !1793
; call __rustc::__rust_alloc
  %1 = tail call noundef align 8 ptr @_RNvCsdBezzDwma51_7___rustc12___rust_alloc(i64 noundef %_21.0.i.i.i, i64 noundef range(i64 1, 9) 8) #25, !noalias !1793
  %2 = icmp eq ptr %1, null
  br i1 %2, label %bb3.i, label %bb14

bb3.i:                                            ; preds = %"_ZN63_$LT$alloc..alloc..Global$u20$as$u20$core..alloc..Allocator$GT$8allocate17h02618852de544ee2E.exit.i.i", %start
  %_4.sroa.4.0.ph.i = phi i64 [ 8, %"_ZN63_$LT$alloc..alloc..Global$u20$as$u20$core..alloc..Allocator$GT$8allocate17h02618852de544ee2E.exit.i.i" ], [ 0, %start ]
; invoke alloc::raw_vec::handle_error
  invoke void @_ZN5alloc7raw_vec12handle_error17h3a8c375904e593b2E(i64 noundef %_4.sroa.4.0.ph.i, i64 %_21.0.i.i.i) #27
          to label %.noexc unwind label %cleanup

.noexc:                                           ; preds = %bb3.i
  unreachable

bb12:                                             ; preds = %bb11, %cleanup
  %.pn.pn = phi { ptr, i32 } [ %.pn, %bb11 ], [ %4, %cleanup ]
  call void @llvm.experimental.noalias.scope.decl(metadata !1796)
  call void @llvm.experimental.noalias.scope.decl(metadata !1799)
  call void @llvm.experimental.noalias.scope.decl(metadata !1802)
  call void @llvm.experimental.noalias.scope.decl(metadata !1805)
  call void @llvm.experimental.noalias.scope.decl(metadata !1808)
  %self1.i.i.i.i1.i.i = load i64, ptr %str, align 8, !range !25, !alias.scope !1811, !noalias !1814, !noundef !6
  %_6.i.i.i.i2.i.i = icmp eq i64 %self1.i.i.i.i1.i.i, 0
  br i1 %_6.i.i.i.i2.i.i, label %bb13, label %bb2.i.i.i3.i.i

bb2.i.i.i3.i.i:                                   ; preds = %bb12
  %3 = getelementptr inbounds nuw i8, ptr %str, i64 8
  %self3.i.i.i.i4.i.i = load ptr, ptr %3, align 8, !alias.scope !1811, !noalias !1814, !nonnull !6, !noundef !6
; call __rustc::__rust_dealloc
  call void @_RNvCsdBezzDwma51_7___rustc14___rust_dealloc(ptr noundef nonnull %self3.i.i.i.i4.i.i, i64 noundef %self1.i.i.i.i1.i.i, i64 noundef range(i64 1, -9223372036854775807) 1) #25, !noalias !1816
  br label %bb13

cleanup:                                          ; preds = %bb3.i
  %4 = landingpad { ptr, i32 }
          cleanup
  br label %bb12

bb14:                                             ; preds = %bb17.i.i, %"_ZN63_$LT$alloc..alloc..Global$u20$as$u20$core..alloc..Allocator$GT$8allocate17h02618852de544ee2E.exit.i.i"
  %_4.sroa.4.0.i = phi i64 [ 0, %bb17.i.i ], [ %n, %"_ZN63_$LT$alloc..alloc..Global$u20$as$u20$core..alloc..Allocator$GT$8allocate17h02618852de544ee2E.exit.i.i" ]
  %_4.sroa.10.0.i = phi ptr [ inttoptr (i64 8 to ptr), %bb17.i.i ], [ %1, %"_ZN63_$LT$alloc..alloc..Global$u20$as$u20$core..alloc..Allocator$GT$8allocate17h02618852de544ee2E.exit.i.i" ]
  %_7.i = icmp samesign ule i64 %n, %_4.sroa.4.0.i
  tail call void @llvm.assume(i1 %_7.i)
  store i64 %_4.sroa.4.0.i, ptr %arr, align 8
  %5 = getelementptr inbounds nuw i8, ptr %arr, i64 8
  store ptr %_4.sroa.10.0.i, ptr %5, align 8
  %6 = getelementptr inbounds nuw i8, ptr %arr, i64 16
  store i64 0, ptr %6, align 8
  call void @llvm.lifetime.start.p0(i64 24, ptr nonnull %_5)
; invoke <alloc::string::String as core::clone::Clone>::clone
  invoke void @"_ZN60_$LT$alloc..string..String$u20$as$u20$core..clone..Clone$GT$5clone17h3201baa471bff1abE"(ptr noalias noundef nonnull sret([24 x i8]) align 8 captures(none) dereferenceable(24) %_5, ptr noalias noundef nonnull readonly align 8 captures(address, read_provenance) dereferenceable(24) %str)
          to label %bb1 unwind label %cleanup1

bb11:                                             ; preds = %bb2.i.i.i3.i.i13, %cleanup2.body, %cleanup.i, %bb2.i.i.i3.i.i.i, %cleanup1
  %.pn = phi { ptr, i32 } [ %7, %cleanup1 ], [ %10, %bb2.i.i.i3.i.i.i ], [ %10, %cleanup.i ], [ %eh.lpad-body33, %cleanup2.body ], [ %eh.lpad-body33, %bb2.i.i.i3.i.i13 ]
; call core::ptr::drop_in_place<alloc::vec::Vec<alloc::string::String>>
  call fastcc void @"_ZN4core3ptr65drop_in_place$LT$alloc..vec..Vec$LT$alloc..string..String$GT$$GT$17ha5714b0b3d45e72aE"(ptr noalias noundef align 8 dereferenceable(24) %arr) #28
  br label %bb12

cleanup1:                                         ; preds = %bb14
  %7 = landingpad { ptr, i32 }
          cleanup
  br label %bb11

bb1:                                              ; preds = %bb14
  %8 = getelementptr inbounds nuw i8, ptr %str, i64 8
  %_24 = load ptr, ptr %8, align 8, !nonnull !6, !noundef !6
  tail call void @llvm.experimental.noalias.scope.decl(metadata !1817)
  tail call void @llvm.experimental.noalias.scope.decl(metadata !1820)
  tail call void @llvm.experimental.noalias.scope.decl(metadata !1822)
  tail call void @llvm.experimental.noalias.scope.decl(metadata !1825)
  %9 = getelementptr inbounds nuw i8, ptr %_5, i64 16
  %len.i.i.i.i = load i64, ptr %9, align 8, !alias.scope !1828, !noalias !1831, !noundef !6
  %self2.i.i.i.i = load i64, ptr %_5, align 8, !range !25, !alias.scope !1828, !noalias !1831, !noundef !6
  %_9.i.i.i.i = sub i64 %self2.i.i.i.i, %len.i.i.i.i
  %_7.i.i.i.i = icmp ugt i64 %n, %_9.i.i.i.i
  br i1 %_7.i.i.i.i, label %bb1.i.i.i.i, label %bb2, !prof !1346

bb1.i.i.i.i:                                      ; preds = %bb1
; invoke alloc::raw_vec::RawVecInner<A>::reserve::do_reserve_and_handle
  invoke fastcc void @"_ZN5alloc7raw_vec20RawVecInner$LT$A$GT$7reserve21do_reserve_and_handle17h564a5fae3007f3f8E"(ptr noalias noundef nonnull align 8 dereferenceable(24) %_5, i64 noundef %len.i.i.i.i, i64 noundef %n)
          to label %.noexc.i unwind label %cleanup.i

.noexc.i:                                         ; preds = %bb1.i.i.i.i
  %len.pre.i.i.i = load i64, ptr %9, align 8, !alias.scope !1833, !noalias !1831
  %concat.sroa.0.0.copyload.pre = load i64, ptr %_5, align 8, !alias.scope !1834, !noalias !1835
  br label %bb2

cleanup.i:                                        ; preds = %bb1.i.i.i.i
  %10 = landingpad { ptr, i32 }
          cleanup
  tail call void @llvm.experimental.noalias.scope.decl(metadata !1836)
  tail call void @llvm.experimental.noalias.scope.decl(metadata !1839)
  tail call void @llvm.experimental.noalias.scope.decl(metadata !1842)
  tail call void @llvm.experimental.noalias.scope.decl(metadata !1845)
  tail call void @llvm.experimental.noalias.scope.decl(metadata !1848)
  %self1.i.i.i.i1.i.i.i = load i64, ptr %_5, align 8, !range !25, !alias.scope !1851, !noalias !1854, !noundef !6
  %_6.i.i.i.i2.i.i.i = icmp eq i64 %self1.i.i.i.i1.i.i.i, 0
  br i1 %_6.i.i.i.i2.i.i.i, label %bb11, label %bb2.i.i.i3.i.i.i

bb2.i.i.i3.i.i.i:                                 ; preds = %cleanup.i
  %11 = getelementptr inbounds nuw i8, ptr %_5, i64 8
  %self3.i.i.i.i4.i.i.i = load ptr, ptr %11, align 8, !alias.scope !1851, !noalias !1854, !nonnull !6, !noundef !6
; call __rustc::__rust_dealloc
  tail call void @_RNvCsdBezzDwma51_7___rustc14___rust_dealloc(ptr noundef nonnull %self3.i.i.i.i4.i.i.i, i64 noundef %self1.i.i.i.i1.i.i.i, i64 noundef range(i64 1, -9223372036854775807) 1) #25, !noalias !1856
  br label %bb11

bb2:                                              ; preds = %.noexc.i, %bb1
  %concat.sroa.0.0.copyload = phi i64 [ %self2.i.i.i.i, %bb1 ], [ %concat.sroa.0.0.copyload.pre, %.noexc.i ]
  %len.i.i.i = phi i64 [ %len.i.i.i.i, %bb1 ], [ %len.pre.i.i.i, %.noexc.i ]
  %_9.i.i.i = icmp sgt i64 %len.i.i.i, -1
  tail call void @llvm.assume(i1 %_9.i.i.i)
  %12 = getelementptr inbounds nuw i8, ptr %_5, i64 8
  %_10.i.i.i = load ptr, ptr %12, align 8, !alias.scope !1833, !noalias !1831, !nonnull !6, !noundef !6
  %dst.i.i.i = getelementptr inbounds nuw i8, ptr %_10.i.i.i, i64 %len.i.i.i
  tail call void @llvm.memcpy.p0.p0.i64(ptr nonnull align 1 %dst.i.i.i, ptr nonnull readonly align 1 %_24, i64 %n, i1 false), !noalias !1857
  %13 = add nuw i64 %len.i.i.i, %n
  call void @llvm.lifetime.end.p0(i64 24, ptr nonnull %_5)
  %_2645.not = icmp eq i64 %n, 0
  br i1 %_2645.not, label %bb2.bb16_crit_edge, label %bb15.i.peel

bb2.bb16_crit_edge:                               ; preds = %bb2
  %_40.pre = load i64, ptr %6, align 8
  br label %bb16

bb15.i.peel:                                      ; preds = %bb2
  %_19.not.i.peel.not = icmp eq i64 %len.i.i.i, 0
  br i1 %_19.not.i.peel.not, label %"_ZN63_$LT$alloc..alloc..Global$u20$as$u20$core..alloc..Allocator$GT$8allocate17h02618852de544ee2E.exit.i.i.i.peel", label %bb19.i.peel

bb19.i.peel:                                      ; preds = %bb15.i.peel
  %14 = getelementptr inbounds nuw i8, ptr %_10.i.i.i, i64 %n
  %self2.i.peel = load i8, ptr %14, align 1, !alias.scope !1858, !noundef !6
  %15 = icmp sgt i8 %self2.i.peel, -65
  br i1 %15, label %"_ZN63_$LT$alloc..alloc..Global$u20$as$u20$core..alloc..Allocator$GT$8allocate17h02618852de544ee2E.exit.i.i.i.peel", label %bb18

"_ZN63_$LT$alloc..alloc..Global$u20$as$u20$core..alloc..Allocator$GT$8allocate17h02618852de544ee2E.exit.i.i.i.peel": ; preds = %bb15.i.peel, %bb19.i.peel
; call __rustc::__rust_no_alloc_shim_is_unstable_v2
  tail call void @_RNvCsdBezzDwma51_7___rustc35___rust_no_alloc_shim_is_unstable_v2() #25, !noalias !1861
; call __rustc::__rust_alloc
  %16 = tail call noundef ptr @_RNvCsdBezzDwma51_7___rustc12___rust_alloc(i64 noundef range(i64 0, -9223372036854775808) %n, i64 noundef range(i64 1, 9) 1) #25, !noalias !1861
  %17 = icmp eq ptr %16, null
  br i1 %17, label %bb3.i.i, label %bb20.peel

