; ModuleID = '0002_brotli_parseint_emit.876c36ed713ef124-cgu.0'
source_filename = "0002_brotli_parseint_emit.876c36ed713ef124-cgu.0"
target datalayout = "e-m:e-p270:32:32-p271:32:32-p272:64:64-i64:64-i128:128-f80:128-n8:16:32:64-S128"
target triple = "x86_64-unknown-linux-gnu"

@alloc_3e1ebac14318b612ab4efabc52799932 = private unnamed_addr constant [186 x i8] c"unsafe precondition(s) violated: usize::unchecked_add cannot overflow\0A\0AThis indicates a bug in the program. This Undefined Behavior check is optional, and cannot be relied on for safety.", align 1
@alloc_bbc2daf0108615c0afa9fe04215660de = private unnamed_addr constant [111 x i8] c"/root/.rustup/toolchains/stable-x86_64-unknown-linux-gnu/lib/rustlib/src/rust/library/core/src/ptr/non_null.rs\00", align 1
@alloc_11df41512f96aa591188a49874013c9a = private unnamed_addr constant <{ ptr, [16 x i8] }> <{ ptr @alloc_bbc2daf0108615c0afa9fe04215660de, [16 x i8] c"n\00\00\00\00\00\00\00\BA\03\00\00 \00\00\00" }>, align 8
@alloc_ec595fc0e82ef92fc59bd74f68296eae = private unnamed_addr constant [73 x i8] c"assertion failed: 0 < pointee_size && pointee_size <= isize::MAX as usize", align 1
@alloc_fad0cd83b7d1858a846a172eb260e593 = private unnamed_addr constant [42 x i8] c"is_aligned_to: align is not a power-of-two", align 1
@alloc_35c749f09496b1a94c1214737a58d269 = private unnamed_addr constant [112 x i8] c"/root/.rustup/toolchains/stable-x86_64-unknown-linux-gnu/lib/rustlib/src/rust/library/core/src/ptr/const_ptr.rs\00", align 1
@alloc_3fa0cb230157e93f86c3228a58824d4a = private unnamed_addr constant <{ ptr, [16 x i8] }> <{ ptr @alloc_35c749f09496b1a94c1214737a58d269, [16 x i8] c"o\00\00\00\00\00\00\00^\05\00\00\0D\00\00\00" }>, align 8
@alloc_de4e626d456b04760e72bc785ed7e52a = private unnamed_addr constant [201 x i8] c"unsafe precondition(s) violated: ptr::offset_from_unsigned requires `self >= origin`\0A\0AThis indicates a bug in the program. This Undefined Behavior check is optional, and cannot be relied on for safety.", align 1
@anon.cb2c8aed352a1150658f97d5454b6954.0 = private unnamed_addr constant <{ [4 x i8], [4 x i8] }> <{ [4 x i8] zeroinitializer, [4 x i8] undef }>, align 4
@alloc_e8cef1ad8c55281f1c06278075b5a8cf = private unnamed_addr constant [114 x i8] c"/root/.rustup/toolchains/stable-x86_64-unknown-linux-gnu/lib/rustlib/src/rust/library/core/src/str/validations.rs\00", align 1
@alloc_8ae5d5befa1837969ee71239013ce4f9 = private unnamed_addr constant <{ ptr, [16 x i8] }> <{ ptr @alloc_e8cef1ad8c55281f1c06278075b5a8cf, [16 x i8] c"q\00\00\00\00\00\00\000\00\00\00$\00\00\00" }>, align 8
@alloc_705dbdbff97afba64e4c639cb5001628 = private unnamed_addr constant <{ ptr, [16 x i8] }> <{ ptr @alloc_e8cef1ad8c55281f1c06278075b5a8cf, [16 x i8] c"q\00\00\00\00\00\00\007\00\00\00(\00\00\00" }>, align 8
@alloc_0627500df8f5f84e32951f04dda9102b = private unnamed_addr constant <{ ptr, [16 x i8] }> <{ ptr @alloc_e8cef1ad8c55281f1c06278075b5a8cf, [16 x i8] c"q\00\00\00\00\00\00\00?\00\00\00,\00\00\00" }>, align 8
@alloc_91f2a00ff2cd9cdc4bb205a66832e2bb = private unnamed_addr constant [219 x i8] c"unsafe precondition(s) violated: str::get_unchecked requires that the range is within the string slice\0A\0AThis indicates a bug in the program. This Undefined Behavior check is optional, and cannot be relied on for safety.", align 1
@alloc_02f2591ae9217cbb8d2c5c7c7099d18f = private unnamed_addr constant [106 x i8] c"/root/.rustup/toolchains/stable-x86_64-unknown-linux-gnu/lib/rustlib/src/rust/library/core/src/str/mod.rs\00", align 1
@alloc_c7953896d58d00e96dff1f01c1e427f4 = private unnamed_addr constant <{ ptr, [16 x i8] }> <{ ptr @alloc_02f2591ae9217cbb8d2c5c7c7099d18f, [16 x i8] c"i\00\00\00\00\00\00\00~\01\00\00\0D\00\00\00" }>, align 8
@anon.cb2c8aed352a1150658f97d5454b6954.1 = private unnamed_addr constant <{ [8 x i8], [8 x i8] }> <{ [8 x i8] zeroinitializer, [8 x i8] undef }>, align 8
@alloc_eeee23bf035a9624bfe77ac4681ffd52 = private unnamed_addr constant [109 x i8] c"/root/.rustup/toolchains/stable-x86_64-unknown-linux-gnu/lib/rustlib/src/rust/library/core/src/str/traits.rs\00", align 1
@alloc_997a22a32e6fb3ca150e19b0f755ac25 = private unnamed_addr constant <{ ptr, [16 x i8] }> <{ ptr @alloc_eeee23bf035a9624bfe77ac4681ffd52, [16 x i8] c"l\00\00\00\00\00\00\00\19\02\00\00$\00\00\00" }>, align 8
@alloc_4dc07e69e5d34e9d1484dfbbef0bb9b1 = private unnamed_addr constant [174 x i8] c"unsafe precondition(s) violated: invalid value for `char`\0A\0AThis indicates a bug in the program. This Undefined Behavior check is optional, and cannot be relied on for safety.", align 1
@alloc_30fe31649da79dfe35b2c7c95d3d3bc9 = private unnamed_addr constant [111 x i8] c"/root/.rustup/toolchains/stable-x86_64-unknown-linux-gnu/lib/rustlib/src/rust/library/core/src/char/methods.rs\00", align 1
@alloc_d9609e157d4856cae9345a095cf1b3f1 = private unnamed_addr constant <{ ptr, [16 x i8] }> <{ ptr @alloc_30fe31649da79dfe35b2c7c95d3d3bc9, [16 x i8] c"n\00\00\00\00\00\00\00a\07\00\00\0E\00\00\00" }>, align 8
@alloc_7968f2065aa31d4a91357c992acb89cb = private unnamed_addr constant <{ ptr, [16 x i8] }> <{ ptr @alloc_30fe31649da79dfe35b2c7c95d3d3bc9, [16 x i8] c"n\00\00\00\00\00\00\00T\07\00\00\09\00\00\00" }>, align 8
@alloc_64e308ef4babfeb8b6220184de794a17 = private unnamed_addr constant [221 x i8] c"unsafe precondition(s) violated: hint::assert_unchecked must never be called when the condition is false\0A\0AThis indicates a bug in the program. This Undefined Behavior check is optional, and cannot be relied on for safety.", align 1
@alloc_75fb06c2453febd814e73f5f2e72ae38 = private unnamed_addr constant [199 x i8] c"unsafe precondition(s) violated: hint::unreachable_unchecked must never be reached\0A\0AThis indicates a bug in the program. This Undefined Behavior check is optional, and cannot be relied on for safety.", align 1
@alloc_e711b7c34d5403535647600ace7452cf = private unnamed_addr constant [120 x i8] c"/root/.rustup/toolchains/stable-x86_64-unknown-linux-gnu/lib/rustlib/src/rust/library/core/src/array/iter/iter_inner.rs\00", align 1
@alloc_73605cf90e0c29ac00b4c65543b351cc = private unnamed_addr constant <{ ptr, [16 x i8] }> <{ ptr @alloc_e711b7c34d5403535647600ace7452cf, [16 x i8] c"w\00\00\00\00\00\00\00\DB\00\00\00&\00\00\00" }>, align 8
@alloc_8d4a1773e12407e94bdf7053c711876c = private unnamed_addr constant [217 x i8] c"unsafe precondition(s) violated: slice::split_at_unchecked requires the index to be within the slice\0A\0AThis indicates a bug in the program. This Undefined Behavior check is optional, and cannot be relied on for safety.", align 1
@alloc_151bc8cc32e594e0be7b59816dcd339b = private unnamed_addr constant [106 x i8] c"/root/.rustup/toolchains/stable-x86_64-unknown-linux-gnu/lib/rustlib/src/rust/library/core/src/num/mod.rs\00", align 1
@alloc_c569f7b2d50f3d148c21213ba698778a = private unnamed_addr constant <{ ptr, [16 x i8] }> <{ ptr @alloc_151bc8cc32e594e0be7b59816dcd339b, [16 x i8] c"i\00\00\00\00\00\00\00\F5\04\00\00\05\00\00\00" }>, align 8
@alloc_14ffc53cef370592b8278fafba49890b = private unnamed_addr constant [249 x i8] c"unsafe precondition(s) violated: slice::as_chunks_unchecked requires `N != 0` and the slice to split exactly into `N`-element chunks\0A\0AThis indicates a bug in the program. This Undefined Behavior check is optional, and cannot be relied on for safety.", align 1
@alloc_a6e8913658d98d0dbd0444b57ddfd811 = private unnamed_addr constant [27 x i8] c"chunk size must be non-zero", align 1
@alloc_89d89e5aaa887bee5bee5ec909cff25a = private unnamed_addr constant [108 x i8] c"/root/.rustup/toolchains/stable-x86_64-unknown-linux-gnu/lib/rustlib/src/rust/library/core/src/ub_checks.rs\00", align 1
@alloc_611f58ae7c0cb6ecdf5f4642bc696b9a = private unnamed_addr constant <{ ptr, [16 x i8] }> <{ ptr @alloc_89d89e5aaa887bee5bee5ec909cff25a, [16 x i8] c"k\00\00\00\00\00\00\00\95\00\00\006\00\00\00" }>, align 8
@alloc_a28e8c8fd5088943a8b5d44af697ff83 = private unnamed_addr constant [279 x i8] c"unsafe precondition(s) violated: slice::from_raw_parts requires the pointer to be aligned and non-null, and the total size of the slice not to exceed `isize::MAX`\0A\0AThis indicates a bug in the program. This Undefined Behavior check is optional, and cannot be relied on for safety.", align 1
@alloc_5c1a2f972552229672fc942406cfc298 = private unnamed_addr constant [283 x i8] c"unsafe precondition(s) violated: slice::from_raw_parts_mut requires the pointer to be aligned and non-null, and the total size of the slice not to exceed `isize::MAX`\0A\0AThis indicates a bug in the program. This Undefined Behavior check is optional, and cannot be relied on for safety.", align 1
@alloc_f6bbc48c8e2f291ddd8ff6303e9bf004 = private unnamed_addr constant [116 x i8] c"/root/.rustup/toolchains/stable-x86_64-unknown-linux-gnu/lib/rustlib/src/rust/library/core/src/iter/traits/accum.rs\00", align 1
@alloc_793350d3db61167040fde9d23f7b0f1b = private unnamed_addr constant <{ ptr, [16 x i8] }> <{ ptr @alloc_f6bbc48c8e2f291ddd8ff6303e9bf004, [16 x i8] c"s\00\00\00\00\00\00\00\CC\00\00\00\01\00\00\00" }>, align 8
@alloc_97d92cbf2a68a6ac45a1b13da79836e4 = private unnamed_addr constant [214 x i8] c"unsafe precondition(s) violated: slice::get_unchecked requires that the index is within the slice\0A\0AThis indicates a bug in the program. This Undefined Behavior check is optional, and cannot be relied on for safety.", align 1
@alloc_6cf0ea2b32ac1f40214bc189b794b7a7 = private unnamed_addr constant [109 x i8] c"/root/.rustup/toolchains/stable-x86_64-unknown-linux-gnu/lib/rustlib/src/rust/library/core/src/slice/iter.rs\00", align 1
@alloc_42c4478e0dae5d12cc772718b271dbcd = private unnamed_addr constant <{ ptr, [16 x i8] }> <{ ptr @alloc_6cf0ea2b32ac1f40214bc189b794b7a7, [16 x i8] c"l\00\00\00\00\00\00\00\8E\00\00\00\01\00\00\00" }>, align 8
@alloc_53726dac490288e9570c94661c0ebffc = private unnamed_addr constant [107 x i8] c"/root/.rustup/toolchains/stable-x86_64-unknown-linux-gnu/lib/rustlib/src/rust/library/core/src/str/iter.rs\00", align 1
@alloc_ac7dec42d2eeec8a896f43950e346b7c = private unnamed_addr constant <{ ptr, [16 x i8] }> <{ ptr @alloc_53726dac490288e9570c94661c0ebffc, [16 x i8] c"j\00\00\00\00\00\00\007\00\00\003\00\00\00" }>, align 8
@alloc_5515c7b35c120aa5a0a21abfa1cff474 = private unnamed_addr constant [109 x i8] c"/root/.rustup/toolchains/stable-x86_64-unknown-linux-gnu/lib/rustlib/src/rust/library/core/src/iter/range.rs\00", align 1
@alloc_5a841786226b43ba606ae5b578f20831 = private unnamed_addr constant <{ ptr, [16 x i8] }> <{ ptr @alloc_5515c7b35c120aa5a0a21abfa1cff474, [16 x i8] c"l\00\00\00\00\00\00\00\AB\01\00\00\01\00\00\00" }>, align 8
@alloc_28156ca703804352f4ef46fe5e9592d2 = private unnamed_addr constant <{ ptr, [16 x i8] }> <{ ptr @alloc_53726dac490288e9570c94661c0ebffc, [16 x i8] c"j\00\00\00\00\00\00\00B\00\00\00M\00\00\00" }>, align 8
@alloc_741489c9336da09fe9c2dda41926dfb7 = private unnamed_addr constant <{ ptr, [16 x i8] }> <{ ptr @alloc_53726dac490288e9570c94661c0ebffc, [16 x i8] c"j\00\00\00\00\00\00\00B\00\00\00\15\00\00\00" }>, align 8
@alloc_98a2af4c4a92067f10653c45ee40e81c = private unnamed_addr constant <{ ptr, [16 x i8] }> <{ ptr @alloc_53726dac490288e9570c94661c0ebffc, [16 x i8] c"j\00\00\00\00\00\00\00N\00\00\00\19\00\00\00" }>, align 8
@alloc_1cf7dd5d34746d0392e65cfd7c90a5e3 = private unnamed_addr constant <{ ptr, [16 x i8] }> <{ ptr @alloc_53726dac490288e9570c94661c0ebffc, [16 x i8] c"j\00\00\00\00\00\00\00Y\00\00\00\15\00\00\00" }>, align 8
@alloc_db51a71a1b6b25b4224d4dc5277f93e7 = private unnamed_addr constant [256 x i8] c"\01\01\01\01\01\01\01\01\01\01\01\01\01\01\01\01\01\01\01\01\01\01\01\01\01\01\01\01\01\01\01\01\01\01\01\01\01\01\01\01\01\01\01\01\01\01\01\01\01\01\01\01\01\01\01\01\01\01\01\01\01\01\01\01\01\01\01\01\01\01\01\01\01\01\01\01\01\01\01\01\01\01\01\01\01\01\01\01\01\01\01\01\01\01\01\01\01\01\01\01\01\01\01\01\01\01\01\01\01\01\01\01\01\01\01\01\01\01\01\01\01\01\01\01\01\01\01\01\00\00\00\00\00\00\00\00\00\00\00\00\00\00\00\00\00\00\00\00\00\00\00\00\00\00\00\00\00\00\00\00\00\00\00\00\00\00\00\00\00\00\00\00\00\00\00\00\00\00\00\00\00\00\00\00\00\00\00\00\00\00\00\00\00\00\02\02\02\02\02\02\02\02\02\02\02\02\02\02\02\02\02\02\02\02\02\02\02\02\02\02\02\02\02\02\03\03\03\03\03\03\03\03\03\03\03\03\03\03\03\03\04\04\04\04\04\00\00\00\00\00\00\00\00\00\00\00", align 1
@alloc_10212a82724504ec6fb6f21352093d42 = private unnamed_addr constant <{ ptr, [16 x i8] }> <{ ptr @alloc_e8cef1ad8c55281f1c06278075b5a8cf, [16 x i8] c"q\00\00\00\00\00\00\00\17\01\00\00\05\00\00\00" }>, align 8
@alloc_ddd4242e7233815ef98c9ed4f1e8a626 = private unnamed_addr constant <{ ptr, [16 x i8] }> <{ ptr @alloc_53726dac490288e9570c94661c0ebffc, [16 x i8] c"j\00\00\00\00\00\00\00]\00\00\002\00\00\00" }>, align 8
@alloc_4d59e604df3e1ccde3f4a8d99c4401a7 = private unnamed_addr constant <{ ptr, [16 x i8] }> <{ ptr @alloc_53726dac490288e9570c94661c0ebffc, [16 x i8] c"j\00\00\00\00\00\00\00S\00\00\002\00\00\00" }>, align 8
@alloc_449d05a912215afbab952d7079b10a17 = private unnamed_addr constant <{ ptr, [16 x i8] }> <{ ptr @alloc_53726dac490288e9570c94661c0ebffc, [16 x i8] c"j\00\00\00\00\00\00\00J\00\00\00:\00\00\00" }>, align 8
@alloc_6c330454ad85ac77173e17471995dc03 = private unnamed_addr constant <{ ptr, [16 x i8] }> <{ ptr @alloc_30fe31649da79dfe35b2c7c95d3d3bc9, [16 x i8] c"n\00\00\00\00\00\00\00\EF\00\00\00\12\00\00\00" }>, align 8
@alloc_195b6523fcb963364274578f6fb9005b = private unnamed_addr constant [114 x i8] c"/root/.rustup/toolchains/stable-x86_64-unknown-linux-gnu/lib/rustlib/src/rust/library/core/src/ops/index_range.rs\00", align 1
@alloc_7432f4e8d76995c0617511ccee12224d = private unnamed_addr constant <{ ptr, [16 x i8] }> <{ ptr @alloc_195b6523fcb963364274578f6fb9005b, [16 x i8] c"q\00\00\00\00\00\00\00z\00\00\00\12\00\00\00" }>, align 8
@alloc_d6257b1bd6d71606f0c80579dc3f7df1 = private unnamed_addr constant <{ ptr, [16 x i8] }> <{ ptr @alloc_195b6523fcb963364274578f6fb9005b, [16 x i8] c"q\00\00\00\00\00\00\00?\00\00\00%\00\00\00" }>, align 8
@alloc_5244b70efa2e772df26449ce542b226d = private unnamed_addr constant [88 x i8] c"/root/es/vert/vert/rust_funcs/c_crown/0002_brotli_parseint/0002_brotli_parseint_emit.rs\00", align 1
@alloc_aacf12f21f38075c2fd7cfd1da20a746 = private unnamed_addr constant <{ ptr, [16 x i8] }> <{ ptr @alloc_5244b70efa2e772df26449ce542b226d, [16 x i8] c"W\00\00\00\00\00\00\00\0E\00\00\00\22\00\00\00" }>, align 8
@alloc_8100a62eb43a662a4be9fab0538bad6b = private unnamed_addr constant <{ ptr, [16 x i8] }> <{ ptr @alloc_5244b70efa2e772df26449ce542b226d, [16 x i8] c"W\00\00\00\00\00\00\00\11\00\00\00\11\00\00\00" }>, align 8
@alloc_302cb13f9e8c292191bd6fd02bab9dd2 = private unnamed_addr constant <{ ptr, [16 x i8] }> <{ ptr @alloc_5244b70efa2e772df26449ce542b226d, [16 x i8] c"W\00\00\00\00\00\00\00\11\00\00\00\1E\00\00\00" }>, align 8
@alloc_8d6d1421399322384f23f087b0032ee3 = private unnamed_addr constant <{ ptr, [16 x i8] }> <{ ptr @alloc_5244b70efa2e772df26449ce542b226d, [16 x i8] c"W\00\00\00\00\00\00\00\12\00\00\00\09\00\00\00" }>, align 8
@alloc_096a28ff3cf664e7d4ad50bfd2e316d7 = private unnamed_addr constant <{ ptr, [16 x i8] }> <{ ptr @alloc_5244b70efa2e772df26449ce542b226d, [16 x i8] c"W\00\00\00\00\00\00\00\16\00\00\00\09\00\00\00" }>, align 8

; <core::ops::try_trait::NeverShortCircuit<T> as core::ops::try_trait::FromResidual<core::ops::try_trait::NeverShortCircuitResidual>>::from_residual
; Function Attrs: inlinehint nonlazybind uwtable
define i8 @"_ZN158_$LT$core..ops..try_trait..NeverShortCircuit$LT$T$GT$$u20$as$u20$core..ops..try_trait..FromResidual$LT$core..ops..try_trait..NeverShortCircuitResidual$GT$$GT$13from_residual17h7c0bc6b5c9a7726dE"() unnamed_addr #0 {
start:
  unreachable
}

; core::cmp::Ord::min
; Function Attrs: inlinehint nonlazybind uwtable
define i64 @_ZN4core3cmp3Ord3min17hc7549b5f556d524aE(i64 %0, i64 %1) unnamed_addr #0 personality ptr @rust_eh_personality {
start:
  %2 = alloca [16 x i8], align 8
  %_6 = alloca [1 x i8], align 1
  %_0 = alloca [8 x i8], align 8
  %other = alloca [8 x i8], align 8
  %self = alloca [8 x i8], align 8
  store i64 %0, ptr %self, align 8
  store i64 %1, ptr %other, align 8
  store i8 1, ptr %_6, align 1
  %_3.i = load i64, ptr %other, align 8
  %_4.i = load i64, ptr %self, align 8
  %_0.i = icmp ult i64 %_3.i, %_4.i
  br label %bb1

bb5:                                              ; preds = %cleanup
  br label %bb8

cleanup:                                          ; No predecessors!
  %3 = landingpad { ptr, i32 }
          cleanup
  %4 = extractvalue { ptr, i32 } %3, 0
  %5 = extractvalue { ptr, i32 } %3, 1
  store ptr %4, ptr %2, align 8
  %6 = getelementptr inbounds i8, ptr %2, i64 8
  store i32 %5, ptr %6, align 8
  br label %bb5

bb1:                                              ; preds = %start
  br i1 %_0.i, label %bb2, label %bb3

bb3:                                              ; preds = %bb1
  store i8 0, ptr %_6, align 1
  %7 = load i64, ptr %self, align 8
  store i64 %7, ptr %_0, align 8
  br label %bb4

bb2:                                              ; preds = %bb1
  %8 = load i64, ptr %other, align 8
  store i64 %8, ptr %_0, align 8
  br label %bb4

bb4:                                              ; preds = %bb2, %bb3
  %9 = load i64, ptr %_0, align 8
  ret i64 %9

bb8:                                              ; preds = %bb5
  %10 = load i8, ptr %_6, align 1
  %11 = trunc nuw i8 %10 to i1
  br i1 %11, label %bb7, label %bb6

bb6:                                              ; preds = %bb7, %bb8
  %12 = load ptr, ptr %2, align 8
  %13 = getelementptr inbounds i8, ptr %2, i64 8
  %14 = load i32, ptr %13, align 8
  %15 = insertvalue { ptr, i32 } poison, ptr %12, 0
  %16 = insertvalue { ptr, i32 } %15, i32 %14, 1
  resume { ptr, i32 } %16

bb7:                                              ; preds = %bb8
  br label %bb6
}

; core::num::<impl usize>::unchecked_add::precondition_check
; Function Attrs: inlinehint nounwind nonlazybind uwtable
define internal void @"_ZN4core3num23_$LT$impl$u20$usize$GT$13unchecked_add18precondition_check17h92fd5ab5dbac1728E"(i64 %lhs, i64 %rhs, ptr align 8 %0) unnamed_addr #1 {
start:
  %_7.0 = add i64 %lhs, %rhs
  %_7.1 = icmp ult i64 %_7.0, %lhs
  br i1 %_7.1, label %bb1, label %bb2

bb2:                                              ; preds = %start
  ret void

bb1:                                              ; preds = %start
; call core::panicking::panic_nounwind_fmt
  call void @_ZN4core9panicking18panic_nounwind_fmt17hf349702e3facb1fdE(ptr @alloc_3e1ebac14318b612ab4efabc52799932, ptr inttoptr (i64 373 to ptr), i1 zeroext false, ptr align 8 %0) #12
  unreachable
}

; core::ops::function::FnOnce::call_once
; Function Attrs: inlinehint nonlazybind uwtable
define internal i64 @_ZN4core3ops8function6FnOnce9call_once17hebe0fb2b820258eeE(i64 %0) unnamed_addr #0 {
start:
  %_2 = alloca [8 x i8], align 8
  store i64 %0, ptr %_2, align 8
  %1 = load i64, ptr %_2, align 8
; call core::result::Result::Err
  %_0 = call i64 @_ZN4core6result6Result3Err17h4cacf96bdafd5a66E(i64 %1) #13
  ret i64 %_0
}

; core::ops::try_trait::NeverShortCircuit<T>::wrap_mut_2::{{closure}}
; Function Attrs: inlinehint nonlazybind uwtable
define i8 @"_ZN4core3ops9try_trait26NeverShortCircuit$LT$T$GT$10wrap_mut_228_$u7b$$u7b$closure$u7d$$u7d$17ha18c6cb5a4e96446E"(ptr align 1 %_1, i8 %a, i1 zeroext %b) unnamed_addr #0 {
start:
; call core::iter::adapters::map::map_fold::{{closure}}
  %_4 = call i8 @"_ZN4core4iter8adapters3map8map_fold28_$u7b$$u7b$closure$u7d$$u7d$17h9d91776b50bdc5d8E"(ptr align 1 %_1, i8 %a, i1 zeroext %b) #13
  ret i8 %_4
}

; core::ptr::drop_in_place<core::array::iter::IntoIter<bool,32_usize>>
; Function Attrs: nonlazybind uwtable
define void @"_ZN4core3ptr71drop_in_place$LT$core..array..iter..IntoIter$LT$bool$C$32_usize$GT$$GT$17h412659c724293656E"(ptr align 8 %_1) unnamed_addr #2 {
start:
; call <core::array::iter::IntoIter<T,_> as core::ops::drop::Drop>::drop
  call void @"_ZN82_$LT$core..array..iter..IntoIter$LT$T$C$_$GT$$u20$as$u20$core..ops..drop..Drop$GT$4drop17h7a768aaa84ad3b62E"(ptr align 8 %_1) #13
  ret void
}

; core::ptr::non_null::NonNull<T>::offset_from_unsigned
; Function Attrs: inlinehint nonlazybind uwtable
define i64 @"_ZN4core3ptr8non_null16NonNull$LT$T$GT$20offset_from_unsigned17he121f0d11e54b3e4E"(ptr %self, ptr %subtracted) unnamed_addr #0 {
start:
  %0 = alloca [8 x i8], align 8
  br label %bb2

bb2:                                              ; preds = %start
; call core::ptr::const_ptr::<impl *const T>::offset_from_unsigned::precondition_check
  call void @"_ZN4core3ptr9const_ptr33_$LT$impl$u20$$BP$const$u20$T$GT$20offset_from_unsigned18precondition_check17ha9f382702ed6a7c9E"(ptr %self, ptr %subtracted, ptr align 8 @alloc_11df41512f96aa591188a49874013c9a) #14
  br label %bb4

bb4:                                              ; preds = %bb2
  br label %bb5

bb5:                                              ; preds = %bb4
  br label %bb6

bb6:                                              ; preds = %bb5
  %1 = ptrtoint ptr %self to i64
  %2 = ptrtoint ptr %subtracted to i64
  %3 = sub nuw i64 %1, %2
  %4 = udiv exact i64 %3, 1
  store i64 %4, ptr %0, align 8
  %_0 = load i64, ptr %0, align 8
  ret i64 %_0

bb7:                                              ; No predecessors!
; call core::panicking::panic
  call void @_ZN4core9panicking5panic17ha2e20a73227bb72eE(ptr align 1 @alloc_ec595fc0e82ef92fc59bd74f68296eae, i64 73, ptr align 8 @alloc_11df41512f96aa591188a49874013c9a) #15
  unreachable
}

; core::ptr::const_ptr::<impl *const T>::is_aligned_to
; Function Attrs: inlinehint nonlazybind uwtable
define zeroext i1 @"_ZN4core3ptr9const_ptr33_$LT$impl$u20$$BP$const$u20$T$GT$13is_aligned_to17he65465b7e4d74d9cE"(ptr %self, i64 %align) unnamed_addr #0 {
start:
  %0 = alloca [4 x i8], align 4
  %1 = call i64 @llvm.ctpop.i64(i64 %align)
  %2 = trunc i64 %1 to i32
  store i32 %2, ptr %0, align 4
  %_9 = load i32, ptr %0, align 4
  %_3 = icmp eq i32 %_9, 1
  br i1 %_3, label %bb1, label %bb2

bb2:                                              ; preds = %start
; call core::panicking::panic_fmt
  call void @_ZN4core9panicking9panic_fmt17ha4414e4328fe24a0E(ptr @alloc_fad0cd83b7d1858a846a172eb260e593, ptr inttoptr (i64 85 to ptr), ptr align 8 @alloc_3fa0cb230157e93f86c3228a58824d4a) #15
  unreachable

bb1:                                              ; preds = %start
  %_7 = ptrtoint ptr %self to i64
  %_8 = sub i64 %align, 1
  %_6 = and i64 %_7, %_8
  %_0 = icmp eq i64 %_6, 0
  ret i1 %_0
}

; core::ptr::const_ptr::<impl *const T>::offset_from_unsigned::precondition_check
; Function Attrs: inlinehint nounwind nonlazybind uwtable
define internal void @"_ZN4core3ptr9const_ptr33_$LT$impl$u20$$BP$const$u20$T$GT$20offset_from_unsigned18precondition_check17ha9f382702ed6a7c9E"(ptr %this, ptr %origin, ptr align 8 %0) unnamed_addr #1 {
start:
  %_3 = icmp uge ptr %this, %origin
  br i1 %_3, label %bb1, label %bb2

bb2:                                              ; preds = %start
; call core::panicking::panic_nounwind_fmt
  call void @_ZN4core9panicking18panic_nounwind_fmt17hf349702e3facb1fdE(ptr @alloc_de4e626d456b04760e72bc785ed7e52a, ptr inttoptr (i64 403 to ptr), i1 zeroext false, ptr align 8 %0) #12
  unreachable

bb1:                                              ; preds = %start
  ret void
}

; core::str::validations::next_code_point
; Function Attrs: inlinehint nonlazybind uwtable
define { i32, i32 } @_ZN4core3str11validations15next_code_point17h527e01729c281c6fE(ptr align 8 %bytes) unnamed_addr #0 {
start:
  %self3 = alloca [8 x i8], align 8
  %self2 = alloca [8 x i8], align 8
  %ch = alloca [4 x i8], align 4
  %self1 = alloca [8 x i8], align 8
  %self = alloca [8 x i8], align 8
  %_3 = alloca [8 x i8], align 8
  %_0 = alloca [8 x i8], align 4
; call <core::slice::iter::Iter<T> as core::iter::traits::iterator::Iterator>::next
  %0 = call align 1 ptr @"_ZN91_$LT$core..slice..iter..Iter$LT$T$GT$$u20$as$u20$core..iter..traits..iterator..Iterator$GT$4next17h6b8abbfce22807efE"(ptr align 8 %bytes) #13
  store ptr %0, ptr %self, align 8
  %1 = load ptr, ptr %self, align 8
  %2 = ptrtoint ptr %1 to i64
  %3 = icmp eq i64 %2, 0
  %_28 = select i1 %3, i64 0, i64 1
  %4 = trunc nuw i64 %_28 to i1
  br i1 %4, label %bb14, label %bb13

bb14:                                             ; preds = %start
  %v = load ptr, ptr %self, align 8
  store ptr %v, ptr %_3, align 8
  %val = load ptr, ptr %_3, align 8
  %x = load i8, ptr %val, align 1
  %_6 = icmp ult i8 %x, -128
  br i1 %_6, label %bb3, label %bb4

bb13:                                             ; preds = %start
  %5 = load i32, ptr @anon.cb2c8aed352a1150658f97d5454b6954.0, align 4
  %6 = load i32, ptr getelementptr inbounds (i8, ptr @anon.cb2c8aed352a1150658f97d5454b6954.0, i64 4), align 4
  store i32 %5, ptr %_0, align 4
  %7 = getelementptr inbounds i8, ptr %_0, i64 4
  store i32 %6, ptr %7, align 4
  br label %bb12

bb12:                                             ; preds = %bb3, %bb11, %bb13
  %8 = load i32, ptr %_0, align 4
  %9 = getelementptr inbounds i8, ptr %_0, i64 4
  %10 = load i32, ptr %9, align 4
  %11 = insertvalue { i32, i32 } poison, i32 %8, 0
  %12 = insertvalue { i32, i32 } %11, i32 %10, 1
  ret { i32, i32 } %12

bb4:                                              ; preds = %bb14
  %_30 = and i8 %x, 31
  %init = zext i8 %_30 to i32
; call <core::slice::iter::Iter<T> as core::iter::traits::iterator::Iterator>::next
  %13 = call align 1 ptr @"_ZN91_$LT$core..slice..iter..Iter$LT$T$GT$$u20$as$u20$core..iter..traits..iterator..Iterator$GT$4next17h6b8abbfce22807efE"(ptr align 8 %bytes) #13
  store ptr %13, ptr %self1, align 8
  %14 = load ptr, ptr %self1, align 8
  %15 = ptrtoint ptr %14 to i64
  %16 = icmp eq i64 %15, 0
  %_31 = select i1 %16, i64 0, i64 1
  %17 = trunc nuw i64 %_31 to i1
  br i1 %17, label %bb16, label %bb15

bb3:                                              ; preds = %bb14
  %_7 = zext i8 %x to i32
  %18 = getelementptr inbounds i8, ptr %_0, i64 4
  store i32 %_7, ptr %18, align 4
  store i32 1, ptr %_0, align 4
  br label %bb12

bb16:                                             ; preds = %bb4
  %val4 = load ptr, ptr %self1, align 8
  %y = load i8, ptr %val4, align 1
  %_34 = shl i32 %init, 6
  %_36 = and i8 %y, 63
  %_35 = zext i8 %_36 to i32
  %19 = or i32 %_34, %_35
  store i32 %19, ptr %ch, align 4
  %_13 = icmp uge i8 %x, -32
  br i1 %_13, label %bb6, label %bb11

bb15:                                             ; preds = %bb4
; call core::hint::unreachable_unchecked::precondition_check
  call void @_ZN4core4hint21unreachable_unchecked18precondition_check17he3a8fba023fe7083E(ptr align 8 @alloc_8ae5d5befa1837969ee71239013ce4f9) #14
  br label %bb2

bb2:                                              ; preds = %bb19, %bb17, %bb15
  unreachable

bb11:                                             ; preds = %bb10, %bb16
  %20 = load i32, ptr %ch, align 4
  %21 = getelementptr inbounds i8, ptr %_0, i64 4
  store i32 %20, ptr %21, align 4
  store i32 1, ptr %_0, align 4
  br label %bb12

bb6:                                              ; preds = %bb16
; call <core::slice::iter::Iter<T> as core::iter::traits::iterator::Iterator>::next
  %22 = call align 1 ptr @"_ZN91_$LT$core..slice..iter..Iter$LT$T$GT$$u20$as$u20$core..iter..traits..iterator..Iterator$GT$4next17h6b8abbfce22807efE"(ptr align 8 %bytes) #13
  store ptr %22, ptr %self2, align 8
  %23 = load ptr, ptr %self2, align 8
  %24 = ptrtoint ptr %23 to i64
  %25 = icmp eq i64 %24, 0
  %_37 = select i1 %25, i64 0, i64 1
  %26 = trunc nuw i64 %_37 to i1
  br i1 %26, label %bb18, label %bb17

bb18:                                             ; preds = %bb6
  %val5 = load ptr, ptr %self2, align 8
  %z = load i8, ptr %val5, align 1
  %_19 = and i8 %y, 63
  %ch6 = zext i8 %_19 to i32
  %_40 = shl i32 %ch6, 6
  %_42 = and i8 %z, 63
  %_41 = zext i8 %_42 to i32
  %y_z = or i32 %_40, %_41
  %_20 = shl i32 %init, 12
  %27 = or i32 %_20, %y_z
  store i32 %27, ptr %ch, align 4
  %_21 = icmp uge i8 %x, -16
  br i1 %_21, label %bb8, label %bb10

bb17:                                             ; preds = %bb6
; call core::hint::unreachable_unchecked::precondition_check
  call void @_ZN4core4hint21unreachable_unchecked18precondition_check17he3a8fba023fe7083E(ptr align 8 @alloc_705dbdbff97afba64e4c639cb5001628) #14
  br label %bb2

bb10:                                             ; preds = %bb20, %bb18
  br label %bb11

bb8:                                              ; preds = %bb18
; call <core::slice::iter::Iter<T> as core::iter::traits::iterator::Iterator>::next
  %28 = call align 1 ptr @"_ZN91_$LT$core..slice..iter..Iter$LT$T$GT$$u20$as$u20$core..iter..traits..iterator..Iterator$GT$4next17h6b8abbfce22807efE"(ptr align 8 %bytes) #13
  store ptr %28, ptr %self3, align 8
  %29 = load ptr, ptr %self3, align 8
  %30 = ptrtoint ptr %29 to i64
  %31 = icmp eq i64 %30, 0
  %_43 = select i1 %31, i64 0, i64 1
  %32 = trunc nuw i64 %_43 to i1
  br i1 %32, label %bb20, label %bb19

bb20:                                             ; preds = %bb8
  %val7 = load ptr, ptr %self3, align 8
  %w = load i8, ptr %val7, align 1
  %_26 = and i32 %init, 7
  %_25 = shl i32 %_26, 18
  %_46 = shl i32 %y_z, 6
  %_48 = and i8 %w, 63
  %_47 = zext i8 %_48 to i32
  %_27 = or i32 %_46, %_47
  %33 = or i32 %_25, %_27
  store i32 %33, ptr %ch, align 4
  br label %bb10

bb19:                                             ; preds = %bb8
; call core::hint::unreachable_unchecked::precondition_check
  call void @_ZN4core4hint21unreachable_unchecked18precondition_check17he3a8fba023fe7083E(ptr align 8 @alloc_0627500df8f5f84e32951f04dda9102b) #14
  br label %bb2
}

; core::str::<impl str>::starts_with
; Function Attrs: nonlazybind uwtable
define zeroext i1 @"_ZN4core3str21_$LT$impl$u20$str$GT$11starts_with17h4879a20597009083E"(ptr align 1 %self.0, i64 %self.1, i32 %pat) unnamed_addr #2 {
start:
; call <char as core::str::pattern::Pattern>::is_prefix_of
  %_0 = call zeroext i1 @"_ZN52_$LT$char$u20$as$u20$core..str..pattern..Pattern$GT$12is_prefix_of17h38a3603580b951dfE"(i32 %pat, ptr align 1 %self.0, i64 %self.1) #13
  ret i1 %_0
}

; core::str::<impl str>::chars
; Function Attrs: inlinehint nonlazybind uwtable
define internal { ptr, ptr } @"_ZN4core3str21_$LT$impl$u20$str$GT$5chars17h00eadb345436a9f5E"(ptr align 1 %self.0, i64 %self.1) unnamed_addr #0 {
start:
  %_7 = getelementptr inbounds nuw i8, ptr %self.0, i64 %self.1
  %0 = insertvalue { ptr, ptr } poison, ptr %self.0, 0
  %1 = insertvalue { ptr, ptr } %0, ptr %_7, 1
  ret { ptr, ptr } %1
}

; core::str::traits::<impl core::slice::index::SliceIndex<str> for core::ops::range::Range<usize>>::get_unchecked::precondition_check
; Function Attrs: inlinehint nounwind nonlazybind uwtable
define internal void @"_ZN4core3str6traits108_$LT$impl$u20$core..slice..index..SliceIndex$LT$str$GT$$u20$for$u20$core..ops..range..Range$LT$usize$GT$$GT$13get_unchecked18precondition_check17h0c0011da8ab5e1a0E"(i64 %start1, i64 %end, i64 %len, ptr align 8 %0) unnamed_addr #1 {
start:
  %_4 = icmp uge i64 %end, %start1
  br i1 %_4, label %bb1, label %bb3

bb3:                                              ; preds = %bb1, %start
; call core::panicking::panic_nounwind_fmt
  call void @_ZN4core9panicking18panic_nounwind_fmt17hf349702e3facb1fdE(ptr @alloc_91f2a00ff2cd9cdc4bb205a66832e2bb, ptr inttoptr (i64 439 to ptr), i1 zeroext false, ptr align 8 %0) #12
  unreachable

bb1:                                              ; preds = %start
  %_5 = icmp ule i64 %end, %len
  br i1 %_5, label %bb2, label %bb3

bb2:                                              ; preds = %bb1
  ret void
}

; core::str::traits::<impl core::slice::index::SliceIndex<str> for core::ops::range::RangeFrom<usize>>::get
; Function Attrs: inlinehint nonlazybind uwtable
define internal { ptr, i64 } @"_ZN4core3str6traits112_$LT$impl$u20$core..slice..index..SliceIndex$LT$str$GT$$u20$for$u20$core..ops..range..RangeFrom$LT$usize$GT$$GT$3get17hbd9dc765352e5cf5E"(i64 %self, ptr align 1 %slice.0, i64 %slice.1) unnamed_addr #0 {
start:
  %_3 = alloca [1 x i8], align 1
  %_0 = alloca [16 x i8], align 8
  %_8 = icmp eq i64 %self, 0
  br i1 %_8, label %bb4, label %bb5

bb5:                                              ; preds = %start
  %_9 = icmp uge i64 %self, %slice.1
  br i1 %_9, label %bb6, label %bb7

bb4:                                              ; preds = %start
  br label %bb1

bb7:                                              ; preds = %bb5
  %_12 = icmp ult i64 %self, %slice.1
  br i1 %_12, label %bb8, label %panic

bb6:                                              ; preds = %bb5
  %0 = icmp eq i64 %self, %slice.1
  %1 = zext i1 %0 to i8
  store i8 %1, ptr %_3, align 1
  br label %bb9

bb8:                                              ; preds = %bb7
  %2 = getelementptr inbounds nuw i8, ptr %slice.0, i64 %self
  %self1 = load i8, ptr %2, align 1
  %3 = icmp sge i8 %self1, -64
  %4 = zext i1 %3 to i8
  store i8 %4, ptr %_3, align 1
  br label %bb9

panic:                                            ; preds = %bb7
; call core::panicking::panic_bounds_check
  call void @_ZN4core9panicking18panic_bounds_check17hb15443e8431033c2E(i64 %self, i64 %slice.1, ptr align 8 @alloc_c7953896d58d00e96dff1f01c1e427f4) #15
  unreachable

bb9:                                              ; preds = %bb6, %bb8
  %5 = load i8, ptr %_3, align 1
  %6 = trunc nuw i8 %5 to i1
  br i1 %6, label %bb1, label %bb2

bb2:                                              ; preds = %bb9
  %7 = load ptr, ptr @anon.cb2c8aed352a1150658f97d5454b6954.1, align 8
  %8 = load i64, ptr getelementptr inbounds (i8, ptr @anon.cb2c8aed352a1150658f97d5454b6954.1, i64 8), align 8
  store ptr %7, ptr %_0, align 8
  %9 = getelementptr inbounds i8, ptr %_0, i64 8
  store i64 %8, ptr %9, align 8
  br label %bb3

bb1:                                              ; preds = %bb4, %bb9
  br label %bb10

bb3:                                              ; preds = %bb11, %bb2
  %10 = load ptr, ptr %_0, align 8
  %11 = getelementptr inbounds i8, ptr %_0, i64 8
  %12 = load i64, ptr %11, align 8
  %13 = insertvalue { ptr, i64 } poison, ptr %10, 0
  %14 = insertvalue { ptr, i64 } %13, i64 %12, 1
  ret { ptr, i64 } %14

bb10:                                             ; preds = %bb1
; call core::str::traits::<impl core::slice::index::SliceIndex<str> for core::ops::range::Range<usize>>::get_unchecked::precondition_check
  call void @"_ZN4core3str6traits108_$LT$impl$u20$core..slice..index..SliceIndex$LT$str$GT$$u20$for$u20$core..ops..range..Range$LT$usize$GT$$GT$13get_unchecked18precondition_check17h0c0011da8ab5e1a0E"(i64 %self, i64 %slice.1, i64 %slice.1, ptr align 8 @alloc_997a22a32e6fb3ca150e19b0f755ac25) #14
  br label %bb11

bb11:                                             ; preds = %bb10
  %new_len = sub nuw i64 %slice.1, %self
  %data = getelementptr inbounds nuw i8, ptr %slice.0, i64 %self
  store ptr %data, ptr %_0, align 8
  %15 = getelementptr inbounds i8, ptr %_0, i64 8
  store i64 %new_len, ptr %15, align 8
  br label %bb3
}

; core::str::traits::<impl core::slice::index::SliceIndex<str> for core::ops::range::RangeFrom<usize>>::index
; Function Attrs: inlinehint nonlazybind uwtable
define internal { ptr, i64 } @"_ZN4core3str6traits112_$LT$impl$u20$core..slice..index..SliceIndex$LT$str$GT$$u20$for$u20$core..ops..range..RangeFrom$LT$usize$GT$$GT$5index17h141c2a6f9fc467fbE"(i64 %self, ptr align 1 %slice.0, i64 %slice.1, ptr align 8 %0) unnamed_addr #0 {
start:
  %_5 = alloca [16 x i8], align 8
; call core::str::traits::<impl core::slice::index::SliceIndex<str> for core::ops::range::RangeFrom<usize>>::get
  %1 = call { ptr, i64 } @"_ZN4core3str6traits112_$LT$impl$u20$core..slice..index..SliceIndex$LT$str$GT$$u20$for$u20$core..ops..range..RangeFrom$LT$usize$GT$$GT$3get17hbd9dc765352e5cf5E"(i64 %self, ptr align 1 %slice.0, i64 %slice.1) #13
  %2 = extractvalue { ptr, i64 } %1, 0
  %3 = extractvalue { ptr, i64 } %1, 1
  store ptr %2, ptr %_5, align 8
  %4 = getelementptr inbounds i8, ptr %_5, i64 8
  store i64 %3, ptr %4, align 8
  %5 = load ptr, ptr %_5, align 8
  %6 = getelementptr inbounds i8, ptr %_5, i64 8
  %7 = load i64, ptr %6, align 8
  %8 = ptrtoint ptr %5 to i64
  %9 = icmp eq i64 %8, 0
  %_6 = select i1 %9, i64 0, i64 1
  %10 = trunc nuw i64 %_6 to i1
  br i1 %10, label %bb4, label %bb3

bb4:                                              ; preds = %start
  %s.0 = load ptr, ptr %_5, align 8
  %11 = getelementptr inbounds i8, ptr %_5, i64 8
  %s.1 = load i64, ptr %11, align 8
  %12 = insertvalue { ptr, i64 } poison, ptr %s.0, 0
  %13 = insertvalue { ptr, i64 } %12, i64 %s.1, 1
  ret { ptr, i64 } %13

bb3:                                              ; preds = %start
; call core::str::slice_error_fail
  call void @_ZN4core3str16slice_error_fail17h4678567854dd8858E(ptr align 1 %slice.0, i64 %slice.1, i64 %self, i64 %slice.1, ptr align 8 %0) #15
  unreachable

bb2:                                              ; No predecessors!
  unreachable
}

; core::str::traits::<impl core::ops::index::Index<I> for str>::index
; Function Attrs: inlinehint nonlazybind uwtable
define { ptr, i64 } @"_ZN4core3str6traits66_$LT$impl$u20$core..ops..index..Index$LT$I$GT$$u20$for$u20$str$GT$5index17hcdff39d555a11c95E"(ptr align 1 %self.0, i64 %self.1, i64 %index, ptr align 8 %0) unnamed_addr #0 {
start:
; call core::str::traits::<impl core::slice::index::SliceIndex<str> for core::ops::range::RangeFrom<usize>>::index
  %1 = call { ptr, i64 } @"_ZN4core3str6traits112_$LT$impl$u20$core..slice..index..SliceIndex$LT$str$GT$$u20$for$u20$core..ops..range..RangeFrom$LT$usize$GT$$GT$5index17h141c2a6f9fc467fbE"(i64 %index, ptr align 1 %self.0, i64 %self.1, ptr align 8 %0) #13
  %_0.0 = extractvalue { ptr, i64 } %1, 0
  %_0.1 = extractvalue { ptr, i64 } %1, 1
  %2 = insertvalue { ptr, i64 } poison, ptr %_0.0, 0
  %3 = insertvalue { ptr, i64 } %2, i64 %_0.1, 1
  ret { ptr, i64 } %3
}

; core::char::convert::from_u32_unchecked::precondition_check
; Function Attrs: inlinehint nounwind nonlazybind uwtable
define internal void @_ZN4core4char7convert18from_u32_unchecked18precondition_check17h180240005e784321E(i32 %i, ptr align 8 %0) unnamed_addr #1 {
start:
  %self = xor i32 %i, 55296
  %_7 = sub i32 %self, 2048
  %_6 = icmp uge i32 %_7, 1112064
  br i1 %_6, label %bb1, label %bb2

bb2:                                              ; preds = %start
  ret void

bb1:                                              ; preds = %start
; call core::panicking::panic_nounwind_fmt
  call void @_ZN4core9panicking18panic_nounwind_fmt17hf349702e3facb1fdE(ptr @alloc_4dc07e69e5d34e9d1484dfbbef0bb9b1, ptr inttoptr (i64 349 to ptr), i1 zeroext false, ptr align 8 %0) #12
  unreachable
}

; core::char::methods::encode_utf8_raw
; Function Attrs: inlinehint nonlazybind uwtable
define internal { ptr, i64 } @_ZN4core4char7methods15encode_utf8_raw17hc74398234f5139fdE(i32 %code, ptr align 1 %dst.0, i64 %dst.1) unnamed_addr #0 {
start:
  %len = alloca [8 x i8], align 8
  %_11 = icmp ult i32 %code, 128
  br i1 %_11, label %bb10, label %bb5

bb5:                                              ; preds = %start
  %_12 = icmp ult i32 %code, 2048
  br i1 %_12, label %bb9, label %bb6

bb10:                                             ; preds = %start
  store i64 1, ptr %len, align 8
  br label %bb4

bb6:                                              ; preds = %bb5
  %_13 = icmp ult i32 %code, 65536
  br i1 %_13, label %bb8, label %bb7

bb9:                                              ; preds = %bb5
  store i64 2, ptr %len, align 8
  br label %bb4

bb7:                                              ; preds = %bb6
  store i64 4, ptr %len, align 8
  br label %bb4

bb8:                                              ; preds = %bb6
  store i64 3, ptr %len, align 8
  br label %bb4

bb4:                                              ; preds = %bb10, %bb9, %bb8, %bb7
  %_6 = load i64, ptr %len, align 8
  %_4 = icmp ult i64 %dst.1, %_6
  br i1 %_4, label %bb1, label %bb2

bb2:                                              ; preds = %bb4
; call core::char::methods::encode_utf8_raw_unchecked
  call void @_ZN4core4char7methods25encode_utf8_raw_unchecked17hc0d7b4ea04db0c76E(i32 %code, ptr %dst.0) #13
  br label %bb11

bb1:                                              ; preds = %bb4
  %0 = load i64, ptr %len, align 8
; call core::char::methods::encode_utf8_raw::do_panic::runtime
  call void @_ZN4core4char7methods15encode_utf8_raw8do_panic7runtime17h904cad932b2f18caE(i32 %code, i64 %0, i64 %dst.1, ptr align 8 @alloc_7968f2065aa31d4a91357c992acb89cb) #16
  unreachable

bb11:                                             ; preds = %bb2
  %1 = load i64, ptr %len, align 8
; call core::slice::raw::from_raw_parts_mut::precondition_check
  call void @_ZN4core5slice3raw18from_raw_parts_mut18precondition_check17hfa78f0641fec9647E(ptr %dst.0, i64 1, i64 1, i64 %1, ptr align 8 @alloc_d9609e157d4856cae9345a095cf1b3f1) #14
  br label %bb13

bb13:                                             ; preds = %bb11
  %_18.1 = load i64, ptr %len, align 8
  %2 = insertvalue { ptr, i64 } poison, ptr %dst.0, 0
  %3 = insertvalue { ptr, i64 } %2, i64 %_18.1, 1
  ret { ptr, i64 } %3
}

; core::char::methods::encode_utf8_raw_unchecked
; Function Attrs: inlinehint nonlazybind uwtable
define internal void @_ZN4core4char7methods25encode_utf8_raw_unchecked17hc0d7b4ea04db0c76E(i32 %code, ptr %dst) unnamed_addr #0 {
start:
  %len = alloca [8 x i8], align 8
  %_28 = icmp ult i32 %code, 128
  br i1 %_28, label %bb12, label %bb7

bb7:                                              ; preds = %start
  %_29 = icmp ult i32 %code, 2048
  br i1 %_29, label %bb11, label %bb8

bb12:                                             ; preds = %start
  store i64 1, ptr %len, align 8
  %0 = trunc i32 %code to i8
  store i8 %0, ptr %dst, align 1
  br label %bb5

bb8:                                              ; preds = %bb7
  %_30 = icmp ult i32 %code, 65536
  br i1 %_30, label %bb10, label %bb9

bb11:                                             ; preds = %bb7
  store i64 2, ptr %len, align 8
  br label %bb13

bb9:                                              ; preds = %bb8
  store i64 4, ptr %len, align 8
  br label %bb13

bb10:                                             ; preds = %bb8
  store i64 3, ptr %len, align 8
  br label %bb13

bb13:                                             ; preds = %bb11, %bb10, %bb9
  %_6 = and i32 %code, 63
  %_5 = trunc i32 %_6 to i8
  %last1 = or i8 %_5, -128
  %_10 = lshr i32 %code, 6
  %_9 = and i32 %_10, 63
  %_8 = trunc i32 %_9 to i8
  %last2 = or i8 %_8, -128
  %_14 = lshr i32 %code, 12
  %_13 = and i32 %_14, 63
  %_12 = trunc i32 %_13 to i8
  %last3 = or i8 %_12, -128
  %_18 = lshr i32 %code, 18
  %_17 = and i32 %_18, 63
  %_16 = trunc i32 %_17 to i8
  %last4 = or i8 %_16, -16
  %_20 = load i64, ptr %len, align 8
  %_19 = icmp eq i64 %_20, 2
  br i1 %_19, label %bb1, label %bb2

bb2:                                              ; preds = %bb13
  %1 = load i64, ptr %len, align 8
  %_22 = icmp eq i64 %1, 3
  br i1 %_22, label %bb3, label %bb4

bb1:                                              ; preds = %bb13
  %2 = or i8 %last2, -64
  store i8 %2, ptr %dst, align 1
  %_21 = getelementptr inbounds nuw i8, ptr %dst, i64 1
  store i8 %last1, ptr %_21, align 1
  br label %bb5

bb4:                                              ; preds = %bb2
  store i8 %last4, ptr %dst, align 1
  %_25 = getelementptr inbounds nuw i8, ptr %dst, i64 1
  store i8 %last3, ptr %_25, align 1
  %_26 = getelementptr inbounds nuw i8, ptr %dst, i64 2
  store i8 %last2, ptr %_26, align 1
  %_27 = getelementptr inbounds nuw i8, ptr %dst, i64 3
  store i8 %last1, ptr %_27, align 1
  br label %bb6

bb3:                                              ; preds = %bb2
  %3 = or i8 %last3, -32
  store i8 %3, ptr %dst, align 1
  %_23 = getelementptr inbounds nuw i8, ptr %dst, i64 1
  store i8 %last2, ptr %_23, align 1
  %_24 = getelementptr inbounds nuw i8, ptr %dst, i64 2
  store i8 %last1, ptr %_24, align 1
  br label %bb5

bb6:                                              ; preds = %bb5, %bb4
  ret void

bb5:                                              ; preds = %bb12, %bb1, %bb3
  br label %bb6
}

; core::hint::assert_unchecked::precondition_check
; Function Attrs: inlinehint nounwind nonlazybind uwtable
define internal void @_ZN4core4hint16assert_unchecked18precondition_check17hf779b1a6796512f6E(i1 zeroext %cond, ptr align 8 %0) unnamed_addr #1 {
start:
  br i1 %cond, label %bb2, label %bb1

bb1:                                              ; preds = %start
; call core::panicking::panic_nounwind_fmt
  call void @_ZN4core9panicking18panic_nounwind_fmt17hf349702e3facb1fdE(ptr @alloc_64e308ef4babfeb8b6220184de794a17, ptr inttoptr (i64 443 to ptr), i1 zeroext false, ptr align 8 %0) #12
  unreachable

bb2:                                              ; preds = %start
  ret void
}

; core::hint::unreachable_unchecked::precondition_check
; Function Attrs: inlinehint nounwind nonlazybind uwtable
define internal void @_ZN4core4hint21unreachable_unchecked18precondition_check17he3a8fba023fe7083E(ptr align 8 %0) unnamed_addr #1 {
start:
; call core::panicking::panic_nounwind_fmt
  call void @_ZN4core9panicking18panic_nounwind_fmt17hf349702e3facb1fdE(ptr @alloc_75fb06c2453febd814e73f5f2e72ae38, ptr inttoptr (i64 399 to ptr), i1 zeroext false, ptr align 8 %0) #12
  unreachable
}

; core::iter::traits::iterator::Iterator::nth
; Function Attrs: inlinehint nonlazybind uwtable
define i32 @_ZN4core4iter6traits8iterator8Iterator3nth17hc331844375051b6bE(ptr align 8 %self, i64 %n) unnamed_addr #0 {
start:
  %self1 = alloca [1 x i8], align 1
  %_0 = alloca [4 x i8], align 4
; call <core::str::iter::Chars as core::iter::traits::iterator::Iterator>::advance_by
  %self2 = call i64 @"_ZN81_$LT$core..str..iter..Chars$u20$as$u20$core..iter..traits..iterator..Iterator$GT$10advance_by17h2241855c07851ee4E"(ptr align 8 %self, i64 %n) #13
  %0 = icmp eq i64 %self2, 0
  %_5 = select i1 %0, i64 0, i64 1
  %1 = trunc nuw i64 %_5 to i1
  br i1 %1, label %bb4, label %bb5

bb4:                                              ; preds = %start
  store i8 0, ptr %self1, align 1
  store i32 1114112, ptr %_0, align 4
  br label %bb3

bb5:                                              ; preds = %start
  store i8 1, ptr %self1, align 1
; call <core::str::iter::Chars as core::iter::traits::iterator::Iterator>::next
  %2 = call i32 @"_ZN81_$LT$core..str..iter..Chars$u20$as$u20$core..iter..traits..iterator..Iterator$GT$4next17h0173271c67b5467aE"(ptr align 8 %self) #13
  store i32 %2, ptr %_0, align 4
  br label %bb3

bb3:                                              ; preds = %bb4, %bb5
  %3 = load i32, ptr %_0, align 4
  ret i32 %3

bb2:                                              ; No predecessors!
  unreachable
}

; core::iter::adapters::map::map_fold::{{closure}}
; Function Attrs: inlinehint nonlazybind uwtable
define i8 @"_ZN4core4iter8adapters3map8map_fold28_$u7b$$u7b$closure$u7d$$u7d$17h9d91776b50bdc5d8E"(ptr align 1 %_1, i8 %acc, i1 zeroext %elt) unnamed_addr #0 personality ptr @rust_eh_personality {
start:
  %0 = alloca [16 x i8], align 8
  %_10 = alloca [1 x i8], align 1
  store i8 1, ptr %_10, align 1
; invoke <core::str::iter::Chars as core::iter::traits::iterator::Iterator>::advance_by::{{closure}}
  %_7 = invoke i8 @"_ZN81_$LT$core..str..iter..Chars$u20$as$u20$core..iter..traits..iterator..Iterator$GT$10advance_by28_$u7b$$u7b$closure$u7d$$u7d$17hcaf038e9da3f325eE"(ptr align 1 %_1, i1 zeroext %elt)
          to label %bb1 unwind label %cleanup

bb5:                                              ; preds = %cleanup
  %1 = load i8, ptr %_10, align 1
  %2 = trunc nuw i8 %1 to i1
  br i1 %2, label %bb4, label %bb3

cleanup:                                          ; preds = %bb1, %start
  %3 = landingpad { ptr, i32 }
          cleanup
  %4 = extractvalue { ptr, i32 } %3, 0
  %5 = extractvalue { ptr, i32 } %3, 1
  store ptr %4, ptr %0, align 8
  %6 = getelementptr inbounds i8, ptr %0, i64 8
  store i32 %5, ptr %6, align 8
  br label %bb5

bb1:                                              ; preds = %start
  store i8 0, ptr %_10, align 1
; invoke <u8 as core::iter::traits::accum::Sum>::sum::{{closure}}
  %_0 = invoke i8 @"_ZN53_$LT$u8$u20$as$u20$core..iter..traits..accum..Sum$GT$3sum28_$u7b$$u7b$closure$u7d$$u7d$17hd6d8b78d26a62e86E"(ptr align 1 %_1, i8 %acc, i8 %_7)
          to label %bb2 unwind label %cleanup

bb2:                                              ; preds = %bb1
  ret i8 %_0

bb3:                                              ; preds = %bb4, %bb5
  %7 = load ptr, ptr %0, align 8
  %8 = getelementptr inbounds i8, ptr %0, i64 8
  %9 = load i32, ptr %8, align 8
  %10 = insertvalue { ptr, i32 } poison, ptr %7, 0
  %11 = insertvalue { ptr, i32 } %10, i32 %9, 1
  resume { ptr, i32 } %11

bb4:                                              ; preds = %bb5
  br label %bb3
}

; core::array::iter::iter_inner::PolymorphicIter<[core::mem::maybe_uninit::MaybeUninit<T>]>::try_fold::{{closure}}
; Function Attrs: inlinehint nonlazybind uwtable
define i8 @"_ZN4core5array4iter10iter_inner78PolymorphicIter$LT$$u5b$core..mem..maybe_uninit..MaybeUninit$LT$T$GT$$u5d$$GT$8try_fold28_$u7b$$u7b$closure$u7d$$u7d$17hb108cf1c2cfa362bE"(ptr align 8 %_1, i8 %accum, i64 %idx) unnamed_addr #0 {
start:
  %self.0 = load ptr, ptr %_1, align 8
  %0 = getelementptr inbounds i8, ptr %_1, i64 8
  %self.1 = load i64, ptr %0, align 8
  br label %bb2

bb2:                                              ; preds = %start
; call <usize as core::slice::index::SliceIndex<[T]>>::get_unchecked::precondition_check
  call void @"_ZN75_$LT$usize$u20$as$u20$core..slice..index..SliceIndex$LT$$u5b$T$u5d$$GT$$GT$13get_unchecked18precondition_check17h6a1ee682ae3808c6E"(i64 %idx, i64 %self.1, ptr align 8 @alloc_73605cf90e0c29ac00b4c65543b351cc) #14
  br label %bb4

bb4:                                              ; preds = %bb2
  %_11 = icmp ult i64 %idx, %self.1
  %self = getelementptr inbounds nuw i8, ptr %self.0, i64 %idx
  %1 = load i8, ptr %self, align 1
  %elem = trunc nuw i8 %1 to i1
  %_5 = getelementptr inbounds i8, ptr %_1, i64 16
; call core::ops::try_trait::NeverShortCircuit<T>::wrap_mut_2::{{closure}}
  %_0 = call i8 @"_ZN4core3ops9try_trait26NeverShortCircuit$LT$T$GT$10wrap_mut_228_$u7b$$u7b$closure$u7d$$u7d$17ha18c6cb5a4e96446E"(ptr align 1 %_5, i8 %accum, i1 zeroext %elem) #13
  ret i8 %_0
}

; core::slice::<impl [T]>::split_at_unchecked
; Function Attrs: inlinehint nonlazybind uwtable
define void @"_ZN4core5slice29_$LT$impl$u20$$u5b$T$u5d$$GT$18split_at_unchecked17h3ab39833d4e68781E"(ptr sret([32 x i8]) align 8 %_0, ptr align 1 %self.0, i64 %self.1, i64 %mid, ptr align 8 %0) unnamed_addr #0 {
start:
  %len = alloca [8 x i8], align 8
  %data = alloca [8 x i8], align 8
  %_7 = alloca [16 x i8], align 8
  br label %bb1

bb1:                                              ; preds = %start
; call core::slice::<impl [T]>::split_at_unchecked::precondition_check
  call void @"_ZN4core5slice29_$LT$impl$u20$$u5b$T$u5d$$GT$18split_at_unchecked18precondition_check17h1f20103bfedd24a0E"(i64 %mid, i64 %self.1, ptr align 8 %0) #14
  br label %bb3

bb3:                                              ; preds = %bb1
; call core::slice::raw::from_raw_parts::precondition_check
  call void @_ZN4core5slice3raw14from_raw_parts18precondition_check17h5df9b82694539947E(ptr %self.0, i64 1, i64 1, i64 %mid, ptr align 8 %0) #14
  store ptr %self.0, ptr %_7, align 8
  %1 = getelementptr inbounds i8, ptr %_7, i64 8
  store i64 %mid, ptr %1, align 8
  %2 = getelementptr inbounds nuw i8, ptr %self.0, i64 %mid
  store ptr %2, ptr %data, align 8
  %3 = sub nuw i64 %self.1, %mid
  store i64 %3, ptr %len, align 8
  %_18 = load ptr, ptr %data, align 8
  %4 = load i64, ptr %len, align 8
; call core::slice::raw::from_raw_parts::precondition_check
  call void @_ZN4core5slice3raw14from_raw_parts18precondition_check17h5df9b82694539947E(ptr %_18, i64 1, i64 1, i64 %4, ptr align 8 %0) #14
  br label %bb6

bb6:                                              ; preds = %bb3
  %_19.0 = load ptr, ptr %data, align 8
  %_19.1 = load i64, ptr %len, align 8
  %5 = load ptr, ptr %_7, align 8
  %6 = getelementptr inbounds i8, ptr %_7, i64 8
  %7 = load i64, ptr %6, align 8
  store ptr %5, ptr %_0, align 8
  %8 = getelementptr inbounds i8, ptr %_0, i64 8
  store i64 %7, ptr %8, align 8
  %9 = getelementptr inbounds i8, ptr %_0, i64 16
  store ptr %_19.0, ptr %9, align 8
  %10 = getelementptr inbounds i8, ptr %9, i64 8
  store i64 %_19.1, ptr %10, align 8
  ret void

bb2:                                              ; No predecessors!
  unreachable

bb8:                                              ; No predecessors!
  unreachable
}

; core::slice::<impl [T]>::split_at_unchecked::precondition_check
; Function Attrs: inlinehint nounwind nonlazybind uwtable
define internal void @"_ZN4core5slice29_$LT$impl$u20$$u5b$T$u5d$$GT$18split_at_unchecked18precondition_check17h1f20103bfedd24a0E"(i64 %mid, i64 %len, ptr align 8 %0) unnamed_addr #1 {
start:
  %_3 = icmp ule i64 %mid, %len
  br i1 %_3, label %bb1, label %bb2

bb2:                                              ; preds = %start
; call core::panicking::panic_nounwind_fmt
  call void @_ZN4core9panicking18panic_nounwind_fmt17hf349702e3facb1fdE(ptr @alloc_8d4a1773e12407e94bdf7053c711876c, ptr inttoptr (i64 435 to ptr), i1 zeroext false, ptr align 8 %0) #12
  unreachable

bb1:                                              ; preds = %start
  ret void
}

; core::slice::<impl [T]>::as_chunks_unchecked
; Function Attrs: inlinehint nonlazybind uwtable
define { ptr, i64 } @"_ZN4core5slice29_$LT$impl$u20$$u5b$T$u5d$$GT$19as_chunks_unchecked17h1af979e0e7c77bb2E"(ptr align 1 %self.0, i64 %self.1, ptr align 8 %0) unnamed_addr #0 {
start:
  %data = alloca [8 x i8], align 8
  %new_len = alloca [8 x i8], align 8
  br label %bb1

bb1:                                              ; preds = %start
; call core::slice::<impl [T]>::as_chunks_unchecked::precondition_check
  call void @"_ZN4core5slice29_$LT$impl$u20$$u5b$T$u5d$$GT$19as_chunks_unchecked18precondition_check17hcdf03b09407c1960E"(i64 32, i64 %self.1, ptr align 8 %0) #14
  %1 = udiv exact i64 %self.1, 32
  store i64 %1, ptr %new_len, align 8
  store ptr %self.0, ptr %data, align 8
  %len = load i64, ptr %new_len, align 8
  %2 = load i64, ptr %new_len, align 8
; call core::slice::raw::from_raw_parts::precondition_check
  call void @_ZN4core5slice3raw14from_raw_parts18precondition_check17h5df9b82694539947E(ptr %self.0, i64 32, i64 1, i64 %2, ptr align 8 %0) #14
  br label %bb4

bb4:                                              ; preds = %bb1
  %_13.0 = load ptr, ptr %data, align 8
  %_13.1 = load i64, ptr %new_len, align 8
  %3 = insertvalue { ptr, i64 } poison, ptr %_13.0, 0
  %4 = insertvalue { ptr, i64 } %3, i64 %_13.1, 1
  ret { ptr, i64 } %4

bb5:                                              ; No predecessors!
  unreachable

bb7:                                              ; No predecessors!
  unreachable
}

; core::slice::<impl [T]>::as_chunks_unchecked::precondition_check
; Function Attrs: inlinehint nounwind nonlazybind uwtable
define internal void @"_ZN4core5slice29_$LT$impl$u20$$u5b$T$u5d$$GT$19as_chunks_unchecked18precondition_check17hcdf03b09407c1960E"(i64 %n, i64 %len, ptr align 8 %0) unnamed_addr #1 personality ptr @rust_eh_personality {
start:
  %_4 = alloca [1 x i8], align 1
  %_3 = icmp ne i64 %n, 0
  br i1 %_3, label %bb1, label %bb4

bb4:                                              ; preds = %bb3, %start
; call core::panicking::panic_nounwind_fmt
  call void @_ZN4core9panicking18panic_nounwind_fmt17hf349702e3facb1fdE(ptr @alloc_14ffc53cef370592b8278fafba49890b, ptr inttoptr (i64 499 to ptr), i1 zeroext false, ptr align 8 %0) #12
  unreachable

bb1:                                              ; preds = %start
  %1 = icmp eq i64 %n, 0
  br i1 %1, label %bb7, label %bb6

bb7:                                              ; preds = %bb1
  %2 = icmp eq i64 %len, 0
  %3 = zext i1 %2 to i8
  store i8 %3, ptr %_4, align 1
  br label %bb5

bb6:                                              ; preds = %bb1
  %_9 = icmp eq i64 %n, 0
  br i1 %_9, label %panic, label %bb8

bb5:                                              ; preds = %bb8, %bb7
  %4 = load i8, ptr %_4, align 1
  %5 = trunc nuw i8 %4 to i1
  br i1 %5, label %bb2, label %bb3

bb8:                                              ; preds = %bb6
  %_8 = urem i64 %len, %n
  %6 = icmp eq i64 %_8, 0
  %7 = zext i1 %6 to i8
  store i8 %7, ptr %_4, align 1
  br label %bb5

panic:                                            ; preds = %bb6
; invoke core::panicking::panic_const::panic_const_rem_by_zero
  invoke void @_ZN4core9panicking11panic_const23panic_const_rem_by_zero17h68b8e0645961a790E(ptr align 8 @alloc_c569f7b2d50f3d148c21213ba698778a) #16
          to label %unreachable unwind label %terminate

terminate:                                        ; preds = %panic
  %8 = landingpad { ptr, i32 }
          filter [0 x ptr] zeroinitializer
; call core::panicking::panic_cannot_unwind
  call void @_ZN4core9panicking19panic_cannot_unwind17h9d41c6c1d0e0d4e5E() #17
  unreachable

unreachable:                                      ; preds = %panic
  unreachable

bb3:                                              ; preds = %bb5
  br label %bb4

bb2:                                              ; preds = %bb5
  ret void
}

; core::slice::<impl [T]>::as_chunks
; Function Attrs: inlinehint nonlazybind uwtable
define void @"_ZN4core5slice29_$LT$impl$u20$$u5b$T$u5d$$GT$9as_chunks17h3c2162995d763719E"(ptr sret([32 x i8]) align 8 %_0, ptr align 1 %self.0, i64 %self.1, ptr align 8 %0) unnamed_addr #0 {
start:
  %_11 = alloca [32 x i8], align 8
  br label %bb2

bb2:                                              ; preds = %start
  %_6 = udiv i64 %self.1, 32
  %len_rounded_down = mul i64 %_6, 32
; call core::slice::<impl [T]>::split_at_unchecked
  call void @"_ZN4core5slice29_$LT$impl$u20$$u5b$T$u5d$$GT$18split_at_unchecked17h3ab39833d4e68781E"(ptr sret([32 x i8]) align 8 %_11, ptr align 1 %self.0, i64 %self.1, i64 %len_rounded_down, ptr align 8 %0) #13
  %multiple_of_n.0 = load ptr, ptr %_11, align 8
  %1 = getelementptr inbounds i8, ptr %_11, i64 8
  %multiple_of_n.1 = load i64, ptr %1, align 8
  %2 = getelementptr inbounds i8, ptr %_11, i64 16
  %remainder.0 = load ptr, ptr %2, align 8
  %3 = getelementptr inbounds i8, ptr %2, i64 8
  %remainder.1 = load i64, ptr %3, align 8
; call core::slice::<impl [T]>::as_chunks_unchecked
  %4 = call { ptr, i64 } @"_ZN4core5slice29_$LT$impl$u20$$u5b$T$u5d$$GT$19as_chunks_unchecked17h1af979e0e7c77bb2E"(ptr align 1 %multiple_of_n.0, i64 %multiple_of_n.1, ptr align 8 %0) #13
  %array_slice.0 = extractvalue { ptr, i64 } %4, 0
  %array_slice.1 = extractvalue { ptr, i64 } %4, 1
  store ptr %array_slice.0, ptr %_0, align 8
  %5 = getelementptr inbounds i8, ptr %_0, i64 8
  store i64 %array_slice.1, ptr %5, align 8
  %6 = getelementptr inbounds i8, ptr %_0, i64 16
  store ptr %remainder.0, ptr %6, align 8
  %7 = getelementptr inbounds i8, ptr %6, i64 8
  store i64 %remainder.1, ptr %7, align 8
  ret void

bb1:                                              ; No predecessors!
; call core::panicking::panic_fmt
  call void @_ZN4core9panicking9panic_fmt17ha4414e4328fe24a0E(ptr @alloc_a6e8913658d98d0dbd0444b57ddfd811, ptr inttoptr (i64 55 to ptr), ptr align 8 %0) #15
  unreachable
}

; core::slice::raw::from_raw_parts::precondition_check
; Function Attrs: inlinehint nounwind nonlazybind uwtable
define internal void @_ZN4core5slice3raw14from_raw_parts18precondition_check17h5df9b82694539947E(ptr %data, i64 %size, i64 %align, i64 %len, ptr align 8 %0) unnamed_addr #1 personality ptr @rust_eh_personality {
start:
  %max_len = alloca [8 x i8], align 8
; invoke core::ptr::const_ptr::<impl *const T>::is_aligned_to
  %_11 = invoke zeroext i1 @"_ZN4core3ptr9const_ptr33_$LT$impl$u20$$BP$const$u20$T$GT$13is_aligned_to17he65465b7e4d74d9cE"(ptr %data, i64 %align)
          to label %bb8 unwind label %terminate

terminate:                                        ; preds = %panic, %start
  %1 = landingpad { ptr, i32 }
          filter [0 x ptr] zeroinitializer
; call core::panicking::panic_cannot_unwind
  call void @_ZN4core9panicking19panic_cannot_unwind17h9d41c6c1d0e0d4e5E() #17
  unreachable

bb8:                                              ; preds = %start
  br i1 %_11, label %bb6, label %bb7

bb7:                                              ; preds = %bb8
  br label %bb4

bb6:                                              ; preds = %bb8
  %_13 = ptrtoint ptr %data to i64
  %_12 = icmp eq i64 %_13, 0
  %_5 = xor i1 %_12, true
  br i1 %_5, label %bb1, label %bb4

bb4:                                              ; preds = %bb6, %bb7
  br label %bb5

bb1:                                              ; preds = %bb6
  %_15 = icmp eq i64 %size, 0
  br i1 %_15, label %bb9, label %bb10

bb5:                                              ; preds = %bb3, %bb4
; call core::panicking::panic_nounwind_fmt
  call void @_ZN4core9panicking18panic_nounwind_fmt17hf349702e3facb1fdE(ptr @alloc_a28e8c8fd5088943a8b5d44af697ff83, ptr inttoptr (i64 559 to ptr), i1 zeroext false, ptr align 8 %0) #12
  unreachable

bb10:                                             ; preds = %bb1
  br i1 %_15, label %panic, label %bb11

bb9:                                              ; preds = %bb1
  store i64 -1, ptr %max_len, align 8
  br label %bb12

bb11:                                             ; preds = %bb10
  %2 = udiv i64 9223372036854775807, %size
  store i64 %2, ptr %max_len, align 8
  br label %bb12

panic:                                            ; preds = %bb10
; invoke core::panicking::panic_const::panic_const_div_by_zero
  invoke void @_ZN4core9panicking11panic_const23panic_const_div_by_zero17h9a45e37423e1c559E(ptr align 8 @alloc_611f58ae7c0cb6ecdf5f4642bc696b9a) #16
          to label %unreachable unwind label %terminate

unreachable:                                      ; preds = %panic
  unreachable

bb12:                                             ; preds = %bb9, %bb11
  %3 = load i64, ptr %max_len, align 8
  %_7 = icmp ule i64 %len, %3
  br i1 %_7, label %bb2, label %bb3

bb3:                                              ; preds = %bb12
  br label %bb5

bb2:                                              ; preds = %bb12
  ret void
}

; core::slice::raw::from_raw_parts_mut::precondition_check
; Function Attrs: inlinehint nounwind nonlazybind uwtable
define internal void @_ZN4core5slice3raw18from_raw_parts_mut18precondition_check17hfa78f0641fec9647E(ptr %data, i64 %size, i64 %align, i64 %len, ptr align 8 %0) unnamed_addr #1 personality ptr @rust_eh_personality {
start:
  %max_len = alloca [8 x i8], align 8
; invoke core::ptr::const_ptr::<impl *const T>::is_aligned_to
  %_11 = invoke zeroext i1 @"_ZN4core3ptr9const_ptr33_$LT$impl$u20$$BP$const$u20$T$GT$13is_aligned_to17he65465b7e4d74d9cE"(ptr %data, i64 %align)
          to label %bb8 unwind label %terminate

terminate:                                        ; preds = %panic, %start
  %1 = landingpad { ptr, i32 }
          filter [0 x ptr] zeroinitializer
; call core::panicking::panic_cannot_unwind
  call void @_ZN4core9panicking19panic_cannot_unwind17h9d41c6c1d0e0d4e5E() #17
  unreachable

bb8:                                              ; preds = %start
  br i1 %_11, label %bb6, label %bb7

bb7:                                              ; preds = %bb8
  br label %bb4

bb6:                                              ; preds = %bb8
  %_13 = ptrtoint ptr %data to i64
  %_12 = icmp eq i64 %_13, 0
  %_5 = xor i1 %_12, true
  br i1 %_5, label %bb1, label %bb4

bb4:                                              ; preds = %bb6, %bb7
  br label %bb5

bb1:                                              ; preds = %bb6
  %_15 = icmp eq i64 %size, 0
  br i1 %_15, label %bb9, label %bb10

bb5:                                              ; preds = %bb3, %bb4
; call core::panicking::panic_nounwind_fmt
  call void @_ZN4core9panicking18panic_nounwind_fmt17hf349702e3facb1fdE(ptr @alloc_5c1a2f972552229672fc942406cfc298, ptr inttoptr (i64 567 to ptr), i1 zeroext false, ptr align 8 %0) #12
  unreachable

bb10:                                             ; preds = %bb1
  br i1 %_15, label %panic, label %bb11

bb9:                                              ; preds = %bb1
  store i64 -1, ptr %max_len, align 8
  br label %bb12

bb11:                                             ; preds = %bb10
  %2 = udiv i64 9223372036854775807, %size
  store i64 %2, ptr %max_len, align 8
  br label %bb12

panic:                                            ; preds = %bb10
; invoke core::panicking::panic_const::panic_const_div_by_zero
  invoke void @_ZN4core9panicking11panic_const23panic_const_div_by_zero17h9a45e37423e1c559E(ptr align 8 @alloc_611f58ae7c0cb6ecdf5f4642bc696b9a) #16
          to label %unreachable unwind label %terminate

unreachable:                                      ; preds = %panic
  unreachable

bb12:                                             ; preds = %bb9, %bb11
  %3 = load i64, ptr %max_len, align 8
  %_7 = icmp ule i64 %len, %3
  br i1 %_7, label %bb2, label %bb3

bb3:                                              ; preds = %bb12
  br label %bb5

bb2:                                              ; preds = %bb12
  ret void
}

; core::option::Option<T>::map_or
; Function Attrs: inlinehint nonlazybind uwtable
define i64 @"_ZN4core6option15Option$LT$T$GT$6map_or17he056ff65e710eb77E"(i64 %0, i64 %default) unnamed_addr #0 personality ptr @rust_eh_personality {
start:
  %1 = alloca [16 x i8], align 8
  %_8 = alloca [1 x i8], align 1
  %_0 = alloca [8 x i8], align 8
  %self = alloca [8 x i8], align 8
  store i64 %0, ptr %self, align 8
  store i8 1, ptr %_8, align 1
  %2 = load i64, ptr %self, align 8
  %3 = icmp eq i64 %2, 0
  %_4 = select i1 %3, i64 0, i64 1
  %4 = trunc nuw i64 %_4 to i1
  br i1 %4, label %bb3, label %bb2

bb3:                                              ; preds = %start
  %t = load i64, ptr %self, align 8
; invoke core::ops::function::FnOnce::call_once
  %5 = invoke i64 @_ZN4core3ops8function6FnOnce9call_once17hebe0fb2b820258eeE(i64 %t)
          to label %bb4 unwind label %cleanup

bb2:                                              ; preds = %start
  store i8 0, ptr %_8, align 1
  store i64 %default, ptr %_0, align 8
  br label %bb5

bb5:                                              ; preds = %bb4, %bb2
  %6 = load i64, ptr %_0, align 8
  ret i64 %6

bb8:                                              ; preds = %cleanup
  %7 = load i8, ptr %_8, align 1
  %8 = trunc nuw i8 %7 to i1
  br i1 %8, label %bb7, label %bb6

cleanup:                                          ; preds = %bb3
  %9 = landingpad { ptr, i32 }
          cleanup
  %10 = extractvalue { ptr, i32 } %9, 0
  %11 = extractvalue { ptr, i32 } %9, 1
  store ptr %10, ptr %1, align 8
  %12 = getelementptr inbounds i8, ptr %1, i64 8
  store i32 %11, ptr %12, align 8
  br label %bb8

bb4:                                              ; preds = %bb3
  store i64 %5, ptr %_0, align 8
  br label %bb5

bb6:                                              ; preds = %bb7, %bb8
  %13 = load ptr, ptr %1, align 8
  %14 = getelementptr inbounds i8, ptr %1, i64 8
  %15 = load i32, ptr %14, align 8
  %16 = insertvalue { ptr, i32 } poison, ptr %13, 0
  %17 = insertvalue { ptr, i32 } %16, i32 %15, 1
  resume { ptr, i32 } %17

bb7:                                              ; preds = %bb8
  br label %bb6

bb1:                                              ; No predecessors!
  unreachable
}

; core::option::Option<T>::is_some
; Function Attrs: inlinehint nonlazybind uwtable
define zeroext i1 @"_ZN4core6option15Option$LT$T$GT$7is_some17h325b9140d4993a4aE"(ptr align 4 %self) unnamed_addr #0 {
start:
  %0 = load i32, ptr %self, align 4
  %1 = icmp eq i32 %0, 1114112
  %_2 = select i1 %1, i64 0, i64 1
  %_0 = icmp eq i64 %_2, 1
  ret i1 %_0
}

; core::result::Result::Err
; Function Attrs: inlinehint nonlazybind uwtable
define i64 @_ZN4core6result6Result3Err17h4cacf96bdafd5a66E(i64 %_1) unnamed_addr #0 {
start:
  ret i64 %_1
}

; <char as core::str::pattern::Pattern>::is_prefix_of
; Function Attrs: inlinehint nonlazybind uwtable
define internal zeroext i1 @"_ZN52_$LT$char$u20$as$u20$core..str..pattern..Pattern$GT$12is_prefix_of17h38a3603580b951dfE"(i32 %self, ptr align 1 %haystack.0, i64 %haystack.1) unnamed_addr #0 {
start:
  %_6 = alloca [4 x i8], align 1
  call void @llvm.memset.p0.i64(ptr align 1 %_6, i8 0, i64 4, i1 false)
; call core::char::methods::encode_utf8_raw
  %0 = call { ptr, i64 } @_ZN4core4char7methods15encode_utf8_raw17hc74398234f5139fdE(i32 %self, ptr align 1 %_6, i64 4) #13
  %v.0 = extractvalue { ptr, i64 } %0, 0
  %v.1 = extractvalue { ptr, i64 } %0, 1
; call core::slice::<impl [T]>::starts_with
  %_0 = call zeroext i1 @"_ZN4core5slice29_$LT$impl$u20$$u5b$T$u5d$$GT$11starts_with17h64c1bc5a56da65e1E"(ptr align 1 %haystack.0, i64 %haystack.1, ptr align 1 %v.0, i64 %v.1)
  ret i1 %_0
}

; <u8 as core::iter::traits::accum::Sum>::sum::{{closure}}
; Function Attrs: inlinehint nonlazybind uwtable
define i8 @"_ZN53_$LT$u8$u20$as$u20$core..iter..traits..accum..Sum$GT$3sum28_$u7b$$u7b$closure$u7d$$u7d$17hd6d8b78d26a62e86E"(ptr align 1 %_1, i8 %a, i8 %b) unnamed_addr #0 {
start:
  %_4.0 = add i8 %a, %b
  %_4.1 = icmp ult i8 %_4.0, %a
  br i1 %_4.1, label %panic, label %bb1

bb1:                                              ; preds = %start
  ret i8 %_4.0

panic:                                            ; preds = %start
; call core::panicking::panic_const::panic_const_add_overflow
  call void @_ZN4core9panicking11panic_const24panic_const_add_overflow17h3fc9e60fb8716d57E(ptr align 8 @alloc_793350d3db61167040fde9d23f7b0f1b) #15
  unreachable
}

; <usize as core::slice::index::SliceIndex<[T]>>::get_unchecked::precondition_check
; Function Attrs: inlinehint nounwind nonlazybind uwtable
define internal void @"_ZN75_$LT$usize$u20$as$u20$core..slice..index..SliceIndex$LT$$u5b$T$u5d$$GT$$GT$13get_unchecked18precondition_check17h6a1ee682ae3808c6E"(i64 %this, i64 %len, ptr align 8 %0) unnamed_addr #1 {
start:
  %_3 = icmp ult i64 %this, %len
  br i1 %_3, label %bb1, label %bb2

bb2:                                              ; preds = %start
; call core::panicking::panic_nounwind_fmt
  call void @_ZN4core9panicking18panic_nounwind_fmt17hf349702e3facb1fdE(ptr @alloc_97d92cbf2a68a6ac45a1b13da79836e4, ptr inttoptr (i64 429 to ptr), i1 zeroext false, ptr align 8 %0) #12
  unreachable

bb1:                                              ; preds = %start
  ret void
}

; <core::str::iter::Chars as core::iter::traits::iterator::Iterator>::advance_by
; Function Attrs: inlinehint nonlazybind uwtable
define internal i64 @"_ZN81_$LT$core..str..iter..Chars$u20$as$u20$core..iter..traits..iterator..Iterator$GT$10advance_by17h2241855c07851ee4E"(ptr align 8 %self, i64 %0) unnamed_addr #0 {
start:
  %_94 = alloca [48 x i8], align 8
  %_93 = alloca [48 x i8], align 8
  %_92 = alloca [32 x i8], align 1
  %self4 = alloca [8 x i8], align 8
  %self3 = alloca [8 x i8], align 8
  %self2 = alloca [8 x i8], align 8
  %self1 = alloca [48 x i8], align 8
  %_18 = alloca [16 x i8], align 8
  %iter = alloca [16 x i8], align 8
  %start_bytes = alloca [32 x i8], align 1
  %_12 = alloca [8 x i8], align 8
  %bytes_skipped = alloca [8 x i8], align 8
  %_6 = alloca [32 x i8], align 8
  %chunks = alloca [16 x i8], align 8
  %remainder = alloca [8 x i8], align 8
  store i64 %0, ptr %remainder, align 8
  %_4 = load i64, ptr %remainder, align 8
  %_3 = icmp uge i64 %_4, 32
  br i1 %_3, label %bb1, label %bb24

bb24:                                             ; preds = %start
  br label %bb25

bb1:                                              ; preds = %start
  %self5 = load ptr, ptr %self, align 8
  %1 = getelementptr inbounds i8, ptr %self, i64 8
  %_57 = load ptr, ptr %1, align 8
; call core::ptr::non_null::NonNull<T>::offset_from_unsigned
  %len = call i64 @"_ZN4core3ptr8non_null16NonNull$LT$T$GT$20offset_from_unsigned17he121f0d11e54b3e4E"(ptr %_57, ptr %self5) #13
  br label %bb36

bb25:                                             ; preds = %bb23, %bb24
  br label %bb26

bb36:                                             ; preds = %bb1
; call core::slice::raw::from_raw_parts::precondition_check
  call void @_ZN4core5slice3raw14from_raw_parts18precondition_check17h5df9b82694539947E(ptr %self5, i64 1, i64 1, i64 %len, ptr align 8 @alloc_42c4478e0dae5d12cc772718b271dbcd) #14
  br label %bb38

bb38:                                             ; preds = %bb36
; call core::slice::<impl [T]>::as_chunks
  call void @"_ZN4core5slice29_$LT$impl$u20$$u5b$T$u5d$$GT$9as_chunks17h3c2162995d763719E"(ptr sret([32 x i8]) align 8 %_6, ptr align 1 %self5, i64 %len, ptr align 8 @alloc_ac7dec42d2eeec8a896f43950e346b7c) #13
  %self.0 = load ptr, ptr %_6, align 8
  %2 = getelementptr inbounds i8, ptr %_6, i64 8
  %self.1 = load i64, ptr %2, align 8
  %_65 = getelementptr inbounds nuw [32 x i8], ptr %self.0, i64 %self.1
  store ptr %self.0, ptr %chunks, align 8
  %3 = getelementptr inbounds i8, ptr %chunks, i64 8
  store ptr %_65, ptr %3, align 8
  store i64 0, ptr %bytes_skipped, align 8
  br label %bb3

bb3:                                              ; preds = %bb9, %bb38
  %_11 = load i64, ptr %remainder, align 8
  %_10 = icmp ugt i64 %_11, 32
  br i1 %_10, label %bb4, label %bb13

bb13:                                             ; preds = %bb3
  br label %bb14

bb4:                                              ; preds = %bb3
  %ptr = load ptr, ptr %chunks, align 8
  %4 = getelementptr inbounds i8, ptr %chunks, i64 8
  %end_or_len = load ptr, ptr %4, align 8
  %_73 = icmp eq ptr %ptr, %end_or_len
  br i1 %_73, label %bb40, label %bb41

bb14:                                             ; preds = %bb12, %bb13
  %5 = load i64, ptr %bytes_skipped, align 8
; call <core::slice::iter::Iter<T> as core::iter::traits::iterator::Iterator>::advance_by
  %6 = call i64 @"_ZN91_$LT$core..slice..iter..Iter$LT$T$GT$$u20$as$u20$core..iter..traits..iterator..Iterator$GT$10advance_by17hc2f68b376b892974E"(ptr align 8 %self, i64 %5) #13
  store i64 %6, ptr %self2, align 8
  %7 = load i64, ptr %self2, align 8
  %8 = icmp eq i64 %7, 0
  %_96 = select i1 %8, i64 0, i64 1
  %9 = trunc nuw i64 %_96 to i1
  br i1 %9, label %bb48, label %bb49

bb41:                                             ; preds = %bb4
  %_82 = getelementptr inbounds nuw [32 x i8], ptr %ptr, i64 1
  store ptr %_82, ptr %chunks, align 8
  store ptr %ptr, ptr %_12, align 8
  br label %bb39

bb40:                                             ; preds = %bb4
  store ptr null, ptr %_12, align 8
  br label %bb39

bb39:                                             ; preds = %bb40, %bb41
  %10 = load ptr, ptr %_12, align 8
  %11 = ptrtoint ptr %10 to i64
  %12 = icmp eq i64 %11, 0
  %_14 = select i1 %12, i64 0, i64 1
  %13 = trunc nuw i64 %_14 to i1
  br i1 %13, label %bb5, label %bb12

bb5:                                              ; preds = %bb39
  %chunk = load ptr, ptr %_12, align 8
  %14 = load i64, ptr %bytes_skipped, align 8
  %15 = add i64 %14, 32
  store i64 %15, ptr %bytes_skipped, align 8
  call void @llvm.memset.p0.i64(ptr align 1 %start_bytes, i8 0, i64 32, i1 false)
  store i64 0, ptr %iter, align 8
  %16 = getelementptr inbounds i8, ptr %iter, i64 8
  store i64 32, ptr %16, align 8
  br label %bb6

bb12:                                             ; preds = %bb39
  br label %bb14

bb6:                                              ; preds = %bb11, %bb5
  %_89 = load i64, ptr %iter, align 8
  %17 = getelementptr inbounds i8, ptr %iter, i64 8
  %_90 = load i64, ptr %17, align 8
  %_84 = icmp ult i64 %_89, %_90
  br i1 %_84, label %bb42, label %bb43

bb43:                                             ; preds = %bb6
  %18 = load i64, ptr @anon.cb2c8aed352a1150658f97d5454b6954.1, align 8
  %19 = load i64, ptr getelementptr inbounds (i8, ptr @anon.cb2c8aed352a1150658f97d5454b6954.1, i64 8), align 8
  store i64 %18, ptr %_18, align 8
  %20 = getelementptr inbounds i8, ptr %_18, i64 8
  store i64 %19, ptr %20, align 8
  br label %bb44

bb42:                                             ; preds = %bb6
  %old = load i64, ptr %iter, align 8
  br label %bb45

bb44:                                             ; preds = %bb46, %bb43
  %_20 = load i64, ptr %_18, align 8
  %21 = getelementptr inbounds i8, ptr %_18, i64 8
  %22 = load i64, ptr %21, align 8
  %23 = trunc nuw i64 %_20 to i1
  br i1 %23, label %bb8, label %bb9

bb45:                                             ; preds = %bb42
; call core::num::<impl usize>::unchecked_add::precondition_check
  call void @"_ZN4core3num23_$LT$impl$u20$usize$GT$13unchecked_add18precondition_check17h92fd5ab5dbac1728E"(i64 %old, i64 1, ptr align 8 @alloc_5a841786226b43ba606ae5b578f20831) #14
  br label %bb46

bb46:                                             ; preds = %bb45
  %_88 = add nuw i64 %old, 1
  store i64 %_88, ptr %iter, align 8
  %24 = getelementptr inbounds i8, ptr %_18, i64 8
  store i64 %old, ptr %24, align 8
  store i64 1, ptr %_18, align 8
  br label %bb44

bb8:                                              ; preds = %bb44
  %25 = getelementptr inbounds i8, ptr %_18, i64 8
  %i = load i64, ptr %25, align 8
  %_24 = icmp ult i64 %i, 32
  br i1 %_24, label %bb10, label %panic

bb9:                                              ; preds = %bb44
  call void @llvm.memcpy.p0.p0.i64(ptr align 1 %_92, ptr align 1 %start_bytes, i64 32, i1 false)
  store i64 0, ptr %_93, align 8
  %26 = getelementptr inbounds i8, ptr %_93, i64 8
  store i64 32, ptr %26, align 8
  %27 = getelementptr inbounds i8, ptr %_93, i64 16
  call void @llvm.memcpy.p0.p0.i64(ptr align 8 %27, ptr align 1 %_92, i64 32, i1 false)
  call void @llvm.memcpy.p0.p0.i64(ptr align 8 %_94, ptr align 8 %_93, i64 48, i1 false)
  call void @llvm.memcpy.p0.p0.i64(ptr align 8 %self1, ptr align 8 %_94, i64 48, i1 false)
; call <core::array::iter::IntoIter<T,_> as core::iter::traits::iterator::Iterator>::fold
  %_26 = call i8 @"_ZN99_$LT$core..array..iter..IntoIter$LT$T$C$_$GT$$u20$as$u20$core..iter..traits..iterator..Iterator$GT$4fold17hae312e76eda93f51E"(ptr align 8 %self1, i8 0) #13
  %_25 = zext i8 %_26 to i64
  %28 = load i64, ptr %remainder, align 8
  %29 = sub i64 %28, %_25
  store i64 %29, ptr %remainder, align 8
  br label %bb3

bb10:                                             ; preds = %bb8
  %30 = getelementptr inbounds nuw i8, ptr %chunk, i64 %i
  %byte = load i8, ptr %30, align 1
  %_22 = icmp slt i8 %byte, -64
  br i1 %_24, label %bb11, label %panic6

panic:                                            ; preds = %bb8
; call core::panicking::panic_bounds_check
  call void @_ZN4core9panicking18panic_bounds_check17hb15443e8431033c2E(i64 %i, i64 32, ptr align 8 @alloc_28156ca703804352f4ef46fe5e9592d2) #15
  unreachable

bb11:                                             ; preds = %bb10
  %31 = getelementptr inbounds nuw i8, ptr %start_bytes, i64 %i
  %32 = xor i1 %_22, true
  %33 = zext i1 %32 to i8
  store i8 %33, ptr %31, align 1
  br label %bb6

panic6:                                           ; preds = %bb10
; call core::panicking::panic_bounds_check
  call void @_ZN4core9panicking18panic_bounds_check17hb15443e8431033c2E(i64 %i, i64 32, ptr align 8 @alloc_741489c9336da09fe9c2dda41926dfb7) #15
  unreachable

bb48:                                             ; preds = %bb14
  %e18 = load i64, ptr %self2, align 8
; call core::hint::unreachable_unchecked::precondition_check
  call void @_ZN4core4hint21unreachable_unchecked18precondition_check17he3a8fba023fe7083E(ptr align 8 @alloc_449d05a912215afbab952d7079b10a17) #14
  br label %bb7

bb49:                                             ; preds = %bb14
  br label %bb16

bb16:                                             ; preds = %bb56, %bb49
  %34 = getelementptr inbounds i8, ptr %self, i64 8
  %_100 = load ptr, ptr %34, align 8
  %_101 = load ptr, ptr %self, align 8
; call core::ptr::non_null::NonNull<T>::offset_from_unsigned
  %len7 = call i64 @"_ZN4core3ptr8non_null16NonNull$LT$T$GT$20offset_from_unsigned17he121f0d11e54b3e4E"(ptr %_100, ptr %_101) #13
  %_30 = icmp ugt i64 %len7, 0
  br i1 %_30, label %bb17, label %bb22

bb22:                                             ; preds = %bb16
  br label %bb23

bb17:                                             ; preds = %bb16
  %self8 = load ptr, ptr %self, align 8
  %35 = getelementptr inbounds i8, ptr %self, i64 8
  %_107 = load ptr, ptr %35, align 8
; call core::ptr::non_null::NonNull<T>::offset_from_unsigned
  %len9 = call i64 @"_ZN4core3ptr8non_null16NonNull$LT$T$GT$20offset_from_unsigned17he121f0d11e54b3e4E"(ptr %_107, ptr %self8) #13
  br label %bb52

bb23:                                             ; preds = %bb20, %bb22
  br label %bb25

bb52:                                             ; preds = %bb17
; call core::slice::raw::from_raw_parts::precondition_check
  call void @_ZN4core5slice3raw14from_raw_parts18precondition_check17h5df9b82694539947E(ptr %self8, i64 1, i64 1, i64 %len9, ptr align 8 @alloc_42c4478e0dae5d12cc772718b271dbcd) #14
  br label %bb54

bb54:                                             ; preds = %bb52
  %_35 = icmp ult i64 0, %len9
  br i1 %_35, label %bb18, label %panic10

bb18:                                             ; preds = %bb54
  %36 = getelementptr inbounds nuw i8, ptr %self8, i64 0
  %b = load i8, ptr %36, align 1
  %_36 = icmp slt i8 %b, -64
  br i1 %_36, label %bb19, label %bb20

panic10:                                          ; preds = %bb54
; call core::panicking::panic_bounds_check
  call void @_ZN4core9panicking18panic_bounds_check17hb15443e8431033c2E(i64 0, i64 %len9, ptr align 8 @alloc_98a2af4c4a92067f10653c45ee40e81c) #15
  unreachable

bb20:                                             ; preds = %bb18
  br label %bb23

bb19:                                             ; preds = %bb18
; call <core::slice::iter::Iter<T> as core::iter::traits::iterator::Iterator>::advance_by
  %37 = call i64 @"_ZN91_$LT$core..slice..iter..Iter$LT$T$GT$$u20$as$u20$core..iter..traits..iterator..Iterator$GT$10advance_by17hc2f68b376b892974E"(ptr align 8 %self, i64 1) #13
  store i64 %37, ptr %self3, align 8
  %38 = load i64, ptr %self3, align 8
  %39 = icmp eq i64 %38, 0
  %_112 = select i1 %39, i64 0, i64 1
  %40 = trunc nuw i64 %_112 to i1
  br i1 %40, label %bb55, label %bb56

bb26:                                             ; preds = %bb64, %bb25
  %_40 = load i64, ptr %remainder, align 8
  %_39 = icmp ugt i64 %_40, 0
  br i1 %_39, label %bb27, label %bb32

bb32:                                             ; preds = %bb26
  br label %bb33

bb27:                                             ; preds = %bb26
  %41 = getelementptr inbounds i8, ptr %self, i64 8
  %_116 = load ptr, ptr %41, align 8
  %_117 = load ptr, ptr %self, align 8
; call core::ptr::non_null::NonNull<T>::offset_from_unsigned
  %len11 = call i64 @"_ZN4core3ptr8non_null16NonNull$LT$T$GT$20offset_from_unsigned17he121f0d11e54b3e4E"(ptr %_116, ptr %_117) #13
  %_41 = icmp ugt i64 %len11, 0
  br i1 %_41, label %bb28, label %bb31

bb33:                                             ; preds = %bb31, %bb32
  %_50 = load i64, ptr %remainder, align 8
; call core::option::Option<T>::map_or
  %_0 = call i64 @"_ZN4core6option15Option$LT$T$GT$6map_or17he056ff65e710eb77E"(i64 %_50, i64 0) #13
  ret i64 %_0

bb31:                                             ; preds = %bb27
  br label %bb33

bb28:                                             ; preds = %bb27
  %42 = load i64, ptr %remainder, align 8
  %43 = sub i64 %42, 1
  store i64 %43, ptr %remainder, align 8
  %self12 = load ptr, ptr %self, align 8
  %44 = getelementptr inbounds i8, ptr %self, i64 8
  %_123 = load ptr, ptr %44, align 8
; call core::ptr::non_null::NonNull<T>::offset_from_unsigned
  %len13 = call i64 @"_ZN4core3ptr8non_null16NonNull$LT$T$GT$20offset_from_unsigned17he121f0d11e54b3e4E"(ptr %_123, ptr %self12) #13
  br label %bb59

bb59:                                             ; preds = %bb28
; call core::slice::raw::from_raw_parts::precondition_check
  call void @_ZN4core5slice3raw14from_raw_parts18precondition_check17h5df9b82694539947E(ptr %self12, i64 1, i64 1, i64 %len13, ptr align 8 @alloc_42c4478e0dae5d12cc772718b271dbcd) #14
  br label %bb61

bb61:                                             ; preds = %bb59
  %_46 = icmp ult i64 0, %len13
  br i1 %_46, label %bb29, label %panic14

bb29:                                             ; preds = %bb61
  %45 = getelementptr inbounds nuw i8, ptr %self12, i64 0
  %b15 = load i8, ptr %45, align 1
  %_130 = zext i8 %b15 to i64
  %_131 = icmp ult i64 %_130, 256
  br i1 %_131, label %bb62, label %panic16

panic14:                                          ; preds = %bb61
; call core::panicking::panic_bounds_check
  call void @_ZN4core9panicking18panic_bounds_check17hb15443e8431033c2E(i64 0, i64 %len13, ptr align 8 @alloc_1cf7dd5d34746d0392e65cfd7c90a5e3) #15
  unreachable

bb62:                                             ; preds = %bb29
  %46 = getelementptr inbounds nuw i8, ptr @alloc_db51a71a1b6b25b4224d4dc5277f93e7, i64 %_130
  %_128 = load i8, ptr %46, align 1
  %slurp = zext i8 %_128 to i64
; call <core::slice::iter::Iter<T> as core::iter::traits::iterator::Iterator>::advance_by
  %47 = call i64 @"_ZN91_$LT$core..slice..iter..Iter$LT$T$GT$$u20$as$u20$core..iter..traits..iterator..Iterator$GT$10advance_by17hc2f68b376b892974E"(ptr align 8 %self, i64 %slurp) #13
  store i64 %47, ptr %self4, align 8
  %48 = load i64, ptr %self4, align 8
  %49 = icmp eq i64 %48, 0
  %_132 = select i1 %49, i64 0, i64 1
  %50 = trunc nuw i64 %_132 to i1
  br i1 %50, label %bb63, label %bb64

panic16:                                          ; preds = %bb29
; call core::panicking::panic_bounds_check
  call void @_ZN4core9panicking18panic_bounds_check17hb15443e8431033c2E(i64 %_130, i64 256, ptr align 8 @alloc_10212a82724504ec6fb6f21352093d42) #15
  unreachable

bb63:                                             ; preds = %bb62
  %e = load i64, ptr %self4, align 8
; call core::hint::unreachable_unchecked::precondition_check
  call void @_ZN4core4hint21unreachable_unchecked18precondition_check17he3a8fba023fe7083E(ptr align 8 @alloc_ddd4242e7233815ef98c9ed4f1e8a626) #14
  br label %bb7

bb64:                                             ; preds = %bb62
  br label %bb26

bb7:                                              ; preds = %bb48, %bb55, %bb63
  unreachable

bb55:                                             ; preds = %bb19
  %e17 = load i64, ptr %self3, align 8
; call core::hint::unreachable_unchecked::precondition_check
  call void @_ZN4core4hint21unreachable_unchecked18precondition_check17he3a8fba023fe7083E(ptr align 8 @alloc_4d59e604df3e1ccde3f4a8d99c4401a7) #14
  br label %bb7

bb56:                                             ; preds = %bb19
  br label %bb16
}

; <core::str::iter::Chars as core::iter::traits::iterator::Iterator>::advance_by::{{closure}}
; Function Attrs: inlinehint nonlazybind uwtable
define i8 @"_ZN81_$LT$core..str..iter..Chars$u20$as$u20$core..iter..traits..iterator..Iterator$GT$10advance_by28_$u7b$$u7b$closure$u7d$$u7d$17hcaf038e9da3f325eE"(ptr align 1 %_1, i1 zeroext %i) unnamed_addr #0 {
start:
  %_0 = zext i1 %i to i8
  ret i8 %_0
}

; <core::str::iter::Chars as core::iter::traits::iterator::Iterator>::next
; Function Attrs: inlinehint nonlazybind uwtable
define internal i32 @"_ZN81_$LT$core..str..iter..Chars$u20$as$u20$core..iter..traits..iterator..Iterator$GT$4next17h0173271c67b5467aE"(ptr align 8 %self) unnamed_addr #0 {
start:
  %self1 = alloca [8 x i8], align 4
  %_0 = alloca [4 x i8], align 4
; call core::str::validations::next_code_point
  %0 = call { i32, i32 } @_ZN4core3str11validations15next_code_point17h527e01729c281c6fE(ptr align 8 %self) #13
  %1 = extractvalue { i32, i32 } %0, 0
  %2 = extractvalue { i32, i32 } %0, 1
  store i32 %1, ptr %self1, align 4
  %3 = getelementptr inbounds i8, ptr %self1, i64 4
  store i32 %2, ptr %3, align 4
  %4 = load i32, ptr %self1, align 4
  %5 = getelementptr inbounds i8, ptr %self1, i64 4
  %6 = load i32, ptr %5, align 4
  %_4 = zext i32 %4 to i64
  %7 = trunc nuw i64 %_4 to i1
  br i1 %7, label %bb5, label %bb4

bb5:                                              ; preds = %start
  %8 = getelementptr inbounds i8, ptr %self1, i64 4
  %x = load i32, ptr %8, align 4
  br label %bb6

bb4:                                              ; preds = %start
  store i32 1114112, ptr %_0, align 4
  br label %bb2

bb2:                                              ; preds = %bb7, %bb4
  %9 = load i32, ptr %_0, align 4
  ret i32 %9

bb6:                                              ; preds = %bb5
; call core::char::convert::from_u32_unchecked::precondition_check
  call void @_ZN4core4char7convert18from_u32_unchecked18precondition_check17h180240005e784321E(i32 %x, ptr align 8 @alloc_6c330454ad85ac77173e17471995dc03) #14
  br label %bb7

bb7:                                              ; preds = %bb6
  store i32 %x, ptr %_0, align 4
  br label %bb2

bb3:                                              ; No predecessors!
  unreachable
}

; <core::array::iter::IntoIter<T,_> as core::ops::drop::Drop>::drop
; Function Attrs: inlinehint nonlazybind uwtable
define void @"_ZN82_$LT$core..array..iter..IntoIter$LT$T$C$_$GT$$u20$as$u20$core..ops..drop..Drop$GT$4drop17h7a768aaa84ad3b62E"(ptr align 8 %self) unnamed_addr #0 {
start:
  br label %bb2

bb2:                                              ; preds = %start
  ret void

bb1:                                              ; No predecessors!
  unreachable

bb3:                                              ; No predecessors!
  unreachable
}

; <core::slice::iter::Iter<T> as core::iter::traits::iterator::Iterator>::advance_by
; Function Attrs: inlinehint nonlazybind uwtable
define i64 @"_ZN91_$LT$core..slice..iter..Iter$LT$T$GT$$u20$as$u20$core..iter..traits..iterator..Iterator$GT$10advance_by17hc2f68b376b892974E"(ptr align 8 %self, i64 %n) unnamed_addr #0 {
start:
  %len = alloca [8 x i8], align 8
  br label %bb2

bb2:                                              ; preds = %start
  %0 = getelementptr inbounds i8, ptr %self, i64 8
  %_7 = load ptr, ptr %0, align 8
  %_8 = load ptr, ptr %self, align 8
; call core::ptr::non_null::NonNull<T>::offset_from_unsigned
  %1 = call i64 @"_ZN4core3ptr8non_null16NonNull$LT$T$GT$20offset_from_unsigned17he121f0d11e54b3e4E"(ptr %_7, ptr %_8) #13
  store i64 %1, ptr %len, align 8
  br label %bb4

bb4:                                              ; preds = %bb2
  %2 = load i64, ptr %len, align 8
; call core::cmp::Ord::min
  %advance = call i64 @_ZN4core3cmp3Ord3min17hc7549b5f556d524aE(i64 %2, i64 %n) #13
  %old = load ptr, ptr %self, align 8
  br label %bb9

bb9:                                              ; preds = %bb4
  %self1 = getelementptr inbounds i8, ptr %self, i64 8
  %self2 = load ptr, ptr %self, align 8
  %_19 = getelementptr inbounds nuw i8, ptr %self2, i64 %advance
  store ptr %_19, ptr %self, align 8
  br label %bb7

bb7:                                              ; preds = %bb9
  %n3 = sub i64 %n, %advance
; call core::option::Option<T>::map_or
  %_0 = call i64 @"_ZN4core6option15Option$LT$T$GT$6map_or17he056ff65e710eb77E"(i64 %n3, i64 0) #13
  ret i64 %_0

bb1:                                              ; No predecessors!
  unreachable

bb8:                                              ; No predecessors!
  unreachable
}

; <core::slice::iter::Iter<T> as core::iter::traits::iterator::Iterator>::next
; Function Attrs: inlinehint nonlazybind uwtable
define align 1 ptr @"_ZN91_$LT$core..slice..iter..Iter$LT$T$GT$$u20$as$u20$core..iter..traits..iterator..Iterator$GT$4next17h6b8abbfce22807efE"(ptr align 8 %self) unnamed_addr #0 {
start:
  %_0 = alloca [8 x i8], align 8
  %ptr = load ptr, ptr %self, align 8
  %0 = getelementptr inbounds i8, ptr %self, i64 8
  %end_or_len = load ptr, ptr %0, align 8
  br label %bb4

bb4:                                              ; preds = %start
  %_7 = icmp eq ptr %ptr, %end_or_len
  br i1 %_7, label %bb5, label %bb6

bb6:                                              ; preds = %bb4
  %_18 = getelementptr inbounds nuw i8, ptr %ptr, i64 1
  store ptr %_18, ptr %self, align 8
  br label %bb7

bb5:                                              ; preds = %bb4
  store ptr null, ptr %_0, align 8
  br label %bb8

bb7:                                              ; preds = %bb6
  store ptr %ptr, ptr %_0, align 8
  br label %bb9

bb9:                                              ; preds = %bb8, %bb7
  %1 = load ptr, ptr %_0, align 8
  ret ptr %1

bb8:                                              ; preds = %bb5
  br label %bb9

bb1:                                              ; No predecessors!
  unreachable

bb2:                                              ; No predecessors!
  unreachable

bb3:                                              ; No predecessors!
  unreachable

bb10:                                             ; No predecessors!
  unreachable

bb11:                                             ; No predecessors!
  unreachable
}

; <core::ops::index_range::IndexRange as core::iter::traits::iterator::Iterator>::try_fold
; Function Attrs: inlinehint nonlazybind uwtable
define i8 @"_ZN93_$LT$core..ops..index_range..IndexRange$u20$as$u20$core..iter..traits..iterator..Iterator$GT$8try_fold17h1ca719a6a16d3d15E"(ptr align 8 %self, i8 %0, ptr align 1 %1, i64 %2) unnamed_addr #0 personality ptr @rust_eh_personality {
start:
  %3 = alloca [16 x i8], align 8
  %_17 = alloca [1 x i8], align 1
  %_8 = alloca [1 x i8], align 1
  %_0 = alloca [1 x i8], align 1
  %f = alloca [16 x i8], align 8
  %accum = alloca [1 x i8], align 1
  store i8 %0, ptr %accum, align 1
  store ptr %1, ptr %f, align 8
  %4 = getelementptr inbounds i8, ptr %f, i64 8
  store i64 %2, ptr %4, align 8
  %_19 = load i64, ptr %self, align 8
  %5 = getelementptr inbounds i8, ptr %self, i64 8
  %_20 = load i64, ptr %5, align 8
  %cond = icmp ule i64 %_19, %_20
  br label %bb16

bb16:                                             ; preds = %start
; call core::hint::assert_unchecked::precondition_check
  call void @_ZN4core4hint16assert_unchecked18precondition_check17hf779b1a6796512f6E(i1 zeroext %cond, ptr align 8 @alloc_7432f4e8d76995c0617511ccee12224d) #14
  br label %bb17

bb17:                                             ; preds = %bb16
  br label %bb1

bb1:                                              ; preds = %bb6, %bb17
  %_5 = load i64, ptr %self, align 8
  %6 = getelementptr inbounds i8, ptr %self, i64 8
  %_6 = load i64, ptr %6, align 8
  %_4 = icmp ne i64 %_5, %_6
  br i1 %_4, label %bb2, label %bb9

bb9:                                              ; preds = %bb1
  store i8 0, ptr %_17, align 1
  %_16 = load i8, ptr %accum, align 1
; invoke <core::ops::try_trait::NeverShortCircuit<T> as core::ops::try_trait::Try>::from_output
  %7 = invoke i8 @"_ZN94_$LT$core..ops..try_trait..NeverShortCircuit$LT$T$GT$$u20$as$u20$core..ops..try_trait..Try$GT$11from_output17h5e022f43eb3e5e79E"(i8 %_16)
          to label %bb10 unwind label %cleanup

bb2:                                              ; preds = %bb1
  %i = load i64, ptr %self, align 8
  br label %bb18

bb12:                                             ; preds = %cleanup
  br label %bb15

cleanup:                                          ; preds = %bb7, %bb3, %bb19, %bb9
  %8 = landingpad { ptr, i32 }
          cleanup
  %9 = extractvalue { ptr, i32 } %8, 0
  %10 = extractvalue { ptr, i32 } %8, 1
  store ptr %9, ptr %3, align 8
  %11 = getelementptr inbounds i8, ptr %3, i64 8
  store i32 %10, ptr %11, align 8
  br label %bb12

bb10:                                             ; preds = %bb9
  store i8 %7, ptr %_0, align 1
  br label %bb11

bb11:                                             ; preds = %bb8, %bb10
  %12 = load i8, ptr %_0, align 1
  ret i8 %12

bb18:                                             ; preds = %bb2
; call core::num::<impl usize>::unchecked_add::precondition_check
  call void @"_ZN4core3num23_$LT$impl$u20$usize$GT$13unchecked_add18precondition_check17h92fd5ab5dbac1728E"(i64 %i, i64 1, ptr align 8 @alloc_d6257b1bd6d71606f0c80579dc3f7df1) #14
  br label %bb19

bb19:                                             ; preds = %bb18
  %_23 = add nuw i64 %i, 1
  store i64 %_23, ptr %self, align 8
  store i8 0, ptr %_17, align 1
  %_12 = load i8, ptr %accum, align 1
; invoke core::array::iter::iter_inner::PolymorphicIter<[core::mem::maybe_uninit::MaybeUninit<T>]>::try_fold::{{closure}}
  %_9 = invoke i8 @"_ZN4core5array4iter10iter_inner78PolymorphicIter$LT$$u5b$core..mem..maybe_uninit..MaybeUninit$LT$T$GT$$u5d$$GT$8try_fold28_$u7b$$u7b$closure$u7d$$u7d$17hb108cf1c2cfa362bE"(ptr align 8 %f, i8 %_12, i64 %i)
          to label %bb3 unwind label %cleanup

bb3:                                              ; preds = %bb19
; invoke <core::ops::try_trait::NeverShortCircuit<T> as core::ops::try_trait::Try>::branch
  %13 = invoke i8 @"_ZN94_$LT$core..ops..try_trait..NeverShortCircuit$LT$T$GT$$u20$as$u20$core..ops..try_trait..Try$GT$6branch17he3998f266a6c5527E"(i8 %_9)
          to label %bb4 unwind label %cleanup

bb4:                                              ; preds = %bb3
  store i8 %13, ptr %_8, align 1
  %14 = load i8, ptr %_8, align 1
  br label %bb6

bb6:                                              ; preds = %bb4
  %val = load i8, ptr %_8, align 1
  store i8 %val, ptr %accum, align 1
  br label %bb1

bb7:                                              ; No predecessors!
; invoke <core::ops::try_trait::NeverShortCircuit<T> as core::ops::try_trait::FromResidual<core::ops::try_trait::NeverShortCircuitResidual>>::from_residual
  %15 = invoke i8 @"_ZN158_$LT$core..ops..try_trait..NeverShortCircuit$LT$T$GT$$u20$as$u20$core..ops..try_trait..FromResidual$LT$core..ops..try_trait..NeverShortCircuitResidual$GT$$GT$13from_residual17h7c0bc6b5c9a7726dE"()
          to label %bb8 unwind label %cleanup

bb8:                                              ; preds = %bb7
  store i8 %15, ptr %_0, align 1
  br label %bb11

bb5:                                              ; No predecessors!
  unreachable

bb15:                                             ; preds = %bb12
  %16 = load i8, ptr %_17, align 1
  %17 = trunc nuw i8 %16 to i1
  br i1 %17, label %bb14, label %bb13

bb13:                                             ; preds = %bb14, %bb15
  %18 = load ptr, ptr %3, align 8
  %19 = getelementptr inbounds i8, ptr %3, i64 8
  %20 = load i32, ptr %19, align 8
  %21 = insertvalue { ptr, i32 } poison, ptr %18, 0
  %22 = insertvalue { ptr, i32 } %21, i32 %20, 1
  resume { ptr, i32 } %22

bb14:                                             ; preds = %bb15
  br label %bb13
}

; <core::ops::try_trait::NeverShortCircuit<T> as core::ops::try_trait::Try>::from_output
; Function Attrs: inlinehint nonlazybind uwtable
define i8 @"_ZN94_$LT$core..ops..try_trait..NeverShortCircuit$LT$T$GT$$u20$as$u20$core..ops..try_trait..Try$GT$11from_output17h5e022f43eb3e5e79E"(i8 %x) unnamed_addr #0 {
start:
  ret i8 %x
}

; <core::ops::try_trait::NeverShortCircuit<T> as core::ops::try_trait::Try>::branch
; Function Attrs: inlinehint nonlazybind uwtable
define i8 @"_ZN94_$LT$core..ops..try_trait..NeverShortCircuit$LT$T$GT$$u20$as$u20$core..ops..try_trait..Try$GT$6branch17he3998f266a6c5527E"(i8 %self) unnamed_addr #0 {
start:
  ret i8 %self
}

; <core::array::iter::IntoIter<T,_> as core::iter::traits::iterator::Iterator>::fold
; Function Attrs: inlinehint nonlazybind uwtable
define i8 @"_ZN99_$LT$core..array..iter..IntoIter$LT$T$C$_$GT$$u20$as$u20$core..iter..traits..iterator..Iterator$GT$4fold17hae312e76eda93f51E"(ptr align 8 %self, i8 %init) unnamed_addr #0 personality ptr @rust_eh_personality {
start:
  %0 = alloca [16 x i8], align 8
  %data.0 = getelementptr inbounds i8, ptr %self, i64 16
; invoke <core::ops::index_range::IndexRange as core::iter::traits::iterator::Iterator>::try_fold
  %_7 = invoke i8 @"_ZN93_$LT$core..ops..index_range..IndexRange$u20$as$u20$core..iter..traits..iterator..Iterator$GT$8try_fold17h1ca719a6a16d3d15E"(ptr align 8 %self, i8 %init, ptr align 1 %data.0, i64 32)
          to label %bb4 unwind label %cleanup

bb2:                                              ; preds = %cleanup
; invoke core::ptr::drop_in_place<core::array::iter::IntoIter<bool,32_usize>>
  invoke void @"_ZN4core3ptr71drop_in_place$LT$core..array..iter..IntoIter$LT$bool$C$32_usize$GT$$GT$17h412659c724293656E"(ptr align 8 %self) #18
          to label %bb3 unwind label %terminate

cleanup:                                          ; preds = %start
  %1 = landingpad { ptr, i32 }
          cleanup
  %2 = extractvalue { ptr, i32 } %1, 0
  %3 = extractvalue { ptr, i32 } %1, 1
  store ptr %2, ptr %0, align 8
  %4 = getelementptr inbounds i8, ptr %0, i64 8
  store i32 %3, ptr %4, align 8
  br label %bb2

bb4:                                              ; preds = %start
; call core::ptr::drop_in_place<core::array::iter::IntoIter<bool,32_usize>>
  call void @"_ZN4core3ptr71drop_in_place$LT$core..array..iter..IntoIter$LT$bool$C$32_usize$GT$$GT$17h412659c724293656E"(ptr align 8 %self)
  ret i8 %_7

terminate:                                        ; preds = %bb2
  %5 = landingpad { ptr, i32 }
          filter [0 x ptr] zeroinitializer
; call core::panicking::panic_in_cleanup
  call void @_ZN4core9panicking16panic_in_cleanup17h5f6bde45d17ae243E() #17
  unreachable

bb3:                                              ; preds = %bb2
  %6 = load ptr, ptr %0, align 8
  %7 = getelementptr inbounds i8, ptr %0, i64 8
  %8 = load i32, ptr %7, align 8
  %9 = insertvalue { ptr, i32 } poison, ptr %6, 0
  %10 = insertvalue { ptr, i32 } %9, i32 %8, 1
  resume { ptr, i32 } %10
}

; Function Attrs: nonlazybind uwtable
define zeroext i1 @parse_int(ptr align 1 %s.0, i64 %s.1, i32 %low, i32 %high, ptr align 4 %result) unnamed_addr #2 {
start:
  %self.i = alloca [4 x i8], align 4
  %_36 = alloca [16 x i8], align 8
  %_34 = alloca [4 x i8], align 4
  %_12 = alloca [16 x i8], align 8
  %i = alloca [8 x i8], align 8
  %value = alloca [4 x i8], align 4
  %_0 = alloca [1 x i8], align 1
  store i32 0, ptr %value, align 4
  store i64 0, ptr %i, align 8
  br label %bb1

bb1:                                              ; preds = %bb13, %start
  %_8 = load i64, ptr %i, align 8
  %_7 = icmp ult i64 %_8, 5
  br i1 %_7, label %bb2, label %bb14

bb14:                                             ; preds = %"_ZN4core6option15Option$LT$T$GT$6unwrap17h60314b92f04335d5E.exit", %bb1
  %_28 = load i64, ptr %i, align 8
  %_27 = icmp eq i64 %_28, 0
  br i1 %_27, label %bb15, label %bb16

bb2:                                              ; preds = %bb1
; call core::str::<impl str>::chars
  %0 = call { ptr, ptr } @"_ZN4core3str21_$LT$impl$u20$str$GT$5chars17h00eadb345436a9f5E"(ptr align 1 %s.0, i64 %s.1) #13
  %1 = extractvalue { ptr, ptr } %0, 0
  %2 = extractvalue { ptr, ptr } %0, 1
  store ptr %1, ptr %_12, align 8
  %3 = getelementptr inbounds i8, ptr %_12, i64 8
  store ptr %2, ptr %3, align 8
  %_13 = load i64, ptr %i, align 8
; call core::iter::traits::iterator::Iterator::nth
  %_10 = call i32 @_ZN4core4iter6traits8iterator8Iterator3nth17hc331844375051b6bE(ptr align 8 %_12, i64 %_13) #13
  store i32 %_10, ptr %self.i, align 4
  %4 = load i32, ptr %self.i, align 4
  %5 = icmp eq i32 %4, 1114112
  %_2.i = select i1 %5, i64 0, i64 1
  %6 = trunc nuw i64 %_2.i to i1
  br i1 %6, label %"_ZN4core6option15Option$LT$T$GT$6unwrap17h60314b92f04335d5E.exit", label %bb2.i

bb2.i:                                            ; preds = %bb2
; call core::option::unwrap_failed
  call void @_ZN4core6option13unwrap_failed17hef2534b77b89c04fE(ptr align 8 @alloc_aacf12f21f38075c2fd7cfd1da20a746) #15
  unreachable

"_ZN4core6option15Option$LT$T$GT$6unwrap17h60314b92f04335d5E.exit": ; preds = %bb2
  %val.i = load i32, ptr %self.i, align 4
  %_14 = icmp eq i32 %val.i, 0
  br i1 %_14, label %bb14, label %bb6

bb6:                                              ; preds = %"_ZN4core6option15Option$LT$T$GT$6unwrap17h60314b92f04335d5E.exit"
  %_15 = icmp uge i32 %val.i, 48
  br i1 %_15, label %bb7, label %bb9

bb9:                                              ; preds = %bb7, %bb6
  store i8 0, ptr %_0, align 1
  br label %bb29

bb7:                                              ; preds = %bb6
  %_16 = icmp ule i32 %val.i, 57
  br i1 %_16, label %bb8, label %bb9

bb8:                                              ; preds = %bb7
  %_18 = load i32, ptr %value, align 4
  %7 = call { i32, i1 } @llvm.smul.with.overflow.i32(i32 %_18, i32 10)
  %_19.0 = extractvalue { i32, i1 } %7, 0
  %_19.1 = extractvalue { i32, i1 } %7, 1
  br i1 %_19.1, label %panic, label %bb10

bb29:                                             ; preds = %bb15, %bb19, %bb25, %bb28, %bb27, %bb9
  %8 = load i8, ptr %_0, align 1
  %9 = trunc nuw i8 %8 to i1
  ret i1 %9

bb10:                                             ; preds = %bb8
  %_24.0 = sub i32 %val.i, 48
  %_24.1 = icmp ult i32 %val.i, 48
  br i1 %_24.1, label %panic1, label %bb11

panic:                                            ; preds = %bb8
; call core::panicking::panic_const::panic_const_mul_overflow
  call void @_ZN4core9panicking11panic_const24panic_const_mul_overflow17h554ac164c12099f8E(ptr align 8 @alloc_8100a62eb43a662a4be9fab0538bad6b) #15
  unreachable

bb11:                                             ; preds = %bb10
  %10 = call { i32, i1 } @llvm.sadd.with.overflow.i32(i32 %_19.0, i32 %_24.0)
  %_25.0 = extractvalue { i32, i1 } %10, 0
  %_25.1 = extractvalue { i32, i1 } %10, 1
  br i1 %_25.1, label %panic2, label %bb12

panic1:                                           ; preds = %bb10
; call core::panicking::panic_const::panic_const_sub_overflow
  call void @_ZN4core9panicking11panic_const24panic_const_sub_overflow17h134cc1a7f93654deE(ptr align 8 @alloc_302cb13f9e8c292191bd6fd02bab9dd2) #15
  unreachable

bb12:                                             ; preds = %bb11
  store i32 %_25.0, ptr %value, align 4
  %11 = load i64, ptr %i, align 8
  %_26.0 = add i64 %11, 1
  %_26.1 = icmp ult i64 %_26.0, %11
  br i1 %_26.1, label %panic3, label %bb13

panic2:                                           ; preds = %bb11
; call core::panicking::panic_const::panic_const_add_overflow
  call void @_ZN4core9panicking11panic_const24panic_const_add_overflow17h3fc9e60fb8716d57E(ptr align 8 @alloc_8100a62eb43a662a4be9fab0538bad6b) #15
  unreachable

bb13:                                             ; preds = %bb12
  store i64 %_26.0, ptr %i, align 8
  br label %bb1

panic3:                                           ; preds = %bb12
; call core::panicking::panic_const::panic_const_add_overflow
  call void @_ZN4core9panicking11panic_const24panic_const_add_overflow17h3fc9e60fb8716d57E(ptr align 8 @alloc_8d6d1421399322384f23f087b0032ee3) #15
  unreachable

bb16:                                             ; preds = %bb14
  %_30 = load i64, ptr %i, align 8
  %_29 = icmp ugt i64 %_30, 1
  br i1 %_29, label %bb17, label %bb20

bb15:                                             ; preds = %bb14
  store i8 0, ptr %_0, align 1
  br label %bb29

bb20:                                             ; preds = %bb17, %bb16
  %_39 = load i64, ptr %i, align 8
; call core::str::traits::<impl core::ops::index::Index<I> for str>::index
  %12 = call { ptr, i64 } @"_ZN4core3str6traits66_$LT$impl$u20$core..ops..index..Index$LT$I$GT$$u20$for$u20$str$GT$5index17hcdff39d555a11c95E"(ptr align 1 %s.0, i64 %s.1, i64 %_39, ptr align 8 @alloc_096a28ff3cf664e7d4ad50bfd2e316d7) #13
  %_37.0 = extractvalue { ptr, i64 } %12, 0
  %_37.1 = extractvalue { ptr, i64 } %12, 1
; call core::str::<impl str>::chars
  %13 = call { ptr, ptr } @"_ZN4core3str21_$LT$impl$u20$str$GT$5chars17h00eadb345436a9f5E"(ptr align 1 %_37.0, i64 %_37.1) #13
  %14 = extractvalue { ptr, ptr } %13, 0
  %15 = extractvalue { ptr, ptr } %13, 1
  store ptr %14, ptr %_36, align 8
  %16 = getelementptr inbounds i8, ptr %_36, i64 8
  store ptr %15, ptr %16, align 8
; call <core::str::iter::Chars as core::iter::traits::iterator::Iterator>::next
  %17 = call i32 @"_ZN81_$LT$core..str..iter..Chars$u20$as$u20$core..iter..traits..iterator..Iterator$GT$4next17h0173271c67b5467aE"(ptr align 8 %_36) #13
  store i32 %17, ptr %_34, align 4
; call core::option::Option<T>::is_some
  %_32 = call zeroext i1 @"_ZN4core6option15Option$LT$T$GT$7is_some17h325b9140d4993a4aE"(ptr align 4 %_34) #13
  br i1 %_32, label %bb25, label %bb26

bb17:                                             ; preds = %bb16
; call core::str::<impl str>::starts_with
  %_31 = call zeroext i1 @"_ZN4core3str21_$LT$impl$u20$str$GT$11starts_with17h4879a20597009083E"(ptr align 1 %s.0, i64 %s.1, i32 48)
  br i1 %_31, label %bb19, label %bb20

bb19:                                             ; preds = %bb17
  store i8 0, ptr %_0, align 1
  br label %bb29

bb26:                                             ; preds = %bb20
  %_41 = load i32, ptr %value, align 4
  %_40 = icmp slt i32 %_41, %low
  br i1 %_40, label %bb28, label %bb27

bb25:                                             ; preds = %bb20
  store i8 0, ptr %_0, align 1
  br label %bb29

bb27:                                             ; preds = %bb26
  %_43 = load i32, ptr %value, align 4
  %_42 = icmp sgt i32 %_43, %high
  %18 = icmp eq i1 %_42, false
  %19 = zext i1 %18 to i8
  store i8 %19, ptr %_0, align 1
  br label %bb29

bb28:                                             ; preds = %bb26
  store i8 0, ptr %_0, align 1
  br label %bb29
}

; Function Attrs: nounwind nonlazybind uwtable
declare i32 @rust_eh_personality(i32, i32, i64, ptr, ptr) unnamed_addr #3

; core::panicking::panic_nounwind_fmt
; Function Attrs: cold noinline noreturn nounwind nonlazybind uwtable
declare void @_ZN4core9panicking18panic_nounwind_fmt17hf349702e3facb1fdE(ptr, ptr, i1 zeroext, ptr align 8) unnamed_addr #4

; core::panicking::panic
; Function Attrs: cold noinline noreturn nonlazybind uwtable
declare void @_ZN4core9panicking5panic17ha2e20a73227bb72eE(ptr align 1, i64, ptr align 8) unnamed_addr #5

; Function Attrs: nocallback nofree nosync nounwind speculatable willreturn memory(none)
declare i64 @llvm.ctpop.i64(i64) #6

; core::panicking::panic_fmt
; Function Attrs: cold noinline noreturn nonlazybind uwtable
declare void @_ZN4core9panicking9panic_fmt17ha4414e4328fe24a0E(ptr, ptr, ptr align 8) unnamed_addr #5

; core::panicking::panic_bounds_check
; Function Attrs: cold minsize noinline noreturn nonlazybind optsize uwtable
declare void @_ZN4core9panicking18panic_bounds_check17hb15443e8431033c2E(i64, i64, ptr align 8) unnamed_addr #7

; core::str::slice_error_fail
; Function Attrs: cold noinline noreturn nonlazybind uwtable
declare void @_ZN4core3str16slice_error_fail17h4678567854dd8858E(ptr align 1, i64, i64, i64, ptr align 8) unnamed_addr #5

; core::char::methods::encode_utf8_raw::do_panic::runtime
; Function Attrs: noreturn nonlazybind uwtable
declare void @_ZN4core4char7methods15encode_utf8_raw8do_panic7runtime17h904cad932b2f18caE(i32, i64, i64, ptr align 8) unnamed_addr #8

; core::panicking::panic_const::panic_const_rem_by_zero
; Function Attrs: cold noinline noreturn nonlazybind uwtable
declare void @_ZN4core9panicking11panic_const23panic_const_rem_by_zero17h68b8e0645961a790E(ptr align 8) unnamed_addr #5

; core::panicking::panic_cannot_unwind
; Function Attrs: cold minsize noinline noreturn nounwind nonlazybind optsize uwtable
declare void @_ZN4core9panicking19panic_cannot_unwind17h9d41c6c1d0e0d4e5E() unnamed_addr #9

; core::panicking::panic_const::panic_const_div_by_zero
; Function Attrs: cold noinline noreturn nonlazybind uwtable
declare void @_ZN4core9panicking11panic_const23panic_const_div_by_zero17h9a45e37423e1c559E(ptr align 8) unnamed_addr #5

; core::option::unwrap_failed
; Function Attrs: cold noinline noreturn nonlazybind uwtable
declare void @_ZN4core6option13unwrap_failed17hef2534b77b89c04fE(ptr align 8) unnamed_addr #5

; Function Attrs: nocallback nofree nounwind willreturn memory(argmem: write)
declare void @llvm.memset.p0.i64(ptr writeonly captures(none), i8, i64, i1 immarg) #10

; core::slice::<impl [T]>::starts_with
; Function Attrs: nonlazybind uwtable
declare zeroext i1 @"_ZN4core5slice29_$LT$impl$u20$$u5b$T$u5d$$GT$11starts_with17h64c1bc5a56da65e1E"(ptr align 1, i64, ptr align 1, i64) unnamed_addr #2

; core::panicking::panic_const::panic_const_add_overflow
; Function Attrs: cold noinline noreturn nonlazybind uwtable
declare void @_ZN4core9panicking11panic_const24panic_const_add_overflow17h3fc9e60fb8716d57E(ptr align 8) unnamed_addr #5

; Function Attrs: nocallback nofree nounwind willreturn memory(argmem: readwrite)
declare void @llvm.memcpy.p0.p0.i64(ptr noalias writeonly captures(none), ptr noalias readonly captures(none), i64, i1 immarg) #11

; core::panicking::panic_in_cleanup
; Function Attrs: cold minsize noinline noreturn nounwind nonlazybind optsize uwtable
declare void @_ZN4core9panicking16panic_in_cleanup17h5f6bde45d17ae243E() unnamed_addr #9

; Function Attrs: nocallback nofree nosync nounwind speculatable willreturn memory(none)
declare { i32, i1 } @llvm.smul.with.overflow.i32(i32, i32) #6

; core::panicking::panic_const::panic_const_mul_overflow
; Function Attrs: cold noinline noreturn nonlazybind uwtable
declare void @_ZN4core9panicking11panic_const24panic_const_mul_overflow17h554ac164c12099f8E(ptr align 8) unnamed_addr #5

; core::panicking::panic_const::panic_const_sub_overflow
; Function Attrs: cold noinline noreturn nonlazybind uwtable
declare void @_ZN4core9panicking11panic_const24panic_const_sub_overflow17h134cc1a7f93654deE(ptr align 8) unnamed_addr #5

; Function Attrs: nocallback nofree nosync nounwind speculatable willreturn memory(none)
declare { i32, i1 } @llvm.sadd.with.overflow.i32(i32, i32) #6

attributes #0 = { inlinehint nonlazybind uwtable "probe-stack"="inline-asm" "target-cpu"="x86-64" }
attributes #1 = { inlinehint nounwind nonlazybind uwtable "probe-stack"="inline-asm" "target-cpu"="x86-64" }
attributes #2 = { nonlazybind uwtable "probe-stack"="inline-asm" "target-cpu"="x86-64" }
attributes #3 = { nounwind nonlazybind uwtable "probe-stack"="inline-asm" "target-cpu"="x86-64" }
attributes #4 = { cold noinline noreturn nounwind nonlazybind uwtable "probe-stack"="inline-asm" "target-cpu"="x86-64" }
attributes #5 = { cold noinline noreturn nonlazybind uwtable "probe-stack"="inline-asm" "target-cpu"="x86-64" }
attributes #6 = { nocallback nofree nosync nounwind speculatable willreturn memory(none) }
attributes #7 = { cold minsize noinline noreturn nonlazybind optsize uwtable "probe-stack"="inline-asm" "target-cpu"="x86-64" }
attributes #8 = { noreturn nonlazybind uwtable "probe-stack"="inline-asm" "target-cpu"="x86-64" }
attributes #9 = { cold minsize noinline noreturn nounwind nonlazybind optsize uwtable "probe-stack"="inline-asm" "target-cpu"="x86-64" }
attributes #10 = { nocallback nofree nounwind willreturn memory(argmem: write) }
attributes #11 = { nocallback nofree nounwind willreturn memory(argmem: readwrite) }
attributes #12 = { noinline noreturn nounwind }
attributes #13 = { inlinehint }
attributes #14 = { inlinehint nounwind }
attributes #15 = { noinline noreturn }
attributes #16 = { noreturn }
attributes #17 = { cold noreturn nounwind }
attributes #18 = { cold }

!llvm.module.flags = !{!0, !1}
!llvm.ident = !{!2}

!0 = !{i32 8, !"PIC Level", i32 2}
!1 = !{i32 2, !"RtLibUseGOT", i32 1}
!2 = !{!"rustc version 1.93.1 (01f6ddf75 2026-02-11)"}
