; ModuleID = 'MINIMIZE_SUM_PRODUCT_TWO_ARRAYS_PERMUTATIONS_ALLOWED_emit.9f970eaebf144435-cgu.0'
source_filename = "MINIMIZE_SUM_PRODUCT_TWO_ARRAYS_PERMUTATIONS_ALLOWED_emit.9f970eaebf144435-cgu.0"
target datalayout = "e-m:e-p270:32:32-p271:32:32-p272:64:64-i64:64-i128:128-f80:128-n8:16:32:64-S128"
target triple = "x86_64-unknown-linux-gnu"

%"core::mem::maybe_uninit::MaybeUninit<[u8; 8]>" = type { [8 x i8] }

@alloc_d1084648e479974e70c9329824bf76f9 = private unnamed_addr constant [9 x i8] c"mid > len", align 1
@alloc_e8e5fd9f509afcb950667480b3e3e42a = private unnamed_addr constant [126 x i8] c"/root/.rustup/toolchains/stable-x86_64-unknown-linux-gnu/lib/rustlib/src/rust/library/core/src/slice/sort/stable/quicksort.rs\00", align 1
@alloc_58d434a1e795f965ef82c8e9c5db822a = private unnamed_addr constant <{ ptr, [16 x i8] }> <{ ptr @alloc_e8e5fd9f509afcb950667480b3e3e42a, [16 x i8] c"}\00\00\00\00\00\00\00J\00\00\00\1F\00\00\00" }>, align 8
@alloc_0766b232215672ee1bd2195fdb153938 = private unnamed_addr constant <{ ptr, [16 x i8] }> <{ ptr @alloc_e8e5fd9f509afcb950667480b3e3e42a, [16 x i8] c"}\00\00\00\00\00\00\00D\00\00\00\17\00\00\00" }>, align 8
@alloc_223eb087169168879892a78c1bd4e328 = private unnamed_addr constant [158 x i8] c"/root/es/vert/vert/rust_funcs/go_transcoder/MINIMIZE_SUM_PRODUCT_TWO_ARRAYS_PERMUTATIONS_ALLOWED/MINIMIZE_SUM_PRODUCT_TWO_ARRAYS_PERMUTATIONS_ALLOWED_emit.rs\00", align 1
@alloc_390ea9071b49ed4ab4959f8c81801f2f = private unnamed_addr constant <{ ptr, [16 x i8] }> <{ ptr @alloc_223eb087169168879892a78c1bd4e328, [16 x i8] c"\9D\00\00\00\00\00\00\00\1B\00\00\00\13\00\00\00" }>, align 8
@alloc_3a0728a11c48e5aa548d60738b00786f = private unnamed_addr constant <{ ptr, [16 x i8] }> <{ ptr @alloc_223eb087169168879892a78c1bd4e328, [16 x i8] c"\9D\00\00\00\00\00\00\00\1B\00\00\00#\00\00\00" }>, align 8

; core::ptr::swap_nonoverlapping_bytes::swap_nonoverlapping_chunks
; Function Attrs: nofree norecurse nosync nounwind nonlazybind memory(argmem: readwrite, inaccessiblemem: readwrite) uwtable
define void @_ZN4core3ptr25swap_nonoverlapping_bytes26swap_nonoverlapping_chunks17ha58d6f9b8374d6c5E(ptr noundef captures(none) %x, ptr noundef captures(none) %y, i64 noundef range(i64 1, 0) %chunks) unnamed_addr #0 {
start:
  %xtraiter = and i64 %chunks, 1
  %0 = icmp eq i64 %chunks, 1
  br i1 %0, label %bb4.unr-lcssa, label %start.new

start.new:                                        ; preds = %start
  %unroll_iter = and i64 %chunks, -2
  br label %bb3

bb4.unr-lcssa:                                    ; preds = %bb3, %start
  %iter.sroa.0.02.unr = phi i64 [ 0, %start ], [ %_18.1, %bb3 ]
  %lcmp.mod.not = icmp eq i64 %xtraiter, 0
  br i1 %lcmp.mod.not, label %bb4, label %bb3.epil

bb3.epil:                                         ; preds = %bb4.unr-lcssa
  %_11.epil = getelementptr inbounds nuw %"core::mem::maybe_uninit::MaybeUninit<[u8; 8]>", ptr %x, i64 %iter.sroa.0.02.unr
  %_13.epil = getelementptr inbounds nuw %"core::mem::maybe_uninit::MaybeUninit<[u8; 8]>", ptr %y, i64 %iter.sroa.0.02.unr
  tail call void @llvm.experimental.noalias.scope.decl(metadata !3)
  tail call void @llvm.experimental.noalias.scope.decl(metadata !6)
  %_3.sroa.0.0.copyload.i.epil = load i64, ptr %_11.epil, align 1, !alias.scope !3, !noalias !6
  %_4.sroa.0.0.copyload.i.epil = load i64, ptr %_13.epil, align 1, !alias.scope !6, !noalias !3
  store i64 %_4.sroa.0.0.copyload.i.epil, ptr %_11.epil, align 1, !alias.scope !3, !noalias !6
  store i64 %_3.sroa.0.0.copyload.i.epil, ptr %_13.epil, align 1, !alias.scope !6, !noalias !3
  br label %bb4

bb4:                                              ; preds = %bb4.unr-lcssa, %bb3.epil
  ret void

bb3:                                              ; preds = %bb3, %start.new
  %iter.sroa.0.02 = phi i64 [ 0, %start.new ], [ %_18.1, %bb3 ]
  %niter = phi i64 [ 0, %start.new ], [ %niter.next.1, %bb3 ]
  %_18 = or disjoint i64 %iter.sroa.0.02, 1
  %_11 = getelementptr inbounds nuw %"core::mem::maybe_uninit::MaybeUninit<[u8; 8]>", ptr %x, i64 %iter.sroa.0.02
  %_13 = getelementptr inbounds nuw %"core::mem::maybe_uninit::MaybeUninit<[u8; 8]>", ptr %y, i64 %iter.sroa.0.02
  tail call void @llvm.experimental.noalias.scope.decl(metadata !3)
  tail call void @llvm.experimental.noalias.scope.decl(metadata !6)
  %_3.sroa.0.0.copyload.i = load i64, ptr %_11, align 1, !alias.scope !3, !noalias !6
  %_4.sroa.0.0.copyload.i = load i64, ptr %_13, align 1, !alias.scope !6, !noalias !3
  store i64 %_4.sroa.0.0.copyload.i, ptr %_11, align 1, !alias.scope !3, !noalias !6
  store i64 %_3.sroa.0.0.copyload.i, ptr %_13, align 1, !alias.scope !6, !noalias !3
  %_18.1 = add nuw i64 %iter.sroa.0.02, 2
  %_11.1 = getelementptr inbounds nuw %"core::mem::maybe_uninit::MaybeUninit<[u8; 8]>", ptr %x, i64 %_18
  %_13.1 = getelementptr inbounds nuw %"core::mem::maybe_uninit::MaybeUninit<[u8; 8]>", ptr %y, i64 %_18
  tail call void @llvm.experimental.noalias.scope.decl(metadata !8)
  tail call void @llvm.experimental.noalias.scope.decl(metadata !10)
  %_3.sroa.0.0.copyload.i.1 = load i64, ptr %_11.1, align 1, !alias.scope !8, !noalias !10
  %_4.sroa.0.0.copyload.i.1 = load i64, ptr %_13.1, align 1, !alias.scope !10, !noalias !8
  store i64 %_4.sroa.0.0.copyload.i.1, ptr %_11.1, align 1, !alias.scope !8, !noalias !10
  store i64 %_3.sroa.0.0.copyload.i.1, ptr %_13.1, align 1, !alias.scope !10, !noalias !8
  %niter.next.1 = add i64 %niter, 2
  %niter.ncmp.1 = icmp eq i64 %niter.next.1, %unroll_iter
  br i1 %niter.ncmp.1, label %bb4.unr-lcssa, label %bb3
}

; core::slice::sort::shared::pivot::median3_rec
; Function Attrs: nofree nosync nounwind nonlazybind memory(read, inaccessiblemem: readwrite) uwtable
define noundef nonnull ptr @_ZN4core5slice4sort6shared5pivot11median3_rec17h01c533b834c89417E(ptr noundef %0, ptr noundef %1, ptr noundef %2, i64 noundef %n, ptr noalias noundef align 8 dereferenceable(8) %is_less) unnamed_addr #1 {
start:
  %3 = and i64 %n, 2305843009213693944
  %_6.not = icmp eq i64 %3, 0
  br i1 %_6.not, label %bb6, label %bb1

bb1:                                              ; preds = %start
  %n84 = lshr i64 %n, 3
  %count = shl nuw nsw i64 %n84, 2
  %_10 = getelementptr inbounds nuw i32, ptr %0, i64 %count
  %count1 = mul nuw i64 %n84, 7
  %_13 = getelementptr inbounds nuw i32, ptr %0, i64 %count1
; call core::slice::sort::shared::pivot::median3_rec
  %4 = tail call noundef ptr @_ZN4core5slice4sort6shared5pivot11median3_rec17h01c533b834c89417E(ptr noundef %0, ptr noundef %_10, ptr noundef %_13, i64 noundef %n84, ptr noalias noundef align 8 dereferenceable(8) %is_less)
  %_16 = getelementptr inbounds nuw i32, ptr %1, i64 %count
  %_18 = getelementptr inbounds nuw i32, ptr %1, i64 %count1
; call core::slice::sort::shared::pivot::median3_rec
  %5 = tail call noundef ptr @_ZN4core5slice4sort6shared5pivot11median3_rec17h01c533b834c89417E(ptr noundef %1, ptr noundef %_16, ptr noundef %_18, i64 noundef %n84, ptr noalias noundef align 8 dereferenceable(8) %is_less)
  %_20 = getelementptr inbounds nuw i32, ptr %2, i64 %count
  %_22 = getelementptr inbounds nuw i32, ptr %2, i64 %count1
; call core::slice::sort::shared::pivot::median3_rec
  %6 = tail call noundef ptr @_ZN4core5slice4sort6shared5pivot11median3_rec17h01c533b834c89417E(ptr noundef %2, ptr noundef %_20, ptr noundef %_22, i64 noundef %n84, ptr noalias noundef align 8 dereferenceable(8) %is_less)
  br label %bb6

bb6:                                              ; preds = %start, %bb1
  %c.sroa.0.0 = phi ptr [ %6, %bb1 ], [ %2, %start ]
  %b.sroa.0.0 = phi ptr [ %5, %bb1 ], [ %1, %start ]
  %a.sroa.0.0 = phi ptr [ %4, %bb1 ], [ %0, %start ]
  tail call void @llvm.experimental.noalias.scope.decl(metadata !12)
  tail call void @llvm.experimental.noalias.scope.decl(metadata !15)
  tail call void @llvm.experimental.noalias.scope.decl(metadata !17), !noalias !20
  tail call void @llvm.experimental.noalias.scope.decl(metadata !23), !noalias !20
  tail call void @llvm.experimental.noalias.scope.decl(metadata !25), !noalias !20
  tail call void @llvm.experimental.noalias.scope.decl(metadata !28), !noalias !20
  tail call void @llvm.experimental.noalias.scope.decl(metadata !30), !noalias !20
  tail call void @llvm.experimental.noalias.scope.decl(metadata !33), !noalias !20
  %_3.i.i.i.i = load i32, ptr %a.sroa.0.0, align 4, !alias.scope !35, !noalias !36, !noundef !37
  %_4.i.i.i.i = load i32, ptr %b.sroa.0.0, align 4, !alias.scope !38, !noalias !39, !noundef !37
  %_0.i = icmp slt i32 %_3.i.i.i.i, %_4.i.i.i.i
  %_4.i.i.i.i6 = load i32, ptr %c.sroa.0.0, align 4, !alias.scope !40, !noalias !49, !noundef !37
  %_0.i7 = icmp slt i32 %_3.i.i.i.i, %_4.i.i.i.i6
  %7 = xor i1 %_0.i, %_0.i7
  %_0.i10 = icmp slt i32 %_4.i.i.i.i, %_4.i.i.i.i6
  %_12.i = xor i1 %_0.i, %_0.i10
  %c.b.i = select i1 %_12.i, ptr %c.sroa.0.0, ptr %b.sroa.0.0
  %_0.sroa.0.0.i = select i1 %7, ptr %a.sroa.0.0, ptr %c.b.i
  ret ptr %_0.sroa.0.0.i
}

; core::slice::sort::shared::pivot::median3_rec
; Function Attrs: nofree nosync nounwind nonlazybind memory(read, inaccessiblemem: readwrite) uwtable
define noundef nonnull ptr @_ZN4core5slice4sort6shared5pivot11median3_rec17h6df3ca1c8015a0f8E(ptr noundef %0, ptr noundef %1, ptr noundef %2, i64 noundef %n, ptr noalias noundef align 8 dereferenceable(8) %is_less) unnamed_addr #1 {
start:
  %3 = and i64 %n, 2305843009213693944
  %_6.not = icmp eq i64 %3, 0
  br i1 %_6.not, label %bb6, label %bb1

bb1:                                              ; preds = %start
  %n84 = lshr i64 %n, 3
  %count = shl nuw nsw i64 %n84, 2
  %_10 = getelementptr inbounds nuw i32, ptr %0, i64 %count
  %count1 = mul nuw i64 %n84, 7
  %_13 = getelementptr inbounds nuw i32, ptr %0, i64 %count1
; call core::slice::sort::shared::pivot::median3_rec
  %4 = tail call noundef ptr @_ZN4core5slice4sort6shared5pivot11median3_rec17h6df3ca1c8015a0f8E(ptr noundef %0, ptr noundef %_10, ptr noundef %_13, i64 noundef %n84, ptr noalias noundef align 8 dereferenceable(8) %is_less)
  %_16 = getelementptr inbounds nuw i32, ptr %1, i64 %count
  %_18 = getelementptr inbounds nuw i32, ptr %1, i64 %count1
; call core::slice::sort::shared::pivot::median3_rec
  %5 = tail call noundef ptr @_ZN4core5slice4sort6shared5pivot11median3_rec17h6df3ca1c8015a0f8E(ptr noundef %1, ptr noundef %_16, ptr noundef %_18, i64 noundef %n84, ptr noalias noundef align 8 dereferenceable(8) %is_less)
  %_20 = getelementptr inbounds nuw i32, ptr %2, i64 %count
  %_22 = getelementptr inbounds nuw i32, ptr %2, i64 %count1
; call core::slice::sort::shared::pivot::median3_rec
  %6 = tail call noundef ptr @_ZN4core5slice4sort6shared5pivot11median3_rec17h6df3ca1c8015a0f8E(ptr noundef %2, ptr noundef %_20, ptr noundef %_22, i64 noundef %n84, ptr noalias noundef align 8 dereferenceable(8) %is_less)
  br label %bb6

bb6:                                              ; preds = %start, %bb1
  %c.sroa.0.0 = phi ptr [ %6, %bb1 ], [ %2, %start ]
  %b.sroa.0.0 = phi ptr [ %5, %bb1 ], [ %1, %start ]
  %a.sroa.0.0 = phi ptr [ %4, %bb1 ], [ %0, %start ]
  tail call void @llvm.experimental.noalias.scope.decl(metadata !54)
  tail call void @llvm.experimental.noalias.scope.decl(metadata !57)
  tail call void @llvm.experimental.noalias.scope.decl(metadata !59), !noalias !62
  tail call void @llvm.experimental.noalias.scope.decl(metadata !65), !noalias !62
  tail call void @llvm.experimental.noalias.scope.decl(metadata !67), !noalias !62
  tail call void @llvm.experimental.noalias.scope.decl(metadata !70), !noalias !62
  %_3.i.i.i = load i32, ptr %a.sroa.0.0, align 4, !alias.scope !72, !noalias !73, !noundef !37
  %_4.i.i.i = load i32, ptr %b.sroa.0.0, align 4, !alias.scope !74, !noalias !75, !noundef !37
  %_0.i = icmp slt i32 %_3.i.i.i, %_4.i.i.i
  %_4.i.i.i6 = load i32, ptr %c.sroa.0.0, align 4, !alias.scope !76, !noalias !83, !noundef !37
  %_0.i7 = icmp slt i32 %_3.i.i.i, %_4.i.i.i6
  %7 = xor i1 %_0.i, %_0.i7
  %_0.i10 = icmp slt i32 %_4.i.i.i, %_4.i.i.i6
  %_12.i = xor i1 %_0.i, %_0.i10
  %c.b.i = select i1 %_12.i, ptr %c.sroa.0.0, ptr %b.sroa.0.0
  %_0.sroa.0.0.i = select i1 %7, ptr %a.sroa.0.0, ptr %c.b.i
  ret ptr %_0.sroa.0.0.i
}

; core::slice::sort::shared::pivot::median3_rec
; Function Attrs: nofree nosync nounwind nonlazybind memory(read, inaccessiblemem: readwrite) uwtable
define noundef nonnull ptr @_ZN4core5slice4sort6shared5pivot11median3_rec17hcd8e43edb5e2eb65E(ptr noundef %0, ptr noundef %1, ptr noundef %2, i64 noundef %n, ptr noalias noundef align 8 dereferenceable(8) %is_less) unnamed_addr #1 {
start:
  %3 = and i64 %n, 2305843009213693944
  %_6.not = icmp eq i64 %3, 0
  br i1 %_6.not, label %bb6, label %bb1

bb1:                                              ; preds = %start
  %n84 = lshr i64 %n, 3
  %count = shl nuw nsw i64 %n84, 2
  %_10 = getelementptr inbounds nuw i32, ptr %0, i64 %count
  %count1 = mul nuw i64 %n84, 7
  %_13 = getelementptr inbounds nuw i32, ptr %0, i64 %count1
; call core::slice::sort::shared::pivot::median3_rec
  %4 = tail call noundef ptr @_ZN4core5slice4sort6shared5pivot11median3_rec17hcd8e43edb5e2eb65E(ptr noundef %0, ptr noundef %_10, ptr noundef %_13, i64 noundef %n84, ptr noalias noundef align 8 dereferenceable(8) %is_less)
  %_16 = getelementptr inbounds nuw i32, ptr %1, i64 %count
  %_18 = getelementptr inbounds nuw i32, ptr %1, i64 %count1
; call core::slice::sort::shared::pivot::median3_rec
  %5 = tail call noundef ptr @_ZN4core5slice4sort6shared5pivot11median3_rec17hcd8e43edb5e2eb65E(ptr noundef %1, ptr noundef %_16, ptr noundef %_18, i64 noundef %n84, ptr noalias noundef align 8 dereferenceable(8) %is_less)
  %_20 = getelementptr inbounds nuw i32, ptr %2, i64 %count
  %_22 = getelementptr inbounds nuw i32, ptr %2, i64 %count1
; call core::slice::sort::shared::pivot::median3_rec
  %6 = tail call noundef ptr @_ZN4core5slice4sort6shared5pivot11median3_rec17hcd8e43edb5e2eb65E(ptr noundef %2, ptr noundef %_20, ptr noundef %_22, i64 noundef %n84, ptr noalias noundef align 8 dereferenceable(8) %is_less)
  br label %bb6

bb6:                                              ; preds = %start, %bb1
  %c.sroa.0.0 = phi ptr [ %6, %bb1 ], [ %2, %start ]
  %b.sroa.0.0 = phi ptr [ %5, %bb1 ], [ %1, %start ]
  %a.sroa.0.0 = phi ptr [ %4, %bb1 ], [ %0, %start ]
  tail call void @llvm.experimental.noalias.scope.decl(metadata !87)
  tail call void @llvm.experimental.noalias.scope.decl(metadata !90)
  tail call void @llvm.experimental.noalias.scope.decl(metadata !92), !noalias !95
  tail call void @llvm.experimental.noalias.scope.decl(metadata !98), !noalias !95
  tail call void @llvm.experimental.noalias.scope.decl(metadata !100), !noalias !95
  tail call void @llvm.experimental.noalias.scope.decl(metadata !103), !noalias !95
  %_3.i.i.i = load i32, ptr %b.sroa.0.0, align 4, !alias.scope !105, !noalias !106, !noundef !37
  %_4.i.i.i = load i32, ptr %a.sroa.0.0, align 4, !alias.scope !107, !noalias !108, !noundef !37
  %_0.i = icmp slt i32 %_3.i.i.i, %_4.i.i.i
  %_3.i.i.i5 = load i32, ptr %c.sroa.0.0, align 4, !alias.scope !109, !noalias !116, !noundef !37
  %_0.i7 = icmp slt i32 %_3.i.i.i5, %_4.i.i.i
  %7 = xor i1 %_0.i, %_0.i7
  %_0.i10 = icmp slt i32 %_3.i.i.i5, %_3.i.i.i
  %_12.i = xor i1 %_0.i, %_0.i10
  %c.b.i = select i1 %_12.i, ptr %c.sroa.0.0, ptr %b.sroa.0.0
  %_0.sroa.0.0.i = select i1 %7, ptr %a.sroa.0.0, ptr %c.b.i
  ret ptr %_0.sroa.0.0.i
}

; core::slice::sort::shared::smallsort::insert_tail
; Function Attrs: nofree norecurse nosync nounwind nonlazybind memory(argmem: readwrite, inaccessiblemem: readwrite) uwtable
define void @_ZN4core5slice4sort6shared9smallsort11insert_tail17h015727d101d269d9E(ptr noundef readnone captures(address) %begin, ptr noundef captures(address) %tail, ptr noalias noundef readnone align 8 captures(none) dereferenceable(8) %is_less) unnamed_addr #0 personality ptr @rust_eh_personality {
start:
  %0 = getelementptr inbounds i8, ptr %tail, i64 -4
  tail call void @llvm.experimental.noalias.scope.decl(metadata !120)
  tail call void @llvm.experimental.noalias.scope.decl(metadata !123)
  tail call void @llvm.experimental.noalias.scope.decl(metadata !125)
  tail call void @llvm.experimental.noalias.scope.decl(metadata !128)
  tail call void @llvm.experimental.noalias.scope.decl(metadata !130)
  tail call void @llvm.experimental.noalias.scope.decl(metadata !133)
  %_3.i.i.i = load i32, ptr %tail, align 4, !alias.scope !135, !noalias !136, !noundef !37
  %_4.i.i.i = load i32, ptr %0, align 4, !alias.scope !136, !noalias !135, !noundef !37
  %_0.i = icmp slt i32 %_3.i.i.i, %_4.i.i.i
  br i1 %_0.i, label %bb4, label %bb12

bb12:                                             ; preds = %start, %bb10
  ret void

bb4:                                              ; preds = %start, %bb6
  %gap_guard.sroa.5.0 = phi ptr [ %sift.sroa.0.0, %bb6 ], [ %tail, %start ]
  %sift.sroa.0.0 = phi ptr [ %2, %bb6 ], [ %0, %start ]
  %1 = load i32, ptr %sift.sroa.0.0, align 4
  store i32 %1, ptr %gap_guard.sroa.5.0, align 4
  %_18 = icmp eq ptr %sift.sroa.0.0, %begin
  br i1 %_18, label %bb10, label %bb6

bb6:                                              ; preds = %bb4
  %2 = getelementptr inbounds i8, ptr %sift.sroa.0.0, i64 -4
  %_4.i.i.i2 = load i32, ptr %2, align 4, !alias.scope !137, !noalias !144, !noundef !37
  %_0.i3 = icmp slt i32 %_3.i.i.i, %_4.i.i.i2
  br i1 %_0.i3, label %bb4, label %bb10

bb10:                                             ; preds = %bb6, %bb4
  store i32 %_3.i.i.i, ptr %sift.sroa.0.0, align 4, !noalias !148
  br label %bb12
}

; core::slice::sort::shared::smallsort::insert_tail
; Function Attrs: nofree norecurse nosync nounwind nonlazybind memory(argmem: readwrite, inaccessiblemem: readwrite) uwtable
define void @_ZN4core5slice4sort6shared9smallsort11insert_tail17h15c0e430fef2f522E(ptr noundef readnone captures(address) %begin, ptr noundef captures(address) %tail, ptr noalias noundef readnone align 8 captures(none) dereferenceable(8) %is_less) unnamed_addr #0 personality ptr @rust_eh_personality {
start:
  %0 = getelementptr inbounds i8, ptr %tail, i64 -4
  tail call void @llvm.experimental.noalias.scope.decl(metadata !153)
  tail call void @llvm.experimental.noalias.scope.decl(metadata !156)
  tail call void @llvm.experimental.noalias.scope.decl(metadata !158)
  tail call void @llvm.experimental.noalias.scope.decl(metadata !161)
  tail call void @llvm.experimental.noalias.scope.decl(metadata !163)
  tail call void @llvm.experimental.noalias.scope.decl(metadata !166)
  %_3.i.i.i = load i32, ptr %0, align 4, !alias.scope !168, !noalias !169, !noundef !37
  %_4.i.i.i = load i32, ptr %tail, align 4, !alias.scope !169, !noalias !168, !noundef !37
  %_0.i = icmp slt i32 %_3.i.i.i, %_4.i.i.i
  br i1 %_0.i, label %bb4, label %bb12

bb12:                                             ; preds = %start, %bb10
  ret void

bb4:                                              ; preds = %start, %bb6
  %gap_guard.sroa.5.0 = phi ptr [ %sift.sroa.0.0, %bb6 ], [ %tail, %start ]
  %sift.sroa.0.0 = phi ptr [ %2, %bb6 ], [ %0, %start ]
  %1 = load i32, ptr %sift.sroa.0.0, align 4
  store i32 %1, ptr %gap_guard.sroa.5.0, align 4
  %_18 = icmp eq ptr %sift.sroa.0.0, %begin
  br i1 %_18, label %bb10, label %bb6

bb6:                                              ; preds = %bb4
  %2 = getelementptr inbounds i8, ptr %sift.sroa.0.0, i64 -4
  %_3.i.i.i1 = load i32, ptr %2, align 4, !alias.scope !170, !noalias !177, !noundef !37
  %_0.i3 = icmp slt i32 %_3.i.i.i1, %_4.i.i.i
  br i1 %_0.i3, label %bb4, label %bb10

bb10:                                             ; preds = %bb6, %bb4
  store i32 %_4.i.i.i, ptr %sift.sroa.0.0, align 4, !noalias !181
  br label %bb12
}

; core::slice::sort::shared::smallsort::insert_tail
; Function Attrs: nofree norecurse nosync nounwind nonlazybind memory(argmem: readwrite, inaccessiblemem: readwrite) uwtable
define void @_ZN4core5slice4sort6shared9smallsort11insert_tail17hc6676223f144befbE(ptr noundef readnone captures(address) %begin, ptr noundef captures(address) %tail, ptr noalias noundef readnone align 8 captures(none) dereferenceable(8) %is_less) unnamed_addr #0 personality ptr @rust_eh_personality {
start:
  %0 = getelementptr inbounds i8, ptr %tail, i64 -4
  tail call void @llvm.experimental.noalias.scope.decl(metadata !186)
  tail call void @llvm.experimental.noalias.scope.decl(metadata !189)
  tail call void @llvm.experimental.noalias.scope.decl(metadata !191)
  tail call void @llvm.experimental.noalias.scope.decl(metadata !194)
  tail call void @llvm.experimental.noalias.scope.decl(metadata !196)
  tail call void @llvm.experimental.noalias.scope.decl(metadata !199)
  tail call void @llvm.experimental.noalias.scope.decl(metadata !201)
  tail call void @llvm.experimental.noalias.scope.decl(metadata !204)
  %_3.i.i.i.i = load i32, ptr %tail, align 4, !alias.scope !206, !noalias !207, !noundef !37
  %_4.i.i.i.i = load i32, ptr %0, align 4, !alias.scope !207, !noalias !206, !noundef !37
  %_0.i = icmp slt i32 %_3.i.i.i.i, %_4.i.i.i.i
  br i1 %_0.i, label %bb4, label %bb12

bb12:                                             ; preds = %start, %bb10
  ret void

bb4:                                              ; preds = %start, %bb6
  %gap_guard.sroa.5.0 = phi ptr [ %sift.sroa.0.0, %bb6 ], [ %tail, %start ]
  %sift.sroa.0.0 = phi ptr [ %2, %bb6 ], [ %0, %start ]
  %1 = load i32, ptr %sift.sroa.0.0, align 4
  store i32 %1, ptr %gap_guard.sroa.5.0, align 4
  %_18 = icmp eq ptr %sift.sroa.0.0, %begin
  br i1 %_18, label %bb10, label %bb6

bb6:                                              ; preds = %bb4
  %2 = getelementptr inbounds i8, ptr %sift.sroa.0.0, i64 -4
  %_4.i.i.i.i2 = load i32, ptr %2, align 4, !alias.scope !208, !noalias !217, !noundef !37
  %_0.i3 = icmp slt i32 %_3.i.i.i.i, %_4.i.i.i.i2
  br i1 %_0.i3, label %bb4, label %bb10

bb10:                                             ; preds = %bb6, %bb4
  store i32 %_3.i.i.i.i, ptr %sift.sroa.0.0, align 4, !noalias !222
  br label %bb12
}

; core::slice::sort::shared::smallsort::sort4_stable
; Function Attrs: mustprogress nofree norecurse nosync nounwind nonlazybind willreturn memory(argmem: readwrite, inaccessiblemem: readwrite) uwtable
define void @_ZN4core5slice4sort6shared9smallsort12sort4_stable17h1eb98a6df5e7f13eE(ptr noundef readonly captures(none) %v_base, ptr noundef writeonly captures(none) initializes((0, 16)) %dst, ptr noalias noundef readnone align 8 captures(none) dereferenceable(8) %is_less) unnamed_addr #2 personality ptr @rust_eh_personality {
start:
  %_7 = getelementptr inbounds nuw i8, ptr %v_base, i64 4
  tail call void @llvm.experimental.noalias.scope.decl(metadata !227)
  tail call void @llvm.experimental.noalias.scope.decl(metadata !230)
  tail call void @llvm.experimental.noalias.scope.decl(metadata !232)
  tail call void @llvm.experimental.noalias.scope.decl(metadata !235)
  tail call void @llvm.experimental.noalias.scope.decl(metadata !237)
  tail call void @llvm.experimental.noalias.scope.decl(metadata !240)
  %_3.i.i.i = load i32, ptr %v_base, align 4, !alias.scope !242, !noalias !243, !noundef !37
  %_4.i.i.i = load i32, ptr %_7, align 4, !alias.scope !243, !noalias !242, !noundef !37
  %_0.i = icmp slt i32 %_3.i.i.i, %_4.i.i.i
  %_12 = getelementptr inbounds nuw i8, ptr %v_base, i64 12
  %_14 = getelementptr inbounds nuw i8, ptr %v_base, i64 8
  tail call void @llvm.experimental.noalias.scope.decl(metadata !244)
  tail call void @llvm.experimental.noalias.scope.decl(metadata !247)
  tail call void @llvm.experimental.noalias.scope.decl(metadata !249)
  tail call void @llvm.experimental.noalias.scope.decl(metadata !252)
  tail call void @llvm.experimental.noalias.scope.decl(metadata !254)
  tail call void @llvm.experimental.noalias.scope.decl(metadata !257)
  %_3.i.i.i7 = load i32, ptr %_14, align 4, !alias.scope !259, !noalias !260, !noundef !37
  %_4.i.i.i8 = load i32, ptr %_12, align 4, !alias.scope !260, !noalias !259, !noundef !37
  %_0.i9 = icmp slt i32 %_3.i.i.i7, %_4.i.i.i8
  %count = zext i1 %_0.i to i64
  %a = getelementptr inbounds nuw i32, ptr %v_base, i64 %count
  %_19 = xor i1 %_0.i, true
  %count2 = zext i1 %_19 to i64
  %b = getelementptr inbounds nuw i32, ptr %v_base, i64 %count2
  %count3 = select i1 %_0.i9, i64 3, i64 2
  %c = getelementptr inbounds nuw i32, ptr %v_base, i64 %count3
  %count4 = select i1 %_0.i9, i64 2, i64 3
  %d = getelementptr inbounds nuw i32, ptr %v_base, i64 %count4
  tail call void @llvm.experimental.noalias.scope.decl(metadata !261)
  tail call void @llvm.experimental.noalias.scope.decl(metadata !264)
  tail call void @llvm.experimental.noalias.scope.decl(metadata !266)
  tail call void @llvm.experimental.noalias.scope.decl(metadata !269)
  tail call void @llvm.experimental.noalias.scope.decl(metadata !271)
  tail call void @llvm.experimental.noalias.scope.decl(metadata !274)
  %_3.i.i.i10 = load i32, ptr %a, align 4, !alias.scope !276, !noalias !277, !noundef !37
  %_4.i.i.i11 = load i32, ptr %c, align 4, !alias.scope !277, !noalias !276, !noundef !37
  %_0.i12 = icmp slt i32 %_3.i.i.i10, %_4.i.i.i11
  tail call void @llvm.experimental.noalias.scope.decl(metadata !278)
  tail call void @llvm.experimental.noalias.scope.decl(metadata !281)
  tail call void @llvm.experimental.noalias.scope.decl(metadata !283)
  tail call void @llvm.experimental.noalias.scope.decl(metadata !286)
  tail call void @llvm.experimental.noalias.scope.decl(metadata !288)
  tail call void @llvm.experimental.noalias.scope.decl(metadata !291)
  %_3.i.i.i13 = load i32, ptr %b, align 4, !alias.scope !293, !noalias !294, !noundef !37
  %_4.i.i.i14 = load i32, ptr %d, align 4, !alias.scope !294, !noalias !293, !noundef !37
  %_0.i15 = icmp slt i32 %_3.i.i.i13, %_4.i.i.i14
  %0 = select i1 %_0.i12, ptr %c, ptr %a, !unpredictable !37
  %1 = select i1 %_0.i15, ptr %c, ptr %b, !unpredictable !37
  %2 = select i1 %_0.i12, ptr %a, ptr %1, !unpredictable !37
  %3 = select i1 %_0.i12, ptr %b, ptr %c, !unpredictable !37
  %4 = select i1 %_0.i15, ptr %d, ptr %3, !unpredictable !37
  tail call void @llvm.experimental.noalias.scope.decl(metadata !295)
  tail call void @llvm.experimental.noalias.scope.decl(metadata !298)
  tail call void @llvm.experimental.noalias.scope.decl(metadata !300)
  tail call void @llvm.experimental.noalias.scope.decl(metadata !303)
  tail call void @llvm.experimental.noalias.scope.decl(metadata !305)
  tail call void @llvm.experimental.noalias.scope.decl(metadata !308)
  %_3.i.i.i16 = load i32, ptr %2, align 4, !alias.scope !310, !noalias !311, !noundef !37
  %_4.i.i.i17 = load i32, ptr %4, align 4, !alias.scope !311, !noalias !310, !noundef !37
  %_0.i18 = icmp slt i32 %_3.i.i.i16, %_4.i.i.i17
  %5 = load i32, ptr %0, align 4
  store i32 %5, ptr %dst, align 4
  %dst5 = getelementptr inbounds nuw i8, ptr %dst, i64 4
  %.val = load i32, ptr %4, align 4
  %.val19 = load i32, ptr %2, align 4
  %6 = select i1 %_0.i18, i32 %.val, i32 %.val19
  store i32 %6, ptr %dst5, align 4
  %dst6 = getelementptr inbounds nuw i8, ptr %dst, i64 8
  %.val20 = load i32, ptr %2, align 4
  %.val21 = load i32, ptr %4, align 4
  %7 = select i1 %_0.i18, i32 %.val20, i32 %.val21
  store i32 %7, ptr %dst6, align 4
  %8 = getelementptr inbounds nuw i8, ptr %dst, i64 12
  %b.val = load i32, ptr %b, align 4
  %d.val = load i32, ptr %d, align 4
  %9 = select i1 %_0.i15, i32 %b.val, i32 %d.val
  store i32 %9, ptr %8, align 4
  ret void
}

; core::slice::sort::shared::smallsort::sort4_stable
; Function Attrs: mustprogress nofree norecurse nosync nounwind nonlazybind willreturn memory(argmem: readwrite, inaccessiblemem: readwrite) uwtable
define void @_ZN4core5slice4sort6shared9smallsort12sort4_stable17h3139685cc24df054E(ptr noundef readonly captures(none) %v_base, ptr noundef writeonly captures(none) initializes((0, 16)) %dst, ptr noalias noundef readnone align 8 captures(none) dereferenceable(8) %is_less) unnamed_addr #2 personality ptr @rust_eh_personality {
start:
  %_7 = getelementptr inbounds nuw i8, ptr %v_base, i64 4
  tail call void @llvm.experimental.noalias.scope.decl(metadata !312)
  tail call void @llvm.experimental.noalias.scope.decl(metadata !315)
  tail call void @llvm.experimental.noalias.scope.decl(metadata !317)
  tail call void @llvm.experimental.noalias.scope.decl(metadata !320)
  tail call void @llvm.experimental.noalias.scope.decl(metadata !322)
  tail call void @llvm.experimental.noalias.scope.decl(metadata !325)
  %_3.i.i.i = load i32, ptr %_7, align 4, !alias.scope !327, !noalias !328, !noundef !37
  %_4.i.i.i = load i32, ptr %v_base, align 4, !alias.scope !328, !noalias !327, !noundef !37
  %_0.i = icmp slt i32 %_3.i.i.i, %_4.i.i.i
  %_12 = getelementptr inbounds nuw i8, ptr %v_base, i64 12
  %_14 = getelementptr inbounds nuw i8, ptr %v_base, i64 8
  tail call void @llvm.experimental.noalias.scope.decl(metadata !329)
  tail call void @llvm.experimental.noalias.scope.decl(metadata !332)
  tail call void @llvm.experimental.noalias.scope.decl(metadata !334)
  tail call void @llvm.experimental.noalias.scope.decl(metadata !337)
  tail call void @llvm.experimental.noalias.scope.decl(metadata !339)
  tail call void @llvm.experimental.noalias.scope.decl(metadata !342)
  %_3.i.i.i7 = load i32, ptr %_12, align 4, !alias.scope !344, !noalias !345, !noundef !37
  %_4.i.i.i8 = load i32, ptr %_14, align 4, !alias.scope !345, !noalias !344, !noundef !37
  %_0.i9 = icmp slt i32 %_3.i.i.i7, %_4.i.i.i8
  %count = zext i1 %_0.i to i64
  %a = getelementptr inbounds nuw i32, ptr %v_base, i64 %count
  %_19 = xor i1 %_0.i, true
  %count2 = zext i1 %_19 to i64
  %b = getelementptr inbounds nuw i32, ptr %v_base, i64 %count2
  %count3 = select i1 %_0.i9, i64 3, i64 2
  %c = getelementptr inbounds nuw i32, ptr %v_base, i64 %count3
  %count4 = select i1 %_0.i9, i64 2, i64 3
  %d = getelementptr inbounds nuw i32, ptr %v_base, i64 %count4
  tail call void @llvm.experimental.noalias.scope.decl(metadata !346)
  tail call void @llvm.experimental.noalias.scope.decl(metadata !349)
  tail call void @llvm.experimental.noalias.scope.decl(metadata !351)
  tail call void @llvm.experimental.noalias.scope.decl(metadata !354)
  tail call void @llvm.experimental.noalias.scope.decl(metadata !356)
  tail call void @llvm.experimental.noalias.scope.decl(metadata !359)
  %_3.i.i.i10 = load i32, ptr %c, align 4, !alias.scope !361, !noalias !362, !noundef !37
  %_4.i.i.i11 = load i32, ptr %a, align 4, !alias.scope !362, !noalias !361, !noundef !37
  %_0.i12 = icmp slt i32 %_3.i.i.i10, %_4.i.i.i11
  tail call void @llvm.experimental.noalias.scope.decl(metadata !363)
  tail call void @llvm.experimental.noalias.scope.decl(metadata !366)
  tail call void @llvm.experimental.noalias.scope.decl(metadata !368)
  tail call void @llvm.experimental.noalias.scope.decl(metadata !371)
  tail call void @llvm.experimental.noalias.scope.decl(metadata !373)
  tail call void @llvm.experimental.noalias.scope.decl(metadata !376)
  %_3.i.i.i13 = load i32, ptr %d, align 4, !alias.scope !378, !noalias !379, !noundef !37
  %_4.i.i.i14 = load i32, ptr %b, align 4, !alias.scope !379, !noalias !378, !noundef !37
  %_0.i15 = icmp slt i32 %_3.i.i.i13, %_4.i.i.i14
  %0 = select i1 %_0.i12, ptr %c, ptr %a, !unpredictable !37
  %1 = select i1 %_0.i15, ptr %c, ptr %b, !unpredictable !37
  %2 = select i1 %_0.i12, ptr %a, ptr %1, !unpredictable !37
  %3 = select i1 %_0.i12, ptr %b, ptr %c, !unpredictable !37
  %4 = select i1 %_0.i15, ptr %d, ptr %3, !unpredictable !37
  tail call void @llvm.experimental.noalias.scope.decl(metadata !380)
  tail call void @llvm.experimental.noalias.scope.decl(metadata !383)
  tail call void @llvm.experimental.noalias.scope.decl(metadata !385)
  tail call void @llvm.experimental.noalias.scope.decl(metadata !388)
  tail call void @llvm.experimental.noalias.scope.decl(metadata !390)
  tail call void @llvm.experimental.noalias.scope.decl(metadata !393)
  %_3.i.i.i16 = load i32, ptr %4, align 4, !alias.scope !395, !noalias !396, !noundef !37
  %_4.i.i.i17 = load i32, ptr %2, align 4, !alias.scope !396, !noalias !395, !noundef !37
  %_0.i18 = icmp slt i32 %_3.i.i.i16, %_4.i.i.i17
  %5 = load i32, ptr %0, align 4
  store i32 %5, ptr %dst, align 4
  %dst5 = getelementptr inbounds nuw i8, ptr %dst, i64 4
  %.val = load i32, ptr %4, align 4
  %.val19 = load i32, ptr %2, align 4
  %6 = select i1 %_0.i18, i32 %.val, i32 %.val19
  store i32 %6, ptr %dst5, align 4
  %dst6 = getelementptr inbounds nuw i8, ptr %dst, i64 8
  %.val20 = load i32, ptr %2, align 4
  %.val21 = load i32, ptr %4, align 4
  %7 = select i1 %_0.i18, i32 %.val20, i32 %.val21
  store i32 %7, ptr %dst6, align 4
  %8 = getelementptr inbounds nuw i8, ptr %dst, i64 12
  %b.val = load i32, ptr %b, align 4
  %d.val = load i32, ptr %d, align 4
  %9 = select i1 %_0.i15, i32 %b.val, i32 %d.val
  store i32 %9, ptr %8, align 4
  ret void
}

; core::slice::sort::shared::smallsort::sort4_stable
; Function Attrs: mustprogress nofree norecurse nosync nounwind nonlazybind willreturn memory(argmem: readwrite, inaccessiblemem: readwrite) uwtable
define void @_ZN4core5slice4sort6shared9smallsort12sort4_stable17h8f9545d6e7f1fbd2E(ptr noundef readonly captures(none) %v_base, ptr noundef writeonly captures(none) initializes((0, 16)) %dst, ptr noalias noundef readnone align 8 captures(none) dereferenceable(8) %is_less) unnamed_addr #2 personality ptr @rust_eh_personality {
start:
  %_7 = getelementptr inbounds nuw i8, ptr %v_base, i64 4
  tail call void @llvm.experimental.noalias.scope.decl(metadata !397)
  tail call void @llvm.experimental.noalias.scope.decl(metadata !400)
  tail call void @llvm.experimental.noalias.scope.decl(metadata !402)
  tail call void @llvm.experimental.noalias.scope.decl(metadata !405)
  tail call void @llvm.experimental.noalias.scope.decl(metadata !407)
  tail call void @llvm.experimental.noalias.scope.decl(metadata !410)
  tail call void @llvm.experimental.noalias.scope.decl(metadata !412)
  tail call void @llvm.experimental.noalias.scope.decl(metadata !415)
  %_3.i.i.i.i = load i32, ptr %_7, align 4, !alias.scope !417, !noalias !418, !noundef !37
  %_4.i.i.i.i = load i32, ptr %v_base, align 4, !alias.scope !418, !noalias !417, !noundef !37
  %_0.i = icmp slt i32 %_3.i.i.i.i, %_4.i.i.i.i
  %_12 = getelementptr inbounds nuw i8, ptr %v_base, i64 12
  %_14 = getelementptr inbounds nuw i8, ptr %v_base, i64 8
  tail call void @llvm.experimental.noalias.scope.decl(metadata !419)
  tail call void @llvm.experimental.noalias.scope.decl(metadata !422)
  tail call void @llvm.experimental.noalias.scope.decl(metadata !424)
  tail call void @llvm.experimental.noalias.scope.decl(metadata !427)
  tail call void @llvm.experimental.noalias.scope.decl(metadata !429)
  tail call void @llvm.experimental.noalias.scope.decl(metadata !432)
  tail call void @llvm.experimental.noalias.scope.decl(metadata !434)
  tail call void @llvm.experimental.noalias.scope.decl(metadata !437)
  %_3.i.i.i.i7 = load i32, ptr %_12, align 4, !alias.scope !439, !noalias !440, !noundef !37
  %_4.i.i.i.i8 = load i32, ptr %_14, align 4, !alias.scope !440, !noalias !439, !noundef !37
  %_0.i9 = icmp slt i32 %_3.i.i.i.i7, %_4.i.i.i.i8
  %count = zext i1 %_0.i to i64
  %a = getelementptr inbounds nuw i32, ptr %v_base, i64 %count
  %_19 = xor i1 %_0.i, true
  %count2 = zext i1 %_19 to i64
  %b = getelementptr inbounds nuw i32, ptr %v_base, i64 %count2
  %count3 = select i1 %_0.i9, i64 3, i64 2
  %c = getelementptr inbounds nuw i32, ptr %v_base, i64 %count3
  %count4 = select i1 %_0.i9, i64 2, i64 3
  %d = getelementptr inbounds nuw i32, ptr %v_base, i64 %count4
  tail call void @llvm.experimental.noalias.scope.decl(metadata !441)
  tail call void @llvm.experimental.noalias.scope.decl(metadata !444)
  tail call void @llvm.experimental.noalias.scope.decl(metadata !446)
  tail call void @llvm.experimental.noalias.scope.decl(metadata !449)
  tail call void @llvm.experimental.noalias.scope.decl(metadata !451)
  tail call void @llvm.experimental.noalias.scope.decl(metadata !454)
  tail call void @llvm.experimental.noalias.scope.decl(metadata !456)
  tail call void @llvm.experimental.noalias.scope.decl(metadata !459)
  %_3.i.i.i.i10 = load i32, ptr %c, align 4, !alias.scope !461, !noalias !462, !noundef !37
  %_4.i.i.i.i11 = load i32, ptr %a, align 4, !alias.scope !462, !noalias !461, !noundef !37
  %_0.i12 = icmp slt i32 %_3.i.i.i.i10, %_4.i.i.i.i11
  tail call void @llvm.experimental.noalias.scope.decl(metadata !463)
  tail call void @llvm.experimental.noalias.scope.decl(metadata !466)
  tail call void @llvm.experimental.noalias.scope.decl(metadata !468)
  tail call void @llvm.experimental.noalias.scope.decl(metadata !471)
  tail call void @llvm.experimental.noalias.scope.decl(metadata !473)
  tail call void @llvm.experimental.noalias.scope.decl(metadata !476)
  tail call void @llvm.experimental.noalias.scope.decl(metadata !478)
  tail call void @llvm.experimental.noalias.scope.decl(metadata !481)
  %_3.i.i.i.i13 = load i32, ptr %d, align 4, !alias.scope !483, !noalias !484, !noundef !37
  %_4.i.i.i.i14 = load i32, ptr %b, align 4, !alias.scope !484, !noalias !483, !noundef !37
  %_0.i15 = icmp slt i32 %_3.i.i.i.i13, %_4.i.i.i.i14
  %0 = select i1 %_0.i12, ptr %c, ptr %a, !unpredictable !37
  %1 = select i1 %_0.i15, ptr %c, ptr %b, !unpredictable !37
  %2 = select i1 %_0.i12, ptr %a, ptr %1, !unpredictable !37
  %3 = select i1 %_0.i12, ptr %b, ptr %c, !unpredictable !37
  %4 = select i1 %_0.i15, ptr %d, ptr %3, !unpredictable !37
  tail call void @llvm.experimental.noalias.scope.decl(metadata !485)
  tail call void @llvm.experimental.noalias.scope.decl(metadata !488)
  tail call void @llvm.experimental.noalias.scope.decl(metadata !490)
  tail call void @llvm.experimental.noalias.scope.decl(metadata !493)
  tail call void @llvm.experimental.noalias.scope.decl(metadata !495)
  tail call void @llvm.experimental.noalias.scope.decl(metadata !498)
  tail call void @llvm.experimental.noalias.scope.decl(metadata !500)
  tail call void @llvm.experimental.noalias.scope.decl(metadata !503)
  %_3.i.i.i.i16 = load i32, ptr %4, align 4, !alias.scope !505, !noalias !506, !noundef !37
  %_4.i.i.i.i17 = load i32, ptr %2, align 4, !alias.scope !506, !noalias !505, !noundef !37
  %_0.i18 = icmp slt i32 %_3.i.i.i.i16, %_4.i.i.i.i17
  %5 = load i32, ptr %0, align 4
  store i32 %5, ptr %dst, align 4
  %dst5 = getelementptr inbounds nuw i8, ptr %dst, i64 4
  %.val = load i32, ptr %4, align 4
  %.val19 = load i32, ptr %2, align 4
  %6 = select i1 %_0.i18, i32 %.val, i32 %.val19
  store i32 %6, ptr %dst5, align 4
  %dst6 = getelementptr inbounds nuw i8, ptr %dst, i64 8
  %.val20 = load i32, ptr %2, align 4
  %.val21 = load i32, ptr %4, align 4
  %7 = select i1 %_0.i18, i32 %.val20, i32 %.val21
  store i32 %7, ptr %dst6, align 4
  %8 = getelementptr inbounds nuw i8, ptr %dst, i64 12
  %b.val = load i32, ptr %b, align 4
  %d.val = load i32, ptr %d, align 4
  %9 = select i1 %_0.i15, i32 %b.val, i32 %d.val
  store i32 %9, ptr %8, align 4
  ret void
}

; core::slice::sort::shared::smallsort::sort8_stable
; Function Attrs: nonlazybind uwtable
define void @_ZN4core5slice4sort6shared9smallsort12sort8_stable17hc497a09f4c81df07E(ptr noundef readonly captures(none) %v_base, ptr noundef writeonly captures(none) initializes((0, 32)) %dst, ptr noundef captures(address) initializes((0, 32)) %scratch_base, ptr noalias readnone align 8 captures(none) %is_less) unnamed_addr #3 personality ptr @rust_eh_personality {
start:
  %_7.i = getelementptr inbounds nuw i8, ptr %v_base, i64 4
  tail call void @llvm.experimental.noalias.scope.decl(metadata !507)
  tail call void @llvm.experimental.noalias.scope.decl(metadata !510)
  tail call void @llvm.experimental.noalias.scope.decl(metadata !512)
  tail call void @llvm.experimental.noalias.scope.decl(metadata !515)
  tail call void @llvm.experimental.noalias.scope.decl(metadata !517)
  tail call void @llvm.experimental.noalias.scope.decl(metadata !520)
  %_3.i.i.i.i = load i32, ptr %v_base, align 4, !alias.scope !522, !noalias !523, !noundef !37
  %_4.i.i.i.i = load i32, ptr %_7.i, align 4, !alias.scope !523, !noalias !522, !noundef !37
  %_0.i.i = icmp slt i32 %_3.i.i.i.i, %_4.i.i.i.i
  %_12.i = getelementptr inbounds nuw i8, ptr %v_base, i64 12
  %_14.i = getelementptr inbounds nuw i8, ptr %v_base, i64 8
  tail call void @llvm.experimental.noalias.scope.decl(metadata !524)
  tail call void @llvm.experimental.noalias.scope.decl(metadata !527)
  tail call void @llvm.experimental.noalias.scope.decl(metadata !529)
  tail call void @llvm.experimental.noalias.scope.decl(metadata !532)
  tail call void @llvm.experimental.noalias.scope.decl(metadata !534)
  tail call void @llvm.experimental.noalias.scope.decl(metadata !537)
  %_3.i.i.i7.i = load i32, ptr %_14.i, align 4, !alias.scope !539, !noalias !540, !noundef !37
  %_4.i.i.i8.i = load i32, ptr %_12.i, align 4, !alias.scope !540, !noalias !539, !noundef !37
  %_0.i9.i = icmp slt i32 %_3.i.i.i7.i, %_4.i.i.i8.i
  %count.i = zext i1 %_0.i.i to i64
  %a.i = getelementptr inbounds nuw i32, ptr %v_base, i64 %count.i
  %_19.i = xor i1 %_0.i.i, true
  %count2.i = zext i1 %_19.i to i64
  %b.i = getelementptr inbounds nuw i32, ptr %v_base, i64 %count2.i
  %count3.i = select i1 %_0.i9.i, i64 3, i64 2
  %c.i = getelementptr inbounds nuw i32, ptr %v_base, i64 %count3.i
  %count4.i = select i1 %_0.i9.i, i64 2, i64 3
  %d.i = getelementptr inbounds nuw i32, ptr %v_base, i64 %count4.i
  tail call void @llvm.experimental.noalias.scope.decl(metadata !541)
  tail call void @llvm.experimental.noalias.scope.decl(metadata !544)
  tail call void @llvm.experimental.noalias.scope.decl(metadata !546)
  tail call void @llvm.experimental.noalias.scope.decl(metadata !549)
  tail call void @llvm.experimental.noalias.scope.decl(metadata !551)
  tail call void @llvm.experimental.noalias.scope.decl(metadata !554)
  %_3.i.i.i10.i = load i32, ptr %a.i, align 4, !alias.scope !556, !noalias !557, !noundef !37
  %_4.i.i.i11.i = load i32, ptr %c.i, align 4, !alias.scope !557, !noalias !556, !noundef !37
  %_0.i12.i = icmp slt i32 %_3.i.i.i10.i, %_4.i.i.i11.i
  tail call void @llvm.experimental.noalias.scope.decl(metadata !558)
  tail call void @llvm.experimental.noalias.scope.decl(metadata !561)
  tail call void @llvm.experimental.noalias.scope.decl(metadata !563)
  tail call void @llvm.experimental.noalias.scope.decl(metadata !566)
  tail call void @llvm.experimental.noalias.scope.decl(metadata !568)
  tail call void @llvm.experimental.noalias.scope.decl(metadata !571)
  %_3.i.i.i13.i = load i32, ptr %b.i, align 4, !alias.scope !573, !noalias !574, !noundef !37
  %_4.i.i.i14.i = load i32, ptr %d.i, align 4, !alias.scope !574, !noalias !573, !noundef !37
  %_0.i15.i = icmp slt i32 %_3.i.i.i13.i, %_4.i.i.i14.i
  %0 = select i1 %_0.i12.i, ptr %c.i, ptr %a.i, !unpredictable !37
  %1 = select i1 %_0.i15.i, ptr %c.i, ptr %b.i, !unpredictable !37
  %2 = select i1 %_0.i12.i, ptr %a.i, ptr %1, !unpredictable !37
  %3 = select i1 %_0.i12.i, ptr %b.i, ptr %c.i, !unpredictable !37
  %4 = select i1 %_0.i15.i, ptr %d.i, ptr %3, !unpredictable !37
  tail call void @llvm.experimental.noalias.scope.decl(metadata !575)
  tail call void @llvm.experimental.noalias.scope.decl(metadata !578)
  tail call void @llvm.experimental.noalias.scope.decl(metadata !580)
  tail call void @llvm.experimental.noalias.scope.decl(metadata !583)
  tail call void @llvm.experimental.noalias.scope.decl(metadata !585)
  tail call void @llvm.experimental.noalias.scope.decl(metadata !588)
  %_3.i.i.i16.i = load i32, ptr %2, align 4, !alias.scope !590, !noalias !591, !noundef !37
  %_4.i.i.i17.i = load i32, ptr %4, align 4, !alias.scope !591, !noalias !590, !noundef !37
  %_0.i18.i = icmp slt i32 %_3.i.i.i16.i, %_4.i.i.i17.i
  %5 = load i32, ptr %0, align 4
  store i32 %5, ptr %scratch_base, align 4
  %dst5.i = getelementptr inbounds nuw i8, ptr %scratch_base, i64 4
  %.val.i = load i32, ptr %4, align 4
  %.val19.i = load i32, ptr %2, align 4
  %6 = select i1 %_0.i18.i, i32 %.val.i, i32 %.val19.i
  store i32 %6, ptr %dst5.i, align 4
  %dst6.i = getelementptr inbounds nuw i8, ptr %scratch_base, i64 8
  %.val20.i = load i32, ptr %2, align 4
  %.val21.i = load i32, ptr %4, align 4
  %7 = select i1 %_0.i18.i, i32 %.val20.i, i32 %.val21.i
  store i32 %7, ptr %dst6.i, align 4
  %8 = getelementptr inbounds nuw i8, ptr %scratch_base, i64 12
  %b.val.i = load i32, ptr %b.i, align 4
  %d.val.i = load i32, ptr %d.i, align 4
  %9 = select i1 %_0.i15.i, i32 %b.val.i, i32 %d.val.i
  store i32 %9, ptr %8, align 4
  %_9 = getelementptr inbounds nuw i8, ptr %v_base, i64 16
  %_10 = getelementptr i8, ptr %scratch_base, i64 16
  %_7.i1 = getelementptr inbounds nuw i8, ptr %v_base, i64 20
  tail call void @llvm.experimental.noalias.scope.decl(metadata !592)
  tail call void @llvm.experimental.noalias.scope.decl(metadata !595)
  tail call void @llvm.experimental.noalias.scope.decl(metadata !597)
  tail call void @llvm.experimental.noalias.scope.decl(metadata !600)
  tail call void @llvm.experimental.noalias.scope.decl(metadata !602)
  tail call void @llvm.experimental.noalias.scope.decl(metadata !605)
  %_3.i.i.i.i2 = load i32, ptr %_9, align 4, !alias.scope !607, !noalias !608, !noundef !37
  %_4.i.i.i.i3 = load i32, ptr %_7.i1, align 4, !alias.scope !608, !noalias !607, !noundef !37
  %_0.i.i4 = icmp slt i32 %_3.i.i.i.i2, %_4.i.i.i.i3
  %_12.i5 = getelementptr inbounds nuw i8, ptr %v_base, i64 28
  %_14.i6 = getelementptr inbounds nuw i8, ptr %v_base, i64 24
  tail call void @llvm.experimental.noalias.scope.decl(metadata !609)
  tail call void @llvm.experimental.noalias.scope.decl(metadata !612)
  tail call void @llvm.experimental.noalias.scope.decl(metadata !614)
  tail call void @llvm.experimental.noalias.scope.decl(metadata !617)
  tail call void @llvm.experimental.noalias.scope.decl(metadata !619)
  tail call void @llvm.experimental.noalias.scope.decl(metadata !622)
  %_3.i.i.i7.i7 = load i32, ptr %_14.i6, align 4, !alias.scope !624, !noalias !625, !noundef !37
  %_4.i.i.i8.i8 = load i32, ptr %_12.i5, align 4, !alias.scope !625, !noalias !624, !noundef !37
  %_0.i9.i9 = icmp slt i32 %_3.i.i.i7.i7, %_4.i.i.i8.i8
  %count.i10 = zext i1 %_0.i.i4 to i64
  %a.i11 = getelementptr inbounds nuw i32, ptr %_9, i64 %count.i10
  %_19.i12 = xor i1 %_0.i.i4, true
  %count2.i13 = zext i1 %_19.i12 to i64
  %b.i14 = getelementptr inbounds nuw i32, ptr %_9, i64 %count2.i13
  %count3.i15 = select i1 %_0.i9.i9, i64 3, i64 2
  %c.i16 = getelementptr inbounds nuw i32, ptr %_9, i64 %count3.i15
  %count4.i17 = select i1 %_0.i9.i9, i64 2, i64 3
  %d.i18 = getelementptr inbounds nuw i32, ptr %_9, i64 %count4.i17
  tail call void @llvm.experimental.noalias.scope.decl(metadata !626)
  tail call void @llvm.experimental.noalias.scope.decl(metadata !629)
  tail call void @llvm.experimental.noalias.scope.decl(metadata !631)
  tail call void @llvm.experimental.noalias.scope.decl(metadata !634)
  tail call void @llvm.experimental.noalias.scope.decl(metadata !636)
  tail call void @llvm.experimental.noalias.scope.decl(metadata !639)
  %_3.i.i.i10.i19 = load i32, ptr %a.i11, align 4, !alias.scope !641, !noalias !642, !noundef !37
  %_4.i.i.i11.i20 = load i32, ptr %c.i16, align 4, !alias.scope !642, !noalias !641, !noundef !37
  %_0.i12.i21 = icmp slt i32 %_3.i.i.i10.i19, %_4.i.i.i11.i20
  tail call void @llvm.experimental.noalias.scope.decl(metadata !643)
  tail call void @llvm.experimental.noalias.scope.decl(metadata !646)
  tail call void @llvm.experimental.noalias.scope.decl(metadata !648)
  tail call void @llvm.experimental.noalias.scope.decl(metadata !651)
  tail call void @llvm.experimental.noalias.scope.decl(metadata !653)
  tail call void @llvm.experimental.noalias.scope.decl(metadata !656)
  %_3.i.i.i13.i22 = load i32, ptr %b.i14, align 4, !alias.scope !658, !noalias !659, !noundef !37
  %_4.i.i.i14.i23 = load i32, ptr %d.i18, align 4, !alias.scope !659, !noalias !658, !noundef !37
  %_0.i15.i24 = icmp slt i32 %_3.i.i.i13.i22, %_4.i.i.i14.i23
  %10 = select i1 %_0.i12.i21, ptr %c.i16, ptr %a.i11, !unpredictable !37
  %11 = select i1 %_0.i15.i24, ptr %c.i16, ptr %b.i14, !unpredictable !37
  %12 = select i1 %_0.i12.i21, ptr %a.i11, ptr %11, !unpredictable !37
  %13 = select i1 %_0.i12.i21, ptr %b.i14, ptr %c.i16, !unpredictable !37
  %14 = select i1 %_0.i15.i24, ptr %d.i18, ptr %13, !unpredictable !37
  tail call void @llvm.experimental.noalias.scope.decl(metadata !660)
  tail call void @llvm.experimental.noalias.scope.decl(metadata !663)
  tail call void @llvm.experimental.noalias.scope.decl(metadata !665)
  tail call void @llvm.experimental.noalias.scope.decl(metadata !668)
  tail call void @llvm.experimental.noalias.scope.decl(metadata !670)
  tail call void @llvm.experimental.noalias.scope.decl(metadata !673)
  %_3.i.i.i16.i25 = load i32, ptr %12, align 4, !alias.scope !675, !noalias !676, !noundef !37
  %_4.i.i.i17.i26 = load i32, ptr %14, align 4, !alias.scope !676, !noalias !675, !noundef !37
  %_0.i18.i27 = icmp slt i32 %_3.i.i.i16.i25, %_4.i.i.i17.i26
  %15 = load i32, ptr %10, align 4
  store i32 %15, ptr %_10, align 4
  %dst5.i28 = getelementptr i8, ptr %scratch_base, i64 20
  %.val.i29 = load i32, ptr %14, align 4
  %.val19.i30 = load i32, ptr %12, align 4
  %16 = select i1 %_0.i18.i27, i32 %.val.i29, i32 %.val19.i30
  store i32 %16, ptr %dst5.i28, align 4
  %dst6.i31 = getelementptr i8, ptr %scratch_base, i64 24
  %.val20.i32 = load i32, ptr %12, align 4
  %.val21.i33 = load i32, ptr %14, align 4
  %17 = select i1 %_0.i18.i27, i32 %.val20.i32, i32 %.val21.i33
  store i32 %17, ptr %dst6.i31, align 4
  %18 = getelementptr i8, ptr %scratch_base, i64 28
  %b.val.i34 = load i32, ptr %b.i14, align 4
  %d.val.i35 = load i32, ptr %d.i18, align 4
  %19 = select i1 %_0.i15.i24, i32 %b.val.i34, i32 %d.val.i35
  store i32 %19, ptr %18, align 4
  tail call void @llvm.experimental.noalias.scope.decl(metadata !677)
  %20 = getelementptr i8, ptr %scratch_base, i64 12
  %21 = getelementptr inbounds nuw i8, ptr %scratch_base, i64 28
  %22 = getelementptr inbounds nuw i8, ptr %dst, i64 28
  tail call void @llvm.experimental.noalias.scope.decl(metadata !680)
  tail call void @llvm.experimental.noalias.scope.decl(metadata !683)
  tail call void @llvm.experimental.noalias.scope.decl(metadata !685), !noalias !688
  tail call void @llvm.experimental.noalias.scope.decl(metadata !691), !noalias !688
  tail call void @llvm.experimental.noalias.scope.decl(metadata !693), !noalias !688
  tail call void @llvm.experimental.noalias.scope.decl(metadata !696), !noalias !688
  %_3.i.i.i.i36 = load i32, ptr %scratch_base, align 4, !alias.scope !698, !noalias !699, !noundef !37
  %_4.i.i.i.i37 = load i32, ptr %_10, align 4, !alias.scope !700, !noalias !701, !noundef !37
  %_0.i.i38 = icmp slt i32 %_3.i.i.i.i36, %_4.i.i.i.i37
  %is_l.i18.i = xor i1 %_0.i.i38, true
  %23 = tail call i32 @llvm.smax.i32(i32 %_3.i.i.i.i36, i32 %_4.i.i.i.i37)
  store i32 %23, ptr %dst, align 4, !noalias !702
  %count.i.i = zext i1 %_0.i.i38 to i64
  %_12.i.i = getelementptr inbounds nuw i32, ptr %_10, i64 %count.i.i
  %count2.i.i = zext i1 %is_l.i18.i to i64
  %_14.i.i = getelementptr inbounds nuw i32, ptr %scratch_base, i64 %count2.i.i
  %_16.i.i = getelementptr inbounds nuw i8, ptr %dst, i64 4
  tail call void @llvm.experimental.noalias.scope.decl(metadata !704)
  tail call void @llvm.experimental.noalias.scope.decl(metadata !707)
  tail call void @llvm.experimental.noalias.scope.decl(metadata !709), !noalias !712
  tail call void @llvm.experimental.noalias.scope.decl(metadata !715), !noalias !712
  tail call void @llvm.experimental.noalias.scope.decl(metadata !717), !noalias !712
  tail call void @llvm.experimental.noalias.scope.decl(metadata !720), !noalias !712
  %_3.i.i.i19.i = load i32, ptr %20, align 4, !alias.scope !722, !noalias !723, !noundef !37
  %_4.i.i.i20.i = load i32, ptr %21, align 4, !alias.scope !724, !noalias !725, !noundef !37
  %_0.i21.i = icmp slt i32 %_3.i.i.i19.i, %_4.i.i.i20.i
  %is_l.i.i = xor i1 %_0.i21.i, true
  %24 = tail call i32 @llvm.smin.i32(i32 %_3.i.i.i19.i, i32 %_4.i.i.i20.i)
  store i32 %24, ptr %22, align 4, !noalias !726
  %count.neg.i.i = sext i1 %is_l.i.i to i64
  %25 = getelementptr i32, ptr %21, i64 %count.neg.i.i
  %count3.neg.i.i = sext i1 %_0.i21.i to i64
  %26 = getelementptr i32, ptr %20, i64 %count3.neg.i.i
  %27 = getelementptr inbounds nuw i8, ptr %dst, i64 24
  tail call void @llvm.experimental.noalias.scope.decl(metadata !728)
  tail call void @llvm.experimental.noalias.scope.decl(metadata !730)
  tail call void @llvm.experimental.noalias.scope.decl(metadata !732), !noalias !688
  tail call void @llvm.experimental.noalias.scope.decl(metadata !734), !noalias !688
  tail call void @llvm.experimental.noalias.scope.decl(metadata !736), !noalias !688
  tail call void @llvm.experimental.noalias.scope.decl(metadata !738), !noalias !688
  %_3.i.i.i.i36.1 = load i32, ptr %_14.i.i, align 4, !alias.scope !740, !noalias !741, !noundef !37
  %_4.i.i.i.i37.1 = load i32, ptr %_12.i.i, align 4, !alias.scope !742, !noalias !743, !noundef !37
  %_0.i.i38.1 = icmp slt i32 %_3.i.i.i.i36.1, %_4.i.i.i.i37.1
  %is_l.i18.i.1 = xor i1 %_0.i.i38.1, true
  %28 = tail call i32 @llvm.smax.i32(i32 %_3.i.i.i.i36.1, i32 %_4.i.i.i.i37.1)
  store i32 %28, ptr %_16.i.i, align 4, !noalias !702
  %count.i.i.1 = zext i1 %_0.i.i38.1 to i64
  %_12.i.i.1 = getelementptr inbounds nuw i32, ptr %_12.i.i, i64 %count.i.i.1
  %count2.i.i.1 = zext i1 %is_l.i18.i.1 to i64
  %_14.i.i.1 = getelementptr inbounds nuw i32, ptr %_14.i.i, i64 %count2.i.i.1
  %_16.i.i.1 = getelementptr inbounds nuw i8, ptr %dst, i64 8
  tail call void @llvm.experimental.noalias.scope.decl(metadata !744)
  tail call void @llvm.experimental.noalias.scope.decl(metadata !746)
  tail call void @llvm.experimental.noalias.scope.decl(metadata !748), !noalias !712
  tail call void @llvm.experimental.noalias.scope.decl(metadata !750), !noalias !712
  tail call void @llvm.experimental.noalias.scope.decl(metadata !752), !noalias !712
  tail call void @llvm.experimental.noalias.scope.decl(metadata !754), !noalias !712
  %_3.i.i.i19.i.1 = load i32, ptr %26, align 4, !alias.scope !756, !noalias !757, !noundef !37
  %_4.i.i.i20.i.1 = load i32, ptr %25, align 4, !alias.scope !758, !noalias !759, !noundef !37
  %_0.i21.i.1 = icmp slt i32 %_3.i.i.i19.i.1, %_4.i.i.i20.i.1
  %is_l.i.i.1 = xor i1 %_0.i21.i.1, true
  %29 = tail call i32 @llvm.smin.i32(i32 %_3.i.i.i19.i.1, i32 %_4.i.i.i20.i.1)
  store i32 %29, ptr %27, align 4, !noalias !726
  %count.neg.i.i.1 = sext i1 %is_l.i.i.1 to i64
  %30 = getelementptr i32, ptr %25, i64 %count.neg.i.i.1
  %count3.neg.i.i.1 = sext i1 %_0.i21.i.1 to i64
  %31 = getelementptr i32, ptr %26, i64 %count3.neg.i.i.1
  %32 = getelementptr inbounds nuw i8, ptr %dst, i64 20
  tail call void @llvm.experimental.noalias.scope.decl(metadata !760)
  tail call void @llvm.experimental.noalias.scope.decl(metadata !762)
  tail call void @llvm.experimental.noalias.scope.decl(metadata !764), !noalias !688
  tail call void @llvm.experimental.noalias.scope.decl(metadata !766), !noalias !688
  tail call void @llvm.experimental.noalias.scope.decl(metadata !768), !noalias !688
  tail call void @llvm.experimental.noalias.scope.decl(metadata !770), !noalias !688
  %_3.i.i.i.i36.2 = load i32, ptr %_14.i.i.1, align 4, !alias.scope !772, !noalias !773, !noundef !37
  %_4.i.i.i.i37.2 = load i32, ptr %_12.i.i.1, align 4, !alias.scope !774, !noalias !775, !noundef !37
  %_0.i.i38.2 = icmp slt i32 %_3.i.i.i.i36.2, %_4.i.i.i.i37.2
  %is_l.i18.i.2 = xor i1 %_0.i.i38.2, true
  %33 = tail call i32 @llvm.smax.i32(i32 %_3.i.i.i.i36.2, i32 %_4.i.i.i.i37.2)
  store i32 %33, ptr %_16.i.i.1, align 4, !noalias !702
  %count.i.i.2 = zext i1 %_0.i.i38.2 to i64
  %_12.i.i.2 = getelementptr inbounds nuw i32, ptr %_12.i.i.1, i64 %count.i.i.2
  %count2.i.i.2 = zext i1 %is_l.i18.i.2 to i64
  %_14.i.i.2 = getelementptr inbounds nuw i32, ptr %_14.i.i.1, i64 %count2.i.i.2
  %_16.i.i.2 = getelementptr inbounds nuw i8, ptr %dst, i64 12
  tail call void @llvm.experimental.noalias.scope.decl(metadata !776)
  tail call void @llvm.experimental.noalias.scope.decl(metadata !778)
  tail call void @llvm.experimental.noalias.scope.decl(metadata !780), !noalias !712
  tail call void @llvm.experimental.noalias.scope.decl(metadata !782), !noalias !712
  tail call void @llvm.experimental.noalias.scope.decl(metadata !784), !noalias !712
  tail call void @llvm.experimental.noalias.scope.decl(metadata !786), !noalias !712
  %_3.i.i.i19.i.2 = load i32, ptr %31, align 4, !alias.scope !788, !noalias !789, !noundef !37
  %_4.i.i.i20.i.2 = load i32, ptr %30, align 4, !alias.scope !790, !noalias !791, !noundef !37
  %_0.i21.i.2 = icmp slt i32 %_3.i.i.i19.i.2, %_4.i.i.i20.i.2
  %is_l.i.i.2 = xor i1 %_0.i21.i.2, true
  %34 = tail call i32 @llvm.smin.i32(i32 %_3.i.i.i19.i.2, i32 %_4.i.i.i20.i.2)
  store i32 %34, ptr %32, align 4, !noalias !726
  %count.neg.i.i.2 = sext i1 %is_l.i.i.2 to i64
  %35 = getelementptr i32, ptr %30, i64 %count.neg.i.i.2
  %count3.neg.i.i.2 = sext i1 %_0.i21.i.2 to i64
  %36 = getelementptr i32, ptr %31, i64 %count3.neg.i.i.2
  %37 = getelementptr inbounds nuw i8, ptr %dst, i64 16
  tail call void @llvm.experimental.noalias.scope.decl(metadata !792)
  tail call void @llvm.experimental.noalias.scope.decl(metadata !794)
  tail call void @llvm.experimental.noalias.scope.decl(metadata !796), !noalias !688
  tail call void @llvm.experimental.noalias.scope.decl(metadata !798), !noalias !688
  tail call void @llvm.experimental.noalias.scope.decl(metadata !800), !noalias !688
  tail call void @llvm.experimental.noalias.scope.decl(metadata !802), !noalias !688
  %_3.i.i.i.i36.3 = load i32, ptr %_14.i.i.2, align 4, !alias.scope !804, !noalias !805, !noundef !37
  %_4.i.i.i.i37.3 = load i32, ptr %_12.i.i.2, align 4, !alias.scope !806, !noalias !807, !noundef !37
  %_0.i.i38.3 = icmp slt i32 %_3.i.i.i.i36.3, %_4.i.i.i.i37.3
  %is_l.i18.i.3 = xor i1 %_0.i.i38.3, true
  %38 = tail call i32 @llvm.smax.i32(i32 %_3.i.i.i.i36.3, i32 %_4.i.i.i.i37.3)
  store i32 %38, ptr %_16.i.i.2, align 4, !noalias !702
  %count.i.i.3 = zext i1 %_0.i.i38.3 to i64
  %_12.i.i.3 = getelementptr inbounds nuw i32, ptr %_12.i.i.2, i64 %count.i.i.3
  %count2.i.i.3 = zext i1 %is_l.i18.i.3 to i64
  %_14.i.i.3 = getelementptr inbounds nuw i32, ptr %_14.i.i.2, i64 %count2.i.i.3
  tail call void @llvm.experimental.noalias.scope.decl(metadata !808)
  tail call void @llvm.experimental.noalias.scope.decl(metadata !810)
  tail call void @llvm.experimental.noalias.scope.decl(metadata !812), !noalias !712
  tail call void @llvm.experimental.noalias.scope.decl(metadata !814), !noalias !712
  tail call void @llvm.experimental.noalias.scope.decl(metadata !816), !noalias !712
  tail call void @llvm.experimental.noalias.scope.decl(metadata !818), !noalias !712
  %_3.i.i.i19.i.3 = load i32, ptr %36, align 4, !alias.scope !820, !noalias !821, !noundef !37
  %_4.i.i.i20.i.3 = load i32, ptr %35, align 4, !alias.scope !822, !noalias !823, !noundef !37
  %_0.i21.i.3 = icmp slt i32 %_3.i.i.i19.i.3, %_4.i.i.i20.i.3
  %is_l.i.i.3 = xor i1 %_0.i21.i.3, true
  %39 = tail call i32 @llvm.smin.i32(i32 %_3.i.i.i19.i.3, i32 %_4.i.i.i20.i.3)
  store i32 %39, ptr %37, align 4, !noalias !726
  %count.neg.i.i.3 = sext i1 %is_l.i.i.3 to i64
  %40 = getelementptr i32, ptr %35, i64 %count.neg.i.i.3
  %count3.neg.i.i.3 = sext i1 %_0.i21.i.3 to i64
  %41 = getelementptr i32, ptr %36, i64 %count3.neg.i.i.3
  %42 = getelementptr i8, ptr %41, i64 4
  %43 = getelementptr i8, ptr %40, i64 4
  %_31.i = icmp ne ptr %_14.i.i.3, %42
  %_32.i = icmp ne ptr %_12.i.i.3, %43
  %or.cond.i = select i1 %_31.i, i1 true, i1 %_32.i
  br i1 %or.cond.i, label %bb13.i, label %_ZN4core5slice4sort6shared9smallsort19bidirectional_merge17hb2c7fe19e617a0b1E.exit, !prof !824

bb13.i:                                           ; preds = %start
; call core::slice::sort::shared::smallsort::panic_on_ord_violation
  tail call void @_ZN4core5slice4sort6shared9smallsort22panic_on_ord_violation17hc77a22a2d50782cdE() #24, !noalias !677
  unreachable

_ZN4core5slice4sort6shared9smallsort19bidirectional_merge17hb2c7fe19e617a0b1E.exit: ; preds = %start
  ret void
}

; core::slice::sort::shared::smallsort::sort8_stable
; Function Attrs: nonlazybind uwtable
define void @_ZN4core5slice4sort6shared9smallsort12sort8_stable17hc711899e1305eaebE(ptr noundef readonly captures(none) %v_base, ptr noundef writeonly captures(none) initializes((0, 32)) %dst, ptr noundef captures(address) initializes((0, 32)) %scratch_base, ptr noalias readnone align 8 captures(none) %is_less) unnamed_addr #3 personality ptr @rust_eh_personality {
start:
  %_7.i = getelementptr inbounds nuw i8, ptr %v_base, i64 4
  tail call void @llvm.experimental.noalias.scope.decl(metadata !825)
  tail call void @llvm.experimental.noalias.scope.decl(metadata !828)
  tail call void @llvm.experimental.noalias.scope.decl(metadata !830)
  tail call void @llvm.experimental.noalias.scope.decl(metadata !833)
  tail call void @llvm.experimental.noalias.scope.decl(metadata !835)
  tail call void @llvm.experimental.noalias.scope.decl(metadata !838)
  tail call void @llvm.experimental.noalias.scope.decl(metadata !840)
  tail call void @llvm.experimental.noalias.scope.decl(metadata !843)
  %_3.i.i.i.i.i = load i32, ptr %_7.i, align 4, !alias.scope !845, !noalias !846, !noundef !37
  %_4.i.i.i.i.i = load i32, ptr %v_base, align 4, !alias.scope !846, !noalias !845, !noundef !37
  %_0.i.i = icmp slt i32 %_3.i.i.i.i.i, %_4.i.i.i.i.i
  %_12.i = getelementptr inbounds nuw i8, ptr %v_base, i64 12
  %_14.i = getelementptr inbounds nuw i8, ptr %v_base, i64 8
  tail call void @llvm.experimental.noalias.scope.decl(metadata !847)
  tail call void @llvm.experimental.noalias.scope.decl(metadata !850)
  tail call void @llvm.experimental.noalias.scope.decl(metadata !852)
  tail call void @llvm.experimental.noalias.scope.decl(metadata !855)
  tail call void @llvm.experimental.noalias.scope.decl(metadata !857)
  tail call void @llvm.experimental.noalias.scope.decl(metadata !860)
  tail call void @llvm.experimental.noalias.scope.decl(metadata !862)
  tail call void @llvm.experimental.noalias.scope.decl(metadata !865)
  %_3.i.i.i.i7.i = load i32, ptr %_12.i, align 4, !alias.scope !867, !noalias !868, !noundef !37
  %_4.i.i.i.i8.i = load i32, ptr %_14.i, align 4, !alias.scope !868, !noalias !867, !noundef !37
  %_0.i9.i = icmp slt i32 %_3.i.i.i.i7.i, %_4.i.i.i.i8.i
  %count.i = zext i1 %_0.i.i to i64
  %a.i = getelementptr inbounds nuw i32, ptr %v_base, i64 %count.i
  %_19.i = xor i1 %_0.i.i, true
  %count2.i = zext i1 %_19.i to i64
  %b.i = getelementptr inbounds nuw i32, ptr %v_base, i64 %count2.i
  %count3.i = select i1 %_0.i9.i, i64 3, i64 2
  %c.i = getelementptr inbounds nuw i32, ptr %v_base, i64 %count3.i
  %count4.i = select i1 %_0.i9.i, i64 2, i64 3
  %d.i = getelementptr inbounds nuw i32, ptr %v_base, i64 %count4.i
  tail call void @llvm.experimental.noalias.scope.decl(metadata !869)
  tail call void @llvm.experimental.noalias.scope.decl(metadata !872)
  tail call void @llvm.experimental.noalias.scope.decl(metadata !874)
  tail call void @llvm.experimental.noalias.scope.decl(metadata !877)
  tail call void @llvm.experimental.noalias.scope.decl(metadata !879)
  tail call void @llvm.experimental.noalias.scope.decl(metadata !882)
  tail call void @llvm.experimental.noalias.scope.decl(metadata !884)
  tail call void @llvm.experimental.noalias.scope.decl(metadata !887)
  %_3.i.i.i.i10.i = load i32, ptr %c.i, align 4, !alias.scope !889, !noalias !890, !noundef !37
  %_4.i.i.i.i11.i = load i32, ptr %a.i, align 4, !alias.scope !890, !noalias !889, !noundef !37
  %_0.i12.i = icmp slt i32 %_3.i.i.i.i10.i, %_4.i.i.i.i11.i
  tail call void @llvm.experimental.noalias.scope.decl(metadata !891)
  tail call void @llvm.experimental.noalias.scope.decl(metadata !894)
  tail call void @llvm.experimental.noalias.scope.decl(metadata !896)
  tail call void @llvm.experimental.noalias.scope.decl(metadata !899)
  tail call void @llvm.experimental.noalias.scope.decl(metadata !901)
  tail call void @llvm.experimental.noalias.scope.decl(metadata !904)
  tail call void @llvm.experimental.noalias.scope.decl(metadata !906)
  tail call void @llvm.experimental.noalias.scope.decl(metadata !909)
  %_3.i.i.i.i13.i = load i32, ptr %d.i, align 4, !alias.scope !911, !noalias !912, !noundef !37
  %_4.i.i.i.i14.i = load i32, ptr %b.i, align 4, !alias.scope !912, !noalias !911, !noundef !37
  %_0.i15.i = icmp slt i32 %_3.i.i.i.i13.i, %_4.i.i.i.i14.i
  %0 = select i1 %_0.i12.i, ptr %c.i, ptr %a.i, !unpredictable !37
  %1 = select i1 %_0.i15.i, ptr %c.i, ptr %b.i, !unpredictable !37
  %2 = select i1 %_0.i12.i, ptr %a.i, ptr %1, !unpredictable !37
  %3 = select i1 %_0.i12.i, ptr %b.i, ptr %c.i, !unpredictable !37
  %4 = select i1 %_0.i15.i, ptr %d.i, ptr %3, !unpredictable !37
  tail call void @llvm.experimental.noalias.scope.decl(metadata !913)
  tail call void @llvm.experimental.noalias.scope.decl(metadata !916)
  tail call void @llvm.experimental.noalias.scope.decl(metadata !918)
  tail call void @llvm.experimental.noalias.scope.decl(metadata !921)
  tail call void @llvm.experimental.noalias.scope.decl(metadata !923)
  tail call void @llvm.experimental.noalias.scope.decl(metadata !926)
  tail call void @llvm.experimental.noalias.scope.decl(metadata !928)
  tail call void @llvm.experimental.noalias.scope.decl(metadata !931)
  %_3.i.i.i.i16.i = load i32, ptr %4, align 4, !alias.scope !933, !noalias !934, !noundef !37
  %_4.i.i.i.i17.i = load i32, ptr %2, align 4, !alias.scope !934, !noalias !933, !noundef !37
  %_0.i18.i = icmp slt i32 %_3.i.i.i.i16.i, %_4.i.i.i.i17.i
  %5 = load i32, ptr %0, align 4
  store i32 %5, ptr %scratch_base, align 4
  %dst5.i = getelementptr inbounds nuw i8, ptr %scratch_base, i64 4
  %.val.i = load i32, ptr %4, align 4
  %.val19.i = load i32, ptr %2, align 4
  %6 = select i1 %_0.i18.i, i32 %.val.i, i32 %.val19.i
  store i32 %6, ptr %dst5.i, align 4
  %dst6.i = getelementptr inbounds nuw i8, ptr %scratch_base, i64 8
  %.val20.i = load i32, ptr %2, align 4
  %.val21.i = load i32, ptr %4, align 4
  %7 = select i1 %_0.i18.i, i32 %.val20.i, i32 %.val21.i
  store i32 %7, ptr %dst6.i, align 4
  %8 = getelementptr inbounds nuw i8, ptr %scratch_base, i64 12
  %b.val.i = load i32, ptr %b.i, align 4
  %d.val.i = load i32, ptr %d.i, align 4
  %9 = select i1 %_0.i15.i, i32 %b.val.i, i32 %d.val.i
  store i32 %9, ptr %8, align 4
  %_9 = getelementptr inbounds nuw i8, ptr %v_base, i64 16
  %_10 = getelementptr i8, ptr %scratch_base, i64 16
  %_7.i1 = getelementptr inbounds nuw i8, ptr %v_base, i64 20
  tail call void @llvm.experimental.noalias.scope.decl(metadata !935)
  tail call void @llvm.experimental.noalias.scope.decl(metadata !938)
  tail call void @llvm.experimental.noalias.scope.decl(metadata !940)
  tail call void @llvm.experimental.noalias.scope.decl(metadata !943)
  tail call void @llvm.experimental.noalias.scope.decl(metadata !945)
  tail call void @llvm.experimental.noalias.scope.decl(metadata !948)
  tail call void @llvm.experimental.noalias.scope.decl(metadata !950)
  tail call void @llvm.experimental.noalias.scope.decl(metadata !953)
  %_3.i.i.i.i.i2 = load i32, ptr %_7.i1, align 4, !alias.scope !955, !noalias !956, !noundef !37
  %_4.i.i.i.i.i3 = load i32, ptr %_9, align 4, !alias.scope !956, !noalias !955, !noundef !37
  %_0.i.i4 = icmp slt i32 %_3.i.i.i.i.i2, %_4.i.i.i.i.i3
  %_12.i5 = getelementptr inbounds nuw i8, ptr %v_base, i64 28
  %_14.i6 = getelementptr inbounds nuw i8, ptr %v_base, i64 24
  tail call void @llvm.experimental.noalias.scope.decl(metadata !957)
  tail call void @llvm.experimental.noalias.scope.decl(metadata !960)
  tail call void @llvm.experimental.noalias.scope.decl(metadata !962)
  tail call void @llvm.experimental.noalias.scope.decl(metadata !965)
  tail call void @llvm.experimental.noalias.scope.decl(metadata !967)
  tail call void @llvm.experimental.noalias.scope.decl(metadata !970)
  tail call void @llvm.experimental.noalias.scope.decl(metadata !972)
  tail call void @llvm.experimental.noalias.scope.decl(metadata !975)
  %_3.i.i.i.i7.i7 = load i32, ptr %_12.i5, align 4, !alias.scope !977, !noalias !978, !noundef !37
  %_4.i.i.i.i8.i8 = load i32, ptr %_14.i6, align 4, !alias.scope !978, !noalias !977, !noundef !37
  %_0.i9.i9 = icmp slt i32 %_3.i.i.i.i7.i7, %_4.i.i.i.i8.i8
  %count.i10 = zext i1 %_0.i.i4 to i64
  %a.i11 = getelementptr inbounds nuw i32, ptr %_9, i64 %count.i10
  %_19.i12 = xor i1 %_0.i.i4, true
  %count2.i13 = zext i1 %_19.i12 to i64
  %b.i14 = getelementptr inbounds nuw i32, ptr %_9, i64 %count2.i13
  %count3.i15 = select i1 %_0.i9.i9, i64 3, i64 2
  %c.i16 = getelementptr inbounds nuw i32, ptr %_9, i64 %count3.i15
  %count4.i17 = select i1 %_0.i9.i9, i64 2, i64 3
  %d.i18 = getelementptr inbounds nuw i32, ptr %_9, i64 %count4.i17
  tail call void @llvm.experimental.noalias.scope.decl(metadata !979)
  tail call void @llvm.experimental.noalias.scope.decl(metadata !982)
  tail call void @llvm.experimental.noalias.scope.decl(metadata !984)
  tail call void @llvm.experimental.noalias.scope.decl(metadata !987)
  tail call void @llvm.experimental.noalias.scope.decl(metadata !989)
  tail call void @llvm.experimental.noalias.scope.decl(metadata !992)
  tail call void @llvm.experimental.noalias.scope.decl(metadata !994)
  tail call void @llvm.experimental.noalias.scope.decl(metadata !997)
  %_3.i.i.i.i10.i19 = load i32, ptr %c.i16, align 4, !alias.scope !999, !noalias !1000, !noundef !37
  %_4.i.i.i.i11.i20 = load i32, ptr %a.i11, align 4, !alias.scope !1000, !noalias !999, !noundef !37
  %_0.i12.i21 = icmp slt i32 %_3.i.i.i.i10.i19, %_4.i.i.i.i11.i20
  tail call void @llvm.experimental.noalias.scope.decl(metadata !1001)
  tail call void @llvm.experimental.noalias.scope.decl(metadata !1004)
  tail call void @llvm.experimental.noalias.scope.decl(metadata !1006)
  tail call void @llvm.experimental.noalias.scope.decl(metadata !1009)
  tail call void @llvm.experimental.noalias.scope.decl(metadata !1011)
  tail call void @llvm.experimental.noalias.scope.decl(metadata !1014)
  tail call void @llvm.experimental.noalias.scope.decl(metadata !1016)
  tail call void @llvm.experimental.noalias.scope.decl(metadata !1019)
  %_3.i.i.i.i13.i22 = load i32, ptr %d.i18, align 4, !alias.scope !1021, !noalias !1022, !noundef !37
  %_4.i.i.i.i14.i23 = load i32, ptr %b.i14, align 4, !alias.scope !1022, !noalias !1021, !noundef !37
  %_0.i15.i24 = icmp slt i32 %_3.i.i.i.i13.i22, %_4.i.i.i.i14.i23
  %10 = select i1 %_0.i12.i21, ptr %c.i16, ptr %a.i11, !unpredictable !37
  %11 = select i1 %_0.i15.i24, ptr %c.i16, ptr %b.i14, !unpredictable !37
  %12 = select i1 %_0.i12.i21, ptr %a.i11, ptr %11, !unpredictable !37
  %13 = select i1 %_0.i12.i21, ptr %b.i14, ptr %c.i16, !unpredictable !37
  %14 = select i1 %_0.i15.i24, ptr %d.i18, ptr %13, !unpredictable !37
  tail call void @llvm.experimental.noalias.scope.decl(metadata !1023)
  tail call void @llvm.experimental.noalias.scope.decl(metadata !1026)
  tail call void @llvm.experimental.noalias.scope.decl(metadata !1028)
  tail call void @llvm.experimental.noalias.scope.decl(metadata !1031)
  tail call void @llvm.experimental.noalias.scope.decl(metadata !1033)
  tail call void @llvm.experimental.noalias.scope.decl(metadata !1036)
  tail call void @llvm.experimental.noalias.scope.decl(metadata !1038)
  tail call void @llvm.experimental.noalias.scope.decl(metadata !1041)
  %_3.i.i.i.i16.i25 = load i32, ptr %14, align 4, !alias.scope !1043, !noalias !1044, !noundef !37
  %_4.i.i.i.i17.i26 = load i32, ptr %12, align 4, !alias.scope !1044, !noalias !1043, !noundef !37
  %_0.i18.i27 = icmp slt i32 %_3.i.i.i.i16.i25, %_4.i.i.i.i17.i26
  %15 = load i32, ptr %10, align 4
  store i32 %15, ptr %_10, align 4
  %dst5.i28 = getelementptr i8, ptr %scratch_base, i64 20
  %.val.i29 = load i32, ptr %14, align 4
  %.val19.i30 = load i32, ptr %12, align 4
  %16 = select i1 %_0.i18.i27, i32 %.val.i29, i32 %.val19.i30
  store i32 %16, ptr %dst5.i28, align 4
  %dst6.i31 = getelementptr i8, ptr %scratch_base, i64 24
  %.val20.i32 = load i32, ptr %12, align 4
  %.val21.i33 = load i32, ptr %14, align 4
  %17 = select i1 %_0.i18.i27, i32 %.val20.i32, i32 %.val21.i33
  store i32 %17, ptr %dst6.i31, align 4
  %18 = getelementptr i8, ptr %scratch_base, i64 28
  %b.val.i34 = load i32, ptr %b.i14, align 4
  %d.val.i35 = load i32, ptr %d.i18, align 4
  %19 = select i1 %_0.i15.i24, i32 %b.val.i34, i32 %d.val.i35
  store i32 %19, ptr %18, align 4
  tail call void @llvm.experimental.noalias.scope.decl(metadata !1045)
  %20 = getelementptr i8, ptr %scratch_base, i64 12
  %21 = getelementptr inbounds nuw i8, ptr %scratch_base, i64 28
  %22 = getelementptr inbounds nuw i8, ptr %dst, i64 28
  tail call void @llvm.experimental.noalias.scope.decl(metadata !1048)
  tail call void @llvm.experimental.noalias.scope.decl(metadata !1051)
  tail call void @llvm.experimental.noalias.scope.decl(metadata !1053), !noalias !1056
  tail call void @llvm.experimental.noalias.scope.decl(metadata !1059), !noalias !1056
  tail call void @llvm.experimental.noalias.scope.decl(metadata !1061), !noalias !1056
  tail call void @llvm.experimental.noalias.scope.decl(metadata !1064), !noalias !1056
  tail call void @llvm.experimental.noalias.scope.decl(metadata !1066), !noalias !1056
  tail call void @llvm.experimental.noalias.scope.decl(metadata !1069), !noalias !1056
  %_3.i.i.i.i.i36 = load i32, ptr %_10, align 4, !alias.scope !1071, !noalias !1072, !noundef !37
  %_4.i.i.i.i.i37 = load i32, ptr %scratch_base, align 4, !alias.scope !1073, !noalias !1074, !noundef !37
  %_0.i.i38 = icmp slt i32 %_3.i.i.i.i.i36, %_4.i.i.i.i.i37
  %is_l.i18.i = xor i1 %_0.i.i38, true
  %23 = tail call i32 @llvm.smin.i32(i32 %_3.i.i.i.i.i36, i32 %_4.i.i.i.i.i37)
  store i32 %23, ptr %dst, align 4, !noalias !1075
  %count.i.i = zext i1 %_0.i.i38 to i64
  %_12.i.i = getelementptr inbounds nuw i32, ptr %_10, i64 %count.i.i
  %count2.i.i = zext i1 %is_l.i18.i to i64
  %_14.i.i = getelementptr inbounds nuw i32, ptr %scratch_base, i64 %count2.i.i
  %_16.i.i = getelementptr inbounds nuw i8, ptr %dst, i64 4
  tail call void @llvm.experimental.noalias.scope.decl(metadata !1077)
  tail call void @llvm.experimental.noalias.scope.decl(metadata !1080)
  tail call void @llvm.experimental.noalias.scope.decl(metadata !1082), !noalias !1085
  tail call void @llvm.experimental.noalias.scope.decl(metadata !1088), !noalias !1085
  tail call void @llvm.experimental.noalias.scope.decl(metadata !1090), !noalias !1085
  tail call void @llvm.experimental.noalias.scope.decl(metadata !1093), !noalias !1085
  tail call void @llvm.experimental.noalias.scope.decl(metadata !1095), !noalias !1085
  tail call void @llvm.experimental.noalias.scope.decl(metadata !1098), !noalias !1085
  %_3.i.i.i.i19.i = load i32, ptr %21, align 4, !alias.scope !1100, !noalias !1101, !noundef !37
  %_4.i.i.i.i20.i = load i32, ptr %20, align 4, !alias.scope !1102, !noalias !1103, !noundef !37
  %_0.i21.i = icmp slt i32 %_3.i.i.i.i19.i, %_4.i.i.i.i20.i
  %is_l.i.i = xor i1 %_0.i21.i, true
  %24 = tail call i32 @llvm.smax.i32(i32 %_3.i.i.i.i19.i, i32 %_4.i.i.i.i20.i)
  store i32 %24, ptr %22, align 4, !noalias !1104
  %count.neg.i.i = sext i1 %is_l.i.i to i64
  %25 = getelementptr i32, ptr %21, i64 %count.neg.i.i
  %count3.neg.i.i = sext i1 %_0.i21.i to i64
  %26 = getelementptr i32, ptr %20, i64 %count3.neg.i.i
  %27 = getelementptr inbounds nuw i8, ptr %dst, i64 24
  tail call void @llvm.experimental.noalias.scope.decl(metadata !1106)
  tail call void @llvm.experimental.noalias.scope.decl(metadata !1108)
  tail call void @llvm.experimental.noalias.scope.decl(metadata !1110), !noalias !1056
  tail call void @llvm.experimental.noalias.scope.decl(metadata !1112), !noalias !1056
  tail call void @llvm.experimental.noalias.scope.decl(metadata !1114), !noalias !1056
  tail call void @llvm.experimental.noalias.scope.decl(metadata !1116), !noalias !1056
  tail call void @llvm.experimental.noalias.scope.decl(metadata !1118), !noalias !1056
  tail call void @llvm.experimental.noalias.scope.decl(metadata !1120), !noalias !1056
  %_3.i.i.i.i.i36.1 = load i32, ptr %_12.i.i, align 4, !alias.scope !1122, !noalias !1123, !noundef !37
  %_4.i.i.i.i.i37.1 = load i32, ptr %_14.i.i, align 4, !alias.scope !1124, !noalias !1125, !noundef !37
  %_0.i.i38.1 = icmp slt i32 %_3.i.i.i.i.i36.1, %_4.i.i.i.i.i37.1
  %is_l.i18.i.1 = xor i1 %_0.i.i38.1, true
  %28 = tail call i32 @llvm.smin.i32(i32 %_3.i.i.i.i.i36.1, i32 %_4.i.i.i.i.i37.1)
  store i32 %28, ptr %_16.i.i, align 4, !noalias !1075
  %count.i.i.1 = zext i1 %_0.i.i38.1 to i64
  %_12.i.i.1 = getelementptr inbounds nuw i32, ptr %_12.i.i, i64 %count.i.i.1
  %count2.i.i.1 = zext i1 %is_l.i18.i.1 to i64
  %_14.i.i.1 = getelementptr inbounds nuw i32, ptr %_14.i.i, i64 %count2.i.i.1
  %_16.i.i.1 = getelementptr inbounds nuw i8, ptr %dst, i64 8
  tail call void @llvm.experimental.noalias.scope.decl(metadata !1126)
  tail call void @llvm.experimental.noalias.scope.decl(metadata !1128)
  tail call void @llvm.experimental.noalias.scope.decl(metadata !1130), !noalias !1085
  tail call void @llvm.experimental.noalias.scope.decl(metadata !1132), !noalias !1085
  tail call void @llvm.experimental.noalias.scope.decl(metadata !1134), !noalias !1085
  tail call void @llvm.experimental.noalias.scope.decl(metadata !1136), !noalias !1085
  tail call void @llvm.experimental.noalias.scope.decl(metadata !1138), !noalias !1085
  tail call void @llvm.experimental.noalias.scope.decl(metadata !1140), !noalias !1085
  %_3.i.i.i.i19.i.1 = load i32, ptr %25, align 4, !alias.scope !1142, !noalias !1143, !noundef !37
  %_4.i.i.i.i20.i.1 = load i32, ptr %26, align 4, !alias.scope !1144, !noalias !1145, !noundef !37
  %_0.i21.i.1 = icmp slt i32 %_3.i.i.i.i19.i.1, %_4.i.i.i.i20.i.1
  %is_l.i.i.1 = xor i1 %_0.i21.i.1, true
  %29 = tail call i32 @llvm.smax.i32(i32 %_3.i.i.i.i19.i.1, i32 %_4.i.i.i.i20.i.1)
  store i32 %29, ptr %27, align 4, !noalias !1104
  %count.neg.i.i.1 = sext i1 %is_l.i.i.1 to i64
  %30 = getelementptr i32, ptr %25, i64 %count.neg.i.i.1
  %count3.neg.i.i.1 = sext i1 %_0.i21.i.1 to i64
  %31 = getelementptr i32, ptr %26, i64 %count3.neg.i.i.1
  %32 = getelementptr inbounds nuw i8, ptr %dst, i64 20
  tail call void @llvm.experimental.noalias.scope.decl(metadata !1146)
  tail call void @llvm.experimental.noalias.scope.decl(metadata !1148)
  tail call void @llvm.experimental.noalias.scope.decl(metadata !1150), !noalias !1056
  tail call void @llvm.experimental.noalias.scope.decl(metadata !1152), !noalias !1056
  tail call void @llvm.experimental.noalias.scope.decl(metadata !1154), !noalias !1056
  tail call void @llvm.experimental.noalias.scope.decl(metadata !1156), !noalias !1056
  tail call void @llvm.experimental.noalias.scope.decl(metadata !1158), !noalias !1056
  tail call void @llvm.experimental.noalias.scope.decl(metadata !1160), !noalias !1056
  %_3.i.i.i.i.i36.2 = load i32, ptr %_12.i.i.1, align 4, !alias.scope !1162, !noalias !1163, !noundef !37
  %_4.i.i.i.i.i37.2 = load i32, ptr %_14.i.i.1, align 4, !alias.scope !1164, !noalias !1165, !noundef !37
  %_0.i.i38.2 = icmp slt i32 %_3.i.i.i.i.i36.2, %_4.i.i.i.i.i37.2
  %is_l.i18.i.2 = xor i1 %_0.i.i38.2, true
  %33 = tail call i32 @llvm.smin.i32(i32 %_3.i.i.i.i.i36.2, i32 %_4.i.i.i.i.i37.2)
  store i32 %33, ptr %_16.i.i.1, align 4, !noalias !1075
  %count.i.i.2 = zext i1 %_0.i.i38.2 to i64
  %_12.i.i.2 = getelementptr inbounds nuw i32, ptr %_12.i.i.1, i64 %count.i.i.2
  %count2.i.i.2 = zext i1 %is_l.i18.i.2 to i64
  %_14.i.i.2 = getelementptr inbounds nuw i32, ptr %_14.i.i.1, i64 %count2.i.i.2
  %_16.i.i.2 = getelementptr inbounds nuw i8, ptr %dst, i64 12
  tail call void @llvm.experimental.noalias.scope.decl(metadata !1166)
  tail call void @llvm.experimental.noalias.scope.decl(metadata !1168)
  tail call void @llvm.experimental.noalias.scope.decl(metadata !1170), !noalias !1085
  tail call void @llvm.experimental.noalias.scope.decl(metadata !1172), !noalias !1085
  tail call void @llvm.experimental.noalias.scope.decl(metadata !1174), !noalias !1085
  tail call void @llvm.experimental.noalias.scope.decl(metadata !1176), !noalias !1085
  tail call void @llvm.experimental.noalias.scope.decl(metadata !1178), !noalias !1085
  tail call void @llvm.experimental.noalias.scope.decl(metadata !1180), !noalias !1085
  %_3.i.i.i.i19.i.2 = load i32, ptr %30, align 4, !alias.scope !1182, !noalias !1183, !noundef !37
  %_4.i.i.i.i20.i.2 = load i32, ptr %31, align 4, !alias.scope !1184, !noalias !1185, !noundef !37
  %_0.i21.i.2 = icmp slt i32 %_3.i.i.i.i19.i.2, %_4.i.i.i.i20.i.2
  %is_l.i.i.2 = xor i1 %_0.i21.i.2, true
  %34 = tail call i32 @llvm.smax.i32(i32 %_3.i.i.i.i19.i.2, i32 %_4.i.i.i.i20.i.2)
  store i32 %34, ptr %32, align 4, !noalias !1104
  %count.neg.i.i.2 = sext i1 %is_l.i.i.2 to i64
  %35 = getelementptr i32, ptr %30, i64 %count.neg.i.i.2
  %count3.neg.i.i.2 = sext i1 %_0.i21.i.2 to i64
  %36 = getelementptr i32, ptr %31, i64 %count3.neg.i.i.2
  %37 = getelementptr inbounds nuw i8, ptr %dst, i64 16
  tail call void @llvm.experimental.noalias.scope.decl(metadata !1186)
  tail call void @llvm.experimental.noalias.scope.decl(metadata !1188)
  tail call void @llvm.experimental.noalias.scope.decl(metadata !1190), !noalias !1056
  tail call void @llvm.experimental.noalias.scope.decl(metadata !1192), !noalias !1056
  tail call void @llvm.experimental.noalias.scope.decl(metadata !1194), !noalias !1056
  tail call void @llvm.experimental.noalias.scope.decl(metadata !1196), !noalias !1056
  tail call void @llvm.experimental.noalias.scope.decl(metadata !1198), !noalias !1056
  tail call void @llvm.experimental.noalias.scope.decl(metadata !1200), !noalias !1056
  %_3.i.i.i.i.i36.3 = load i32, ptr %_12.i.i.2, align 4, !alias.scope !1202, !noalias !1203, !noundef !37
  %_4.i.i.i.i.i37.3 = load i32, ptr %_14.i.i.2, align 4, !alias.scope !1204, !noalias !1205, !noundef !37
  %_0.i.i38.3 = icmp slt i32 %_3.i.i.i.i.i36.3, %_4.i.i.i.i.i37.3
  %is_l.i18.i.3 = xor i1 %_0.i.i38.3, true
  %38 = tail call i32 @llvm.smin.i32(i32 %_3.i.i.i.i.i36.3, i32 %_4.i.i.i.i.i37.3)
  store i32 %38, ptr %_16.i.i.2, align 4, !noalias !1075
  %count.i.i.3 = zext i1 %_0.i.i38.3 to i64
  %_12.i.i.3 = getelementptr inbounds nuw i32, ptr %_12.i.i.2, i64 %count.i.i.3
  %count2.i.i.3 = zext i1 %is_l.i18.i.3 to i64
  %_14.i.i.3 = getelementptr inbounds nuw i32, ptr %_14.i.i.2, i64 %count2.i.i.3
  tail call void @llvm.experimental.noalias.scope.decl(metadata !1206)
  tail call void @llvm.experimental.noalias.scope.decl(metadata !1208)
  tail call void @llvm.experimental.noalias.scope.decl(metadata !1210), !noalias !1085
  tail call void @llvm.experimental.noalias.scope.decl(metadata !1212), !noalias !1085
  tail call void @llvm.experimental.noalias.scope.decl(metadata !1214), !noalias !1085
  tail call void @llvm.experimental.noalias.scope.decl(metadata !1216), !noalias !1085
  tail call void @llvm.experimental.noalias.scope.decl(metadata !1218), !noalias !1085
  tail call void @llvm.experimental.noalias.scope.decl(metadata !1220), !noalias !1085
  %_3.i.i.i.i19.i.3 = load i32, ptr %35, align 4, !alias.scope !1222, !noalias !1223, !noundef !37
  %_4.i.i.i.i20.i.3 = load i32, ptr %36, align 4, !alias.scope !1224, !noalias !1225, !noundef !37
  %_0.i21.i.3 = icmp slt i32 %_3.i.i.i.i19.i.3, %_4.i.i.i.i20.i.3
  %is_l.i.i.3 = xor i1 %_0.i21.i.3, true
  %39 = tail call i32 @llvm.smax.i32(i32 %_3.i.i.i.i19.i.3, i32 %_4.i.i.i.i20.i.3)
  store i32 %39, ptr %37, align 4, !noalias !1104
  %count.neg.i.i.3 = sext i1 %is_l.i.i.3 to i64
  %40 = getelementptr i32, ptr %35, i64 %count.neg.i.i.3
  %count3.neg.i.i.3 = sext i1 %_0.i21.i.3 to i64
  %41 = getelementptr i32, ptr %36, i64 %count3.neg.i.i.3
  %42 = getelementptr i8, ptr %41, i64 4
  %43 = getelementptr i8, ptr %40, i64 4
  %_31.i = icmp ne ptr %_14.i.i.3, %42
  %_32.i = icmp ne ptr %_12.i.i.3, %43
  %or.cond.i = select i1 %_31.i, i1 true, i1 %_32.i
  br i1 %or.cond.i, label %bb13.i, label %_ZN4core5slice4sort6shared9smallsort19bidirectional_merge17h20d44b09344b27b9E.exit, !prof !824

bb13.i:                                           ; preds = %start
; call core::slice::sort::shared::smallsort::panic_on_ord_violation
  tail call void @_ZN4core5slice4sort6shared9smallsort22panic_on_ord_violation17hc77a22a2d50782cdE() #24, !noalias !1045
  unreachable

_ZN4core5slice4sort6shared9smallsort19bidirectional_merge17h20d44b09344b27b9E.exit: ; preds = %start
  ret void
}

; core::slice::sort::shared::smallsort::sort8_stable
; Function Attrs: nonlazybind uwtable
define void @_ZN4core5slice4sort6shared9smallsort12sort8_stable17hee251623565a0eb1E(ptr noundef readonly captures(none) %v_base, ptr noundef writeonly captures(none) initializes((0, 32)) %dst, ptr noundef captures(address) initializes((0, 32)) %scratch_base, ptr noalias readnone align 8 captures(none) %is_less) unnamed_addr #3 personality ptr @rust_eh_personality {
start:
  %_7.i = getelementptr inbounds nuw i8, ptr %v_base, i64 4
  tail call void @llvm.experimental.noalias.scope.decl(metadata !1226)
  tail call void @llvm.experimental.noalias.scope.decl(metadata !1229)
  tail call void @llvm.experimental.noalias.scope.decl(metadata !1231)
  tail call void @llvm.experimental.noalias.scope.decl(metadata !1234)
  tail call void @llvm.experimental.noalias.scope.decl(metadata !1236)
  tail call void @llvm.experimental.noalias.scope.decl(metadata !1239)
  %_3.i.i.i.i = load i32, ptr %_7.i, align 4, !alias.scope !1241, !noalias !1242, !noundef !37
  %_4.i.i.i.i = load i32, ptr %v_base, align 4, !alias.scope !1242, !noalias !1241, !noundef !37
  %_0.i.i = icmp slt i32 %_3.i.i.i.i, %_4.i.i.i.i
  %_12.i = getelementptr inbounds nuw i8, ptr %v_base, i64 12
  %_14.i = getelementptr inbounds nuw i8, ptr %v_base, i64 8
  tail call void @llvm.experimental.noalias.scope.decl(metadata !1243)
  tail call void @llvm.experimental.noalias.scope.decl(metadata !1246)
  tail call void @llvm.experimental.noalias.scope.decl(metadata !1248)
  tail call void @llvm.experimental.noalias.scope.decl(metadata !1251)
  tail call void @llvm.experimental.noalias.scope.decl(metadata !1253)
  tail call void @llvm.experimental.noalias.scope.decl(metadata !1256)
  %_3.i.i.i7.i = load i32, ptr %_12.i, align 4, !alias.scope !1258, !noalias !1259, !noundef !37
  %_4.i.i.i8.i = load i32, ptr %_14.i, align 4, !alias.scope !1259, !noalias !1258, !noundef !37
  %_0.i9.i = icmp slt i32 %_3.i.i.i7.i, %_4.i.i.i8.i
  %count.i = zext i1 %_0.i.i to i64
  %a.i = getelementptr inbounds nuw i32, ptr %v_base, i64 %count.i
  %_19.i = xor i1 %_0.i.i, true
  %count2.i = zext i1 %_19.i to i64
  %b.i = getelementptr inbounds nuw i32, ptr %v_base, i64 %count2.i
  %count3.i = select i1 %_0.i9.i, i64 3, i64 2
  %c.i = getelementptr inbounds nuw i32, ptr %v_base, i64 %count3.i
  %count4.i = select i1 %_0.i9.i, i64 2, i64 3
  %d.i = getelementptr inbounds nuw i32, ptr %v_base, i64 %count4.i
  tail call void @llvm.experimental.noalias.scope.decl(metadata !1260)
  tail call void @llvm.experimental.noalias.scope.decl(metadata !1263)
  tail call void @llvm.experimental.noalias.scope.decl(metadata !1265)
  tail call void @llvm.experimental.noalias.scope.decl(metadata !1268)
  tail call void @llvm.experimental.noalias.scope.decl(metadata !1270)
  tail call void @llvm.experimental.noalias.scope.decl(metadata !1273)
  %_3.i.i.i10.i = load i32, ptr %c.i, align 4, !alias.scope !1275, !noalias !1276, !noundef !37
  %_4.i.i.i11.i = load i32, ptr %a.i, align 4, !alias.scope !1276, !noalias !1275, !noundef !37
  %_0.i12.i = icmp slt i32 %_3.i.i.i10.i, %_4.i.i.i11.i
  tail call void @llvm.experimental.noalias.scope.decl(metadata !1277)
  tail call void @llvm.experimental.noalias.scope.decl(metadata !1280)
  tail call void @llvm.experimental.noalias.scope.decl(metadata !1282)
  tail call void @llvm.experimental.noalias.scope.decl(metadata !1285)
  tail call void @llvm.experimental.noalias.scope.decl(metadata !1287)
  tail call void @llvm.experimental.noalias.scope.decl(metadata !1290)
  %_3.i.i.i13.i = load i32, ptr %d.i, align 4, !alias.scope !1292, !noalias !1293, !noundef !37
  %_4.i.i.i14.i = load i32, ptr %b.i, align 4, !alias.scope !1293, !noalias !1292, !noundef !37
  %_0.i15.i = icmp slt i32 %_3.i.i.i13.i, %_4.i.i.i14.i
  %0 = select i1 %_0.i12.i, ptr %c.i, ptr %a.i, !unpredictable !37
  %1 = select i1 %_0.i15.i, ptr %c.i, ptr %b.i, !unpredictable !37
  %2 = select i1 %_0.i12.i, ptr %a.i, ptr %1, !unpredictable !37
  %3 = select i1 %_0.i12.i, ptr %b.i, ptr %c.i, !unpredictable !37
  %4 = select i1 %_0.i15.i, ptr %d.i, ptr %3, !unpredictable !37
  tail call void @llvm.experimental.noalias.scope.decl(metadata !1294)
  tail call void @llvm.experimental.noalias.scope.decl(metadata !1297)
  tail call void @llvm.experimental.noalias.scope.decl(metadata !1299)
  tail call void @llvm.experimental.noalias.scope.decl(metadata !1302)
  tail call void @llvm.experimental.noalias.scope.decl(metadata !1304)
  tail call void @llvm.experimental.noalias.scope.decl(metadata !1307)
  %_3.i.i.i16.i = load i32, ptr %4, align 4, !alias.scope !1309, !noalias !1310, !noundef !37
  %_4.i.i.i17.i = load i32, ptr %2, align 4, !alias.scope !1310, !noalias !1309, !noundef !37
  %_0.i18.i = icmp slt i32 %_3.i.i.i16.i, %_4.i.i.i17.i
  %5 = load i32, ptr %0, align 4
  store i32 %5, ptr %scratch_base, align 4
  %dst5.i = getelementptr inbounds nuw i8, ptr %scratch_base, i64 4
  %.val.i = load i32, ptr %4, align 4
  %.val19.i = load i32, ptr %2, align 4
  %6 = select i1 %_0.i18.i, i32 %.val.i, i32 %.val19.i
  store i32 %6, ptr %dst5.i, align 4
  %dst6.i = getelementptr inbounds nuw i8, ptr %scratch_base, i64 8
  %.val20.i = load i32, ptr %2, align 4
  %.val21.i = load i32, ptr %4, align 4
  %7 = select i1 %_0.i18.i, i32 %.val20.i, i32 %.val21.i
  store i32 %7, ptr %dst6.i, align 4
  %8 = getelementptr inbounds nuw i8, ptr %scratch_base, i64 12
  %b.val.i = load i32, ptr %b.i, align 4
  %d.val.i = load i32, ptr %d.i, align 4
  %9 = select i1 %_0.i15.i, i32 %b.val.i, i32 %d.val.i
  store i32 %9, ptr %8, align 4
  %_9 = getelementptr inbounds nuw i8, ptr %v_base, i64 16
  %_10 = getelementptr i8, ptr %scratch_base, i64 16
  %_7.i1 = getelementptr inbounds nuw i8, ptr %v_base, i64 20
  tail call void @llvm.experimental.noalias.scope.decl(metadata !1311)
  tail call void @llvm.experimental.noalias.scope.decl(metadata !1314)
  tail call void @llvm.experimental.noalias.scope.decl(metadata !1316)
  tail call void @llvm.experimental.noalias.scope.decl(metadata !1319)
  tail call void @llvm.experimental.noalias.scope.decl(metadata !1321)
  tail call void @llvm.experimental.noalias.scope.decl(metadata !1324)
  %_3.i.i.i.i2 = load i32, ptr %_7.i1, align 4, !alias.scope !1326, !noalias !1327, !noundef !37
  %_4.i.i.i.i3 = load i32, ptr %_9, align 4, !alias.scope !1327, !noalias !1326, !noundef !37
  %_0.i.i4 = icmp slt i32 %_3.i.i.i.i2, %_4.i.i.i.i3
  %_12.i5 = getelementptr inbounds nuw i8, ptr %v_base, i64 28
  %_14.i6 = getelementptr inbounds nuw i8, ptr %v_base, i64 24
  tail call void @llvm.experimental.noalias.scope.decl(metadata !1328)
  tail call void @llvm.experimental.noalias.scope.decl(metadata !1331)
  tail call void @llvm.experimental.noalias.scope.decl(metadata !1333)
  tail call void @llvm.experimental.noalias.scope.decl(metadata !1336)
  tail call void @llvm.experimental.noalias.scope.decl(metadata !1338)
  tail call void @llvm.experimental.noalias.scope.decl(metadata !1341)
  %_3.i.i.i7.i7 = load i32, ptr %_12.i5, align 4, !alias.scope !1343, !noalias !1344, !noundef !37
  %_4.i.i.i8.i8 = load i32, ptr %_14.i6, align 4, !alias.scope !1344, !noalias !1343, !noundef !37
  %_0.i9.i9 = icmp slt i32 %_3.i.i.i7.i7, %_4.i.i.i8.i8
  %count.i10 = zext i1 %_0.i.i4 to i64
  %a.i11 = getelementptr inbounds nuw i32, ptr %_9, i64 %count.i10
  %_19.i12 = xor i1 %_0.i.i4, true
  %count2.i13 = zext i1 %_19.i12 to i64
  %b.i14 = getelementptr inbounds nuw i32, ptr %_9, i64 %count2.i13
  %count3.i15 = select i1 %_0.i9.i9, i64 3, i64 2
  %c.i16 = getelementptr inbounds nuw i32, ptr %_9, i64 %count3.i15
  %count4.i17 = select i1 %_0.i9.i9, i64 2, i64 3
  %d.i18 = getelementptr inbounds nuw i32, ptr %_9, i64 %count4.i17
  tail call void @llvm.experimental.noalias.scope.decl(metadata !1345)
  tail call void @llvm.experimental.noalias.scope.decl(metadata !1348)
  tail call void @llvm.experimental.noalias.scope.decl(metadata !1350)
  tail call void @llvm.experimental.noalias.scope.decl(metadata !1353)
  tail call void @llvm.experimental.noalias.scope.decl(metadata !1355)
  tail call void @llvm.experimental.noalias.scope.decl(metadata !1358)
  %_3.i.i.i10.i19 = load i32, ptr %c.i16, align 4, !alias.scope !1360, !noalias !1361, !noundef !37
  %_4.i.i.i11.i20 = load i32, ptr %a.i11, align 4, !alias.scope !1361, !noalias !1360, !noundef !37
  %_0.i12.i21 = icmp slt i32 %_3.i.i.i10.i19, %_4.i.i.i11.i20
  tail call void @llvm.experimental.noalias.scope.decl(metadata !1362)
  tail call void @llvm.experimental.noalias.scope.decl(metadata !1365)
  tail call void @llvm.experimental.noalias.scope.decl(metadata !1367)
  tail call void @llvm.experimental.noalias.scope.decl(metadata !1370)
  tail call void @llvm.experimental.noalias.scope.decl(metadata !1372)
  tail call void @llvm.experimental.noalias.scope.decl(metadata !1375)
  %_3.i.i.i13.i22 = load i32, ptr %d.i18, align 4, !alias.scope !1377, !noalias !1378, !noundef !37
  %_4.i.i.i14.i23 = load i32, ptr %b.i14, align 4, !alias.scope !1378, !noalias !1377, !noundef !37
  %_0.i15.i24 = icmp slt i32 %_3.i.i.i13.i22, %_4.i.i.i14.i23
  %10 = select i1 %_0.i12.i21, ptr %c.i16, ptr %a.i11, !unpredictable !37
  %11 = select i1 %_0.i15.i24, ptr %c.i16, ptr %b.i14, !unpredictable !37
  %12 = select i1 %_0.i12.i21, ptr %a.i11, ptr %11, !unpredictable !37
  %13 = select i1 %_0.i12.i21, ptr %b.i14, ptr %c.i16, !unpredictable !37
  %14 = select i1 %_0.i15.i24, ptr %d.i18, ptr %13, !unpredictable !37
  tail call void @llvm.experimental.noalias.scope.decl(metadata !1379)
  tail call void @llvm.experimental.noalias.scope.decl(metadata !1382)
  tail call void @llvm.experimental.noalias.scope.decl(metadata !1384)
  tail call void @llvm.experimental.noalias.scope.decl(metadata !1387)
  tail call void @llvm.experimental.noalias.scope.decl(metadata !1389)
  tail call void @llvm.experimental.noalias.scope.decl(metadata !1392)
  %_3.i.i.i16.i25 = load i32, ptr %14, align 4, !alias.scope !1394, !noalias !1395, !noundef !37
  %_4.i.i.i17.i26 = load i32, ptr %12, align 4, !alias.scope !1395, !noalias !1394, !noundef !37
  %_0.i18.i27 = icmp slt i32 %_3.i.i.i16.i25, %_4.i.i.i17.i26
  %15 = load i32, ptr %10, align 4
  store i32 %15, ptr %_10, align 4
  %dst5.i28 = getelementptr i8, ptr %scratch_base, i64 20
  %.val.i29 = load i32, ptr %14, align 4
  %.val19.i30 = load i32, ptr %12, align 4
  %16 = select i1 %_0.i18.i27, i32 %.val.i29, i32 %.val19.i30
  store i32 %16, ptr %dst5.i28, align 4
  %dst6.i31 = getelementptr i8, ptr %scratch_base, i64 24
  %.val20.i32 = load i32, ptr %12, align 4
  %.val21.i33 = load i32, ptr %14, align 4
  %17 = select i1 %_0.i18.i27, i32 %.val20.i32, i32 %.val21.i33
  store i32 %17, ptr %dst6.i31, align 4
  %18 = getelementptr i8, ptr %scratch_base, i64 28
  %b.val.i34 = load i32, ptr %b.i14, align 4
  %d.val.i35 = load i32, ptr %d.i18, align 4
  %19 = select i1 %_0.i15.i24, i32 %b.val.i34, i32 %d.val.i35
  store i32 %19, ptr %18, align 4
  tail call void @llvm.experimental.noalias.scope.decl(metadata !1396)
  %20 = getelementptr i8, ptr %scratch_base, i64 12
  %21 = getelementptr inbounds nuw i8, ptr %scratch_base, i64 28
  %22 = getelementptr inbounds nuw i8, ptr %dst, i64 28
  tail call void @llvm.experimental.noalias.scope.decl(metadata !1399)
  tail call void @llvm.experimental.noalias.scope.decl(metadata !1402)
  tail call void @llvm.experimental.noalias.scope.decl(metadata !1404), !noalias !1407
  tail call void @llvm.experimental.noalias.scope.decl(metadata !1410), !noalias !1407
  tail call void @llvm.experimental.noalias.scope.decl(metadata !1412), !noalias !1407
  tail call void @llvm.experimental.noalias.scope.decl(metadata !1415), !noalias !1407
  %_3.i.i.i.i36 = load i32, ptr %_10, align 4, !alias.scope !1417, !noalias !1418, !noundef !37
  %_4.i.i.i.i37 = load i32, ptr %scratch_base, align 4, !alias.scope !1419, !noalias !1420, !noundef !37
  %_0.i.i38 = icmp slt i32 %_3.i.i.i.i36, %_4.i.i.i.i37
  %is_l.i18.i = xor i1 %_0.i.i38, true
  %23 = tail call i32 @llvm.smin.i32(i32 %_3.i.i.i.i36, i32 %_4.i.i.i.i37)
  store i32 %23, ptr %dst, align 4, !noalias !1421
  %count.i.i = zext i1 %_0.i.i38 to i64
  %_12.i.i = getelementptr inbounds nuw i32, ptr %_10, i64 %count.i.i
  %count2.i.i = zext i1 %is_l.i18.i to i64
  %_14.i.i = getelementptr inbounds nuw i32, ptr %scratch_base, i64 %count2.i.i
  %_16.i.i = getelementptr inbounds nuw i8, ptr %dst, i64 4
  tail call void @llvm.experimental.noalias.scope.decl(metadata !1423)
  tail call void @llvm.experimental.noalias.scope.decl(metadata !1426)
  tail call void @llvm.experimental.noalias.scope.decl(metadata !1428), !noalias !1431
  tail call void @llvm.experimental.noalias.scope.decl(metadata !1434), !noalias !1431
  tail call void @llvm.experimental.noalias.scope.decl(metadata !1436), !noalias !1431
  tail call void @llvm.experimental.noalias.scope.decl(metadata !1439), !noalias !1431
  %_3.i.i.i19.i = load i32, ptr %21, align 4, !alias.scope !1441, !noalias !1442, !noundef !37
  %_4.i.i.i20.i = load i32, ptr %20, align 4, !alias.scope !1443, !noalias !1444, !noundef !37
  %_0.i21.i = icmp slt i32 %_3.i.i.i19.i, %_4.i.i.i20.i
  %is_l.i.i = xor i1 %_0.i21.i, true
  %24 = tail call i32 @llvm.smax.i32(i32 %_3.i.i.i19.i, i32 %_4.i.i.i20.i)
  store i32 %24, ptr %22, align 4, !noalias !1445
  %count.neg.i.i = sext i1 %is_l.i.i to i64
  %25 = getelementptr i32, ptr %21, i64 %count.neg.i.i
  %count3.neg.i.i = sext i1 %_0.i21.i to i64
  %26 = getelementptr i32, ptr %20, i64 %count3.neg.i.i
  %27 = getelementptr inbounds nuw i8, ptr %dst, i64 24
  tail call void @llvm.experimental.noalias.scope.decl(metadata !1447)
  tail call void @llvm.experimental.noalias.scope.decl(metadata !1449)
  tail call void @llvm.experimental.noalias.scope.decl(metadata !1451), !noalias !1407
  tail call void @llvm.experimental.noalias.scope.decl(metadata !1453), !noalias !1407
  tail call void @llvm.experimental.noalias.scope.decl(metadata !1455), !noalias !1407
  tail call void @llvm.experimental.noalias.scope.decl(metadata !1457), !noalias !1407
  %_3.i.i.i.i36.1 = load i32, ptr %_12.i.i, align 4, !alias.scope !1459, !noalias !1460, !noundef !37
  %_4.i.i.i.i37.1 = load i32, ptr %_14.i.i, align 4, !alias.scope !1461, !noalias !1462, !noundef !37
  %_0.i.i38.1 = icmp slt i32 %_3.i.i.i.i36.1, %_4.i.i.i.i37.1
  %is_l.i18.i.1 = xor i1 %_0.i.i38.1, true
  %28 = tail call i32 @llvm.smin.i32(i32 %_3.i.i.i.i36.1, i32 %_4.i.i.i.i37.1)
  store i32 %28, ptr %_16.i.i, align 4, !noalias !1421
  %count.i.i.1 = zext i1 %_0.i.i38.1 to i64
  %_12.i.i.1 = getelementptr inbounds nuw i32, ptr %_12.i.i, i64 %count.i.i.1
  %count2.i.i.1 = zext i1 %is_l.i18.i.1 to i64
  %_14.i.i.1 = getelementptr inbounds nuw i32, ptr %_14.i.i, i64 %count2.i.i.1
  %_16.i.i.1 = getelementptr inbounds nuw i8, ptr %dst, i64 8
  tail call void @llvm.experimental.noalias.scope.decl(metadata !1463)
  tail call void @llvm.experimental.noalias.scope.decl(metadata !1465)
  tail call void @llvm.experimental.noalias.scope.decl(metadata !1467), !noalias !1431
  tail call void @llvm.experimental.noalias.scope.decl(metadata !1469), !noalias !1431
  tail call void @llvm.experimental.noalias.scope.decl(metadata !1471), !noalias !1431
  tail call void @llvm.experimental.noalias.scope.decl(metadata !1473), !noalias !1431
  %_3.i.i.i19.i.1 = load i32, ptr %25, align 4, !alias.scope !1475, !noalias !1476, !noundef !37
  %_4.i.i.i20.i.1 = load i32, ptr %26, align 4, !alias.scope !1477, !noalias !1478, !noundef !37
  %_0.i21.i.1 = icmp slt i32 %_3.i.i.i19.i.1, %_4.i.i.i20.i.1
  %is_l.i.i.1 = xor i1 %_0.i21.i.1, true
  %29 = tail call i32 @llvm.smax.i32(i32 %_3.i.i.i19.i.1, i32 %_4.i.i.i20.i.1)
  store i32 %29, ptr %27, align 4, !noalias !1445
  %count.neg.i.i.1 = sext i1 %is_l.i.i.1 to i64
  %30 = getelementptr i32, ptr %25, i64 %count.neg.i.i.1
  %count3.neg.i.i.1 = sext i1 %_0.i21.i.1 to i64
  %31 = getelementptr i32, ptr %26, i64 %count3.neg.i.i.1
  %32 = getelementptr inbounds nuw i8, ptr %dst, i64 20
  tail call void @llvm.experimental.noalias.scope.decl(metadata !1479)
  tail call void @llvm.experimental.noalias.scope.decl(metadata !1481)
  tail call void @llvm.experimental.noalias.scope.decl(metadata !1483), !noalias !1407
  tail call void @llvm.experimental.noalias.scope.decl(metadata !1485), !noalias !1407
  tail call void @llvm.experimental.noalias.scope.decl(metadata !1487), !noalias !1407
  tail call void @llvm.experimental.noalias.scope.decl(metadata !1489), !noalias !1407
  %_3.i.i.i.i36.2 = load i32, ptr %_12.i.i.1, align 4, !alias.scope !1491, !noalias !1492, !noundef !37
  %_4.i.i.i.i37.2 = load i32, ptr %_14.i.i.1, align 4, !alias.scope !1493, !noalias !1494, !noundef !37
  %_0.i.i38.2 = icmp slt i32 %_3.i.i.i.i36.2, %_4.i.i.i.i37.2
  %is_l.i18.i.2 = xor i1 %_0.i.i38.2, true
  %33 = tail call i32 @llvm.smin.i32(i32 %_3.i.i.i.i36.2, i32 %_4.i.i.i.i37.2)
  store i32 %33, ptr %_16.i.i.1, align 4, !noalias !1421
  %count.i.i.2 = zext i1 %_0.i.i38.2 to i64
  %_12.i.i.2 = getelementptr inbounds nuw i32, ptr %_12.i.i.1, i64 %count.i.i.2
  %count2.i.i.2 = zext i1 %is_l.i18.i.2 to i64
  %_14.i.i.2 = getelementptr inbounds nuw i32, ptr %_14.i.i.1, i64 %count2.i.i.2
  %_16.i.i.2 = getelementptr inbounds nuw i8, ptr %dst, i64 12
  tail call void @llvm.experimental.noalias.scope.decl(metadata !1495)
  tail call void @llvm.experimental.noalias.scope.decl(metadata !1497)
  tail call void @llvm.experimental.noalias.scope.decl(metadata !1499), !noalias !1431
  tail call void @llvm.experimental.noalias.scope.decl(metadata !1501), !noalias !1431
  tail call void @llvm.experimental.noalias.scope.decl(metadata !1503), !noalias !1431
  tail call void @llvm.experimental.noalias.scope.decl(metadata !1505), !noalias !1431
  %_3.i.i.i19.i.2 = load i32, ptr %30, align 4, !alias.scope !1507, !noalias !1508, !noundef !37
  %_4.i.i.i20.i.2 = load i32, ptr %31, align 4, !alias.scope !1509, !noalias !1510, !noundef !37
  %_0.i21.i.2 = icmp slt i32 %_3.i.i.i19.i.2, %_4.i.i.i20.i.2
  %is_l.i.i.2 = xor i1 %_0.i21.i.2, true
  %34 = tail call i32 @llvm.smax.i32(i32 %_3.i.i.i19.i.2, i32 %_4.i.i.i20.i.2)
  store i32 %34, ptr %32, align 4, !noalias !1445
  %count.neg.i.i.2 = sext i1 %is_l.i.i.2 to i64
  %35 = getelementptr i32, ptr %30, i64 %count.neg.i.i.2
  %count3.neg.i.i.2 = sext i1 %_0.i21.i.2 to i64
  %36 = getelementptr i32, ptr %31, i64 %count3.neg.i.i.2
  %37 = getelementptr inbounds nuw i8, ptr %dst, i64 16
  tail call void @llvm.experimental.noalias.scope.decl(metadata !1511)
  tail call void @llvm.experimental.noalias.scope.decl(metadata !1513)
  tail call void @llvm.experimental.noalias.scope.decl(metadata !1515), !noalias !1407
  tail call void @llvm.experimental.noalias.scope.decl(metadata !1517), !noalias !1407
  tail call void @llvm.experimental.noalias.scope.decl(metadata !1519), !noalias !1407
  tail call void @llvm.experimental.noalias.scope.decl(metadata !1521), !noalias !1407
  %_3.i.i.i.i36.3 = load i32, ptr %_12.i.i.2, align 4, !alias.scope !1523, !noalias !1524, !noundef !37
  %_4.i.i.i.i37.3 = load i32, ptr %_14.i.i.2, align 4, !alias.scope !1525, !noalias !1526, !noundef !37
  %_0.i.i38.3 = icmp slt i32 %_3.i.i.i.i36.3, %_4.i.i.i.i37.3
  %is_l.i18.i.3 = xor i1 %_0.i.i38.3, true
  %38 = tail call i32 @llvm.smin.i32(i32 %_3.i.i.i.i36.3, i32 %_4.i.i.i.i37.3)
  store i32 %38, ptr %_16.i.i.2, align 4, !noalias !1421
  %count.i.i.3 = zext i1 %_0.i.i38.3 to i64
  %_12.i.i.3 = getelementptr inbounds nuw i32, ptr %_12.i.i.2, i64 %count.i.i.3
  %count2.i.i.3 = zext i1 %is_l.i18.i.3 to i64
  %_14.i.i.3 = getelementptr inbounds nuw i32, ptr %_14.i.i.2, i64 %count2.i.i.3
  tail call void @llvm.experimental.noalias.scope.decl(metadata !1527)
  tail call void @llvm.experimental.noalias.scope.decl(metadata !1529)
  tail call void @llvm.experimental.noalias.scope.decl(metadata !1531), !noalias !1431
  tail call void @llvm.experimental.noalias.scope.decl(metadata !1533), !noalias !1431
  tail call void @llvm.experimental.noalias.scope.decl(metadata !1535), !noalias !1431
  tail call void @llvm.experimental.noalias.scope.decl(metadata !1537), !noalias !1431
  %_3.i.i.i19.i.3 = load i32, ptr %35, align 4, !alias.scope !1539, !noalias !1540, !noundef !37
  %_4.i.i.i20.i.3 = load i32, ptr %36, align 4, !alias.scope !1541, !noalias !1542, !noundef !37
  %_0.i21.i.3 = icmp slt i32 %_3.i.i.i19.i.3, %_4.i.i.i20.i.3
  %is_l.i.i.3 = xor i1 %_0.i21.i.3, true
  %39 = tail call i32 @llvm.smax.i32(i32 %_3.i.i.i19.i.3, i32 %_4.i.i.i20.i.3)
  store i32 %39, ptr %37, align 4, !noalias !1445
  %count.neg.i.i.3 = sext i1 %is_l.i.i.3 to i64
  %40 = getelementptr i32, ptr %35, i64 %count.neg.i.i.3
  %count3.neg.i.i.3 = sext i1 %_0.i21.i.3 to i64
  %41 = getelementptr i32, ptr %36, i64 %count3.neg.i.i.3
  %42 = getelementptr i8, ptr %41, i64 4
  %43 = getelementptr i8, ptr %40, i64 4
  %_31.i = icmp ne ptr %_14.i.i.3, %42
  %_32.i = icmp ne ptr %_12.i.i.3, %43
  %or.cond.i = select i1 %_31.i, i1 true, i1 %_32.i
  br i1 %or.cond.i, label %bb13.i, label %_ZN4core5slice4sort6shared9smallsort19bidirectional_merge17h0080c53fa88ef910E.exit, !prof !824

bb13.i:                                           ; preds = %start
; call core::slice::sort::shared::smallsort::panic_on_ord_violation
  tail call void @_ZN4core5slice4sort6shared9smallsort22panic_on_ord_violation17hc77a22a2d50782cdE() #24, !noalias !1396
  unreachable

_ZN4core5slice4sort6shared9smallsort19bidirectional_merge17h0080c53fa88ef910E.exit: ; preds = %start
  ret void
}

; core::slice::sort::shared::smallsort::bidirectional_merge
; Function Attrs: nonlazybind uwtable
define void @_ZN4core5slice4sort6shared9smallsort19bidirectional_merge17h0080c53fa88ef910E(ptr noalias noundef nonnull readonly align 4 captures(address) %v.0, i64 noundef range(i64 0, 2305843009213693952) %v.1, ptr noundef writeonly captures(none) %0, ptr noalias noundef readnone align 8 captures(none) dereferenceable(8) %is_less) unnamed_addr #3 {
start:
  %len_div_215 = lshr i64 %v.1, 1
  %_7 = icmp samesign ugt i64 %v.1, 1
  tail call void @llvm.assume(i1 %_7)
  %count1 = add nsw i64 %v.1, -1
  %1 = getelementptr inbounds nuw i32, ptr %0, i64 %count1
  %2 = getelementptr inbounds nuw i32, ptr %v.0, i64 %count1
  %3 = getelementptr i32, ptr %v.0, i64 %len_div_215
  %4 = getelementptr i8, ptr %3, i64 -4
  br label %bb15

bb16:                                             ; preds = %bb15
  %5 = getelementptr i8, ptr %10, i64 4
  %6 = getelementptr i8, ptr %9, i64 4
  %_44 = and i64 %v.1, 1
  %_22 = icmp eq i64 %_44, 0
  br i1 %_22, label %bb9, label %bb5

bb15:                                             ; preds = %start, %bb15
  %dst.sroa.0.029 = phi ptr [ %_16.i, %bb15 ], [ %0, %start ]
  %iter.sroa.0.028 = phi i64 [ %_39, %bb15 ], [ 0, %start ]
  %left.sroa.0.027 = phi ptr [ %_14.i, %bb15 ], [ %v.0, %start ]
  %right.sroa.0.026 = phi ptr [ %_12.i, %bb15 ], [ %3, %start ]
  %left_rev.sroa.0.025 = phi ptr [ %10, %bb15 ], [ %4, %start ]
  %right_rev.sroa.0.024 = phi ptr [ %9, %bb15 ], [ %2, %start ]
  %dst_rev.sroa.0.023 = phi ptr [ %11, %bb15 ], [ %1, %start ]
  %_39 = add nuw nsw i64 %iter.sroa.0.028, 1
  tail call void @llvm.experimental.noalias.scope.decl(metadata !1543)
  tail call void @llvm.experimental.noalias.scope.decl(metadata !1546)
  tail call void @llvm.experimental.noalias.scope.decl(metadata !1548), !noalias !1551
  tail call void @llvm.experimental.noalias.scope.decl(metadata !1554), !noalias !1551
  tail call void @llvm.experimental.noalias.scope.decl(metadata !1556), !noalias !1551
  tail call void @llvm.experimental.noalias.scope.decl(metadata !1559), !noalias !1551
  %_3.i.i.i = load i32, ptr %right.sroa.0.026, align 4, !alias.scope !1561, !noalias !1562, !noundef !37
  %_4.i.i.i = load i32, ptr %left.sroa.0.027, align 4, !alias.scope !1563, !noalias !1564, !noundef !37
  %_0.i = icmp slt i32 %_3.i.i.i, %_4.i.i.i
  %is_l.i18 = xor i1 %_0.i, true
  %7 = tail call i32 @llvm.smin.i32(i32 %_3.i.i.i, i32 %_4.i.i.i)
  store i32 %7, ptr %dst.sroa.0.029, align 4, !noalias !1565
  %count.i = zext i1 %_0.i to i64
  %_12.i = getelementptr inbounds nuw i32, ptr %right.sroa.0.026, i64 %count.i
  %count2.i = zext i1 %is_l.i18 to i64
  %_14.i = getelementptr inbounds nuw i32, ptr %left.sroa.0.027, i64 %count2.i
  %_16.i = getelementptr inbounds nuw i8, ptr %dst.sroa.0.029, i64 4
  tail call void @llvm.experimental.noalias.scope.decl(metadata !1567)
  tail call void @llvm.experimental.noalias.scope.decl(metadata !1570)
  tail call void @llvm.experimental.noalias.scope.decl(metadata !1572), !noalias !1575
  tail call void @llvm.experimental.noalias.scope.decl(metadata !1578), !noalias !1575
  tail call void @llvm.experimental.noalias.scope.decl(metadata !1580), !noalias !1575
  tail call void @llvm.experimental.noalias.scope.decl(metadata !1583), !noalias !1575
  %_3.i.i.i19 = load i32, ptr %right_rev.sroa.0.024, align 4, !alias.scope !1585, !noalias !1586, !noundef !37
  %_4.i.i.i20 = load i32, ptr %left_rev.sroa.0.025, align 4, !alias.scope !1587, !noalias !1588, !noundef !37
  %_0.i21 = icmp slt i32 %_3.i.i.i19, %_4.i.i.i20
  %is_l.i = xor i1 %_0.i21, true
  %8 = tail call i32 @llvm.smax.i32(i32 %_3.i.i.i19, i32 %_4.i.i.i20)
  store i32 %8, ptr %dst_rev.sroa.0.023, align 4, !noalias !1589
  %count.neg.i = sext i1 %is_l.i to i64
  %9 = getelementptr i32, ptr %right_rev.sroa.0.024, i64 %count.neg.i
  %count3.neg.i = sext i1 %_0.i21 to i64
  %10 = getelementptr i32, ptr %left_rev.sroa.0.025, i64 %count3.neg.i
  %11 = getelementptr inbounds i8, ptr %dst_rev.sroa.0.023, i64 -4
  %exitcond.not = icmp eq i64 %_39, %len_div_215
  br i1 %exitcond.not, label %bb16, label %bb15

bb5:                                              ; preds = %bb16
  %left_nonempty = icmp ult ptr %_14.i, %5
  %left.sroa.0.0.right.sroa.0.0 = select i1 %left_nonempty, ptr %_14.i, ptr %_12.i
  %12 = load i32, ptr %left.sroa.0.0.right.sroa.0.0, align 4
  store i32 %12, ptr %_16.i, align 4
  %count2 = zext i1 %left_nonempty to i64
  %_26 = getelementptr inbounds nuw i32, ptr %_14.i, i64 %count2
  %_30 = xor i1 %left_nonempty, true
  %count3 = zext i1 %_30 to i64
  %_28 = getelementptr inbounds nuw i32, ptr %_12.i, i64 %count3
  br label %bb9

bb9:                                              ; preds = %bb16, %bb5
  %right.sroa.0.1 = phi ptr [ %_12.i, %bb16 ], [ %_28, %bb5 ]
  %left.sroa.0.1 = phi ptr [ %_14.i, %bb16 ], [ %_26, %bb5 ]
  %_31 = icmp ne ptr %left.sroa.0.1, %5
  %_32 = icmp ne ptr %right.sroa.0.1, %6
  %or.cond = select i1 %_31, i1 true, i1 %_32
  br i1 %or.cond, label %bb13, label %bb14, !prof !824

bb14:                                             ; preds = %bb9
  ret void

bb13:                                             ; preds = %bb9
; call core::slice::sort::shared::smallsort::panic_on_ord_violation
  tail call void @_ZN4core5slice4sort6shared9smallsort22panic_on_ord_violation17hc77a22a2d50782cdE() #24
  unreachable
}

; core::slice::sort::shared::smallsort::bidirectional_merge
; Function Attrs: nonlazybind uwtable
define void @_ZN4core5slice4sort6shared9smallsort19bidirectional_merge17h20d44b09344b27b9E(ptr noalias noundef nonnull readonly align 4 captures(address) %v.0, i64 noundef range(i64 0, 2305843009213693952) %v.1, ptr noundef writeonly captures(none) %0, ptr noalias noundef readnone align 8 captures(none) dereferenceable(8) %is_less) unnamed_addr #3 {
start:
  %len_div_215 = lshr i64 %v.1, 1
  %_7 = icmp samesign ugt i64 %v.1, 1
  tail call void @llvm.assume(i1 %_7)
  %count1 = add nsw i64 %v.1, -1
  %1 = getelementptr inbounds nuw i32, ptr %0, i64 %count1
  %2 = getelementptr inbounds nuw i32, ptr %v.0, i64 %count1
  %3 = getelementptr i32, ptr %v.0, i64 %len_div_215
  %4 = getelementptr i8, ptr %3, i64 -4
  br label %bb15

bb16:                                             ; preds = %bb15
  %5 = getelementptr i8, ptr %10, i64 4
  %6 = getelementptr i8, ptr %9, i64 4
  %_44 = and i64 %v.1, 1
  %_22 = icmp eq i64 %_44, 0
  br i1 %_22, label %bb9, label %bb5

bb15:                                             ; preds = %start, %bb15
  %dst.sroa.0.029 = phi ptr [ %_16.i, %bb15 ], [ %0, %start ]
  %iter.sroa.0.028 = phi i64 [ %_39, %bb15 ], [ 0, %start ]
  %left.sroa.0.027 = phi ptr [ %_14.i, %bb15 ], [ %v.0, %start ]
  %right.sroa.0.026 = phi ptr [ %_12.i, %bb15 ], [ %3, %start ]
  %left_rev.sroa.0.025 = phi ptr [ %10, %bb15 ], [ %4, %start ]
  %right_rev.sroa.0.024 = phi ptr [ %9, %bb15 ], [ %2, %start ]
  %dst_rev.sroa.0.023 = phi ptr [ %11, %bb15 ], [ %1, %start ]
  %_39 = add nuw nsw i64 %iter.sroa.0.028, 1
  tail call void @llvm.experimental.noalias.scope.decl(metadata !1591)
  tail call void @llvm.experimental.noalias.scope.decl(metadata !1594)
  tail call void @llvm.experimental.noalias.scope.decl(metadata !1596), !noalias !1599
  tail call void @llvm.experimental.noalias.scope.decl(metadata !1602), !noalias !1599
  tail call void @llvm.experimental.noalias.scope.decl(metadata !1604), !noalias !1599
  tail call void @llvm.experimental.noalias.scope.decl(metadata !1607), !noalias !1599
  tail call void @llvm.experimental.noalias.scope.decl(metadata !1609), !noalias !1599
  tail call void @llvm.experimental.noalias.scope.decl(metadata !1612), !noalias !1599
  %_3.i.i.i.i = load i32, ptr %right.sroa.0.026, align 4, !alias.scope !1614, !noalias !1615, !noundef !37
  %_4.i.i.i.i = load i32, ptr %left.sroa.0.027, align 4, !alias.scope !1616, !noalias !1617, !noundef !37
  %_0.i = icmp slt i32 %_3.i.i.i.i, %_4.i.i.i.i
  %is_l.i18 = xor i1 %_0.i, true
  %7 = tail call i32 @llvm.smin.i32(i32 %_3.i.i.i.i, i32 %_4.i.i.i.i)
  store i32 %7, ptr %dst.sroa.0.029, align 4, !noalias !1618
  %count.i = zext i1 %_0.i to i64
  %_12.i = getelementptr inbounds nuw i32, ptr %right.sroa.0.026, i64 %count.i
  %count2.i = zext i1 %is_l.i18 to i64
  %_14.i = getelementptr inbounds nuw i32, ptr %left.sroa.0.027, i64 %count2.i
  %_16.i = getelementptr inbounds nuw i8, ptr %dst.sroa.0.029, i64 4
  tail call void @llvm.experimental.noalias.scope.decl(metadata !1620)
  tail call void @llvm.experimental.noalias.scope.decl(metadata !1623)
  tail call void @llvm.experimental.noalias.scope.decl(metadata !1625), !noalias !1628
  tail call void @llvm.experimental.noalias.scope.decl(metadata !1631), !noalias !1628
  tail call void @llvm.experimental.noalias.scope.decl(metadata !1633), !noalias !1628
  tail call void @llvm.experimental.noalias.scope.decl(metadata !1636), !noalias !1628
  tail call void @llvm.experimental.noalias.scope.decl(metadata !1638), !noalias !1628
  tail call void @llvm.experimental.noalias.scope.decl(metadata !1641), !noalias !1628
  %_3.i.i.i.i19 = load i32, ptr %right_rev.sroa.0.024, align 4, !alias.scope !1643, !noalias !1644, !noundef !37
  %_4.i.i.i.i20 = load i32, ptr %left_rev.sroa.0.025, align 4, !alias.scope !1645, !noalias !1646, !noundef !37
  %_0.i21 = icmp slt i32 %_3.i.i.i.i19, %_4.i.i.i.i20
  %is_l.i = xor i1 %_0.i21, true
  %8 = tail call i32 @llvm.smax.i32(i32 %_3.i.i.i.i19, i32 %_4.i.i.i.i20)
  store i32 %8, ptr %dst_rev.sroa.0.023, align 4, !noalias !1647
  %count.neg.i = sext i1 %is_l.i to i64
  %9 = getelementptr i32, ptr %right_rev.sroa.0.024, i64 %count.neg.i
  %count3.neg.i = sext i1 %_0.i21 to i64
  %10 = getelementptr i32, ptr %left_rev.sroa.0.025, i64 %count3.neg.i
  %11 = getelementptr inbounds i8, ptr %dst_rev.sroa.0.023, i64 -4
  %exitcond.not = icmp eq i64 %_39, %len_div_215
  br i1 %exitcond.not, label %bb16, label %bb15

bb5:                                              ; preds = %bb16
  %left_nonempty = icmp ult ptr %_14.i, %5
  %left.sroa.0.0.right.sroa.0.0 = select i1 %left_nonempty, ptr %_14.i, ptr %_12.i
  %12 = load i32, ptr %left.sroa.0.0.right.sroa.0.0, align 4
  store i32 %12, ptr %_16.i, align 4
  %count2 = zext i1 %left_nonempty to i64
  %_26 = getelementptr inbounds nuw i32, ptr %_14.i, i64 %count2
  %_30 = xor i1 %left_nonempty, true
  %count3 = zext i1 %_30 to i64
  %_28 = getelementptr inbounds nuw i32, ptr %_12.i, i64 %count3
  br label %bb9

bb9:                                              ; preds = %bb16, %bb5
  %right.sroa.0.1 = phi ptr [ %_12.i, %bb16 ], [ %_28, %bb5 ]
  %left.sroa.0.1 = phi ptr [ %_14.i, %bb16 ], [ %_26, %bb5 ]
  %_31 = icmp ne ptr %left.sroa.0.1, %5
  %_32 = icmp ne ptr %right.sroa.0.1, %6
  %or.cond = select i1 %_31, i1 true, i1 %_32
  br i1 %or.cond, label %bb13, label %bb14, !prof !824

bb14:                                             ; preds = %bb9
  ret void

bb13:                                             ; preds = %bb9
; call core::slice::sort::shared::smallsort::panic_on_ord_violation
  tail call void @_ZN4core5slice4sort6shared9smallsort22panic_on_ord_violation17hc77a22a2d50782cdE() #24
  unreachable
}

; core::slice::sort::shared::smallsort::bidirectional_merge
; Function Attrs: nonlazybind uwtable
define void @_ZN4core5slice4sort6shared9smallsort19bidirectional_merge17hb2c7fe19e617a0b1E(ptr noalias noundef nonnull readonly align 4 captures(address) %v.0, i64 noundef range(i64 0, 2305843009213693952) %v.1, ptr noundef writeonly captures(none) %0, ptr noalias noundef readnone align 8 captures(none) dereferenceable(8) %is_less) unnamed_addr #3 {
start:
  %len_div_215 = lshr i64 %v.1, 1
  %_7 = icmp samesign ugt i64 %v.1, 1
  tail call void @llvm.assume(i1 %_7)
  %count1 = add nsw i64 %v.1, -1
  %1 = getelementptr inbounds nuw i32, ptr %0, i64 %count1
  %2 = getelementptr inbounds nuw i32, ptr %v.0, i64 %count1
  %3 = getelementptr i32, ptr %v.0, i64 %len_div_215
  %4 = getelementptr i8, ptr %3, i64 -4
  br label %bb15

bb16:                                             ; preds = %bb15
  %5 = getelementptr i8, ptr %10, i64 4
  %6 = getelementptr i8, ptr %9, i64 4
  %_44 = and i64 %v.1, 1
  %_22 = icmp eq i64 %_44, 0
  br i1 %_22, label %bb9, label %bb5

bb15:                                             ; preds = %start, %bb15
  %dst.sroa.0.029 = phi ptr [ %_16.i, %bb15 ], [ %0, %start ]
  %iter.sroa.0.028 = phi i64 [ %_39, %bb15 ], [ 0, %start ]
  %left.sroa.0.027 = phi ptr [ %_14.i, %bb15 ], [ %v.0, %start ]
  %right.sroa.0.026 = phi ptr [ %_12.i, %bb15 ], [ %3, %start ]
  %left_rev.sroa.0.025 = phi ptr [ %10, %bb15 ], [ %4, %start ]
  %right_rev.sroa.0.024 = phi ptr [ %9, %bb15 ], [ %2, %start ]
  %dst_rev.sroa.0.023 = phi ptr [ %11, %bb15 ], [ %1, %start ]
  %_39 = add nuw nsw i64 %iter.sroa.0.028, 1
  tail call void @llvm.experimental.noalias.scope.decl(metadata !1649)
  tail call void @llvm.experimental.noalias.scope.decl(metadata !1652)
  tail call void @llvm.experimental.noalias.scope.decl(metadata !1654), !noalias !1657
  tail call void @llvm.experimental.noalias.scope.decl(metadata !1660), !noalias !1657
  tail call void @llvm.experimental.noalias.scope.decl(metadata !1662), !noalias !1657
  tail call void @llvm.experimental.noalias.scope.decl(metadata !1665), !noalias !1657
  %_3.i.i.i = load i32, ptr %left.sroa.0.027, align 4, !alias.scope !1667, !noalias !1668, !noundef !37
  %_4.i.i.i = load i32, ptr %right.sroa.0.026, align 4, !alias.scope !1669, !noalias !1670, !noundef !37
  %_0.i = icmp slt i32 %_3.i.i.i, %_4.i.i.i
  %is_l.i18 = xor i1 %_0.i, true
  %7 = tail call i32 @llvm.smax.i32(i32 %_3.i.i.i, i32 %_4.i.i.i)
  store i32 %7, ptr %dst.sroa.0.029, align 4, !noalias !1671
  %count.i = zext i1 %_0.i to i64
  %_12.i = getelementptr inbounds nuw i32, ptr %right.sroa.0.026, i64 %count.i
  %count2.i = zext i1 %is_l.i18 to i64
  %_14.i = getelementptr inbounds nuw i32, ptr %left.sroa.0.027, i64 %count2.i
  %_16.i = getelementptr inbounds nuw i8, ptr %dst.sroa.0.029, i64 4
  tail call void @llvm.experimental.noalias.scope.decl(metadata !1673)
  tail call void @llvm.experimental.noalias.scope.decl(metadata !1676)
  tail call void @llvm.experimental.noalias.scope.decl(metadata !1678), !noalias !1681
  tail call void @llvm.experimental.noalias.scope.decl(metadata !1684), !noalias !1681
  tail call void @llvm.experimental.noalias.scope.decl(metadata !1686), !noalias !1681
  tail call void @llvm.experimental.noalias.scope.decl(metadata !1689), !noalias !1681
  %_3.i.i.i19 = load i32, ptr %left_rev.sroa.0.025, align 4, !alias.scope !1691, !noalias !1692, !noundef !37
  %_4.i.i.i20 = load i32, ptr %right_rev.sroa.0.024, align 4, !alias.scope !1693, !noalias !1694, !noundef !37
  %_0.i21 = icmp slt i32 %_3.i.i.i19, %_4.i.i.i20
  %is_l.i = xor i1 %_0.i21, true
  %8 = tail call i32 @llvm.smin.i32(i32 %_3.i.i.i19, i32 %_4.i.i.i20)
  store i32 %8, ptr %dst_rev.sroa.0.023, align 4, !noalias !1695
  %count.neg.i = sext i1 %is_l.i to i64
  %9 = getelementptr i32, ptr %right_rev.sroa.0.024, i64 %count.neg.i
  %count3.neg.i = sext i1 %_0.i21 to i64
  %10 = getelementptr i32, ptr %left_rev.sroa.0.025, i64 %count3.neg.i
  %11 = getelementptr inbounds i8, ptr %dst_rev.sroa.0.023, i64 -4
  %exitcond.not = icmp eq i64 %_39, %len_div_215
  br i1 %exitcond.not, label %bb16, label %bb15

bb5:                                              ; preds = %bb16
  %left_nonempty = icmp ult ptr %_14.i, %5
  %left.sroa.0.0.right.sroa.0.0 = select i1 %left_nonempty, ptr %_14.i, ptr %_12.i
  %12 = load i32, ptr %left.sroa.0.0.right.sroa.0.0, align 4
  store i32 %12, ptr %_16.i, align 4
  %count2 = zext i1 %left_nonempty to i64
  %_26 = getelementptr inbounds nuw i32, ptr %_14.i, i64 %count2
  %_30 = xor i1 %left_nonempty, true
  %count3 = zext i1 %_30 to i64
  %_28 = getelementptr inbounds nuw i32, ptr %_12.i, i64 %count3
  br label %bb9

bb9:                                              ; preds = %bb16, %bb5
  %right.sroa.0.1 = phi ptr [ %_12.i, %bb16 ], [ %_28, %bb5 ]
  %left.sroa.0.1 = phi ptr [ %_14.i, %bb16 ], [ %_26, %bb5 ]
  %_31 = icmp ne ptr %left.sroa.0.1, %5
  %_32 = icmp ne ptr %right.sroa.0.1, %6
  %or.cond = select i1 %_31, i1 true, i1 %_32
  br i1 %or.cond, label %bb13, label %bb14, !prof !824

bb14:                                             ; preds = %bb9
  ret void

bb13:                                             ; preds = %bb9
; call core::slice::sort::shared::smallsort::panic_on_ord_violation
  tail call void @_ZN4core5slice4sort6shared9smallsort22panic_on_ord_violation17hc77a22a2d50782cdE() #24
  unreachable
}

; core::slice::sort::shared::smallsort::insertion_sort_shift_left
; Function Attrs: nounwind nonlazybind memory(argmem: readwrite, inaccessiblemem: readwrite) uwtable
define void @_ZN4core5slice4sort6shared9smallsort25insertion_sort_shift_left17h5478c093f613346bE(ptr noalias noundef nonnull align 4 captures(address) %v.0, i64 noundef range(i64 0, 2305843009213693952) %v.1, i64 noundef %offset, ptr noalias readnone align 8 captures(none) %is_less) unnamed_addr #4 personality ptr @rust_eh_personality {
start:
  %0 = add i64 %offset, -1
  %or.cond.not = icmp ult i64 %0, %v.1
  br i1 %or.cond.not, label %bb3, label %bb2

bb2:                                              ; preds = %start
  tail call void @llvm.trap()
  unreachable

bb3:                                              ; preds = %start
  %v_end = getelementptr inbounds nuw i32, ptr %v.0, i64 %v.1
  %_11.not1 = icmp samesign eq i64 %offset, %v.1
  br i1 %_11.not1, label %bb7, label %bb5.preheader

bb5.preheader:                                    ; preds = %bb3
  %1 = getelementptr inbounds nuw i32, ptr %v.0, i64 %offset
  br label %bb5

bb7:                                              ; preds = %_ZN4core5slice4sort6shared9smallsort11insert_tail17h15c0e430fef2f522E.exit, %bb3
  ret void

bb5:                                              ; preds = %bb5.preheader, %_ZN4core5slice4sort6shared9smallsort11insert_tail17h15c0e430fef2f522E.exit
  %tail.sroa.0.02 = phi ptr [ %_15, %_ZN4core5slice4sort6shared9smallsort11insert_tail17h15c0e430fef2f522E.exit ], [ %1, %bb5.preheader ]
  %2 = getelementptr inbounds i8, ptr %tail.sroa.0.02, i64 -4
  tail call void @llvm.experimental.noalias.scope.decl(metadata !1697)
  tail call void @llvm.experimental.noalias.scope.decl(metadata !1700)
  tail call void @llvm.experimental.noalias.scope.decl(metadata !1702)
  tail call void @llvm.experimental.noalias.scope.decl(metadata !1705)
  tail call void @llvm.experimental.noalias.scope.decl(metadata !1707)
  tail call void @llvm.experimental.noalias.scope.decl(metadata !1710)
  %_3.i.i.i.i = load i32, ptr %2, align 4, !alias.scope !1712, !noalias !1713, !noundef !37
  %_4.i.i.i.i = load i32, ptr %tail.sroa.0.02, align 4, !alias.scope !1713, !noalias !1712, !noundef !37
  %_0.i.i = icmp slt i32 %_3.i.i.i.i, %_4.i.i.i.i
  br i1 %_0.i.i, label %bb4.i, label %_ZN4core5slice4sort6shared9smallsort11insert_tail17h15c0e430fef2f522E.exit

bb4.i:                                            ; preds = %bb5, %bb6.i
  %gap_guard.sroa.5.0.i = phi ptr [ %sift.sroa.0.0.i, %bb6.i ], [ %tail.sroa.0.02, %bb5 ]
  %sift.sroa.0.0.i = phi ptr [ %4, %bb6.i ], [ %2, %bb5 ]
  %3 = load i32, ptr %sift.sroa.0.0.i, align 4
  store i32 %3, ptr %gap_guard.sroa.5.0.i, align 4
  %_18.i = icmp eq ptr %sift.sroa.0.0.i, %v.0
  br i1 %_18.i, label %bb10.i, label %bb6.i

bb6.i:                                            ; preds = %bb4.i
  %4 = getelementptr inbounds i8, ptr %sift.sroa.0.0.i, i64 -4
  %_3.i.i.i1.i = load i32, ptr %4, align 4, !alias.scope !1714, !noalias !1721, !noundef !37
  %_0.i3.i = icmp slt i32 %_3.i.i.i1.i, %_4.i.i.i.i
  br i1 %_0.i3.i, label %bb4.i, label %bb10.i

bb10.i:                                           ; preds = %bb6.i, %bb4.i
  store i32 %_4.i.i.i.i, ptr %sift.sroa.0.0.i, align 4, !noalias !1725
  br label %_ZN4core5slice4sort6shared9smallsort11insert_tail17h15c0e430fef2f522E.exit

_ZN4core5slice4sort6shared9smallsort11insert_tail17h15c0e430fef2f522E.exit: ; preds = %bb5, %bb10.i
  %_15 = getelementptr inbounds nuw i8, ptr %tail.sroa.0.02, i64 4
  %_11.not = icmp eq ptr %_15, %v_end
  br i1 %_11.not, label %bb7, label %bb5
}

; core::slice::sort::shared::smallsort::insertion_sort_shift_left
; Function Attrs: nounwind nonlazybind memory(argmem: readwrite, inaccessiblemem: readwrite) uwtable
define void @_ZN4core5slice4sort6shared9smallsort25insertion_sort_shift_left17he4589bf084543de7E(ptr noalias noundef nonnull align 4 captures(address) %v.0, i64 noundef range(i64 0, 2305843009213693952) %v.1, i64 noundef %offset, ptr noalias readnone align 8 captures(none) %is_less) unnamed_addr #4 personality ptr @rust_eh_personality {
start:
  %0 = add i64 %offset, -1
  %or.cond.not = icmp ult i64 %0, %v.1
  br i1 %or.cond.not, label %bb3, label %bb2

bb2:                                              ; preds = %start
  tail call void @llvm.trap()
  unreachable

bb3:                                              ; preds = %start
  %v_end = getelementptr inbounds nuw i32, ptr %v.0, i64 %v.1
  %_11.not1 = icmp samesign eq i64 %offset, %v.1
  br i1 %_11.not1, label %bb7, label %bb5.preheader

bb5.preheader:                                    ; preds = %bb3
  %1 = getelementptr inbounds nuw i32, ptr %v.0, i64 %offset
  br label %bb5

bb7:                                              ; preds = %_ZN4core5slice4sort6shared9smallsort11insert_tail17h015727d101d269d9E.exit, %bb3
  ret void

bb5:                                              ; preds = %bb5.preheader, %_ZN4core5slice4sort6shared9smallsort11insert_tail17h015727d101d269d9E.exit
  %tail.sroa.0.02 = phi ptr [ %_15, %_ZN4core5slice4sort6shared9smallsort11insert_tail17h015727d101d269d9E.exit ], [ %1, %bb5.preheader ]
  %2 = getelementptr inbounds i8, ptr %tail.sroa.0.02, i64 -4
  tail call void @llvm.experimental.noalias.scope.decl(metadata !1730)
  tail call void @llvm.experimental.noalias.scope.decl(metadata !1733)
  tail call void @llvm.experimental.noalias.scope.decl(metadata !1735)
  tail call void @llvm.experimental.noalias.scope.decl(metadata !1738)
  tail call void @llvm.experimental.noalias.scope.decl(metadata !1740)
  tail call void @llvm.experimental.noalias.scope.decl(metadata !1743)
  %_3.i.i.i.i = load i32, ptr %tail.sroa.0.02, align 4, !alias.scope !1745, !noalias !1746, !noundef !37
  %_4.i.i.i.i = load i32, ptr %2, align 4, !alias.scope !1746, !noalias !1745, !noundef !37
  %_0.i.i = icmp slt i32 %_3.i.i.i.i, %_4.i.i.i.i
  br i1 %_0.i.i, label %bb4.i, label %_ZN4core5slice4sort6shared9smallsort11insert_tail17h015727d101d269d9E.exit

bb4.i:                                            ; preds = %bb5, %bb6.i
  %gap_guard.sroa.5.0.i = phi ptr [ %sift.sroa.0.0.i, %bb6.i ], [ %tail.sroa.0.02, %bb5 ]
  %sift.sroa.0.0.i = phi ptr [ %4, %bb6.i ], [ %2, %bb5 ]
  %3 = load i32, ptr %sift.sroa.0.0.i, align 4
  store i32 %3, ptr %gap_guard.sroa.5.0.i, align 4
  %_18.i = icmp eq ptr %sift.sroa.0.0.i, %v.0
  br i1 %_18.i, label %bb10.i, label %bb6.i

bb6.i:                                            ; preds = %bb4.i
  %4 = getelementptr inbounds i8, ptr %sift.sroa.0.0.i, i64 -4
  %_4.i.i.i2.i = load i32, ptr %4, align 4, !alias.scope !1747, !noalias !1754, !noundef !37
  %_0.i3.i = icmp slt i32 %_3.i.i.i.i, %_4.i.i.i2.i
  br i1 %_0.i3.i, label %bb4.i, label %bb10.i

bb10.i:                                           ; preds = %bb6.i, %bb4.i
  store i32 %_3.i.i.i.i, ptr %sift.sroa.0.0.i, align 4, !noalias !1758
  br label %_ZN4core5slice4sort6shared9smallsort11insert_tail17h015727d101d269d9E.exit

_ZN4core5slice4sort6shared9smallsort11insert_tail17h015727d101d269d9E.exit: ; preds = %bb5, %bb10.i
  %_15 = getelementptr inbounds nuw i8, ptr %tail.sroa.0.02, i64 4
  %_11.not = icmp eq ptr %_15, %v_end
  br i1 %_11.not, label %bb7, label %bb5
}

; core::slice::sort::shared::smallsort::insertion_sort_shift_left
; Function Attrs: nounwind nonlazybind memory(argmem: readwrite, inaccessiblemem: readwrite) uwtable
define void @_ZN4core5slice4sort6shared9smallsort25insertion_sort_shift_left17hf239ca8a44a6c18fE(ptr noalias noundef nonnull align 4 captures(address) %v.0, i64 noundef range(i64 0, 2305843009213693952) %v.1, i64 noundef %offset, ptr noalias readnone align 8 captures(none) %is_less) unnamed_addr #4 personality ptr @rust_eh_personality {
start:
  %0 = add i64 %offset, -1
  %or.cond.not = icmp ult i64 %0, %v.1
  br i1 %or.cond.not, label %bb3, label %bb2

bb2:                                              ; preds = %start
  tail call void @llvm.trap()
  unreachable

bb3:                                              ; preds = %start
  %v_end = getelementptr inbounds nuw i32, ptr %v.0, i64 %v.1
  %_11.not1 = icmp samesign eq i64 %offset, %v.1
  br i1 %_11.not1, label %bb7, label %bb5.preheader

bb5.preheader:                                    ; preds = %bb3
  %1 = getelementptr inbounds nuw i32, ptr %v.0, i64 %offset
  br label %bb5

bb7:                                              ; preds = %_ZN4core5slice4sort6shared9smallsort11insert_tail17hc6676223f144befbE.exit, %bb3
  ret void

bb5:                                              ; preds = %bb5.preheader, %_ZN4core5slice4sort6shared9smallsort11insert_tail17hc6676223f144befbE.exit
  %tail.sroa.0.02 = phi ptr [ %_15, %_ZN4core5slice4sort6shared9smallsort11insert_tail17hc6676223f144befbE.exit ], [ %1, %bb5.preheader ]
  %2 = getelementptr inbounds i8, ptr %tail.sroa.0.02, i64 -4
  tail call void @llvm.experimental.noalias.scope.decl(metadata !1763)
  tail call void @llvm.experimental.noalias.scope.decl(metadata !1766)
  tail call void @llvm.experimental.noalias.scope.decl(metadata !1768)
  tail call void @llvm.experimental.noalias.scope.decl(metadata !1771)
  tail call void @llvm.experimental.noalias.scope.decl(metadata !1773)
  tail call void @llvm.experimental.noalias.scope.decl(metadata !1776)
  tail call void @llvm.experimental.noalias.scope.decl(metadata !1778)
  tail call void @llvm.experimental.noalias.scope.decl(metadata !1781)
  %_3.i.i.i.i.i = load i32, ptr %tail.sroa.0.02, align 4, !alias.scope !1783, !noalias !1784, !noundef !37
  %_4.i.i.i.i.i = load i32, ptr %2, align 4, !alias.scope !1784, !noalias !1783, !noundef !37
  %_0.i.i = icmp slt i32 %_3.i.i.i.i.i, %_4.i.i.i.i.i
  br i1 %_0.i.i, label %bb4.i, label %_ZN4core5slice4sort6shared9smallsort11insert_tail17hc6676223f144befbE.exit

bb4.i:                                            ; preds = %bb5, %bb6.i
  %gap_guard.sroa.5.0.i = phi ptr [ %sift.sroa.0.0.i, %bb6.i ], [ %tail.sroa.0.02, %bb5 ]
  %sift.sroa.0.0.i = phi ptr [ %4, %bb6.i ], [ %2, %bb5 ]
  %3 = load i32, ptr %sift.sroa.0.0.i, align 4
  store i32 %3, ptr %gap_guard.sroa.5.0.i, align 4
  %_18.i = icmp eq ptr %sift.sroa.0.0.i, %v.0
  br i1 %_18.i, label %bb10.i, label %bb6.i

bb6.i:                                            ; preds = %bb4.i
  %4 = getelementptr inbounds i8, ptr %sift.sroa.0.0.i, i64 -4
  %_4.i.i.i.i2.i = load i32, ptr %4, align 4, !alias.scope !1785, !noalias !1794, !noundef !37
  %_0.i3.i = icmp slt i32 %_3.i.i.i.i.i, %_4.i.i.i.i2.i
  br i1 %_0.i3.i, label %bb4.i, label %bb10.i

bb10.i:                                           ; preds = %bb6.i, %bb4.i
  store i32 %_3.i.i.i.i.i, ptr %sift.sroa.0.0.i, align 4, !noalias !1799
  br label %_ZN4core5slice4sort6shared9smallsort11insert_tail17hc6676223f144befbE.exit

_ZN4core5slice4sort6shared9smallsort11insert_tail17hc6676223f144befbE.exit: ; preds = %bb5, %bb10.i
  %_15 = getelementptr inbounds nuw i8, ptr %tail.sroa.0.02, i64 4
  %_11.not = icmp eq ptr %_15, %v_end
  br i1 %_11.not, label %bb7, label %bb5
}

; core::slice::sort::shared::smallsort::small_sort_general_with_scratch
; Function Attrs: nonlazybind uwtable
define void @_ZN4core5slice4sort6shared9smallsort31small_sort_general_with_scratch17h14cbe1fb2943f832E(ptr noalias noundef nonnull align 4 captures(none) %v.0, i64 noundef range(i64 0, 2305843009213693952) %v.1, ptr noalias noundef nonnull align 4 captures(address) %scratch.0, i64 noundef range(i64 0, 2305843009213693952) %scratch.1, ptr noalias readnone align 8 captures(none) %is_less) unnamed_addr #3 personality ptr @rust_eh_personality {
start:
  %iter = alloca [32 x i8], align 8
  %_5 = icmp samesign ult i64 %v.1, 2
  br i1 %_5, label %bb29, label %bb2

bb2:                                              ; preds = %start
  %_8 = add nuw nsw i64 %v.1, 16
  %_6 = icmp samesign ult i64 %scratch.1, %_8
  br i1 %_6, label %bb3, label %bb4

bb4:                                              ; preds = %bb2
  %len_div_211 = lshr i64 %v.1, 1
  %_14 = icmp samesign ugt i64 %v.1, 15
  br i1 %_14, label %bb6, label %bb9

bb3:                                              ; preds = %bb2
  tail call void @llvm.trap()
  unreachable

bb9:                                              ; preds = %bb4
  %_22 = icmp samesign ugt i64 %v.1, 7
  br i1 %_22, label %bb10, label %bb46

bb6:                                              ; preds = %bb4
  %_16 = getelementptr inbounds nuw i32, ptr %scratch.0, i64 %v.1
; call core::slice::sort::shared::smallsort::sort8_stable
  tail call void @_ZN4core5slice4sort6shared9smallsort12sort8_stable17hc497a09f4c81df07E(ptr noundef nonnull %v.0, ptr noundef nonnull %scratch.0, ptr noundef nonnull %_16, ptr noalias align 8 poison)
  %_18 = getelementptr inbounds nuw i32, ptr %v.0, i64 %len_div_211
  %_19 = getelementptr inbounds nuw i32, ptr %scratch.0, i64 %len_div_211
  %_20 = getelementptr inbounds nuw i8, ptr %_16, i64 32
; call core::slice::sort::shared::smallsort::sort8_stable
  tail call void @_ZN4core5slice4sort6shared9smallsort12sort8_stable17hc497a09f4c81df07E(ptr noundef nonnull %_18, ptr noundef nonnull %_19, ptr noundef nonnull %_20, ptr noalias align 8 poison)
  br label %bb15

bb10:                                             ; preds = %bb9
  %_7.i = getelementptr inbounds nuw i8, ptr %v.0, i64 4
  tail call void @llvm.experimental.noalias.scope.decl(metadata !1804)
  tail call void @llvm.experimental.noalias.scope.decl(metadata !1807)
  tail call void @llvm.experimental.noalias.scope.decl(metadata !1809)
  tail call void @llvm.experimental.noalias.scope.decl(metadata !1812)
  tail call void @llvm.experimental.noalias.scope.decl(metadata !1814)
  tail call void @llvm.experimental.noalias.scope.decl(metadata !1817)
  %_3.i.i.i.i = load i32, ptr %v.0, align 4, !alias.scope !1819, !noalias !1820, !noundef !37
  %_4.i.i.i.i = load i32, ptr %_7.i, align 4, !alias.scope !1820, !noalias !1819, !noundef !37
  %_0.i.i = icmp slt i32 %_3.i.i.i.i, %_4.i.i.i.i
  %_12.i = getelementptr inbounds nuw i8, ptr %v.0, i64 12
  %_14.i = getelementptr inbounds nuw i8, ptr %v.0, i64 8
  tail call void @llvm.experimental.noalias.scope.decl(metadata !1821)
  tail call void @llvm.experimental.noalias.scope.decl(metadata !1824)
  tail call void @llvm.experimental.noalias.scope.decl(metadata !1826)
  tail call void @llvm.experimental.noalias.scope.decl(metadata !1829)
  tail call void @llvm.experimental.noalias.scope.decl(metadata !1831)
  tail call void @llvm.experimental.noalias.scope.decl(metadata !1834)
  %_3.i.i.i7.i = load i32, ptr %_14.i, align 4, !alias.scope !1836, !noalias !1837, !noundef !37
  %_4.i.i.i8.i = load i32, ptr %_12.i, align 4, !alias.scope !1837, !noalias !1836, !noundef !37
  %_0.i9.i = icmp slt i32 %_3.i.i.i7.i, %_4.i.i.i8.i
  %count.i = zext i1 %_0.i.i to i64
  %a.i = getelementptr inbounds nuw i32, ptr %v.0, i64 %count.i
  %_19.i = xor i1 %_0.i.i, true
  %count2.i = zext i1 %_19.i to i64
  %b.i = getelementptr inbounds nuw i32, ptr %v.0, i64 %count2.i
  %count3.i = select i1 %_0.i9.i, i64 3, i64 2
  %c.i = getelementptr inbounds nuw i32, ptr %v.0, i64 %count3.i
  %count4.i = select i1 %_0.i9.i, i64 2, i64 3
  %d.i = getelementptr inbounds nuw i32, ptr %v.0, i64 %count4.i
  tail call void @llvm.experimental.noalias.scope.decl(metadata !1838)
  tail call void @llvm.experimental.noalias.scope.decl(metadata !1841)
  tail call void @llvm.experimental.noalias.scope.decl(metadata !1843)
  tail call void @llvm.experimental.noalias.scope.decl(metadata !1846)
  tail call void @llvm.experimental.noalias.scope.decl(metadata !1848)
  tail call void @llvm.experimental.noalias.scope.decl(metadata !1851)
  %_3.i.i.i10.i = load i32, ptr %a.i, align 4, !alias.scope !1853, !noalias !1854, !noundef !37
  %_4.i.i.i11.i = load i32, ptr %c.i, align 4, !alias.scope !1854, !noalias !1853, !noundef !37
  %_0.i12.i = icmp slt i32 %_3.i.i.i10.i, %_4.i.i.i11.i
  tail call void @llvm.experimental.noalias.scope.decl(metadata !1855)
  tail call void @llvm.experimental.noalias.scope.decl(metadata !1858)
  tail call void @llvm.experimental.noalias.scope.decl(metadata !1860)
  tail call void @llvm.experimental.noalias.scope.decl(metadata !1863)
  tail call void @llvm.experimental.noalias.scope.decl(metadata !1865)
  tail call void @llvm.experimental.noalias.scope.decl(metadata !1868)
  %_3.i.i.i13.i = load i32, ptr %b.i, align 4, !alias.scope !1870, !noalias !1871, !noundef !37
  %_4.i.i.i14.i = load i32, ptr %d.i, align 4, !alias.scope !1871, !noalias !1870, !noundef !37
  %_0.i15.i = icmp slt i32 %_3.i.i.i13.i, %_4.i.i.i14.i
  %0 = select i1 %_0.i12.i, ptr %c.i, ptr %a.i, !unpredictable !37
  %1 = select i1 %_0.i15.i, ptr %c.i, ptr %b.i, !unpredictable !37
  %2 = select i1 %_0.i12.i, ptr %a.i, ptr %1, !unpredictable !37
  %3 = select i1 %_0.i12.i, ptr %b.i, ptr %c.i, !unpredictable !37
  %4 = select i1 %_0.i15.i, ptr %d.i, ptr %3, !unpredictable !37
  tail call void @llvm.experimental.noalias.scope.decl(metadata !1872)
  tail call void @llvm.experimental.noalias.scope.decl(metadata !1875)
  tail call void @llvm.experimental.noalias.scope.decl(metadata !1877)
  tail call void @llvm.experimental.noalias.scope.decl(metadata !1880)
  tail call void @llvm.experimental.noalias.scope.decl(metadata !1882)
  tail call void @llvm.experimental.noalias.scope.decl(metadata !1885)
  %_3.i.i.i16.i = load i32, ptr %2, align 4, !alias.scope !1887, !noalias !1888, !noundef !37
  %_4.i.i.i17.i = load i32, ptr %4, align 4, !alias.scope !1888, !noalias !1887, !noundef !37
  %5 = load i32, ptr %0, align 4
  store i32 %5, ptr %scratch.0, align 4
  %dst5.i = getelementptr inbounds nuw i8, ptr %scratch.0, i64 4
  %6 = tail call i32 @llvm.smax.i32(i32 %_3.i.i.i16.i, i32 %_4.i.i.i17.i)
  store i32 %6, ptr %dst5.i, align 4
  %dst6.i = getelementptr inbounds nuw i8, ptr %scratch.0, i64 8
  %7 = tail call i32 @llvm.smin.i32(i32 %_3.i.i.i16.i, i32 %_4.i.i.i17.i)
  store i32 %7, ptr %dst6.i, align 4
  %8 = getelementptr inbounds nuw i8, ptr %scratch.0, i64 12
  %9 = tail call i32 @llvm.smin.i32(i32 %_3.i.i.i13.i, i32 %_4.i.i.i14.i)
  store i32 %9, ptr %8, align 4
  %_27 = getelementptr inbounds nuw i32, ptr %v.0, i64 %len_div_211
  %_28 = getelementptr inbounds nuw i32, ptr %scratch.0, i64 %len_div_211
  %_7.i13 = getelementptr inbounds nuw i8, ptr %_27, i64 4
  tail call void @llvm.experimental.noalias.scope.decl(metadata !1889)
  tail call void @llvm.experimental.noalias.scope.decl(metadata !1892)
  tail call void @llvm.experimental.noalias.scope.decl(metadata !1894)
  tail call void @llvm.experimental.noalias.scope.decl(metadata !1897)
  tail call void @llvm.experimental.noalias.scope.decl(metadata !1899)
  tail call void @llvm.experimental.noalias.scope.decl(metadata !1902)
  %_3.i.i.i.i14 = load i32, ptr %_27, align 4, !alias.scope !1904, !noalias !1905, !noundef !37
  %_4.i.i.i.i15 = load i32, ptr %_7.i13, align 4, !alias.scope !1905, !noalias !1904, !noundef !37
  %_0.i.i16 = icmp slt i32 %_3.i.i.i.i14, %_4.i.i.i.i15
  %_12.i17 = getelementptr inbounds nuw i8, ptr %_27, i64 12
  %_14.i18 = getelementptr inbounds nuw i8, ptr %_27, i64 8
  tail call void @llvm.experimental.noalias.scope.decl(metadata !1906)
  tail call void @llvm.experimental.noalias.scope.decl(metadata !1909)
  tail call void @llvm.experimental.noalias.scope.decl(metadata !1911)
  tail call void @llvm.experimental.noalias.scope.decl(metadata !1914)
  tail call void @llvm.experimental.noalias.scope.decl(metadata !1916)
  tail call void @llvm.experimental.noalias.scope.decl(metadata !1919)
  %_3.i.i.i7.i19 = load i32, ptr %_14.i18, align 4, !alias.scope !1921, !noalias !1922, !noundef !37
  %_4.i.i.i8.i20 = load i32, ptr %_12.i17, align 4, !alias.scope !1922, !noalias !1921, !noundef !37
  %_0.i9.i21 = icmp slt i32 %_3.i.i.i7.i19, %_4.i.i.i8.i20
  %count.i22 = zext i1 %_0.i.i16 to i64
  %a.i23 = getelementptr inbounds nuw i32, ptr %_27, i64 %count.i22
  %_19.i24 = xor i1 %_0.i.i16, true
  %count2.i25 = zext i1 %_19.i24 to i64
  %b.i26 = getelementptr inbounds nuw i32, ptr %_27, i64 %count2.i25
  %count3.i27 = select i1 %_0.i9.i21, i64 3, i64 2
  %c.i28 = getelementptr inbounds nuw i32, ptr %_27, i64 %count3.i27
  %count4.i29 = select i1 %_0.i9.i21, i64 2, i64 3
  %d.i30 = getelementptr inbounds nuw i32, ptr %_27, i64 %count4.i29
  tail call void @llvm.experimental.noalias.scope.decl(metadata !1923)
  tail call void @llvm.experimental.noalias.scope.decl(metadata !1926)
  tail call void @llvm.experimental.noalias.scope.decl(metadata !1928)
  tail call void @llvm.experimental.noalias.scope.decl(metadata !1931)
  tail call void @llvm.experimental.noalias.scope.decl(metadata !1933)
  tail call void @llvm.experimental.noalias.scope.decl(metadata !1936)
  %_3.i.i.i10.i31 = load i32, ptr %a.i23, align 4, !alias.scope !1938, !noalias !1939, !noundef !37
  %_4.i.i.i11.i32 = load i32, ptr %c.i28, align 4, !alias.scope !1939, !noalias !1938, !noundef !37
  %_0.i12.i33 = icmp slt i32 %_3.i.i.i10.i31, %_4.i.i.i11.i32
  tail call void @llvm.experimental.noalias.scope.decl(metadata !1940)
  tail call void @llvm.experimental.noalias.scope.decl(metadata !1943)
  tail call void @llvm.experimental.noalias.scope.decl(metadata !1945)
  tail call void @llvm.experimental.noalias.scope.decl(metadata !1948)
  tail call void @llvm.experimental.noalias.scope.decl(metadata !1950)
  tail call void @llvm.experimental.noalias.scope.decl(metadata !1953)
  %_3.i.i.i13.i34 = load i32, ptr %b.i26, align 4, !alias.scope !1955, !noalias !1956, !noundef !37
  %_4.i.i.i14.i35 = load i32, ptr %d.i30, align 4, !alias.scope !1956, !noalias !1955, !noundef !37
  %_0.i15.i36 = icmp slt i32 %_3.i.i.i13.i34, %_4.i.i.i14.i35
  %10 = select i1 %_0.i12.i33, ptr %c.i28, ptr %a.i23, !unpredictable !37
  %11 = select i1 %_0.i15.i36, ptr %c.i28, ptr %b.i26, !unpredictable !37
  %12 = select i1 %_0.i12.i33, ptr %a.i23, ptr %11, !unpredictable !37
  %13 = select i1 %_0.i12.i33, ptr %b.i26, ptr %c.i28, !unpredictable !37
  %14 = select i1 %_0.i15.i36, ptr %d.i30, ptr %13, !unpredictable !37
  tail call void @llvm.experimental.noalias.scope.decl(metadata !1957)
  tail call void @llvm.experimental.noalias.scope.decl(metadata !1960)
  tail call void @llvm.experimental.noalias.scope.decl(metadata !1962)
  tail call void @llvm.experimental.noalias.scope.decl(metadata !1965)
  tail call void @llvm.experimental.noalias.scope.decl(metadata !1967)
  tail call void @llvm.experimental.noalias.scope.decl(metadata !1970)
  %_3.i.i.i16.i37 = load i32, ptr %12, align 4, !alias.scope !1972, !noalias !1973, !noundef !37
  %_4.i.i.i17.i38 = load i32, ptr %14, align 4, !alias.scope !1973, !noalias !1972, !noundef !37
  %15 = load i32, ptr %10, align 4
  store i32 %15, ptr %_28, align 4
  %dst5.i40 = getelementptr inbounds nuw i8, ptr %_28, i64 4
  %16 = tail call i32 @llvm.smax.i32(i32 %_3.i.i.i16.i37, i32 %_4.i.i.i17.i38)
  store i32 %16, ptr %dst5.i40, align 4
  %dst6.i43 = getelementptr inbounds nuw i8, ptr %_28, i64 8
  %17 = tail call i32 @llvm.smin.i32(i32 %_3.i.i.i16.i37, i32 %_4.i.i.i17.i38)
  store i32 %17, ptr %dst6.i43, align 4
  %18 = getelementptr inbounds nuw i8, ptr %_28, i64 12
  %19 = tail call i32 @llvm.smin.i32(i32 %_3.i.i.i13.i34, i32 %_4.i.i.i14.i35)
  store i32 %19, ptr %18, align 4
  br label %bb15

bb46:                                             ; preds = %bb9
  %20 = load i32, ptr %v.0, align 4
  store i32 %20, ptr %scratch.0, align 4
  %_31 = getelementptr inbounds nuw i32, ptr %v.0, i64 %len_div_211
  %21 = getelementptr inbounds nuw i32, ptr %scratch.0, i64 %len_div_211
  %22 = load i32, ptr %_31, align 4
  store i32 %22, ptr %21, align 4
  br label %bb15

bb15:                                             ; preds = %bb46, %bb10, %bb6
  %presorted_len.sroa.0.0 = phi i64 [ 8, %bb6 ], [ 4, %bb10 ], [ 1, %bb46 ]
  call void @llvm.lifetime.start.p0(i64 32, ptr nonnull %iter)
  store i64 0, ptr %iter, align 8
  %_37.sroa.4.0.iter.sroa_idx = getelementptr inbounds nuw i8, ptr %iter, i64 8
  store i64 2, ptr %_37.sroa.4.0.iter.sroa_idx, align 8
  %_37.sroa.5.0.iter.sroa_idx = getelementptr inbounds nuw i8, ptr %iter, i64 16
  store i64 0, ptr %_37.sroa.5.0.iter.sroa_idx, align 8
  %_37.sroa.6.0.iter.sroa_idx = getelementptr inbounds nuw i8, ptr %iter, i64 24
  store i64 %len_div_211, ptr %_37.sroa.6.0.iter.sroa_idx, align 8
  %23 = sub nsw i64 %v.1, %len_div_211
  %iter1.sroa.0.161 = add nuw nsw i64 %presorted_len.sroa.0.0, 1
  br label %bb16

bb16:                                             ; preds = %bb16.backedge, %bb15
  %24 = phi i64 [ 0, %bb15 ], [ %25, %bb16.backedge ]
  %_5.not.i.not = icmp eq i64 %24, 2
  br i1 %_5.not.i.not, label %"_ZN4core5array4iter10iter_inner78PolymorphicIter$LT$$u5b$core..mem..maybe_uninit..MaybeUninit$LT$T$GT$$u5d$$GT$4next17he9329f89bfb7731fE.exit", label %bb1.i

bb1.i:                                            ; preds = %bb16
  %_11.i = add nuw nsw i64 %24, 1
  store i64 %_11.i, ptr %iter, align 8, !alias.scope !1974
  %_20.i = icmp ult i64 %24, 2
  tail call void @llvm.assume(i1 %_20.i)
  %self3.i = getelementptr inbounds nuw i64, ptr %_37.sroa.5.0.iter.sroa_idx, i64 %24
  %_15.i = load i64, ptr %self3.i, align 8, !alias.scope !1974, !noundef !37
  br label %"_ZN4core5array4iter10iter_inner78PolymorphicIter$LT$$u5b$core..mem..maybe_uninit..MaybeUninit$LT$T$GT$$u5d$$GT$4next17he9329f89bfb7731fE.exit"

"_ZN4core5array4iter10iter_inner78PolymorphicIter$LT$$u5b$core..mem..maybe_uninit..MaybeUninit$LT$T$GT$$u5d$$GT$4next17he9329f89bfb7731fE.exit": ; preds = %bb16, %bb1.i
  %25 = phi i64 [ %_11.i, %bb1.i ], [ %24, %bb16 ]
  %_0.sroa.3.0.i = phi i64 [ %_15.i, %bb1.i ], [ undef, %bb16 ]
  br i1 %_5.not.i.not, label %bb19, label %bb18

bb18:                                             ; preds = %"_ZN4core5array4iter10iter_inner78PolymorphicIter$LT$$u5b$core..mem..maybe_uninit..MaybeUninit$LT$T$GT$$u5d$$GT$4next17he9329f89bfb7731fE.exit"
  %src5 = getelementptr inbounds nuw i32, ptr %v.0, i64 %_0.sroa.3.0.i
  %dst6 = getelementptr inbounds nuw i32, ptr %scratch.0, i64 %_0.sroa.3.0.i
  %_47 = icmp eq i64 %_0.sroa.3.0.i, 0
  %desired_len.sroa.0.0 = select i1 %_47, i64 %len_div_211, i64 %23
  %_8059 = icmp ult i64 %presorted_len.sroa.0.0, %desired_len.sroa.0.0
  br i1 %_8059, label %bb24, label %bb16.backedge

bb16.backedge:                                    ; preds = %_ZN4core5slice4sort6shared9smallsort11insert_tail17h15c0e430fef2f522E.exit, %bb18
  br label %bb16

bb19:                                             ; preds = %"_ZN4core5array4iter10iter_inner78PolymorphicIter$LT$$u5b$core..mem..maybe_uninit..MaybeUninit$LT$T$GT$$u5d$$GT$4next17he9329f89bfb7731fE.exit"
  call void @llvm.lifetime.end.p0(i64 32, ptr nonnull %iter)
  tail call void @llvm.experimental.noalias.scope.decl(metadata !1977)
  %count1.i = add nsw i64 %v.1, -1
  %26 = getelementptr inbounds nuw i32, ptr %v.0, i64 %count1.i
  %27 = getelementptr inbounds nuw i32, ptr %scratch.0, i64 %count1.i
  %28 = getelementptr i32, ptr %scratch.0, i64 %len_div_211
  %29 = getelementptr i8, ptr %28, i64 -4
  br label %bb15.i

bb16.i:                                           ; preds = %bb15.i
  %30 = getelementptr i8, ptr %35, i64 4
  %31 = getelementptr i8, ptr %34, i64 4
  %_44.i = and i64 %v.1, 1
  %_22.i = icmp eq i64 %_44.i, 0
  br i1 %_22.i, label %bb9.i, label %bb5.i

bb15.i:                                           ; preds = %bb15.i, %bb19
  %dst.sroa.0.029.i = phi ptr [ %_16.i.i, %bb15.i ], [ %v.0, %bb19 ]
  %iter.sroa.0.028.i = phi i64 [ %_39.i, %bb15.i ], [ 0, %bb19 ]
  %left.sroa.0.027.i = phi ptr [ %_14.i.i, %bb15.i ], [ %scratch.0, %bb19 ]
  %right.sroa.0.026.i = phi ptr [ %_12.i.i, %bb15.i ], [ %28, %bb19 ]
  %left_rev.sroa.0.025.i = phi ptr [ %35, %bb15.i ], [ %29, %bb19 ]
  %right_rev.sroa.0.024.i = phi ptr [ %34, %bb15.i ], [ %27, %bb19 ]
  %dst_rev.sroa.0.023.i = phi ptr [ %36, %bb15.i ], [ %26, %bb19 ]
  %_39.i = add nuw nsw i64 %iter.sroa.0.028.i, 1
  tail call void @llvm.experimental.noalias.scope.decl(metadata !1980)
  tail call void @llvm.experimental.noalias.scope.decl(metadata !1983)
  tail call void @llvm.experimental.noalias.scope.decl(metadata !1985), !noalias !1988
  tail call void @llvm.experimental.noalias.scope.decl(metadata !1991), !noalias !1988
  tail call void @llvm.experimental.noalias.scope.decl(metadata !1993), !noalias !1988
  tail call void @llvm.experimental.noalias.scope.decl(metadata !1996), !noalias !1988
  %_3.i.i.i.i49 = load i32, ptr %left.sroa.0.027.i, align 4, !alias.scope !1998, !noalias !1999, !noundef !37
  %_4.i.i.i.i50 = load i32, ptr %right.sroa.0.026.i, align 4, !alias.scope !2000, !noalias !2001, !noundef !37
  %_0.i.i51 = icmp slt i32 %_3.i.i.i.i49, %_4.i.i.i.i50
  %is_l.i18.i = xor i1 %_0.i.i51, true
  %32 = tail call i32 @llvm.smax.i32(i32 %_3.i.i.i.i49, i32 %_4.i.i.i.i50)
  store i32 %32, ptr %dst.sroa.0.029.i, align 4, !noalias !2002
  %count.i.i = zext i1 %_0.i.i51 to i64
  %_12.i.i = getelementptr inbounds nuw i32, ptr %right.sroa.0.026.i, i64 %count.i.i
  %count2.i.i = zext i1 %is_l.i18.i to i64
  %_14.i.i = getelementptr inbounds nuw i32, ptr %left.sroa.0.027.i, i64 %count2.i.i
  %_16.i.i = getelementptr inbounds nuw i8, ptr %dst.sroa.0.029.i, i64 4
  tail call void @llvm.experimental.noalias.scope.decl(metadata !2004)
  tail call void @llvm.experimental.noalias.scope.decl(metadata !2007)
  tail call void @llvm.experimental.noalias.scope.decl(metadata !2009), !noalias !2012
  tail call void @llvm.experimental.noalias.scope.decl(metadata !2015), !noalias !2012
  tail call void @llvm.experimental.noalias.scope.decl(metadata !2017), !noalias !2012
  tail call void @llvm.experimental.noalias.scope.decl(metadata !2020), !noalias !2012
  %_3.i.i.i19.i = load i32, ptr %left_rev.sroa.0.025.i, align 4, !alias.scope !2022, !noalias !2023, !noundef !37
  %_4.i.i.i20.i = load i32, ptr %right_rev.sroa.0.024.i, align 4, !alias.scope !2024, !noalias !2025, !noundef !37
  %_0.i21.i = icmp slt i32 %_3.i.i.i19.i, %_4.i.i.i20.i
  %is_l.i.i = xor i1 %_0.i21.i, true
  %33 = tail call i32 @llvm.smin.i32(i32 %_3.i.i.i19.i, i32 %_4.i.i.i20.i)
  store i32 %33, ptr %dst_rev.sroa.0.023.i, align 4, !noalias !2026
  %count.neg.i.i = sext i1 %is_l.i.i to i64
  %34 = getelementptr i32, ptr %right_rev.sroa.0.024.i, i64 %count.neg.i.i
  %count3.neg.i.i = sext i1 %_0.i21.i to i64
  %35 = getelementptr i32, ptr %left_rev.sroa.0.025.i, i64 %count3.neg.i.i
  %36 = getelementptr inbounds i8, ptr %dst_rev.sroa.0.023.i, i64 -4
  %exitcond.not.i = icmp eq i64 %_39.i, %len_div_211
  br i1 %exitcond.not.i, label %bb16.i, label %bb15.i

bb5.i:                                            ; preds = %bb16.i
  %left_nonempty.i = icmp ult ptr %_14.i.i, %30
  %left.sroa.0.0.right.sroa.0.0.i = select i1 %left_nonempty.i, ptr %_14.i.i, ptr %_12.i.i
  %37 = load i32, ptr %left.sroa.0.0.right.sroa.0.0.i, align 4, !alias.scope !1977
  store i32 %37, ptr %_16.i.i, align 4, !noalias !1977
  %count2.i52 = zext i1 %left_nonempty.i to i64
  %_26.i = getelementptr inbounds nuw i32, ptr %_14.i.i, i64 %count2.i52
  %_30.i = xor i1 %left_nonempty.i, true
  %count3.i53 = zext i1 %_30.i to i64
  %_28.i = getelementptr inbounds nuw i32, ptr %_12.i.i, i64 %count3.i53
  br label %bb9.i

bb9.i:                                            ; preds = %bb5.i, %bb16.i
  %right.sroa.0.1.i = phi ptr [ %_12.i.i, %bb16.i ], [ %_28.i, %bb5.i ]
  %left.sroa.0.1.i = phi ptr [ %_14.i.i, %bb16.i ], [ %_26.i, %bb5.i ]
  %_31.i = icmp ne ptr %left.sroa.0.1.i, %30
  %_32.i = icmp ne ptr %right.sroa.0.1.i, %31
  %or.cond.i = select i1 %_31.i, i1 true, i1 %_32.i
  br i1 %or.cond.i, label %bb13.i, label %bb29, !prof !824

bb13.i:                                           ; preds = %bb9.i
; invoke core::slice::sort::shared::smallsort::panic_on_ord_violation
  invoke void @_ZN4core5slice4sort6shared9smallsort22panic_on_ord_violation17hc77a22a2d50782cdE() #24
          to label %.noexc unwind label %cleanup2

.noexc:                                           ; preds = %bb13.i
  unreachable

cleanup2:                                         ; preds = %bb13.i
  %38 = landingpad { ptr, i32 }
          cleanup
  %39 = shl nuw nsw i64 %v.1, 2
  tail call void @llvm.memcpy.p0.p0.i64(ptr nonnull align 4 %v.0, ptr nonnull align 4 %scratch.0, i64 %39, i1 false), !noalias !2028
  resume { ptr, i32 } %38

bb29:                                             ; preds = %bb9.i, %start
  ret void

bb24:                                             ; preds = %bb18, %_ZN4core5slice4sort6shared9smallsort11insert_tail17h15c0e430fef2f522E.exit
  %iter1.sroa.0.163 = phi i64 [ %iter1.sroa.0.1, %_ZN4core5slice4sort6shared9smallsort11insert_tail17h15c0e430fef2f522E.exit ], [ %iter1.sroa.0.161, %bb18 ]
  %iter1.sroa.0.062 = phi i64 [ %iter1.sroa.0.163, %_ZN4core5slice4sort6shared9smallsort11insert_tail17h15c0e430fef2f522E.exit ], [ %presorted_len.sroa.0.0, %bb18 ]
  %_55 = getelementptr inbounds nuw i32, ptr %src5, i64 %iter1.sroa.0.062
  %dst7 = getelementptr inbounds nuw i32, ptr %dst6, i64 %iter1.sroa.0.062
  %40 = load i32, ptr %_55, align 4
  store i32 %40, ptr %dst7, align 4
  %41 = getelementptr inbounds i8, ptr %dst7, i64 -4
  %_3.i.i.i.i55 = load i32, ptr %41, align 4, !alias.scope !2033, !noalias !2040, !noundef !37
  %_0.i.i57 = icmp slt i32 %_3.i.i.i.i55, %40
  br i1 %_0.i.i57, label %bb4.i, label %_ZN4core5slice4sort6shared9smallsort11insert_tail17h15c0e430fef2f522E.exit

bb4.i:                                            ; preds = %bb24, %bb6.i
  %gap_guard.sroa.5.0.i = phi ptr [ %sift.sroa.0.0.i, %bb6.i ], [ %dst7, %bb24 ]
  %sift.sroa.0.0.i = phi ptr [ %43, %bb6.i ], [ %41, %bb24 ]
  %42 = load i32, ptr %sift.sroa.0.0.i, align 4
  store i32 %42, ptr %gap_guard.sroa.5.0.i, align 4
  %_18.i = icmp eq ptr %sift.sroa.0.0.i, %dst6
  br i1 %_18.i, label %bb10.i, label %bb6.i

bb6.i:                                            ; preds = %bb4.i
  %43 = getelementptr inbounds i8, ptr %sift.sroa.0.0.i, i64 -4
  %_3.i.i.i1.i = load i32, ptr %43, align 4, !alias.scope !2044, !noalias !2051, !noundef !37
  %_0.i3.i = icmp slt i32 %_3.i.i.i1.i, %40
  br i1 %_0.i3.i, label %bb4.i, label %bb10.i

bb10.i:                                           ; preds = %bb6.i, %bb4.i
  store i32 %40, ptr %sift.sroa.0.0.i, align 4, !noalias !2055
  br label %_ZN4core5slice4sort6shared9smallsort11insert_tail17h15c0e430fef2f522E.exit

_ZN4core5slice4sort6shared9smallsort11insert_tail17h15c0e430fef2f522E.exit: ; preds = %bb24, %bb10.i
  %_80 = icmp ult i64 %iter1.sroa.0.163, %desired_len.sroa.0.0
  %_84 = zext i1 %_80 to i64
  %iter1.sroa.0.1 = add nuw i64 %iter1.sroa.0.163, %_84
  br i1 %_80, label %bb24, label %bb16.backedge
}

; core::slice::sort::shared::smallsort::small_sort_general_with_scratch
; Function Attrs: nonlazybind uwtable
define void @_ZN4core5slice4sort6shared9smallsort31small_sort_general_with_scratch17h7cd6f4c97e68381fE(ptr noalias noundef nonnull align 4 captures(none) %v.0, i64 noundef range(i64 0, 2305843009213693952) %v.1, ptr noalias noundef nonnull align 4 captures(address) %scratch.0, i64 noundef range(i64 0, 2305843009213693952) %scratch.1, ptr noalias readnone align 8 captures(none) %is_less) unnamed_addr #3 personality ptr @rust_eh_personality {
start:
  %iter = alloca [32 x i8], align 8
  %_5 = icmp samesign ult i64 %v.1, 2
  br i1 %_5, label %bb29, label %bb2

bb2:                                              ; preds = %start
  %_8 = add nuw nsw i64 %v.1, 16
  %_6 = icmp samesign ult i64 %scratch.1, %_8
  br i1 %_6, label %bb3, label %bb4

bb4:                                              ; preds = %bb2
  %len_div_211 = lshr i64 %v.1, 1
  %_14 = icmp samesign ugt i64 %v.1, 15
  br i1 %_14, label %bb6, label %bb9

bb3:                                              ; preds = %bb2
  tail call void @llvm.trap()
  unreachable

bb9:                                              ; preds = %bb4
  %_22 = icmp samesign ugt i64 %v.1, 7
  br i1 %_22, label %bb10, label %bb46

bb6:                                              ; preds = %bb4
  %_16 = getelementptr inbounds nuw i32, ptr %scratch.0, i64 %v.1
; call core::slice::sort::shared::smallsort::sort8_stable
  tail call void @_ZN4core5slice4sort6shared9smallsort12sort8_stable17hee251623565a0eb1E(ptr noundef nonnull %v.0, ptr noundef nonnull %scratch.0, ptr noundef nonnull %_16, ptr noalias align 8 poison)
  %_18 = getelementptr inbounds nuw i32, ptr %v.0, i64 %len_div_211
  %_19 = getelementptr inbounds nuw i32, ptr %scratch.0, i64 %len_div_211
  %_20 = getelementptr inbounds nuw i8, ptr %_16, i64 32
; call core::slice::sort::shared::smallsort::sort8_stable
  tail call void @_ZN4core5slice4sort6shared9smallsort12sort8_stable17hee251623565a0eb1E(ptr noundef nonnull %_18, ptr noundef nonnull %_19, ptr noundef nonnull %_20, ptr noalias align 8 poison)
  br label %bb15

bb10:                                             ; preds = %bb9
  %_7.i = getelementptr inbounds nuw i8, ptr %v.0, i64 4
  tail call void @llvm.experimental.noalias.scope.decl(metadata !2060)
  tail call void @llvm.experimental.noalias.scope.decl(metadata !2063)
  tail call void @llvm.experimental.noalias.scope.decl(metadata !2065)
  tail call void @llvm.experimental.noalias.scope.decl(metadata !2068)
  tail call void @llvm.experimental.noalias.scope.decl(metadata !2070)
  tail call void @llvm.experimental.noalias.scope.decl(metadata !2073)
  %_3.i.i.i.i = load i32, ptr %_7.i, align 4, !alias.scope !2075, !noalias !2076, !noundef !37
  %_4.i.i.i.i = load i32, ptr %v.0, align 4, !alias.scope !2076, !noalias !2075, !noundef !37
  %_0.i.i = icmp slt i32 %_3.i.i.i.i, %_4.i.i.i.i
  %_12.i = getelementptr inbounds nuw i8, ptr %v.0, i64 12
  %_14.i = getelementptr inbounds nuw i8, ptr %v.0, i64 8
  tail call void @llvm.experimental.noalias.scope.decl(metadata !2077)
  tail call void @llvm.experimental.noalias.scope.decl(metadata !2080)
  tail call void @llvm.experimental.noalias.scope.decl(metadata !2082)
  tail call void @llvm.experimental.noalias.scope.decl(metadata !2085)
  tail call void @llvm.experimental.noalias.scope.decl(metadata !2087)
  tail call void @llvm.experimental.noalias.scope.decl(metadata !2090)
  %_3.i.i.i7.i = load i32, ptr %_12.i, align 4, !alias.scope !2092, !noalias !2093, !noundef !37
  %_4.i.i.i8.i = load i32, ptr %_14.i, align 4, !alias.scope !2093, !noalias !2092, !noundef !37
  %_0.i9.i = icmp slt i32 %_3.i.i.i7.i, %_4.i.i.i8.i
  %count.i = zext i1 %_0.i.i to i64
  %a.i = getelementptr inbounds nuw i32, ptr %v.0, i64 %count.i
  %_19.i = xor i1 %_0.i.i, true
  %count2.i = zext i1 %_19.i to i64
  %b.i = getelementptr inbounds nuw i32, ptr %v.0, i64 %count2.i
  %count3.i = select i1 %_0.i9.i, i64 3, i64 2
  %c.i = getelementptr inbounds nuw i32, ptr %v.0, i64 %count3.i
  %count4.i = select i1 %_0.i9.i, i64 2, i64 3
  %d.i = getelementptr inbounds nuw i32, ptr %v.0, i64 %count4.i
  tail call void @llvm.experimental.noalias.scope.decl(metadata !2094)
  tail call void @llvm.experimental.noalias.scope.decl(metadata !2097)
  tail call void @llvm.experimental.noalias.scope.decl(metadata !2099)
  tail call void @llvm.experimental.noalias.scope.decl(metadata !2102)
  tail call void @llvm.experimental.noalias.scope.decl(metadata !2104)
  tail call void @llvm.experimental.noalias.scope.decl(metadata !2107)
  %_3.i.i.i10.i = load i32, ptr %c.i, align 4, !alias.scope !2109, !noalias !2110, !noundef !37
  %_4.i.i.i11.i = load i32, ptr %a.i, align 4, !alias.scope !2110, !noalias !2109, !noundef !37
  %_0.i12.i = icmp slt i32 %_3.i.i.i10.i, %_4.i.i.i11.i
  tail call void @llvm.experimental.noalias.scope.decl(metadata !2111)
  tail call void @llvm.experimental.noalias.scope.decl(metadata !2114)
  tail call void @llvm.experimental.noalias.scope.decl(metadata !2116)
  tail call void @llvm.experimental.noalias.scope.decl(metadata !2119)
  tail call void @llvm.experimental.noalias.scope.decl(metadata !2121)
  tail call void @llvm.experimental.noalias.scope.decl(metadata !2124)
  %_3.i.i.i13.i = load i32, ptr %d.i, align 4, !alias.scope !2126, !noalias !2127, !noundef !37
  %_4.i.i.i14.i = load i32, ptr %b.i, align 4, !alias.scope !2127, !noalias !2126, !noundef !37
  %_0.i15.i = icmp slt i32 %_3.i.i.i13.i, %_4.i.i.i14.i
  %0 = select i1 %_0.i12.i, ptr %c.i, ptr %a.i, !unpredictable !37
  %1 = select i1 %_0.i15.i, ptr %c.i, ptr %b.i, !unpredictable !37
  %2 = select i1 %_0.i12.i, ptr %a.i, ptr %1, !unpredictable !37
  %3 = select i1 %_0.i12.i, ptr %b.i, ptr %c.i, !unpredictable !37
  %4 = select i1 %_0.i15.i, ptr %d.i, ptr %3, !unpredictable !37
  tail call void @llvm.experimental.noalias.scope.decl(metadata !2128)
  tail call void @llvm.experimental.noalias.scope.decl(metadata !2131)
  tail call void @llvm.experimental.noalias.scope.decl(metadata !2133)
  tail call void @llvm.experimental.noalias.scope.decl(metadata !2136)
  tail call void @llvm.experimental.noalias.scope.decl(metadata !2138)
  tail call void @llvm.experimental.noalias.scope.decl(metadata !2141)
  %_3.i.i.i16.i = load i32, ptr %4, align 4, !alias.scope !2143, !noalias !2144, !noundef !37
  %_4.i.i.i17.i = load i32, ptr %2, align 4, !alias.scope !2144, !noalias !2143, !noundef !37
  %5 = load i32, ptr %0, align 4
  store i32 %5, ptr %scratch.0, align 4
  %dst5.i = getelementptr inbounds nuw i8, ptr %scratch.0, i64 4
  %6 = tail call i32 @llvm.smin.i32(i32 %_3.i.i.i16.i, i32 %_4.i.i.i17.i)
  store i32 %6, ptr %dst5.i, align 4
  %dst6.i = getelementptr inbounds nuw i8, ptr %scratch.0, i64 8
  %7 = tail call i32 @llvm.smax.i32(i32 %_3.i.i.i16.i, i32 %_4.i.i.i17.i)
  store i32 %7, ptr %dst6.i, align 4
  %8 = getelementptr inbounds nuw i8, ptr %scratch.0, i64 12
  %9 = tail call i32 @llvm.smax.i32(i32 %_3.i.i.i13.i, i32 %_4.i.i.i14.i)
  store i32 %9, ptr %8, align 4
  %_27 = getelementptr inbounds nuw i32, ptr %v.0, i64 %len_div_211
  %_28 = getelementptr inbounds nuw i32, ptr %scratch.0, i64 %len_div_211
  %_7.i13 = getelementptr inbounds nuw i8, ptr %_27, i64 4
  tail call void @llvm.experimental.noalias.scope.decl(metadata !2145)
  tail call void @llvm.experimental.noalias.scope.decl(metadata !2148)
  tail call void @llvm.experimental.noalias.scope.decl(metadata !2150)
  tail call void @llvm.experimental.noalias.scope.decl(metadata !2153)
  tail call void @llvm.experimental.noalias.scope.decl(metadata !2155)
  tail call void @llvm.experimental.noalias.scope.decl(metadata !2158)
  %_3.i.i.i.i14 = load i32, ptr %_7.i13, align 4, !alias.scope !2160, !noalias !2161, !noundef !37
  %_4.i.i.i.i15 = load i32, ptr %_27, align 4, !alias.scope !2161, !noalias !2160, !noundef !37
  %_0.i.i16 = icmp slt i32 %_3.i.i.i.i14, %_4.i.i.i.i15
  %_12.i17 = getelementptr inbounds nuw i8, ptr %_27, i64 12
  %_14.i18 = getelementptr inbounds nuw i8, ptr %_27, i64 8
  tail call void @llvm.experimental.noalias.scope.decl(metadata !2162)
  tail call void @llvm.experimental.noalias.scope.decl(metadata !2165)
  tail call void @llvm.experimental.noalias.scope.decl(metadata !2167)
  tail call void @llvm.experimental.noalias.scope.decl(metadata !2170)
  tail call void @llvm.experimental.noalias.scope.decl(metadata !2172)
  tail call void @llvm.experimental.noalias.scope.decl(metadata !2175)
  %_3.i.i.i7.i19 = load i32, ptr %_12.i17, align 4, !alias.scope !2177, !noalias !2178, !noundef !37
  %_4.i.i.i8.i20 = load i32, ptr %_14.i18, align 4, !alias.scope !2178, !noalias !2177, !noundef !37
  %_0.i9.i21 = icmp slt i32 %_3.i.i.i7.i19, %_4.i.i.i8.i20
  %count.i22 = zext i1 %_0.i.i16 to i64
  %a.i23 = getelementptr inbounds nuw i32, ptr %_27, i64 %count.i22
  %_19.i24 = xor i1 %_0.i.i16, true
  %count2.i25 = zext i1 %_19.i24 to i64
  %b.i26 = getelementptr inbounds nuw i32, ptr %_27, i64 %count2.i25
  %count3.i27 = select i1 %_0.i9.i21, i64 3, i64 2
  %c.i28 = getelementptr inbounds nuw i32, ptr %_27, i64 %count3.i27
  %count4.i29 = select i1 %_0.i9.i21, i64 2, i64 3
  %d.i30 = getelementptr inbounds nuw i32, ptr %_27, i64 %count4.i29
  tail call void @llvm.experimental.noalias.scope.decl(metadata !2179)
  tail call void @llvm.experimental.noalias.scope.decl(metadata !2182)
  tail call void @llvm.experimental.noalias.scope.decl(metadata !2184)
  tail call void @llvm.experimental.noalias.scope.decl(metadata !2187)
  tail call void @llvm.experimental.noalias.scope.decl(metadata !2189)
  tail call void @llvm.experimental.noalias.scope.decl(metadata !2192)
  %_3.i.i.i10.i31 = load i32, ptr %c.i28, align 4, !alias.scope !2194, !noalias !2195, !noundef !37
  %_4.i.i.i11.i32 = load i32, ptr %a.i23, align 4, !alias.scope !2195, !noalias !2194, !noundef !37
  %_0.i12.i33 = icmp slt i32 %_3.i.i.i10.i31, %_4.i.i.i11.i32
  tail call void @llvm.experimental.noalias.scope.decl(metadata !2196)
  tail call void @llvm.experimental.noalias.scope.decl(metadata !2199)
  tail call void @llvm.experimental.noalias.scope.decl(metadata !2201)
  tail call void @llvm.experimental.noalias.scope.decl(metadata !2204)
  tail call void @llvm.experimental.noalias.scope.decl(metadata !2206)
  tail call void @llvm.experimental.noalias.scope.decl(metadata !2209)
  %_3.i.i.i13.i34 = load i32, ptr %d.i30, align 4, !alias.scope !2211, !noalias !2212, !noundef !37
  %_4.i.i.i14.i35 = load i32, ptr %b.i26, align 4, !alias.scope !2212, !noalias !2211, !noundef !37
  %_0.i15.i36 = icmp slt i32 %_3.i.i.i13.i34, %_4.i.i.i14.i35
  %10 = select i1 %_0.i12.i33, ptr %c.i28, ptr %a.i23, !unpredictable !37
  %11 = select i1 %_0.i15.i36, ptr %c.i28, ptr %b.i26, !unpredictable !37
  %12 = select i1 %_0.i12.i33, ptr %a.i23, ptr %11, !unpredictable !37
  %13 = select i1 %_0.i12.i33, ptr %b.i26, ptr %c.i28, !unpredictable !37
  %14 = select i1 %_0.i15.i36, ptr %d.i30, ptr %13, !unpredictable !37
  tail call void @llvm.experimental.noalias.scope.decl(metadata !2213)
  tail call void @llvm.experimental.noalias.scope.decl(metadata !2216)
  tail call void @llvm.experimental.noalias.scope.decl(metadata !2218)
  tail call void @llvm.experimental.noalias.scope.decl(metadata !2221)
  tail call void @llvm.experimental.noalias.scope.decl(metadata !2223)
  tail call void @llvm.experimental.noalias.scope.decl(metadata !2226)
  %_3.i.i.i16.i37 = load i32, ptr %14, align 4, !alias.scope !2228, !noalias !2229, !noundef !37
  %_4.i.i.i17.i38 = load i32, ptr %12, align 4, !alias.scope !2229, !noalias !2228, !noundef !37
  %15 = load i32, ptr %10, align 4
  store i32 %15, ptr %_28, align 4
  %dst5.i40 = getelementptr inbounds nuw i8, ptr %_28, i64 4
  %16 = tail call i32 @llvm.smin.i32(i32 %_3.i.i.i16.i37, i32 %_4.i.i.i17.i38)
  store i32 %16, ptr %dst5.i40, align 4
  %dst6.i43 = getelementptr inbounds nuw i8, ptr %_28, i64 8
  %17 = tail call i32 @llvm.smax.i32(i32 %_3.i.i.i16.i37, i32 %_4.i.i.i17.i38)
  store i32 %17, ptr %dst6.i43, align 4
  %18 = getelementptr inbounds nuw i8, ptr %_28, i64 12
  %19 = tail call i32 @llvm.smax.i32(i32 %_3.i.i.i13.i34, i32 %_4.i.i.i14.i35)
  store i32 %19, ptr %18, align 4
  br label %bb15

bb46:                                             ; preds = %bb9
  %20 = load i32, ptr %v.0, align 4
  store i32 %20, ptr %scratch.0, align 4
  %_31 = getelementptr inbounds nuw i32, ptr %v.0, i64 %len_div_211
  %21 = getelementptr inbounds nuw i32, ptr %scratch.0, i64 %len_div_211
  %22 = load i32, ptr %_31, align 4
  store i32 %22, ptr %21, align 4
  br label %bb15

bb15:                                             ; preds = %bb46, %bb10, %bb6
  %presorted_len.sroa.0.0 = phi i64 [ 8, %bb6 ], [ 4, %bb10 ], [ 1, %bb46 ]
  call void @llvm.lifetime.start.p0(i64 32, ptr nonnull %iter)
  store i64 0, ptr %iter, align 8
  %_37.sroa.4.0.iter.sroa_idx = getelementptr inbounds nuw i8, ptr %iter, i64 8
  store i64 2, ptr %_37.sroa.4.0.iter.sroa_idx, align 8
  %_37.sroa.5.0.iter.sroa_idx = getelementptr inbounds nuw i8, ptr %iter, i64 16
  store i64 0, ptr %_37.sroa.5.0.iter.sroa_idx, align 8
  %_37.sroa.6.0.iter.sroa_idx = getelementptr inbounds nuw i8, ptr %iter, i64 24
  store i64 %len_div_211, ptr %_37.sroa.6.0.iter.sroa_idx, align 8
  %23 = sub nsw i64 %v.1, %len_div_211
  %iter1.sroa.0.161 = add nuw nsw i64 %presorted_len.sroa.0.0, 1
  br label %bb16

bb16:                                             ; preds = %bb16.backedge, %bb15
  %24 = phi i64 [ 0, %bb15 ], [ %25, %bb16.backedge ]
  %_5.not.i.not = icmp eq i64 %24, 2
  br i1 %_5.not.i.not, label %"_ZN4core5array4iter10iter_inner78PolymorphicIter$LT$$u5b$core..mem..maybe_uninit..MaybeUninit$LT$T$GT$$u5d$$GT$4next17he9329f89bfb7731fE.exit", label %bb1.i

bb1.i:                                            ; preds = %bb16
  %_11.i = add nuw nsw i64 %24, 1
  store i64 %_11.i, ptr %iter, align 8, !alias.scope !2230
  %_20.i = icmp ult i64 %24, 2
  tail call void @llvm.assume(i1 %_20.i)
  %self3.i = getelementptr inbounds nuw i64, ptr %_37.sroa.5.0.iter.sroa_idx, i64 %24
  %_15.i = load i64, ptr %self3.i, align 8, !alias.scope !2230, !noundef !37
  br label %"_ZN4core5array4iter10iter_inner78PolymorphicIter$LT$$u5b$core..mem..maybe_uninit..MaybeUninit$LT$T$GT$$u5d$$GT$4next17he9329f89bfb7731fE.exit"

"_ZN4core5array4iter10iter_inner78PolymorphicIter$LT$$u5b$core..mem..maybe_uninit..MaybeUninit$LT$T$GT$$u5d$$GT$4next17he9329f89bfb7731fE.exit": ; preds = %bb16, %bb1.i
  %25 = phi i64 [ %_11.i, %bb1.i ], [ %24, %bb16 ]
  %_0.sroa.3.0.i = phi i64 [ %_15.i, %bb1.i ], [ undef, %bb16 ]
  br i1 %_5.not.i.not, label %bb19, label %bb18

bb18:                                             ; preds = %"_ZN4core5array4iter10iter_inner78PolymorphicIter$LT$$u5b$core..mem..maybe_uninit..MaybeUninit$LT$T$GT$$u5d$$GT$4next17he9329f89bfb7731fE.exit"
  %src5 = getelementptr inbounds nuw i32, ptr %v.0, i64 %_0.sroa.3.0.i
  %dst6 = getelementptr inbounds nuw i32, ptr %scratch.0, i64 %_0.sroa.3.0.i
  %_47 = icmp eq i64 %_0.sroa.3.0.i, 0
  %desired_len.sroa.0.0 = select i1 %_47, i64 %len_div_211, i64 %23
  %_8059 = icmp ult i64 %presorted_len.sroa.0.0, %desired_len.sroa.0.0
  br i1 %_8059, label %bb24, label %bb16.backedge

bb16.backedge:                                    ; preds = %_ZN4core5slice4sort6shared9smallsort11insert_tail17h015727d101d269d9E.exit, %bb18
  br label %bb16

bb19:                                             ; preds = %"_ZN4core5array4iter10iter_inner78PolymorphicIter$LT$$u5b$core..mem..maybe_uninit..MaybeUninit$LT$T$GT$$u5d$$GT$4next17he9329f89bfb7731fE.exit"
  call void @llvm.lifetime.end.p0(i64 32, ptr nonnull %iter)
  tail call void @llvm.experimental.noalias.scope.decl(metadata !2233)
  %count1.i = add nsw i64 %v.1, -1
  %26 = getelementptr inbounds nuw i32, ptr %v.0, i64 %count1.i
  %27 = getelementptr inbounds nuw i32, ptr %scratch.0, i64 %count1.i
  %28 = getelementptr i32, ptr %scratch.0, i64 %len_div_211
  %29 = getelementptr i8, ptr %28, i64 -4
  br label %bb15.i

bb16.i:                                           ; preds = %bb15.i
  %30 = getelementptr i8, ptr %35, i64 4
  %31 = getelementptr i8, ptr %34, i64 4
  %_44.i = and i64 %v.1, 1
  %_22.i = icmp eq i64 %_44.i, 0
  br i1 %_22.i, label %bb9.i, label %bb5.i

bb15.i:                                           ; preds = %bb15.i, %bb19
  %dst.sroa.0.029.i = phi ptr [ %_16.i.i, %bb15.i ], [ %v.0, %bb19 ]
  %iter.sroa.0.028.i = phi i64 [ %_39.i, %bb15.i ], [ 0, %bb19 ]
  %left.sroa.0.027.i = phi ptr [ %_14.i.i, %bb15.i ], [ %scratch.0, %bb19 ]
  %right.sroa.0.026.i = phi ptr [ %_12.i.i, %bb15.i ], [ %28, %bb19 ]
  %left_rev.sroa.0.025.i = phi ptr [ %35, %bb15.i ], [ %29, %bb19 ]
  %right_rev.sroa.0.024.i = phi ptr [ %34, %bb15.i ], [ %27, %bb19 ]
  %dst_rev.sroa.0.023.i = phi ptr [ %36, %bb15.i ], [ %26, %bb19 ]
  %_39.i = add nuw nsw i64 %iter.sroa.0.028.i, 1
  tail call void @llvm.experimental.noalias.scope.decl(metadata !2236)
  tail call void @llvm.experimental.noalias.scope.decl(metadata !2239)
  tail call void @llvm.experimental.noalias.scope.decl(metadata !2241), !noalias !2244
  tail call void @llvm.experimental.noalias.scope.decl(metadata !2247), !noalias !2244
  tail call void @llvm.experimental.noalias.scope.decl(metadata !2249), !noalias !2244
  tail call void @llvm.experimental.noalias.scope.decl(metadata !2252), !noalias !2244
  %_3.i.i.i.i49 = load i32, ptr %right.sroa.0.026.i, align 4, !alias.scope !2254, !noalias !2255, !noundef !37
  %_4.i.i.i.i50 = load i32, ptr %left.sroa.0.027.i, align 4, !alias.scope !2256, !noalias !2257, !noundef !37
  %_0.i.i51 = icmp slt i32 %_3.i.i.i.i49, %_4.i.i.i.i50
  %is_l.i18.i = xor i1 %_0.i.i51, true
  %32 = tail call i32 @llvm.smin.i32(i32 %_3.i.i.i.i49, i32 %_4.i.i.i.i50)
  store i32 %32, ptr %dst.sroa.0.029.i, align 4, !noalias !2258
  %count.i.i = zext i1 %_0.i.i51 to i64
  %_12.i.i = getelementptr inbounds nuw i32, ptr %right.sroa.0.026.i, i64 %count.i.i
  %count2.i.i = zext i1 %is_l.i18.i to i64
  %_14.i.i = getelementptr inbounds nuw i32, ptr %left.sroa.0.027.i, i64 %count2.i.i
  %_16.i.i = getelementptr inbounds nuw i8, ptr %dst.sroa.0.029.i, i64 4
  tail call void @llvm.experimental.noalias.scope.decl(metadata !2260)
  tail call void @llvm.experimental.noalias.scope.decl(metadata !2263)
  tail call void @llvm.experimental.noalias.scope.decl(metadata !2265), !noalias !2268
  tail call void @llvm.experimental.noalias.scope.decl(metadata !2271), !noalias !2268
  tail call void @llvm.experimental.noalias.scope.decl(metadata !2273), !noalias !2268
  tail call void @llvm.experimental.noalias.scope.decl(metadata !2276), !noalias !2268
  %_3.i.i.i19.i = load i32, ptr %right_rev.sroa.0.024.i, align 4, !alias.scope !2278, !noalias !2279, !noundef !37
  %_4.i.i.i20.i = load i32, ptr %left_rev.sroa.0.025.i, align 4, !alias.scope !2280, !noalias !2281, !noundef !37
  %_0.i21.i = icmp slt i32 %_3.i.i.i19.i, %_4.i.i.i20.i
  %is_l.i.i = xor i1 %_0.i21.i, true
  %33 = tail call i32 @llvm.smax.i32(i32 %_3.i.i.i19.i, i32 %_4.i.i.i20.i)
  store i32 %33, ptr %dst_rev.sroa.0.023.i, align 4, !noalias !2282
  %count.neg.i.i = sext i1 %is_l.i.i to i64
  %34 = getelementptr i32, ptr %right_rev.sroa.0.024.i, i64 %count.neg.i.i
  %count3.neg.i.i = sext i1 %_0.i21.i to i64
  %35 = getelementptr i32, ptr %left_rev.sroa.0.025.i, i64 %count3.neg.i.i
  %36 = getelementptr inbounds i8, ptr %dst_rev.sroa.0.023.i, i64 -4
  %exitcond.not.i = icmp eq i64 %_39.i, %len_div_211
  br i1 %exitcond.not.i, label %bb16.i, label %bb15.i

bb5.i:                                            ; preds = %bb16.i
  %left_nonempty.i = icmp ult ptr %_14.i.i, %30
  %left.sroa.0.0.right.sroa.0.0.i = select i1 %left_nonempty.i, ptr %_14.i.i, ptr %_12.i.i
  %37 = load i32, ptr %left.sroa.0.0.right.sroa.0.0.i, align 4, !alias.scope !2233
  store i32 %37, ptr %_16.i.i, align 4, !noalias !2233
  %count2.i52 = zext i1 %left_nonempty.i to i64
  %_26.i = getelementptr inbounds nuw i32, ptr %_14.i.i, i64 %count2.i52
  %_30.i = xor i1 %left_nonempty.i, true
  %count3.i53 = zext i1 %_30.i to i64
  %_28.i = getelementptr inbounds nuw i32, ptr %_12.i.i, i64 %count3.i53
  br label %bb9.i

bb9.i:                                            ; preds = %bb5.i, %bb16.i
  %right.sroa.0.1.i = phi ptr [ %_12.i.i, %bb16.i ], [ %_28.i, %bb5.i ]
  %left.sroa.0.1.i = phi ptr [ %_14.i.i, %bb16.i ], [ %_26.i, %bb5.i ]
  %_31.i = icmp ne ptr %left.sroa.0.1.i, %30
  %_32.i = icmp ne ptr %right.sroa.0.1.i, %31
  %or.cond.i = select i1 %_31.i, i1 true, i1 %_32.i
  br i1 %or.cond.i, label %bb13.i, label %bb29, !prof !824

bb13.i:                                           ; preds = %bb9.i
; invoke core::slice::sort::shared::smallsort::panic_on_ord_violation
  invoke void @_ZN4core5slice4sort6shared9smallsort22panic_on_ord_violation17hc77a22a2d50782cdE() #24
          to label %.noexc unwind label %cleanup2

.noexc:                                           ; preds = %bb13.i
  unreachable

cleanup2:                                         ; preds = %bb13.i
  %38 = landingpad { ptr, i32 }
          cleanup
  %39 = shl nuw nsw i64 %v.1, 2
  tail call void @llvm.memcpy.p0.p0.i64(ptr nonnull align 4 %v.0, ptr nonnull align 4 %scratch.0, i64 %39, i1 false), !noalias !2284
  resume { ptr, i32 } %38

bb29:                                             ; preds = %bb9.i, %start
  ret void

bb24:                                             ; preds = %bb18, %_ZN4core5slice4sort6shared9smallsort11insert_tail17h015727d101d269d9E.exit
  %iter1.sroa.0.163 = phi i64 [ %iter1.sroa.0.1, %_ZN4core5slice4sort6shared9smallsort11insert_tail17h015727d101d269d9E.exit ], [ %iter1.sroa.0.161, %bb18 ]
  %iter1.sroa.0.062 = phi i64 [ %iter1.sroa.0.163, %_ZN4core5slice4sort6shared9smallsort11insert_tail17h015727d101d269d9E.exit ], [ %presorted_len.sroa.0.0, %bb18 ]
  %_55 = getelementptr inbounds nuw i32, ptr %src5, i64 %iter1.sroa.0.062
  %dst7 = getelementptr inbounds nuw i32, ptr %dst6, i64 %iter1.sroa.0.062
  %40 = load i32, ptr %_55, align 4
  store i32 %40, ptr %dst7, align 4
  %41 = getelementptr inbounds i8, ptr %dst7, i64 -4
  %_4.i.i.i.i56 = load i32, ptr %41, align 4, !alias.scope !2289, !noalias !2296, !noundef !37
  %_0.i.i57 = icmp slt i32 %40, %_4.i.i.i.i56
  br i1 %_0.i.i57, label %bb4.i, label %_ZN4core5slice4sort6shared9smallsort11insert_tail17h015727d101d269d9E.exit

bb4.i:                                            ; preds = %bb24, %bb6.i
  %gap_guard.sroa.5.0.i = phi ptr [ %sift.sroa.0.0.i, %bb6.i ], [ %dst7, %bb24 ]
  %sift.sroa.0.0.i = phi ptr [ %43, %bb6.i ], [ %41, %bb24 ]
  %42 = load i32, ptr %sift.sroa.0.0.i, align 4
  store i32 %42, ptr %gap_guard.sroa.5.0.i, align 4
  %_18.i = icmp eq ptr %sift.sroa.0.0.i, %dst6
  br i1 %_18.i, label %bb10.i, label %bb6.i

bb6.i:                                            ; preds = %bb4.i
  %43 = getelementptr inbounds i8, ptr %sift.sroa.0.0.i, i64 -4
  %_4.i.i.i2.i = load i32, ptr %43, align 4, !alias.scope !2300, !noalias !2307, !noundef !37
  %_0.i3.i = icmp slt i32 %40, %_4.i.i.i2.i
  br i1 %_0.i3.i, label %bb4.i, label %bb10.i

bb10.i:                                           ; preds = %bb6.i, %bb4.i
  store i32 %40, ptr %sift.sroa.0.0.i, align 4, !noalias !2311
  br label %_ZN4core5slice4sort6shared9smallsort11insert_tail17h015727d101d269d9E.exit

_ZN4core5slice4sort6shared9smallsort11insert_tail17h015727d101d269d9E.exit: ; preds = %bb24, %bb10.i
  %_80 = icmp ult i64 %iter1.sroa.0.163, %desired_len.sroa.0.0
  %_84 = zext i1 %_80 to i64
  %iter1.sroa.0.1 = add nuw i64 %iter1.sroa.0.163, %_84
  br i1 %_80, label %bb24, label %bb16.backedge
}

; core::slice::sort::shared::smallsort::small_sort_general_with_scratch
; Function Attrs: nonlazybind uwtable
define void @_ZN4core5slice4sort6shared9smallsort31small_sort_general_with_scratch17h9952e723b8cfae81E(ptr noalias noundef nonnull align 4 captures(none) %v.0, i64 noundef range(i64 0, 2305843009213693952) %v.1, ptr noalias noundef nonnull align 4 captures(address) %scratch.0, i64 noundef range(i64 0, 2305843009213693952) %scratch.1, ptr noalias readnone align 8 captures(none) %is_less) unnamed_addr #3 personality ptr @rust_eh_personality {
start:
  %iter = alloca [32 x i8], align 8
  %_5 = icmp samesign ult i64 %v.1, 2
  br i1 %_5, label %bb29, label %bb2

bb2:                                              ; preds = %start
  %_8 = add nuw nsw i64 %v.1, 16
  %_6 = icmp samesign ult i64 %scratch.1, %_8
  br i1 %_6, label %bb3, label %bb4

bb4:                                              ; preds = %bb2
  %len_div_211 = lshr i64 %v.1, 1
  %_14 = icmp samesign ugt i64 %v.1, 15
  br i1 %_14, label %bb6, label %bb9

bb3:                                              ; preds = %bb2
  tail call void @llvm.trap()
  unreachable

bb9:                                              ; preds = %bb4
  %_22 = icmp samesign ugt i64 %v.1, 7
  br i1 %_22, label %bb10, label %bb46

bb6:                                              ; preds = %bb4
  %_16 = getelementptr inbounds nuw i32, ptr %scratch.0, i64 %v.1
; call core::slice::sort::shared::smallsort::sort8_stable
  tail call void @_ZN4core5slice4sort6shared9smallsort12sort8_stable17hc711899e1305eaebE(ptr noundef nonnull %v.0, ptr noundef nonnull %scratch.0, ptr noundef nonnull %_16, ptr noalias align 8 poison)
  %_18 = getelementptr inbounds nuw i32, ptr %v.0, i64 %len_div_211
  %_19 = getelementptr inbounds nuw i32, ptr %scratch.0, i64 %len_div_211
  %_20 = getelementptr inbounds nuw i8, ptr %_16, i64 32
; call core::slice::sort::shared::smallsort::sort8_stable
  tail call void @_ZN4core5slice4sort6shared9smallsort12sort8_stable17hc711899e1305eaebE(ptr noundef nonnull %_18, ptr noundef nonnull %_19, ptr noundef nonnull %_20, ptr noalias align 8 poison)
  br label %bb15

bb10:                                             ; preds = %bb9
  %_7.i = getelementptr inbounds nuw i8, ptr %v.0, i64 4
  tail call void @llvm.experimental.noalias.scope.decl(metadata !2316)
  tail call void @llvm.experimental.noalias.scope.decl(metadata !2319)
  tail call void @llvm.experimental.noalias.scope.decl(metadata !2321)
  tail call void @llvm.experimental.noalias.scope.decl(metadata !2324)
  tail call void @llvm.experimental.noalias.scope.decl(metadata !2326)
  tail call void @llvm.experimental.noalias.scope.decl(metadata !2329)
  tail call void @llvm.experimental.noalias.scope.decl(metadata !2331)
  tail call void @llvm.experimental.noalias.scope.decl(metadata !2334)
  %_3.i.i.i.i.i = load i32, ptr %_7.i, align 4, !alias.scope !2336, !noalias !2337, !noundef !37
  %_4.i.i.i.i.i = load i32, ptr %v.0, align 4, !alias.scope !2337, !noalias !2336, !noundef !37
  %_0.i.i = icmp slt i32 %_3.i.i.i.i.i, %_4.i.i.i.i.i
  %_12.i = getelementptr inbounds nuw i8, ptr %v.0, i64 12
  %_14.i = getelementptr inbounds nuw i8, ptr %v.0, i64 8
  tail call void @llvm.experimental.noalias.scope.decl(metadata !2338)
  tail call void @llvm.experimental.noalias.scope.decl(metadata !2341)
  tail call void @llvm.experimental.noalias.scope.decl(metadata !2343)
  tail call void @llvm.experimental.noalias.scope.decl(metadata !2346)
  tail call void @llvm.experimental.noalias.scope.decl(metadata !2348)
  tail call void @llvm.experimental.noalias.scope.decl(metadata !2351)
  tail call void @llvm.experimental.noalias.scope.decl(metadata !2353)
  tail call void @llvm.experimental.noalias.scope.decl(metadata !2356)
  %_3.i.i.i.i7.i = load i32, ptr %_12.i, align 4, !alias.scope !2358, !noalias !2359, !noundef !37
  %_4.i.i.i.i8.i = load i32, ptr %_14.i, align 4, !alias.scope !2359, !noalias !2358, !noundef !37
  %_0.i9.i = icmp slt i32 %_3.i.i.i.i7.i, %_4.i.i.i.i8.i
  %count.i = zext i1 %_0.i.i to i64
  %a.i = getelementptr inbounds nuw i32, ptr %v.0, i64 %count.i
  %_19.i = xor i1 %_0.i.i, true
  %count2.i = zext i1 %_19.i to i64
  %b.i = getelementptr inbounds nuw i32, ptr %v.0, i64 %count2.i
  %count3.i = select i1 %_0.i9.i, i64 3, i64 2
  %c.i = getelementptr inbounds nuw i32, ptr %v.0, i64 %count3.i
  %count4.i = select i1 %_0.i9.i, i64 2, i64 3
  %d.i = getelementptr inbounds nuw i32, ptr %v.0, i64 %count4.i
  tail call void @llvm.experimental.noalias.scope.decl(metadata !2360)
  tail call void @llvm.experimental.noalias.scope.decl(metadata !2363)
  tail call void @llvm.experimental.noalias.scope.decl(metadata !2365)
  tail call void @llvm.experimental.noalias.scope.decl(metadata !2368)
  tail call void @llvm.experimental.noalias.scope.decl(metadata !2370)
  tail call void @llvm.experimental.noalias.scope.decl(metadata !2373)
  tail call void @llvm.experimental.noalias.scope.decl(metadata !2375)
  tail call void @llvm.experimental.noalias.scope.decl(metadata !2378)
  %_3.i.i.i.i10.i = load i32, ptr %c.i, align 4, !alias.scope !2380, !noalias !2381, !noundef !37
  %_4.i.i.i.i11.i = load i32, ptr %a.i, align 4, !alias.scope !2381, !noalias !2380, !noundef !37
  %_0.i12.i = icmp slt i32 %_3.i.i.i.i10.i, %_4.i.i.i.i11.i
  tail call void @llvm.experimental.noalias.scope.decl(metadata !2382)
  tail call void @llvm.experimental.noalias.scope.decl(metadata !2385)
  tail call void @llvm.experimental.noalias.scope.decl(metadata !2387)
  tail call void @llvm.experimental.noalias.scope.decl(metadata !2390)
  tail call void @llvm.experimental.noalias.scope.decl(metadata !2392)
  tail call void @llvm.experimental.noalias.scope.decl(metadata !2395)
  tail call void @llvm.experimental.noalias.scope.decl(metadata !2397)
  tail call void @llvm.experimental.noalias.scope.decl(metadata !2400)
  %_3.i.i.i.i13.i = load i32, ptr %d.i, align 4, !alias.scope !2402, !noalias !2403, !noundef !37
  %_4.i.i.i.i14.i = load i32, ptr %b.i, align 4, !alias.scope !2403, !noalias !2402, !noundef !37
  %_0.i15.i = icmp slt i32 %_3.i.i.i.i13.i, %_4.i.i.i.i14.i
  %0 = select i1 %_0.i12.i, ptr %c.i, ptr %a.i, !unpredictable !37
  %1 = select i1 %_0.i15.i, ptr %c.i, ptr %b.i, !unpredictable !37
  %2 = select i1 %_0.i12.i, ptr %a.i, ptr %1, !unpredictable !37
  %3 = select i1 %_0.i12.i, ptr %b.i, ptr %c.i, !unpredictable !37
  %4 = select i1 %_0.i15.i, ptr %d.i, ptr %3, !unpredictable !37
  tail call void @llvm.experimental.noalias.scope.decl(metadata !2404)
  tail call void @llvm.experimental.noalias.scope.decl(metadata !2407)
  tail call void @llvm.experimental.noalias.scope.decl(metadata !2409)
  tail call void @llvm.experimental.noalias.scope.decl(metadata !2412)
  tail call void @llvm.experimental.noalias.scope.decl(metadata !2414)
  tail call void @llvm.experimental.noalias.scope.decl(metadata !2417)
  tail call void @llvm.experimental.noalias.scope.decl(metadata !2419)
  tail call void @llvm.experimental.noalias.scope.decl(metadata !2422)
  %_3.i.i.i.i16.i = load i32, ptr %4, align 4, !alias.scope !2424, !noalias !2425, !noundef !37
  %_4.i.i.i.i17.i = load i32, ptr %2, align 4, !alias.scope !2425, !noalias !2424, !noundef !37
  %5 = load i32, ptr %0, align 4
  store i32 %5, ptr %scratch.0, align 4
  %dst5.i = getelementptr inbounds nuw i8, ptr %scratch.0, i64 4
  %6 = tail call i32 @llvm.smin.i32(i32 %_3.i.i.i.i16.i, i32 %_4.i.i.i.i17.i)
  store i32 %6, ptr %dst5.i, align 4
  %dst6.i = getelementptr inbounds nuw i8, ptr %scratch.0, i64 8
  %7 = tail call i32 @llvm.smax.i32(i32 %_3.i.i.i.i16.i, i32 %_4.i.i.i.i17.i)
  store i32 %7, ptr %dst6.i, align 4
  %8 = getelementptr inbounds nuw i8, ptr %scratch.0, i64 12
  %9 = tail call i32 @llvm.smax.i32(i32 %_3.i.i.i.i13.i, i32 %_4.i.i.i.i14.i)
  store i32 %9, ptr %8, align 4
  %_27 = getelementptr inbounds nuw i32, ptr %v.0, i64 %len_div_211
  %_28 = getelementptr inbounds nuw i32, ptr %scratch.0, i64 %len_div_211
  %_7.i13 = getelementptr inbounds nuw i8, ptr %_27, i64 4
  tail call void @llvm.experimental.noalias.scope.decl(metadata !2426)
  tail call void @llvm.experimental.noalias.scope.decl(metadata !2429)
  tail call void @llvm.experimental.noalias.scope.decl(metadata !2431)
  tail call void @llvm.experimental.noalias.scope.decl(metadata !2434)
  tail call void @llvm.experimental.noalias.scope.decl(metadata !2436)
  tail call void @llvm.experimental.noalias.scope.decl(metadata !2439)
  tail call void @llvm.experimental.noalias.scope.decl(metadata !2441)
  tail call void @llvm.experimental.noalias.scope.decl(metadata !2444)
  %_3.i.i.i.i.i14 = load i32, ptr %_7.i13, align 4, !alias.scope !2446, !noalias !2447, !noundef !37
  %_4.i.i.i.i.i15 = load i32, ptr %_27, align 4, !alias.scope !2447, !noalias !2446, !noundef !37
  %_0.i.i16 = icmp slt i32 %_3.i.i.i.i.i14, %_4.i.i.i.i.i15
  %_12.i17 = getelementptr inbounds nuw i8, ptr %_27, i64 12
  %_14.i18 = getelementptr inbounds nuw i8, ptr %_27, i64 8
  tail call void @llvm.experimental.noalias.scope.decl(metadata !2448)
  tail call void @llvm.experimental.noalias.scope.decl(metadata !2451)
  tail call void @llvm.experimental.noalias.scope.decl(metadata !2453)
  tail call void @llvm.experimental.noalias.scope.decl(metadata !2456)
  tail call void @llvm.experimental.noalias.scope.decl(metadata !2458)
  tail call void @llvm.experimental.noalias.scope.decl(metadata !2461)
  tail call void @llvm.experimental.noalias.scope.decl(metadata !2463)
  tail call void @llvm.experimental.noalias.scope.decl(metadata !2466)
  %_3.i.i.i.i7.i19 = load i32, ptr %_12.i17, align 4, !alias.scope !2468, !noalias !2469, !noundef !37
  %_4.i.i.i.i8.i20 = load i32, ptr %_14.i18, align 4, !alias.scope !2469, !noalias !2468, !noundef !37
  %_0.i9.i21 = icmp slt i32 %_3.i.i.i.i7.i19, %_4.i.i.i.i8.i20
  %count.i22 = zext i1 %_0.i.i16 to i64
  %a.i23 = getelementptr inbounds nuw i32, ptr %_27, i64 %count.i22
  %_19.i24 = xor i1 %_0.i.i16, true
  %count2.i25 = zext i1 %_19.i24 to i64
  %b.i26 = getelementptr inbounds nuw i32, ptr %_27, i64 %count2.i25
  %count3.i27 = select i1 %_0.i9.i21, i64 3, i64 2
  %c.i28 = getelementptr inbounds nuw i32, ptr %_27, i64 %count3.i27
  %count4.i29 = select i1 %_0.i9.i21, i64 2, i64 3
  %d.i30 = getelementptr inbounds nuw i32, ptr %_27, i64 %count4.i29
  tail call void @llvm.experimental.noalias.scope.decl(metadata !2470)
  tail call void @llvm.experimental.noalias.scope.decl(metadata !2473)
  tail call void @llvm.experimental.noalias.scope.decl(metadata !2475)
  tail call void @llvm.experimental.noalias.scope.decl(metadata !2478)
  tail call void @llvm.experimental.noalias.scope.decl(metadata !2480)
  tail call void @llvm.experimental.noalias.scope.decl(metadata !2483)
  tail call void @llvm.experimental.noalias.scope.decl(metadata !2485)
  tail call void @llvm.experimental.noalias.scope.decl(metadata !2488)
  %_3.i.i.i.i10.i31 = load i32, ptr %c.i28, align 4, !alias.scope !2490, !noalias !2491, !noundef !37
  %_4.i.i.i.i11.i32 = load i32, ptr %a.i23, align 4, !alias.scope !2491, !noalias !2490, !noundef !37
  %_0.i12.i33 = icmp slt i32 %_3.i.i.i.i10.i31, %_4.i.i.i.i11.i32
  tail call void @llvm.experimental.noalias.scope.decl(metadata !2492)
  tail call void @llvm.experimental.noalias.scope.decl(metadata !2495)
  tail call void @llvm.experimental.noalias.scope.decl(metadata !2497)
  tail call void @llvm.experimental.noalias.scope.decl(metadata !2500)
  tail call void @llvm.experimental.noalias.scope.decl(metadata !2502)
  tail call void @llvm.experimental.noalias.scope.decl(metadata !2505)
  tail call void @llvm.experimental.noalias.scope.decl(metadata !2507)
  tail call void @llvm.experimental.noalias.scope.decl(metadata !2510)
  %_3.i.i.i.i13.i34 = load i32, ptr %d.i30, align 4, !alias.scope !2512, !noalias !2513, !noundef !37
  %_4.i.i.i.i14.i35 = load i32, ptr %b.i26, align 4, !alias.scope !2513, !noalias !2512, !noundef !37
  %_0.i15.i36 = icmp slt i32 %_3.i.i.i.i13.i34, %_4.i.i.i.i14.i35
  %10 = select i1 %_0.i12.i33, ptr %c.i28, ptr %a.i23, !unpredictable !37
  %11 = select i1 %_0.i15.i36, ptr %c.i28, ptr %b.i26, !unpredictable !37
  %12 = select i1 %_0.i12.i33, ptr %a.i23, ptr %11, !unpredictable !37
  %13 = select i1 %_0.i12.i33, ptr %b.i26, ptr %c.i28, !unpredictable !37
  %14 = select i1 %_0.i15.i36, ptr %d.i30, ptr %13, !unpredictable !37
  tail call void @llvm.experimental.noalias.scope.decl(metadata !2514)
  tail call void @llvm.experimental.noalias.scope.decl(metadata !2517)
  tail call void @llvm.experimental.noalias.scope.decl(metadata !2519)
  tail call void @llvm.experimental.noalias.scope.decl(metadata !2522)
  tail call void @llvm.experimental.noalias.scope.decl(metadata !2524)
  tail call void @llvm.experimental.noalias.scope.decl(metadata !2527)
  tail call void @llvm.experimental.noalias.scope.decl(metadata !2529)
  tail call void @llvm.experimental.noalias.scope.decl(metadata !2532)
  %_3.i.i.i.i16.i37 = load i32, ptr %14, align 4, !alias.scope !2534, !noalias !2535, !noundef !37
  %_4.i.i.i.i17.i38 = load i32, ptr %12, align 4, !alias.scope !2535, !noalias !2534, !noundef !37
  %15 = load i32, ptr %10, align 4
  store i32 %15, ptr %_28, align 4
  %dst5.i40 = getelementptr inbounds nuw i8, ptr %_28, i64 4
  %16 = tail call i32 @llvm.smin.i32(i32 %_3.i.i.i.i16.i37, i32 %_4.i.i.i.i17.i38)
  store i32 %16, ptr %dst5.i40, align 4
  %dst6.i43 = getelementptr inbounds nuw i8, ptr %_28, i64 8
  %17 = tail call i32 @llvm.smax.i32(i32 %_3.i.i.i.i16.i37, i32 %_4.i.i.i.i17.i38)
  store i32 %17, ptr %dst6.i43, align 4
  %18 = getelementptr inbounds nuw i8, ptr %_28, i64 12
  %19 = tail call i32 @llvm.smax.i32(i32 %_3.i.i.i.i13.i34, i32 %_4.i.i.i.i14.i35)
  store i32 %19, ptr %18, align 4
  br label %bb15

bb46:                                             ; preds = %bb9
  %20 = load i32, ptr %v.0, align 4
  store i32 %20, ptr %scratch.0, align 4
  %_31 = getelementptr inbounds nuw i32, ptr %v.0, i64 %len_div_211
  %21 = getelementptr inbounds nuw i32, ptr %scratch.0, i64 %len_div_211
  %22 = load i32, ptr %_31, align 4
  store i32 %22, ptr %21, align 4
  br label %bb15

bb15:                                             ; preds = %bb46, %bb10, %bb6
  %presorted_len.sroa.0.0 = phi i64 [ 8, %bb6 ], [ 4, %bb10 ], [ 1, %bb46 ]
  call void @llvm.lifetime.start.p0(i64 32, ptr nonnull %iter)
  store i64 0, ptr %iter, align 8
  %_37.sroa.4.0.iter.sroa_idx = getelementptr inbounds nuw i8, ptr %iter, i64 8
  store i64 2, ptr %_37.sroa.4.0.iter.sroa_idx, align 8
  %_37.sroa.5.0.iter.sroa_idx = getelementptr inbounds nuw i8, ptr %iter, i64 16
  store i64 0, ptr %_37.sroa.5.0.iter.sroa_idx, align 8
  %_37.sroa.6.0.iter.sroa_idx = getelementptr inbounds nuw i8, ptr %iter, i64 24
  store i64 %len_div_211, ptr %_37.sroa.6.0.iter.sroa_idx, align 8
  %23 = sub nsw i64 %v.1, %len_div_211
  %iter1.sroa.0.161 = add nuw nsw i64 %presorted_len.sroa.0.0, 1
  br label %bb16

bb16:                                             ; preds = %bb16.backedge, %bb15
  %24 = phi i64 [ 0, %bb15 ], [ %25, %bb16.backedge ]
  %_5.not.i.not = icmp eq i64 %24, 2
  br i1 %_5.not.i.not, label %"_ZN4core5array4iter10iter_inner78PolymorphicIter$LT$$u5b$core..mem..maybe_uninit..MaybeUninit$LT$T$GT$$u5d$$GT$4next17he9329f89bfb7731fE.exit", label %bb1.i

bb1.i:                                            ; preds = %bb16
  %_11.i = add nuw nsw i64 %24, 1
  store i64 %_11.i, ptr %iter, align 8, !alias.scope !2536
  %_20.i = icmp ult i64 %24, 2
  tail call void @llvm.assume(i1 %_20.i)
  %self3.i = getelementptr inbounds nuw i64, ptr %_37.sroa.5.0.iter.sroa_idx, i64 %24
  %_15.i = load i64, ptr %self3.i, align 8, !alias.scope !2536, !noundef !37
  br label %"_ZN4core5array4iter10iter_inner78PolymorphicIter$LT$$u5b$core..mem..maybe_uninit..MaybeUninit$LT$T$GT$$u5d$$GT$4next17he9329f89bfb7731fE.exit"

"_ZN4core5array4iter10iter_inner78PolymorphicIter$LT$$u5b$core..mem..maybe_uninit..MaybeUninit$LT$T$GT$$u5d$$GT$4next17he9329f89bfb7731fE.exit": ; preds = %bb16, %bb1.i
  %25 = phi i64 [ %_11.i, %bb1.i ], [ %24, %bb16 ]
  %_0.sroa.3.0.i = phi i64 [ %_15.i, %bb1.i ], [ undef, %bb16 ]
  br i1 %_5.not.i.not, label %bb19, label %bb18

bb18:                                             ; preds = %"_ZN4core5array4iter10iter_inner78PolymorphicIter$LT$$u5b$core..mem..maybe_uninit..MaybeUninit$LT$T$GT$$u5d$$GT$4next17he9329f89bfb7731fE.exit"
  %src5 = getelementptr inbounds nuw i32, ptr %v.0, i64 %_0.sroa.3.0.i
  %dst6 = getelementptr inbounds nuw i32, ptr %scratch.0, i64 %_0.sroa.3.0.i
  %_47 = icmp eq i64 %_0.sroa.3.0.i, 0
  %desired_len.sroa.0.0 = select i1 %_47, i64 %len_div_211, i64 %23
  %_8059 = icmp ult i64 %presorted_len.sroa.0.0, %desired_len.sroa.0.0
  br i1 %_8059, label %bb24, label %bb16.backedge

bb16.backedge:                                    ; preds = %_ZN4core5slice4sort6shared9smallsort11insert_tail17hc6676223f144befbE.exit, %bb18
  br label %bb16

bb19:                                             ; preds = %"_ZN4core5array4iter10iter_inner78PolymorphicIter$LT$$u5b$core..mem..maybe_uninit..MaybeUninit$LT$T$GT$$u5d$$GT$4next17he9329f89bfb7731fE.exit"
  call void @llvm.lifetime.end.p0(i64 32, ptr nonnull %iter)
  tail call void @llvm.experimental.noalias.scope.decl(metadata !2539)
  %count1.i = add nsw i64 %v.1, -1
  %26 = getelementptr inbounds nuw i32, ptr %v.0, i64 %count1.i
  %27 = getelementptr inbounds nuw i32, ptr %scratch.0, i64 %count1.i
  %28 = getelementptr i32, ptr %scratch.0, i64 %len_div_211
  %29 = getelementptr i8, ptr %28, i64 -4
  br label %bb15.i

bb16.i:                                           ; preds = %bb15.i
  %30 = getelementptr i8, ptr %35, i64 4
  %31 = getelementptr i8, ptr %34, i64 4
  %_44.i = and i64 %v.1, 1
  %_22.i = icmp eq i64 %_44.i, 0
  br i1 %_22.i, label %bb9.i, label %bb5.i

bb15.i:                                           ; preds = %bb15.i, %bb19
  %dst.sroa.0.029.i = phi ptr [ %_16.i.i, %bb15.i ], [ %v.0, %bb19 ]
  %iter.sroa.0.028.i = phi i64 [ %_39.i, %bb15.i ], [ 0, %bb19 ]
  %left.sroa.0.027.i = phi ptr [ %_14.i.i, %bb15.i ], [ %scratch.0, %bb19 ]
  %right.sroa.0.026.i = phi ptr [ %_12.i.i, %bb15.i ], [ %28, %bb19 ]
  %left_rev.sroa.0.025.i = phi ptr [ %35, %bb15.i ], [ %29, %bb19 ]
  %right_rev.sroa.0.024.i = phi ptr [ %34, %bb15.i ], [ %27, %bb19 ]
  %dst_rev.sroa.0.023.i = phi ptr [ %36, %bb15.i ], [ %26, %bb19 ]
  %_39.i = add nuw nsw i64 %iter.sroa.0.028.i, 1
  tail call void @llvm.experimental.noalias.scope.decl(metadata !2542)
  tail call void @llvm.experimental.noalias.scope.decl(metadata !2545)
  tail call void @llvm.experimental.noalias.scope.decl(metadata !2547), !noalias !2550
  tail call void @llvm.experimental.noalias.scope.decl(metadata !2553), !noalias !2550
  tail call void @llvm.experimental.noalias.scope.decl(metadata !2555), !noalias !2550
  tail call void @llvm.experimental.noalias.scope.decl(metadata !2558), !noalias !2550
  tail call void @llvm.experimental.noalias.scope.decl(metadata !2560), !noalias !2550
  tail call void @llvm.experimental.noalias.scope.decl(metadata !2563), !noalias !2550
  %_3.i.i.i.i.i49 = load i32, ptr %right.sroa.0.026.i, align 4, !alias.scope !2565, !noalias !2566, !noundef !37
  %_4.i.i.i.i.i50 = load i32, ptr %left.sroa.0.027.i, align 4, !alias.scope !2567, !noalias !2568, !noundef !37
  %_0.i.i51 = icmp slt i32 %_3.i.i.i.i.i49, %_4.i.i.i.i.i50
  %is_l.i18.i = xor i1 %_0.i.i51, true
  %32 = tail call i32 @llvm.smin.i32(i32 %_3.i.i.i.i.i49, i32 %_4.i.i.i.i.i50)
  store i32 %32, ptr %dst.sroa.0.029.i, align 4, !noalias !2569
  %count.i.i = zext i1 %_0.i.i51 to i64
  %_12.i.i = getelementptr inbounds nuw i32, ptr %right.sroa.0.026.i, i64 %count.i.i
  %count2.i.i = zext i1 %is_l.i18.i to i64
  %_14.i.i = getelementptr inbounds nuw i32, ptr %left.sroa.0.027.i, i64 %count2.i.i
  %_16.i.i = getelementptr inbounds nuw i8, ptr %dst.sroa.0.029.i, i64 4
  tail call void @llvm.experimental.noalias.scope.decl(metadata !2571)
  tail call void @llvm.experimental.noalias.scope.decl(metadata !2574)
  tail call void @llvm.experimental.noalias.scope.decl(metadata !2576), !noalias !2579
  tail call void @llvm.experimental.noalias.scope.decl(metadata !2582), !noalias !2579
  tail call void @llvm.experimental.noalias.scope.decl(metadata !2584), !noalias !2579
  tail call void @llvm.experimental.noalias.scope.decl(metadata !2587), !noalias !2579
  tail call void @llvm.experimental.noalias.scope.decl(metadata !2589), !noalias !2579
  tail call void @llvm.experimental.noalias.scope.decl(metadata !2592), !noalias !2579
  %_3.i.i.i.i19.i = load i32, ptr %right_rev.sroa.0.024.i, align 4, !alias.scope !2594, !noalias !2595, !noundef !37
  %_4.i.i.i.i20.i = load i32, ptr %left_rev.sroa.0.025.i, align 4, !alias.scope !2596, !noalias !2597, !noundef !37
  %_0.i21.i = icmp slt i32 %_3.i.i.i.i19.i, %_4.i.i.i.i20.i
  %is_l.i.i = xor i1 %_0.i21.i, true
  %33 = tail call i32 @llvm.smax.i32(i32 %_3.i.i.i.i19.i, i32 %_4.i.i.i.i20.i)
  store i32 %33, ptr %dst_rev.sroa.0.023.i, align 4, !noalias !2598
  %count.neg.i.i = sext i1 %is_l.i.i to i64
  %34 = getelementptr i32, ptr %right_rev.sroa.0.024.i, i64 %count.neg.i.i
  %count3.neg.i.i = sext i1 %_0.i21.i to i64
  %35 = getelementptr i32, ptr %left_rev.sroa.0.025.i, i64 %count3.neg.i.i
  %36 = getelementptr inbounds i8, ptr %dst_rev.sroa.0.023.i, i64 -4
  %exitcond.not.i = icmp eq i64 %_39.i, %len_div_211
  br i1 %exitcond.not.i, label %bb16.i, label %bb15.i

bb5.i:                                            ; preds = %bb16.i
  %left_nonempty.i = icmp ult ptr %_14.i.i, %30
  %left.sroa.0.0.right.sroa.0.0.i = select i1 %left_nonempty.i, ptr %_14.i.i, ptr %_12.i.i
  %37 = load i32, ptr %left.sroa.0.0.right.sroa.0.0.i, align 4, !alias.scope !2539
  store i32 %37, ptr %_16.i.i, align 4, !noalias !2539
  %count2.i52 = zext i1 %left_nonempty.i to i64
  %_26.i = getelementptr inbounds nuw i32, ptr %_14.i.i, i64 %count2.i52
  %_30.i = xor i1 %left_nonempty.i, true
  %count3.i53 = zext i1 %_30.i to i64
  %_28.i = getelementptr inbounds nuw i32, ptr %_12.i.i, i64 %count3.i53
  br label %bb9.i

bb9.i:                                            ; preds = %bb5.i, %bb16.i
  %right.sroa.0.1.i = phi ptr [ %_12.i.i, %bb16.i ], [ %_28.i, %bb5.i ]
  %left.sroa.0.1.i = phi ptr [ %_14.i.i, %bb16.i ], [ %_26.i, %bb5.i ]
  %_31.i = icmp ne ptr %left.sroa.0.1.i, %30
  %_32.i = icmp ne ptr %right.sroa.0.1.i, %31
  %or.cond.i = select i1 %_31.i, i1 true, i1 %_32.i
  br i1 %or.cond.i, label %bb13.i, label %bb29, !prof !824

bb13.i:                                           ; preds = %bb9.i
; invoke core::slice::sort::shared::smallsort::panic_on_ord_violation
  invoke void @_ZN4core5slice4sort6shared9smallsort22panic_on_ord_violation17hc77a22a2d50782cdE() #24
          to label %.noexc unwind label %cleanup2

.noexc:                                           ; preds = %bb13.i
  unreachable

cleanup2:                                         ; preds = %bb13.i
  %38 = landingpad { ptr, i32 }
          cleanup
  %39 = shl nuw nsw i64 %v.1, 2
  tail call void @llvm.memcpy.p0.p0.i64(ptr nonnull align 4 %v.0, ptr nonnull align 4 %scratch.0, i64 %39, i1 false), !noalias !2600
  resume { ptr, i32 } %38

bb29:                                             ; preds = %bb9.i, %start
  ret void

bb24:                                             ; preds = %bb18, %_ZN4core5slice4sort6shared9smallsort11insert_tail17hc6676223f144befbE.exit
  %iter1.sroa.0.163 = phi i64 [ %iter1.sroa.0.1, %_ZN4core5slice4sort6shared9smallsort11insert_tail17hc6676223f144befbE.exit ], [ %iter1.sroa.0.161, %bb18 ]
  %iter1.sroa.0.062 = phi i64 [ %iter1.sroa.0.163, %_ZN4core5slice4sort6shared9smallsort11insert_tail17hc6676223f144befbE.exit ], [ %presorted_len.sroa.0.0, %bb18 ]
  %_55 = getelementptr inbounds nuw i32, ptr %src5, i64 %iter1.sroa.0.062
  %dst7 = getelementptr inbounds nuw i32, ptr %dst6, i64 %iter1.sroa.0.062
  %40 = load i32, ptr %_55, align 4
  store i32 %40, ptr %dst7, align 4
  %41 = getelementptr inbounds i8, ptr %dst7, i64 -4
  %_4.i.i.i.i.i56 = load i32, ptr %41, align 4, !alias.scope !2605, !noalias !2614, !noundef !37
  %_0.i.i57 = icmp slt i32 %40, %_4.i.i.i.i.i56
  br i1 %_0.i.i57, label %bb4.i, label %_ZN4core5slice4sort6shared9smallsort11insert_tail17hc6676223f144befbE.exit

bb4.i:                                            ; preds = %bb24, %bb6.i
  %gap_guard.sroa.5.0.i = phi ptr [ %sift.sroa.0.0.i, %bb6.i ], [ %dst7, %bb24 ]
  %sift.sroa.0.0.i = phi ptr [ %43, %bb6.i ], [ %41, %bb24 ]
  %42 = load i32, ptr %sift.sroa.0.0.i, align 4
  store i32 %42, ptr %gap_guard.sroa.5.0.i, align 4
  %_18.i = icmp eq ptr %sift.sroa.0.0.i, %dst6
  br i1 %_18.i, label %bb10.i, label %bb6.i

bb6.i:                                            ; preds = %bb4.i
  %43 = getelementptr inbounds i8, ptr %sift.sroa.0.0.i, i64 -4
  %_4.i.i.i.i2.i = load i32, ptr %43, align 4, !alias.scope !2619, !noalias !2628, !noundef !37
  %_0.i3.i = icmp slt i32 %40, %_4.i.i.i.i2.i
  br i1 %_0.i3.i, label %bb4.i, label %bb10.i

bb10.i:                                           ; preds = %bb6.i, %bb4.i
  store i32 %40, ptr %sift.sroa.0.0.i, align 4, !noalias !2633
  br label %_ZN4core5slice4sort6shared9smallsort11insert_tail17hc6676223f144befbE.exit

_ZN4core5slice4sort6shared9smallsort11insert_tail17hc6676223f144befbE.exit: ; preds = %bb24, %bb10.i
  %_80 = icmp ult i64 %iter1.sroa.0.163, %desired_len.sroa.0.0
  %_84 = zext i1 %_80 to i64
  %iter1.sroa.0.1 = add nuw i64 %iter1.sroa.0.163, %_84
  br i1 %_80, label %bb24, label %bb16.backedge
}

; core::slice::sort::stable::driftsort_main
; Function Attrs: noinline nonlazybind uwtable
define void @_ZN4core5slice4sort6stable14driftsort_main17hc1c2a334d7d9cd91E(ptr noalias noundef nonnull align 4 %v.0, i64 noundef range(i64 0, 2305843009213693952) %v.1, ptr noalias noundef align 8 dereferenceable(8) %is_less) unnamed_addr #5 personality ptr @rust_eh_personality {
start:
  %_4.i.i = alloca [24 x i8], align 8
  %heap_buf = alloca [24 x i8], align 8
  %stack_buf = alloca [4096 x i8], align 4
  %_105 = lshr i64 %v.1, 1
  %v1 = sub nsw i64 %v.1, %_105
  %_0.sroa.0.0.i = tail call noundef i64 @llvm.umin.i64(i64 %v.1, i64 2000000)
  %_0.sroa.0.0.i6 = tail call noundef i64 @llvm.umax.i64(i64 %_0.sroa.0.0.i, i64 %v1)
  %_0.sroa.0.0.i7 = tail call noundef i64 @llvm.umax.i64(i64 %_0.sroa.0.0.i6, i64 48)
  call void @llvm.lifetime.start.p0(i64 4096, ptr nonnull %stack_buf)
  call void @llvm.lifetime.start.p0(i64 24, ptr nonnull %heap_buf)
  %_15 = icmp ult i64 %_0.sroa.0.0.i6, 1025
  br i1 %_15, label %bb8, label %bb4

bb4:                                              ; preds = %start
  call void @llvm.lifetime.start.p0(i64 24, ptr nonnull %_4.i.i), !noalias !2638
; invoke alloc::raw_vec::RawVecInner<A>::try_allocate_in
  invoke void @"_ZN5alloc7raw_vec20RawVecInner$LT$A$GT$15try_allocate_in17had089b3ffc2704ecE"(ptr noalias noundef sret([24 x i8]) align 8 captures(none) dereferenceable(24) %_4.i.i, i64 noundef %_0.sroa.0.0.i7, i1 noundef zeroext false, i64 noundef 4, i64 noundef 4)
          to label %.noexc unwind label %cleanup

.noexc:                                           ; preds = %bb4
  %_5.i.i = load i64, ptr %_4.i.i, align 8, !range !2641, !noalias !2638, !noundef !37
  %0 = trunc nuw i64 %_5.i.i to i1
  %1 = getelementptr inbounds nuw i8, ptr %_4.i.i, i64 8
  %err.0.i.i = load i64, ptr %1, align 8, !range !2642, !noalias !2638, !noundef !37
  %2 = getelementptr inbounds nuw i8, ptr %_4.i.i, i64 16
  br i1 %0, label %bb3.i.i, label %"_ZN5alloc5slice99_$LT$impl$u20$core..slice..sort..stable..BufGuard$LT$T$GT$$u20$for$u20$alloc..vec..Vec$LT$T$GT$$GT$13with_capacity17h7de731c70d377fdaE.exit", !prof !2643

bb3.i.i:                                          ; preds = %.noexc
  %err.1.i.i = load i64, ptr %2, align 8, !noalias !2638
; invoke alloc::raw_vec::handle_error
  invoke void @_ZN5alloc7raw_vec12handle_error17h3a8c375904e593b2E(i64 noundef %err.0.i.i, i64 %err.1.i.i) #25
          to label %.noexc8 unwind label %cleanup

.noexc8:                                          ; preds = %bb3.i.i
  unreachable

"_ZN5alloc5slice99_$LT$impl$u20$core..slice..sort..stable..BufGuard$LT$T$GT$$u20$for$u20$alloc..vec..Vec$LT$T$GT$$GT$13with_capacity17h7de731c70d377fdaE.exit": ; preds = %.noexc
  %this.1.i.i = load ptr, ptr %2, align 8, !noalias !2638, !nonnull !37, !noundef !37
  %_7.i.i = icmp ule i64 %_0.sroa.0.0.i7, %err.0.i.i
  tail call void @llvm.assume(i1 %_7.i.i)
  call void @llvm.lifetime.end.p0(i64 24, ptr nonnull %_4.i.i), !noalias !2638
  store i64 %err.0.i.i, ptr %heap_buf, align 8
  %_18.sroa.4.0.heap_buf.sroa_idx = getelementptr inbounds nuw i8, ptr %heap_buf, i64 8
  store ptr %this.1.i.i, ptr %_18.sroa.4.0.heap_buf.sroa_idx, align 8
  %_18.sroa.5.0.heap_buf.sroa_idx = getelementptr inbounds nuw i8, ptr %heap_buf, i64 16
  store i64 0, ptr %_18.sroa.5.0.heap_buf.sroa_idx, align 8
  br label %bb8

cleanup:                                          ; preds = %bb3.i.i, %bb4, %bb8
  %_24.sroa.0.0 = phi i8 [ %_24.sroa.0.1, %bb8 ], [ 0, %bb4 ], [ 0, %bb3.i.i ]
  %3 = landingpad { ptr, i32 }
          cleanup
  %4 = trunc nuw i8 %_24.sroa.0.0 to i1
  br i1 %4, label %bb13, label %bb11

bb8:                                              ; preds = %"_ZN5alloc5slice99_$LT$impl$u20$core..slice..sort..stable..BufGuard$LT$T$GT$$u20$for$u20$alloc..vec..Vec$LT$T$GT$$GT$13with_capacity17h7de731c70d377fdaE.exit", %start
  %_24.sroa.0.1 = phi i8 [ 0, %start ], [ 1, %"_ZN5alloc5slice99_$LT$impl$u20$core..slice..sort..stable..BufGuard$LT$T$GT$$u20$for$u20$alloc..vec..Vec$LT$T$GT$$GT$13with_capacity17h7de731c70d377fdaE.exit" ]
  %stack_scratch.sroa.4.0 = phi i64 [ 1024, %start ], [ %err.0.i.i, %"_ZN5alloc5slice99_$LT$impl$u20$core..slice..sort..stable..BufGuard$LT$T$GT$$u20$for$u20$alloc..vec..Vec$LT$T$GT$$GT$13with_capacity17h7de731c70d377fdaE.exit" ]
  %stack_buf.pn = phi ptr [ %stack_buf, %start ], [ %this.1.i.i, %"_ZN5alloc5slice99_$LT$impl$u20$core..slice..sort..stable..BufGuard$LT$T$GT$$u20$for$u20$alloc..vec..Vec$LT$T$GT$$GT$13with_capacity17h7de731c70d377fdaE.exit" ]
  %eager_sort = icmp samesign ult i64 %v.1, 65
; invoke core::slice::sort::stable::drift::sort
  invoke void @_ZN4core5slice4sort6stable5drift4sort17h8ef89d26099d8548E(ptr noalias noundef nonnull align 4 %v.0, i64 noundef %v.1, ptr noalias noundef nonnull align 4 %stack_buf.pn, i64 noundef %stack_scratch.sroa.4.0, i1 noundef zeroext %eager_sort, ptr noalias noundef align 8 dereferenceable(8) %is_less)
          to label %bb9 unwind label %cleanup

bb9:                                              ; preds = %bb8
  %5 = trunc nuw i8 %_24.sroa.0.1 to i1
  br i1 %5, label %bb12, label %bb10

bb10:                                             ; preds = %bb12, %bb9
  call void @llvm.lifetime.end.p0(i64 24, ptr nonnull %heap_buf)
  call void @llvm.lifetime.end.p0(i64 4096, ptr nonnull %stack_buf)
  ret void

bb12:                                             ; preds = %bb9
; call alloc::raw_vec::RawVecInner<A>::deallocate
  call void @"_ZN5alloc7raw_vec20RawVecInner$LT$A$GT$10deallocate17h6ddf8733b0451bb9E"(ptr noalias noundef nonnull align 8 dereferenceable(24) %heap_buf, i64 noundef 4, i64 noundef 4)
  br label %bb10

bb11:                                             ; preds = %bb13, %cleanup
  resume { ptr, i32 } %3

bb13:                                             ; preds = %cleanup
; invoke alloc::raw_vec::RawVecInner<A>::deallocate
  invoke void @"_ZN5alloc7raw_vec20RawVecInner$LT$A$GT$10deallocate17h6ddf8733b0451bb9E"(ptr noalias noundef nonnull align 8 dereferenceable(24) %heap_buf, i64 noundef 4, i64 noundef 4)
          to label %bb11 unwind label %terminate

terminate:                                        ; preds = %bb13
  %6 = landingpad { ptr, i32 }
          filter [0 x ptr] zeroinitializer
; call core::panicking::panic_in_cleanup
  call void @_ZN4core9panicking16panic_in_cleanup17h5f6bde45d17ae243E() #26
  unreachable
}

; core::slice::sort::stable::driftsort_main
; Function Attrs: noinline nonlazybind uwtable
define void @_ZN4core5slice4sort6stable14driftsort_main17hc2527c42e8249605E(ptr noalias noundef nonnull align 4 %v.0, i64 noundef range(i64 0, 2305843009213693952) %v.1, ptr noalias noundef align 8 dereferenceable(8) %is_less) unnamed_addr #5 personality ptr @rust_eh_personality {
start:
  %_4.i.i = alloca [24 x i8], align 8
  %heap_buf = alloca [24 x i8], align 8
  %stack_buf = alloca [4096 x i8], align 4
  %_105 = lshr i64 %v.1, 1
  %v1 = sub nsw i64 %v.1, %_105
  %_0.sroa.0.0.i = tail call noundef i64 @llvm.umin.i64(i64 %v.1, i64 2000000)
  %_0.sroa.0.0.i6 = tail call noundef i64 @llvm.umax.i64(i64 %_0.sroa.0.0.i, i64 %v1)
  %_0.sroa.0.0.i7 = tail call noundef i64 @llvm.umax.i64(i64 %_0.sroa.0.0.i6, i64 48)
  call void @llvm.lifetime.start.p0(i64 4096, ptr nonnull %stack_buf)
  call void @llvm.lifetime.start.p0(i64 24, ptr nonnull %heap_buf)
  %_15 = icmp ult i64 %_0.sroa.0.0.i6, 1025
  br i1 %_15, label %bb8, label %bb4

bb4:                                              ; preds = %start
  call void @llvm.lifetime.start.p0(i64 24, ptr nonnull %_4.i.i), !noalias !2644
; invoke alloc::raw_vec::RawVecInner<A>::try_allocate_in
  invoke void @"_ZN5alloc7raw_vec20RawVecInner$LT$A$GT$15try_allocate_in17had089b3ffc2704ecE"(ptr noalias noundef sret([24 x i8]) align 8 captures(none) dereferenceable(24) %_4.i.i, i64 noundef %_0.sroa.0.0.i7, i1 noundef zeroext false, i64 noundef 4, i64 noundef 4)
          to label %.noexc unwind label %cleanup

.noexc:                                           ; preds = %bb4
  %_5.i.i = load i64, ptr %_4.i.i, align 8, !range !2641, !noalias !2644, !noundef !37
  %0 = trunc nuw i64 %_5.i.i to i1
  %1 = getelementptr inbounds nuw i8, ptr %_4.i.i, i64 8
  %err.0.i.i = load i64, ptr %1, align 8, !range !2642, !noalias !2644, !noundef !37
  %2 = getelementptr inbounds nuw i8, ptr %_4.i.i, i64 16
  br i1 %0, label %bb3.i.i, label %"_ZN5alloc5slice99_$LT$impl$u20$core..slice..sort..stable..BufGuard$LT$T$GT$$u20$for$u20$alloc..vec..Vec$LT$T$GT$$GT$13with_capacity17h7de731c70d377fdaE.exit", !prof !2643

bb3.i.i:                                          ; preds = %.noexc
  %err.1.i.i = load i64, ptr %2, align 8, !noalias !2644
; invoke alloc::raw_vec::handle_error
  invoke void @_ZN5alloc7raw_vec12handle_error17h3a8c375904e593b2E(i64 noundef %err.0.i.i, i64 %err.1.i.i) #25
          to label %.noexc8 unwind label %cleanup

.noexc8:                                          ; preds = %bb3.i.i
  unreachable

"_ZN5alloc5slice99_$LT$impl$u20$core..slice..sort..stable..BufGuard$LT$T$GT$$u20$for$u20$alloc..vec..Vec$LT$T$GT$$GT$13with_capacity17h7de731c70d377fdaE.exit": ; preds = %.noexc
  %this.1.i.i = load ptr, ptr %2, align 8, !noalias !2644, !nonnull !37, !noundef !37
  %_7.i.i = icmp ule i64 %_0.sroa.0.0.i7, %err.0.i.i
  tail call void @llvm.assume(i1 %_7.i.i)
  call void @llvm.lifetime.end.p0(i64 24, ptr nonnull %_4.i.i), !noalias !2644
  store i64 %err.0.i.i, ptr %heap_buf, align 8
  %_18.sroa.4.0.heap_buf.sroa_idx = getelementptr inbounds nuw i8, ptr %heap_buf, i64 8
  store ptr %this.1.i.i, ptr %_18.sroa.4.0.heap_buf.sroa_idx, align 8
  %_18.sroa.5.0.heap_buf.sroa_idx = getelementptr inbounds nuw i8, ptr %heap_buf, i64 16
  store i64 0, ptr %_18.sroa.5.0.heap_buf.sroa_idx, align 8
  br label %bb8

cleanup:                                          ; preds = %bb3.i.i, %bb4, %bb8
  %_24.sroa.0.0 = phi i8 [ %_24.sroa.0.1, %bb8 ], [ 0, %bb4 ], [ 0, %bb3.i.i ]
  %3 = landingpad { ptr, i32 }
          cleanup
  %4 = trunc nuw i8 %_24.sroa.0.0 to i1
  br i1 %4, label %bb13, label %bb11

bb8:                                              ; preds = %"_ZN5alloc5slice99_$LT$impl$u20$core..slice..sort..stable..BufGuard$LT$T$GT$$u20$for$u20$alloc..vec..Vec$LT$T$GT$$GT$13with_capacity17h7de731c70d377fdaE.exit", %start
  %_24.sroa.0.1 = phi i8 [ 0, %start ], [ 1, %"_ZN5alloc5slice99_$LT$impl$u20$core..slice..sort..stable..BufGuard$LT$T$GT$$u20$for$u20$alloc..vec..Vec$LT$T$GT$$GT$13with_capacity17h7de731c70d377fdaE.exit" ]
  %stack_scratch.sroa.4.0 = phi i64 [ 1024, %start ], [ %err.0.i.i, %"_ZN5alloc5slice99_$LT$impl$u20$core..slice..sort..stable..BufGuard$LT$T$GT$$u20$for$u20$alloc..vec..Vec$LT$T$GT$$GT$13with_capacity17h7de731c70d377fdaE.exit" ]
  %stack_buf.pn = phi ptr [ %stack_buf, %start ], [ %this.1.i.i, %"_ZN5alloc5slice99_$LT$impl$u20$core..slice..sort..stable..BufGuard$LT$T$GT$$u20$for$u20$alloc..vec..Vec$LT$T$GT$$GT$13with_capacity17h7de731c70d377fdaE.exit" ]
  %eager_sort = icmp samesign ult i64 %v.1, 65
; invoke core::slice::sort::stable::drift::sort
  invoke void @_ZN4core5slice4sort6stable5drift4sort17h106378220af84ad3E(ptr noalias noundef nonnull align 4 %v.0, i64 noundef %v.1, ptr noalias noundef nonnull align 4 %stack_buf.pn, i64 noundef %stack_scratch.sroa.4.0, i1 noundef zeroext %eager_sort, ptr noalias noundef align 8 dereferenceable(8) %is_less)
          to label %bb9 unwind label %cleanup

bb9:                                              ; preds = %bb8
  %5 = trunc nuw i8 %_24.sroa.0.1 to i1
  br i1 %5, label %bb12, label %bb10

bb10:                                             ; preds = %bb12, %bb9
  call void @llvm.lifetime.end.p0(i64 24, ptr nonnull %heap_buf)
  call void @llvm.lifetime.end.p0(i64 4096, ptr nonnull %stack_buf)
  ret void

bb12:                                             ; preds = %bb9
; call alloc::raw_vec::RawVecInner<A>::deallocate
  call void @"_ZN5alloc7raw_vec20RawVecInner$LT$A$GT$10deallocate17h6ddf8733b0451bb9E"(ptr noalias noundef nonnull align 8 dereferenceable(24) %heap_buf, i64 noundef 4, i64 noundef 4)
  br label %bb10

bb11:                                             ; preds = %bb13, %cleanup
  resume { ptr, i32 } %3

bb13:                                             ; preds = %cleanup
; invoke alloc::raw_vec::RawVecInner<A>::deallocate
  invoke void @"_ZN5alloc7raw_vec20RawVecInner$LT$A$GT$10deallocate17h6ddf8733b0451bb9E"(ptr noalias noundef nonnull align 8 dereferenceable(24) %heap_buf, i64 noundef 4, i64 noundef 4)
          to label %bb11 unwind label %terminate

terminate:                                        ; preds = %bb13
  %6 = landingpad { ptr, i32 }
          filter [0 x ptr] zeroinitializer
; call core::panicking::panic_in_cleanup
  call void @_ZN4core9panicking16panic_in_cleanup17h5f6bde45d17ae243E() #26
  unreachable
}

; core::slice::sort::stable::driftsort_main
; Function Attrs: noinline nonlazybind uwtable
define void @_ZN4core5slice4sort6stable14driftsort_main17hfed4a3b6b12b08f1E(ptr noalias noundef nonnull align 4 %v.0, i64 noundef range(i64 0, 2305843009213693952) %v.1, ptr noalias noundef align 8 dereferenceable(8) %is_less) unnamed_addr #5 personality ptr @rust_eh_personality {
start:
  %_4.i.i = alloca [24 x i8], align 8
  %heap_buf = alloca [24 x i8], align 8
  %stack_buf = alloca [4096 x i8], align 4
  %_105 = lshr i64 %v.1, 1
  %v1 = sub nsw i64 %v.1, %_105
  %_0.sroa.0.0.i = tail call noundef i64 @llvm.umin.i64(i64 %v.1, i64 2000000)
  %_0.sroa.0.0.i6 = tail call noundef i64 @llvm.umax.i64(i64 %_0.sroa.0.0.i, i64 %v1)
  %_0.sroa.0.0.i7 = tail call noundef i64 @llvm.umax.i64(i64 %_0.sroa.0.0.i6, i64 48)
  call void @llvm.lifetime.start.p0(i64 4096, ptr nonnull %stack_buf)
  call void @llvm.lifetime.start.p0(i64 24, ptr nonnull %heap_buf)
  %_15 = icmp ult i64 %_0.sroa.0.0.i6, 1025
  br i1 %_15, label %bb8, label %bb4

bb4:                                              ; preds = %start
  call void @llvm.lifetime.start.p0(i64 24, ptr nonnull %_4.i.i), !noalias !2647
; invoke alloc::raw_vec::RawVecInner<A>::try_allocate_in
  invoke void @"_ZN5alloc7raw_vec20RawVecInner$LT$A$GT$15try_allocate_in17had089b3ffc2704ecE"(ptr noalias noundef sret([24 x i8]) align 8 captures(none) dereferenceable(24) %_4.i.i, i64 noundef %_0.sroa.0.0.i7, i1 noundef zeroext false, i64 noundef 4, i64 noundef 4)
          to label %.noexc unwind label %cleanup

.noexc:                                           ; preds = %bb4
  %_5.i.i = load i64, ptr %_4.i.i, align 8, !range !2641, !noalias !2647, !noundef !37
  %0 = trunc nuw i64 %_5.i.i to i1
  %1 = getelementptr inbounds nuw i8, ptr %_4.i.i, i64 8
  %err.0.i.i = load i64, ptr %1, align 8, !range !2642, !noalias !2647, !noundef !37
  %2 = getelementptr inbounds nuw i8, ptr %_4.i.i, i64 16
  br i1 %0, label %bb3.i.i, label %"_ZN5alloc5slice99_$LT$impl$u20$core..slice..sort..stable..BufGuard$LT$T$GT$$u20$for$u20$alloc..vec..Vec$LT$T$GT$$GT$13with_capacity17h7de731c70d377fdaE.exit", !prof !2643

bb3.i.i:                                          ; preds = %.noexc
  %err.1.i.i = load i64, ptr %2, align 8, !noalias !2647
; invoke alloc::raw_vec::handle_error
  invoke void @_ZN5alloc7raw_vec12handle_error17h3a8c375904e593b2E(i64 noundef %err.0.i.i, i64 %err.1.i.i) #25
          to label %.noexc8 unwind label %cleanup

.noexc8:                                          ; preds = %bb3.i.i
  unreachable

"_ZN5alloc5slice99_$LT$impl$u20$core..slice..sort..stable..BufGuard$LT$T$GT$$u20$for$u20$alloc..vec..Vec$LT$T$GT$$GT$13with_capacity17h7de731c70d377fdaE.exit": ; preds = %.noexc
  %this.1.i.i = load ptr, ptr %2, align 8, !noalias !2647, !nonnull !37, !noundef !37
  %_7.i.i = icmp ule i64 %_0.sroa.0.0.i7, %err.0.i.i
  tail call void @llvm.assume(i1 %_7.i.i)
  call void @llvm.lifetime.end.p0(i64 24, ptr nonnull %_4.i.i), !noalias !2647
  store i64 %err.0.i.i, ptr %heap_buf, align 8
  %_18.sroa.4.0.heap_buf.sroa_idx = getelementptr inbounds nuw i8, ptr %heap_buf, i64 8
  store ptr %this.1.i.i, ptr %_18.sroa.4.0.heap_buf.sroa_idx, align 8
  %_18.sroa.5.0.heap_buf.sroa_idx = getelementptr inbounds nuw i8, ptr %heap_buf, i64 16
  store i64 0, ptr %_18.sroa.5.0.heap_buf.sroa_idx, align 8
  br label %bb8

cleanup:                                          ; preds = %bb3.i.i, %bb4, %bb8
  %_24.sroa.0.0 = phi i8 [ %_24.sroa.0.1, %bb8 ], [ 0, %bb4 ], [ 0, %bb3.i.i ]
  %3 = landingpad { ptr, i32 }
          cleanup
  %4 = trunc nuw i8 %_24.sroa.0.0 to i1
  br i1 %4, label %bb13, label %bb11

bb8:                                              ; preds = %"_ZN5alloc5slice99_$LT$impl$u20$core..slice..sort..stable..BufGuard$LT$T$GT$$u20$for$u20$alloc..vec..Vec$LT$T$GT$$GT$13with_capacity17h7de731c70d377fdaE.exit", %start
  %_24.sroa.0.1 = phi i8 [ 0, %start ], [ 1, %"_ZN5alloc5slice99_$LT$impl$u20$core..slice..sort..stable..BufGuard$LT$T$GT$$u20$for$u20$alloc..vec..Vec$LT$T$GT$$GT$13with_capacity17h7de731c70d377fdaE.exit" ]
  %stack_scratch.sroa.4.0 = phi i64 [ 1024, %start ], [ %err.0.i.i, %"_ZN5alloc5slice99_$LT$impl$u20$core..slice..sort..stable..BufGuard$LT$T$GT$$u20$for$u20$alloc..vec..Vec$LT$T$GT$$GT$13with_capacity17h7de731c70d377fdaE.exit" ]
  %stack_buf.pn = phi ptr [ %stack_buf, %start ], [ %this.1.i.i, %"_ZN5alloc5slice99_$LT$impl$u20$core..slice..sort..stable..BufGuard$LT$T$GT$$u20$for$u20$alloc..vec..Vec$LT$T$GT$$GT$13with_capacity17h7de731c70d377fdaE.exit" ]
  %eager_sort = icmp samesign ult i64 %v.1, 65
; invoke core::slice::sort::stable::drift::sort
  invoke void @_ZN4core5slice4sort6stable5drift4sort17h53fffe20afc27580E(ptr noalias noundef nonnull align 4 %v.0, i64 noundef %v.1, ptr noalias noundef nonnull align 4 %stack_buf.pn, i64 noundef %stack_scratch.sroa.4.0, i1 noundef zeroext %eager_sort, ptr noalias noundef align 8 dereferenceable(8) %is_less)
          to label %bb9 unwind label %cleanup

bb9:                                              ; preds = %bb8
  %5 = trunc nuw i8 %_24.sroa.0.1 to i1
  br i1 %5, label %bb12, label %bb10

bb10:                                             ; preds = %bb12, %bb9
  call void @llvm.lifetime.end.p0(i64 24, ptr nonnull %heap_buf)
  call void @llvm.lifetime.end.p0(i64 4096, ptr nonnull %stack_buf)
  ret void

bb12:                                             ; preds = %bb9
; call alloc::raw_vec::RawVecInner<A>::deallocate
  call void @"_ZN5alloc7raw_vec20RawVecInner$LT$A$GT$10deallocate17h6ddf8733b0451bb9E"(ptr noalias noundef nonnull align 8 dereferenceable(24) %heap_buf, i64 noundef 4, i64 noundef 4)
  br label %bb10

bb11:                                             ; preds = %bb13, %cleanup
  resume { ptr, i32 } %3

bb13:                                             ; preds = %cleanup
; invoke alloc::raw_vec::RawVecInner<A>::deallocate
  invoke void @"_ZN5alloc7raw_vec20RawVecInner$LT$A$GT$10deallocate17h6ddf8733b0451bb9E"(ptr noalias noundef nonnull align 8 dereferenceable(24) %heap_buf, i64 noundef 4, i64 noundef 4)
          to label %bb11 unwind label %terminate

terminate:                                        ; preds = %bb13
  %6 = landingpad { ptr, i32 }
          filter [0 x ptr] zeroinitializer
; call core::panicking::panic_in_cleanup
  call void @_ZN4core9panicking16panic_in_cleanup17h5f6bde45d17ae243E() #26
  unreachable
}

; core::slice::sort::stable::AlignedStorage<T,_>::as_uninit_slice_mut
; Function Attrs: mustprogress nofree norecurse nosync nounwind nonlazybind willreturn memory(none) uwtable
define { ptr, i64 } @"_ZN4core5slice4sort6stable27AlignedStorage$LT$T$C$_$GT$19as_uninit_slice_mut17h0f365568e42842baE"(ptr noalias noundef align 4 dereferenceable(4096) %self) unnamed_addr #6 {
start:
  %0 = insertvalue { ptr, i64 } poison, ptr %self, 0
  %1 = insertvalue { ptr, i64 } %0, i64 1024, 1
  ret { ptr, i64 } %1
}

; core::slice::sort::stable::drift::create_run
; Function Attrs: nonlazybind uwtable
define noundef range(i64 0, -1) i64 @_ZN4core5slice4sort6stable5drift10create_run17h1a94200383c64518E(ptr noalias noundef nonnull align 4 %v.0, i64 noundef range(i64 0, 2305843009213693952) %v.1, ptr noalias noundef nonnull align 4 %scratch.0, i64 noundef range(i64 0, 2305843009213693952) %scratch.1, i64 noundef %min_good_run_len, i1 noundef zeroext %eager_sort, ptr noalias noundef align 8 dereferenceable(8) %is_less) unnamed_addr #3 personality ptr @rust_eh_personality {
start:
  %_7.not = icmp ult i64 %v.1, %min_good_run_len
  br i1 %_7.not, label %bb7, label %bb1

bb7:                                              ; preds = %_ZN4core5slice4sort6shared17find_existing_run17hea544b1a96acec40E.exit, %start
  br i1 %eager_sort, label %bb8, label %bb11

bb1:                                              ; preds = %start
  %_4.i = icmp samesign ult i64 %v.1, 2
  br i1 %_4.i, label %_ZN4core5slice4sort6shared17find_existing_run17hea544b1a96acec40E.exit, label %bb2.i

bb2.i:                                            ; preds = %bb1
  %_28.i = getelementptr inbounds nuw i8, ptr %v.0, i64 4
  tail call void @llvm.experimental.noalias.scope.decl(metadata !2650)
  tail call void @llvm.experimental.noalias.scope.decl(metadata !2653)
  tail call void @llvm.experimental.noalias.scope.decl(metadata !2655)
  tail call void @llvm.experimental.noalias.scope.decl(metadata !2658)
  tail call void @llvm.experimental.noalias.scope.decl(metadata !2660)
  tail call void @llvm.experimental.noalias.scope.decl(metadata !2663)
  %_3.i.i.i = load i32, ptr %v.0, align 4, !alias.scope !2665, !noalias !2666, !noundef !37
  %_4.i.i.i = load i32, ptr %_28.i, align 4, !alias.scope !2666, !noalias !2665, !noundef !37
  %_0.i = icmp slt i32 %_3.i.i.i, %_4.i.i.i
  %_10.i13.not = icmp eq i64 %v.1, 2
  br i1 %_0.i, label %bb4.i.preheader, label %bb11.i.preheader

bb11.i.preheader:                                 ; preds = %bb2.i
  br i1 %_10.i13.not, label %_ZN4core5slice4sort6shared17find_existing_run17hea544b1a96acec40E.exit, label %bb12.i.preheader

bb12.i.preheader:                                 ; preds = %bb11.i.preheader
  %invariant.gep = getelementptr i8, ptr %v.0, i64 -4
  br label %bb12.i

bb4.i.preheader:                                  ; preds = %bb2.i
  br i1 %_10.i13.not, label %_ZN4core5slice4sort6shared17find_existing_run17hea544b1a96acec40E.exit, label %bb5.i.preheader

bb5.i.preheader:                                  ; preds = %bb4.i.preheader
  %invariant.gep24 = getelementptr i8, ptr %v.0, i64 -4
  br label %bb5.i

bb12.i:                                           ; preds = %bb12.i.preheader, %bb15.i
  %run_len.sroa.0.0.i11 = phi i64 [ %1, %bb15.i ], [ 2, %bb12.i.preheader ]
  %0 = getelementptr inbounds nuw i32, ptr %v.0, i64 %run_len.sroa.0.0.i11
  %gep = getelementptr i32, ptr %invariant.gep, i64 %run_len.sroa.0.0.i11
  tail call void @llvm.experimental.noalias.scope.decl(metadata !2667)
  tail call void @llvm.experimental.noalias.scope.decl(metadata !2670)
  tail call void @llvm.experimental.noalias.scope.decl(metadata !2672)
  tail call void @llvm.experimental.noalias.scope.decl(metadata !2675)
  tail call void @llvm.experimental.noalias.scope.decl(metadata !2677)
  tail call void @llvm.experimental.noalias.scope.decl(metadata !2680)
  %_3.i.i.i1 = load i32, ptr %gep, align 4, !alias.scope !2682, !noalias !2683, !noundef !37
  %_4.i.i.i2 = load i32, ptr %0, align 4, !alias.scope !2683, !noalias !2682, !noundef !37
  %_0.i3 = icmp slt i32 %_3.i.i.i1, %_4.i.i.i2
  br i1 %_0.i3, label %_ZN4core5slice4sort6shared17find_existing_run17hea544b1a96acec40E.exit, label %bb15.i

bb15.i:                                           ; preds = %bb12.i
  %1 = add nuw nsw i64 %run_len.sroa.0.0.i11, 1
  %exitcond.not = icmp eq i64 %1, %v.1
  br i1 %exitcond.not, label %_ZN4core5slice4sort6shared17find_existing_run17hea544b1a96acec40E.exit, label %bb12.i

bb5.i:                                            ; preds = %bb5.i.preheader, %bb7.i
  %run_len.sroa.0.1.i14 = phi i64 [ %3, %bb7.i ], [ 2, %bb5.i.preheader ]
  %2 = getelementptr inbounds nuw i32, ptr %v.0, i64 %run_len.sroa.0.1.i14
  %gep25 = getelementptr i32, ptr %invariant.gep24, i64 %run_len.sroa.0.1.i14
  tail call void @llvm.experimental.noalias.scope.decl(metadata !2684)
  tail call void @llvm.experimental.noalias.scope.decl(metadata !2687)
  tail call void @llvm.experimental.noalias.scope.decl(metadata !2689)
  tail call void @llvm.experimental.noalias.scope.decl(metadata !2692)
  tail call void @llvm.experimental.noalias.scope.decl(metadata !2694)
  tail call void @llvm.experimental.noalias.scope.decl(metadata !2697)
  %_3.i.i.i4 = load i32, ptr %gep25, align 4, !alias.scope !2699, !noalias !2700, !noundef !37
  %_4.i.i.i5 = load i32, ptr %2, align 4, !alias.scope !2700, !noalias !2699, !noundef !37
  %_0.i6 = icmp slt i32 %_3.i.i.i4, %_4.i.i.i5
  br i1 %_0.i6, label %bb7.i, label %_ZN4core5slice4sort6shared17find_existing_run17hea544b1a96acec40E.exit

bb7.i:                                            ; preds = %bb5.i
  %3 = add nuw nsw i64 %run_len.sroa.0.1.i14, 1
  %exitcond19.not = icmp eq i64 %3, %v.1
  br i1 %exitcond19.not, label %_ZN4core5slice4sort6shared17find_existing_run17hea544b1a96acec40E.exit, label %bb5.i

_ZN4core5slice4sort6shared17find_existing_run17hea544b1a96acec40E.exit: ; preds = %bb12.i, %bb15.i, %bb5.i, %bb7.i, %bb11.i.preheader, %bb4.i.preheader, %bb1
  %_0.sroa.3.0.i = phi i1 [ false, %bb1 ], [ true, %bb4.i.preheader ], [ false, %bb11.i.preheader ], [ true, %bb7.i ], [ true, %bb5.i ], [ false, %bb15.i ], [ false, %bb12.i ]
  %_0.sroa.0.0.i = phi i64 [ %v.1, %bb1 ], [ 2, %bb4.i.preheader ], [ 2, %bb11.i.preheader ], [ %run_len.sroa.0.1.i14, %bb5.i ], [ %v.1, %bb7.i ], [ %run_len.sroa.0.0.i11, %bb12.i ], [ %v.1, %bb15.i ]
  %_12 = icmp samesign ule i64 %_0.sroa.0.0.i, %v.1
  tail call void @llvm.assume(i1 %_12)
  %_13.not = icmp ult i64 %_0.sroa.0.0.i, %min_good_run_len
  br i1 %_13.not, label %bb7, label %bb3

bb3:                                              ; preds = %_ZN4core5slice4sort6shared17find_existing_run17hea544b1a96acec40E.exit
  br i1 %_0.sroa.3.0.i, label %bb14, label %bb5

bb11:                                             ; preds = %bb7
  %_0.sroa.0.0.i7 = tail call noundef i64 @llvm.umin.i64(i64 range(i64 -2305843009213693950, 2305843009213693952) %v.1, i64 %min_good_run_len)
  %_36 = shl nuw nsw i64 %_0.sroa.0.0.i7, 1
  br label %bb12

bb8:                                              ; preds = %bb7
  %_0.sroa.0.0.i8 = tail call noundef i64 @llvm.umin.i64(i64 range(i64 -2305843009213693950, 2305843009213693952) %v.1, i64 32)
; call core::slice::sort::stable::quicksort::quicksort
  tail call void @_ZN4core5slice4sort6stable9quicksort9quicksort17h450dd68f87ea8f3eE(ptr noalias noundef nonnull align 4 %v.0, i64 noundef %_0.sroa.0.0.i8, ptr noalias noundef nonnull align 4 %scratch.0, i64 noundef %scratch.1, i32 noundef 0, ptr noalias noundef readonly align 4 captures(address, read_provenance) dereferenceable_or_null(4) null, ptr noalias noundef align 8 dereferenceable(8) %is_less) #27
  %_35 = shl nuw nsw i64 %_0.sroa.0.0.i8, 1
  %_34 = or disjoint i64 %_35, 1
  br label %bb12

bb12:                                             ; preds = %bb5, %bb8, %bb11
  %_0.sroa.0.0 = phi i64 [ %_26, %bb5 ], [ %_34, %bb8 ], [ %_36, %bb11 ]
  ret i64 %_0.sroa.0.0

bb5.loopexit.unr-lcssa:                           ; preds = %bb5.i.i, %bb5.i.i.preheader
  %i.sroa.0.016.i.i.unr = phi i64 [ 0, %bb5.i.i.preheader ], [ %15, %bb5.i.i ]
  %4 = and i64 %_0.sroa.0.0.i, 2
  %lcmp.mod.not = icmp eq i64 %4, 0
  br i1 %lcmp.mod.not, label %bb5, label %bb5.i.i.epil

bb5.i.i.epil:                                     ; preds = %bb5.loopexit.unr-lcssa
  %5 = xor i64 %i.sroa.0.016.i.i.unr, -1
  %x.i.i.epil = getelementptr inbounds nuw i32, ptr %v.0, i64 %i.sroa.0.016.i.i.unr
  %y.i.i.epil = getelementptr i32, ptr %end.i, i64 %5
  %6 = load i32, ptr %x.i.i.epil, align 4, !alias.scope !2701, !noalias !2706, !noundef !37
  %7 = load i32, ptr %y.i.i.epil, align 4, !alias.scope !2708, !noalias !2709
  store i32 %7, ptr %x.i.i.epil, align 4, !alias.scope !2701, !noalias !2706
  store i32 %6, ptr %y.i.i.epil, align 4, !alias.scope !2708, !noalias !2709
  br label %bb5

bb5:                                              ; preds = %bb5.i.i.epil, %bb5.loopexit.unr-lcssa, %bb14, %bb3
  %_27 = shl nuw nsw i64 %_0.sroa.0.0.i, 1
  %_26 = or disjoint i64 %_27, 1
  br label %bb12

bb14:                                             ; preds = %bb3
  %half_len2.i = lshr i64 %_0.sroa.0.0.i, 1
  %end.i = getelementptr inbounds nuw i32, ptr %v.0, i64 %_0.sroa.0.0.i
  tail call void @llvm.experimental.noalias.scope.decl(metadata !2709)
  tail call void @llvm.experimental.noalias.scope.decl(metadata !2706)
  %_915.not.i.i = icmp samesign ult i64 %_0.sroa.0.0.i, 2
  br i1 %_915.not.i.i, label %bb5, label %bb5.i.i.preheader

bb5.i.i.preheader:                                ; preds = %bb14
  %8 = icmp eq i64 %half_len2.i, 1
  br i1 %8, label %bb5.loopexit.unr-lcssa, label %bb5.i.i.preheader.new

bb5.i.i.preheader.new:                            ; preds = %bb5.i.i.preheader
  %unroll_iter = and i64 %half_len2.i, 9223372036854775806
  %invariant.gep26 = getelementptr inbounds i8, ptr %v.0, i64 4
  br label %bb5.i.i

bb5.i.i:                                          ; preds = %bb5.i.i, %bb5.i.i.preheader.new
  %i.sroa.0.016.i.i = phi i64 [ 0, %bb5.i.i.preheader.new ], [ %15, %bb5.i.i ]
  %niter = phi i64 [ 0, %bb5.i.i.preheader.new ], [ %niter.next.1, %bb5.i.i ]
  %9 = xor i64 %i.sroa.0.016.i.i, -1
  %x.i.i = getelementptr inbounds nuw i32, ptr %v.0, i64 %i.sroa.0.016.i.i
  %y.i.i = getelementptr i32, ptr %end.i, i64 %9
  %10 = load i32, ptr %x.i.i, align 4, !alias.scope !2701, !noalias !2706, !noundef !37
  %11 = load i32, ptr %y.i.i, align 4, !alias.scope !2708, !noalias !2709
  store i32 %11, ptr %x.i.i, align 4, !alias.scope !2701, !noalias !2706
  store i32 %10, ptr %y.i.i, align 4, !alias.scope !2708, !noalias !2709
  %12 = xor i64 %i.sroa.0.016.i.i, -2
  %gep27 = getelementptr inbounds i32, ptr %invariant.gep26, i64 %i.sroa.0.016.i.i
  %y.i.i.1 = getelementptr i32, ptr %end.i, i64 %12
  %13 = load i32, ptr %gep27, align 4, !alias.scope !2701, !noalias !2706, !noundef !37
  %14 = load i32, ptr %y.i.i.1, align 4, !alias.scope !2708, !noalias !2709
  store i32 %14, ptr %gep27, align 4, !alias.scope !2701, !noalias !2706
  store i32 %13, ptr %y.i.i.1, align 4, !alias.scope !2708, !noalias !2709
  %15 = add nuw nsw i64 %i.sroa.0.016.i.i, 2
  %niter.next.1 = add i64 %niter, 2
  %niter.ncmp.1 = icmp eq i64 %niter.next.1, %unroll_iter
  br i1 %niter.ncmp.1, label %bb5.loopexit.unr-lcssa, label %bb5.i.i
}

; core::slice::sort::stable::drift::create_run
; Function Attrs: nonlazybind uwtable
define noundef range(i64 0, -1) i64 @_ZN4core5slice4sort6stable5drift10create_run17h1aab1ba13b3cf416E(ptr noalias noundef nonnull align 4 %v.0, i64 noundef range(i64 0, 2305843009213693952) %v.1, ptr noalias noundef nonnull align 4 %scratch.0, i64 noundef range(i64 0, 2305843009213693952) %scratch.1, i64 noundef %min_good_run_len, i1 noundef zeroext %eager_sort, ptr noalias noundef align 8 dereferenceable(8) %is_less) unnamed_addr #3 personality ptr @rust_eh_personality {
start:
  %_7.not = icmp ult i64 %v.1, %min_good_run_len
  br i1 %_7.not, label %bb7, label %bb1

bb7:                                              ; preds = %_ZN4core5slice4sort6shared17find_existing_run17h5c76ef472daed499E.exit, %start
  br i1 %eager_sort, label %bb8, label %bb11

bb1:                                              ; preds = %start
  %_4.i = icmp samesign ult i64 %v.1, 2
  br i1 %_4.i, label %_ZN4core5slice4sort6shared17find_existing_run17h5c76ef472daed499E.exit, label %bb2.i

bb2.i:                                            ; preds = %bb1
  %_28.i = getelementptr inbounds nuw i8, ptr %v.0, i64 4
  tail call void @llvm.experimental.noalias.scope.decl(metadata !2710)
  tail call void @llvm.experimental.noalias.scope.decl(metadata !2713)
  tail call void @llvm.experimental.noalias.scope.decl(metadata !2715)
  tail call void @llvm.experimental.noalias.scope.decl(metadata !2718)
  tail call void @llvm.experimental.noalias.scope.decl(metadata !2720)
  tail call void @llvm.experimental.noalias.scope.decl(metadata !2723)
  tail call void @llvm.experimental.noalias.scope.decl(metadata !2725)
  tail call void @llvm.experimental.noalias.scope.decl(metadata !2728)
  %_3.i.i.i.i = load i32, ptr %_28.i, align 4, !alias.scope !2730, !noalias !2731, !noundef !37
  %_4.i.i.i.i = load i32, ptr %v.0, align 4, !alias.scope !2731, !noalias !2730, !noundef !37
  %_0.i = icmp slt i32 %_3.i.i.i.i, %_4.i.i.i.i
  %_10.i13.not = icmp eq i64 %v.1, 2
  br i1 %_0.i, label %bb4.i.preheader, label %bb11.i.preheader

bb11.i.preheader:                                 ; preds = %bb2.i
  br i1 %_10.i13.not, label %_ZN4core5slice4sort6shared17find_existing_run17h5c76ef472daed499E.exit, label %bb12.i.preheader

bb12.i.preheader:                                 ; preds = %bb11.i.preheader
  %invariant.gep = getelementptr i8, ptr %v.0, i64 -4
  br label %bb12.i

bb4.i.preheader:                                  ; preds = %bb2.i
  br i1 %_10.i13.not, label %_ZN4core5slice4sort6shared17find_existing_run17h5c76ef472daed499E.exit, label %bb5.i.preheader

bb5.i.preheader:                                  ; preds = %bb4.i.preheader
  %invariant.gep24 = getelementptr i8, ptr %v.0, i64 -4
  br label %bb5.i

bb12.i:                                           ; preds = %bb12.i.preheader, %bb15.i
  %run_len.sroa.0.0.i11 = phi i64 [ %1, %bb15.i ], [ 2, %bb12.i.preheader ]
  %0 = getelementptr inbounds nuw i32, ptr %v.0, i64 %run_len.sroa.0.0.i11
  %gep = getelementptr i32, ptr %invariant.gep, i64 %run_len.sroa.0.0.i11
  tail call void @llvm.experimental.noalias.scope.decl(metadata !2732)
  tail call void @llvm.experimental.noalias.scope.decl(metadata !2735)
  tail call void @llvm.experimental.noalias.scope.decl(metadata !2737)
  tail call void @llvm.experimental.noalias.scope.decl(metadata !2740)
  tail call void @llvm.experimental.noalias.scope.decl(metadata !2742)
  tail call void @llvm.experimental.noalias.scope.decl(metadata !2745)
  tail call void @llvm.experimental.noalias.scope.decl(metadata !2747)
  tail call void @llvm.experimental.noalias.scope.decl(metadata !2750)
  %_3.i.i.i.i1 = load i32, ptr %0, align 4, !alias.scope !2752, !noalias !2753, !noundef !37
  %_4.i.i.i.i2 = load i32, ptr %gep, align 4, !alias.scope !2753, !noalias !2752, !noundef !37
  %_0.i3 = icmp slt i32 %_3.i.i.i.i1, %_4.i.i.i.i2
  br i1 %_0.i3, label %_ZN4core5slice4sort6shared17find_existing_run17h5c76ef472daed499E.exit, label %bb15.i

bb15.i:                                           ; preds = %bb12.i
  %1 = add nuw nsw i64 %run_len.sroa.0.0.i11, 1
  %exitcond.not = icmp eq i64 %1, %v.1
  br i1 %exitcond.not, label %_ZN4core5slice4sort6shared17find_existing_run17h5c76ef472daed499E.exit, label %bb12.i

bb5.i:                                            ; preds = %bb5.i.preheader, %bb7.i
  %run_len.sroa.0.1.i14 = phi i64 [ %3, %bb7.i ], [ 2, %bb5.i.preheader ]
  %2 = getelementptr inbounds nuw i32, ptr %v.0, i64 %run_len.sroa.0.1.i14
  %gep25 = getelementptr i32, ptr %invariant.gep24, i64 %run_len.sroa.0.1.i14
  tail call void @llvm.experimental.noalias.scope.decl(metadata !2754)
  tail call void @llvm.experimental.noalias.scope.decl(metadata !2757)
  tail call void @llvm.experimental.noalias.scope.decl(metadata !2759)
  tail call void @llvm.experimental.noalias.scope.decl(metadata !2762)
  tail call void @llvm.experimental.noalias.scope.decl(metadata !2764)
  tail call void @llvm.experimental.noalias.scope.decl(metadata !2767)
  tail call void @llvm.experimental.noalias.scope.decl(metadata !2769)
  tail call void @llvm.experimental.noalias.scope.decl(metadata !2772)
  %_3.i.i.i.i4 = load i32, ptr %2, align 4, !alias.scope !2774, !noalias !2775, !noundef !37
  %_4.i.i.i.i5 = load i32, ptr %gep25, align 4, !alias.scope !2775, !noalias !2774, !noundef !37
  %_0.i6 = icmp slt i32 %_3.i.i.i.i4, %_4.i.i.i.i5
  br i1 %_0.i6, label %bb7.i, label %_ZN4core5slice4sort6shared17find_existing_run17h5c76ef472daed499E.exit

bb7.i:                                            ; preds = %bb5.i
  %3 = add nuw nsw i64 %run_len.sroa.0.1.i14, 1
  %exitcond19.not = icmp eq i64 %3, %v.1
  br i1 %exitcond19.not, label %_ZN4core5slice4sort6shared17find_existing_run17h5c76ef472daed499E.exit, label %bb5.i

_ZN4core5slice4sort6shared17find_existing_run17h5c76ef472daed499E.exit: ; preds = %bb12.i, %bb15.i, %bb5.i, %bb7.i, %bb11.i.preheader, %bb4.i.preheader, %bb1
  %_0.sroa.3.0.i = phi i1 [ false, %bb1 ], [ true, %bb4.i.preheader ], [ false, %bb11.i.preheader ], [ true, %bb7.i ], [ true, %bb5.i ], [ false, %bb15.i ], [ false, %bb12.i ]
  %_0.sroa.0.0.i = phi i64 [ %v.1, %bb1 ], [ 2, %bb4.i.preheader ], [ 2, %bb11.i.preheader ], [ %run_len.sroa.0.1.i14, %bb5.i ], [ %v.1, %bb7.i ], [ %run_len.sroa.0.0.i11, %bb12.i ], [ %v.1, %bb15.i ]
  %_12 = icmp samesign ule i64 %_0.sroa.0.0.i, %v.1
  tail call void @llvm.assume(i1 %_12)
  %_13.not = icmp ult i64 %_0.sroa.0.0.i, %min_good_run_len
  br i1 %_13.not, label %bb7, label %bb3

bb3:                                              ; preds = %_ZN4core5slice4sort6shared17find_existing_run17h5c76ef472daed499E.exit
  br i1 %_0.sroa.3.0.i, label %bb14, label %bb5

bb11:                                             ; preds = %bb7
  %_0.sroa.0.0.i7 = tail call noundef i64 @llvm.umin.i64(i64 range(i64 -2305843009213693950, 2305843009213693952) %v.1, i64 %min_good_run_len)
  %_36 = shl nuw nsw i64 %_0.sroa.0.0.i7, 1
  br label %bb12

bb8:                                              ; preds = %bb7
  %_0.sroa.0.0.i8 = tail call noundef i64 @llvm.umin.i64(i64 range(i64 -2305843009213693950, 2305843009213693952) %v.1, i64 32)
; call core::slice::sort::stable::quicksort::quicksort
  tail call void @_ZN4core5slice4sort6stable9quicksort9quicksort17h5ba86096fbd8819bE(ptr noalias noundef nonnull align 4 %v.0, i64 noundef %_0.sroa.0.0.i8, ptr noalias noundef nonnull align 4 %scratch.0, i64 noundef %scratch.1, i32 noundef 0, ptr noalias noundef readonly align 4 captures(address, read_provenance) dereferenceable_or_null(4) null, ptr noalias noundef align 8 dereferenceable(8) %is_less) #27
  %_35 = shl nuw nsw i64 %_0.sroa.0.0.i8, 1
  %_34 = or disjoint i64 %_35, 1
  br label %bb12

bb12:                                             ; preds = %bb5, %bb8, %bb11
  %_0.sroa.0.0 = phi i64 [ %_26, %bb5 ], [ %_34, %bb8 ], [ %_36, %bb11 ]
  ret i64 %_0.sroa.0.0

bb5.loopexit.unr-lcssa:                           ; preds = %bb5.i.i, %bb5.i.i.preheader
  %i.sroa.0.016.i.i.unr = phi i64 [ 0, %bb5.i.i.preheader ], [ %15, %bb5.i.i ]
  %4 = and i64 %_0.sroa.0.0.i, 2
  %lcmp.mod.not = icmp eq i64 %4, 0
  br i1 %lcmp.mod.not, label %bb5, label %bb5.i.i.epil

bb5.i.i.epil:                                     ; preds = %bb5.loopexit.unr-lcssa
  %5 = xor i64 %i.sroa.0.016.i.i.unr, -1
  %x.i.i.epil = getelementptr inbounds nuw i32, ptr %v.0, i64 %i.sroa.0.016.i.i.unr
  %y.i.i.epil = getelementptr i32, ptr %end.i, i64 %5
  %6 = load i32, ptr %x.i.i.epil, align 4, !alias.scope !2776, !noalias !2781, !noundef !37
  %7 = load i32, ptr %y.i.i.epil, align 4, !alias.scope !2783, !noalias !2784
  store i32 %7, ptr %x.i.i.epil, align 4, !alias.scope !2776, !noalias !2781
  store i32 %6, ptr %y.i.i.epil, align 4, !alias.scope !2783, !noalias !2784
  br label %bb5

bb5:                                              ; preds = %bb5.i.i.epil, %bb5.loopexit.unr-lcssa, %bb14, %bb3
  %_27 = shl nuw nsw i64 %_0.sroa.0.0.i, 1
  %_26 = or disjoint i64 %_27, 1
  br label %bb12

bb14:                                             ; preds = %bb3
  %half_len2.i = lshr i64 %_0.sroa.0.0.i, 1
  %end.i = getelementptr inbounds nuw i32, ptr %v.0, i64 %_0.sroa.0.0.i
  tail call void @llvm.experimental.noalias.scope.decl(metadata !2784)
  tail call void @llvm.experimental.noalias.scope.decl(metadata !2781)
  %_915.not.i.i = icmp samesign ult i64 %_0.sroa.0.0.i, 2
  br i1 %_915.not.i.i, label %bb5, label %bb5.i.i.preheader

bb5.i.i.preheader:                                ; preds = %bb14
  %8 = icmp eq i64 %half_len2.i, 1
  br i1 %8, label %bb5.loopexit.unr-lcssa, label %bb5.i.i.preheader.new

bb5.i.i.preheader.new:                            ; preds = %bb5.i.i.preheader
  %unroll_iter = and i64 %half_len2.i, 9223372036854775806
  %invariant.gep26 = getelementptr inbounds i8, ptr %v.0, i64 4
  br label %bb5.i.i

bb5.i.i:                                          ; preds = %bb5.i.i, %bb5.i.i.preheader.new
  %i.sroa.0.016.i.i = phi i64 [ 0, %bb5.i.i.preheader.new ], [ %15, %bb5.i.i ]
  %niter = phi i64 [ 0, %bb5.i.i.preheader.new ], [ %niter.next.1, %bb5.i.i ]
  %9 = xor i64 %i.sroa.0.016.i.i, -1
  %x.i.i = getelementptr inbounds nuw i32, ptr %v.0, i64 %i.sroa.0.016.i.i
  %y.i.i = getelementptr i32, ptr %end.i, i64 %9
  %10 = load i32, ptr %x.i.i, align 4, !alias.scope !2776, !noalias !2781, !noundef !37
  %11 = load i32, ptr %y.i.i, align 4, !alias.scope !2783, !noalias !2784
  store i32 %11, ptr %x.i.i, align 4, !alias.scope !2776, !noalias !2781
  store i32 %10, ptr %y.i.i, align 4, !alias.scope !2783, !noalias !2784
  %12 = xor i64 %i.sroa.0.016.i.i, -2
  %gep27 = getelementptr inbounds i32, ptr %invariant.gep26, i64 %i.sroa.0.016.i.i
  %y.i.i.1 = getelementptr i32, ptr %end.i, i64 %12
  %13 = load i32, ptr %gep27, align 4, !alias.scope !2776, !noalias !2781, !noundef !37
  %14 = load i32, ptr %y.i.i.1, align 4, !alias.scope !2783, !noalias !2784
  store i32 %14, ptr %gep27, align 4, !alias.scope !2776, !noalias !2781
  store i32 %13, ptr %y.i.i.1, align 4, !alias.scope !2783, !noalias !2784
  %15 = add nuw nsw i64 %i.sroa.0.016.i.i, 2
  %niter.next.1 = add i64 %niter, 2
  %niter.ncmp.1 = icmp eq i64 %niter.next.1, %unroll_iter
  br i1 %niter.ncmp.1, label %bb5.loopexit.unr-lcssa, label %bb5.i.i
}

; core::slice::sort::stable::drift::create_run
; Function Attrs: nonlazybind uwtable
define noundef range(i64 0, -1) i64 @_ZN4core5slice4sort6stable5drift10create_run17hd33b9f57390fdc8dE(ptr noalias noundef nonnull align 4 %v.0, i64 noundef range(i64 0, 2305843009213693952) %v.1, ptr noalias noundef nonnull align 4 %scratch.0, i64 noundef range(i64 0, 2305843009213693952) %scratch.1, i64 noundef %min_good_run_len, i1 noundef zeroext %eager_sort, ptr noalias noundef align 8 dereferenceable(8) %is_less) unnamed_addr #3 personality ptr @rust_eh_personality {
start:
  %_7.not = icmp ult i64 %v.1, %min_good_run_len
  br i1 %_7.not, label %bb7, label %bb1

bb7:                                              ; preds = %_ZN4core5slice4sort6shared17find_existing_run17h5c3847ec6369ba2cE.exit, %start
  br i1 %eager_sort, label %bb8, label %bb11

bb1:                                              ; preds = %start
  %_4.i = icmp samesign ult i64 %v.1, 2
  br i1 %_4.i, label %_ZN4core5slice4sort6shared17find_existing_run17h5c3847ec6369ba2cE.exit, label %bb2.i

bb2.i:                                            ; preds = %bb1
  %_28.i = getelementptr inbounds nuw i8, ptr %v.0, i64 4
  tail call void @llvm.experimental.noalias.scope.decl(metadata !2785)
  tail call void @llvm.experimental.noalias.scope.decl(metadata !2788)
  tail call void @llvm.experimental.noalias.scope.decl(metadata !2790)
  tail call void @llvm.experimental.noalias.scope.decl(metadata !2793)
  tail call void @llvm.experimental.noalias.scope.decl(metadata !2795)
  tail call void @llvm.experimental.noalias.scope.decl(metadata !2798)
  %_3.i.i.i = load i32, ptr %_28.i, align 4, !alias.scope !2800, !noalias !2801, !noundef !37
  %_4.i.i.i = load i32, ptr %v.0, align 4, !alias.scope !2801, !noalias !2800, !noundef !37
  %_0.i = icmp slt i32 %_3.i.i.i, %_4.i.i.i
  %_10.i13.not = icmp eq i64 %v.1, 2
